

Microchip MPLAB XC8 Assembler V2.50 build 20240725155939 
                                                                                               Wed Jan 15 00:31:58 2025

Microchip MPLAB XC8 C Compiler v2.50 (Free license) build 20240725155939 Og1 
     1                           	processor	18F4520
     2                           	fnconf	rparam,??,?,0
     3                           	pagewidth 120
     4                           	opt	flic
     5                           	psect	mediumconst,global,reloc=2,class=MEDIUMCONST,space=0,delta=1,noexec
     6                           	psect	cinit,global,reloc=2,class=CODE,space=0,delta=1
     7                           	psect	bssBANK0,global,class=BANK0,space=1,delta=1,lowdata,noexec
     8                           	psect	bssBANK1,global,class=BANK1,space=1,delta=1,lowdata,noexec
     9                           	psect	cstackBANK0,global,class=BANK0,space=1,delta=1,lowdata,noexec
    10                           	psect	cstackCOMRAM,global,class=COMRAM,space=1,delta=1,lowdata,noexec
    11                           	psect	text0,global,reloc=2,class=CODE,space=0,delta=1
    12                           	psect	text1,global,reloc=2,class=CODE,space=0,delta=1
    13                           	psect	text2,global,reloc=2,class=CODE,space=0,delta=1
    14                           	psect	text3,global,reloc=2,class=CODE,space=0,delta=1
    15                           	psect	text4,global,reloc=2,class=CODE,space=0,delta=1
    16                           	psect	text5,global,reloc=2,class=CODE,space=0,delta=1
    17                           	psect	text6,global,reloc=2,class=CODE,space=0,delta=1
    18                           	psect	text7,global,reloc=2,class=CODE,space=0,delta=1
    19                           	psect	text8,global,reloc=2,class=CODE,space=0,delta=1
    20                           	psect	text9,global,reloc=2,class=CODE,space=0,delta=1
    21                           	psect	text10,global,reloc=2,class=CODE,space=0,delta=1,group=2
    22                           	psect	text11,global,reloc=2,class=CODE,space=0,delta=1,group=2
    23                           	psect	text12,global,reloc=2,class=CODE,space=0,delta=1,group=2
    24                           	psect	text13,global,reloc=2,class=CODE,space=0,delta=1,group=2
    25                           	psect	text14,global,reloc=2,class=CODE,space=0,delta=1,group=2
    26                           	psect	text15,global,reloc=2,class=CODE,space=0,delta=1,group=1
    27                           	psect	text16,global,reloc=2,class=CODE,space=0,delta=1,group=1
    28                           	psect	text17,global,reloc=2,class=CODE,space=0,delta=1,group=1
    29                           	psect	text18,global,reloc=2,class=CODE,space=0,delta=1,group=1
    30                           	psect	text19,global,reloc=2,class=CODE,space=0,delta=1,group=1
    31                           	psect	text20,global,reloc=2,class=CODE,space=0,delta=1,group=1
    32                           	psect	text21,global,reloc=2,class=CODE,space=0,delta=1,group=1
    33                           	psect	text22,global,reloc=2,class=CODE,space=0,delta=1
    34                           	psect	text23,global,reloc=2,class=CODE,space=0,delta=1
    35                           	psect	text24,global,reloc=2,class=CODE,space=0,delta=1
    36                           	psect	text25,global,reloc=2,class=CODE,space=0,delta=1
    37                           	psect	text26,global,reloc=2,class=CODE,space=0,delta=1
    38                           	psect	text27,global,reloc=2,class=CODE,space=0,delta=1
    39                           	psect	text28,global,reloc=2,class=CODE,space=0,delta=1
    40                           	psect	text29,global,reloc=2,class=CODE,space=0,delta=1
    41                           	psect	intsave_regs,global,class=BIGRAM,space=1,delta=1,noexec
    42                           	psect	rparam,global,class=COMRAM,space=1,delta=1,noexec
    43                           	psect	idloc,global,abs,ovrld,class=IDLOC,space=5,delta=1,noexec
    44                           	psect	config,global,abs,ovrld,class=CONFIG,space=4,delta=1,noexec
    45   000000                     
    46                           ; Generated 25/07/2024 GMT
    47                           ; 
    48                           ; Copyright © 2024, Microchip Technology Inc. and its subsidiaries ("Microchip")
    49                           ; All rights reserved.
    50                           ; 
    51                           ; This software is developed by Microchip Technology Inc. and its subsidiaries ("Microch
      +                          ip").
    52                           ; 
    53                           ; Redistribution and use in source and binary forms, with or without modification, are
    54                           ; permitted provided that the following conditions are met:
    55                           ; 
    56                           ;     1. Redistributions of source code must retain the above copyright notice, this lis
      +                          t of
    57                           ;        conditions and the following disclaimer.
    58                           ; 
    59                           ;     2. Redistributions in binary form must reproduce the above copyright notice, this 
      +                          list
    60                           ;        of conditions and the following disclaimer in the documentation and/or other
    61                           ;        materials provided with the distribution. Publication is not required when
    62                           ;        this file is used in an embedded application.
    63                           ; 
    64                           ;     3. Microchip's name may not be used to endorse or promote products derived from th
      +                          is
    65                           ;        software without specific prior written permission.
    66                           ; 
    67                           ; THIS SOFTWARE IS PROVIDED BY MICROCHIP "AS IS" AND ANY EXPRESS OR IMPLIED WARRANTIES,
    68                           ; INCLUDING, BUT NOT LIMITED TO, THE IMPLIED WARRANTIES OF MERCHANTABILITY AND FITNESS F
      +                          OR
    69                           ; PURPOSE ARE DISCLAIMED.  IN NO EVENT SHALL MICROCHIP BE LIABLE FOR ANY DIRECT, INDIREC
      +                          T,
    70                           ; INCIDENTAL, SPECIAL, EXEMPLARY, OR CONSEQUENTIAL DAMAGES (INCLUDING BUT NOT LIMITED TO
    71                           ; PROCUREMENT OF SUBSTITUTE GOODS OR SERVICES; LOSS OF USE, DATA OR PROFITS; OR BUSINESS
    72                           ; INTERRUPTION) HOWSOEVER CAUSED AND ON ANY THEORY OF LIABILITY, WHETHER IN CONTRACT, ST
      +                          RICT
    73                           ; LIABILITY, OR TORT (INCLUDING NEGLIGENCE OR OTHERWISE) ARISING IN ANY WAY OUT OF THE U
      +                          SE OF
    74                           ; THIS SOFTWARE, EVEN IF ADVISED OF THE POSSIBILITY OF SUCH DAMAGE.
    75                           ; 
    76                           ; 
    77                           ; Code-generator required, PIC18F4520 Definitions
    78                           ; 
    79                           ; SFR Addresses
    80   000FE0                     bsr             equ	4064
    81   000FE9                     fsr0            equ	4073
    82   000FEA                     fsr0h           equ	4074
    83   000FE9                     fsr0l           equ	4073
    84   000FE1                     fsr1            equ	4065
    85   000FE2                     fsr1h           equ	4066
    86   000FE1                     fsr1l           equ	4065
    87   000FD9                     fsr2            equ	4057
    88   000FDA                     fsr2h           equ	4058
    89   000FD9                     fsr2l           equ	4057
    90   000FEF                     indf0           equ	4079
    91   000FE7                     indf1           equ	4071
    92   000FDF                     indf2           equ	4063
    93   000FF2                     intcon          equ	4082
    94   000000                     nvmcon          equ	0
    95   000FF9                     pcl             equ	4089
    96   000FFA                     pclath          equ	4090
    97   000FFB                     pclatu          equ	4091
    98   000FEB                     plusw0          equ	4075
    99   000FE3                     plusw1          equ	4067
   100   000FDB                     plusw2          equ	4059
   101   000FED                     postdec0        equ	4077
   102   000FE5                     postdec1        equ	4069
   103   000FDD                     postdec2        equ	4061
   104   000FEE                     postinc0        equ	4078
   105   000FE6                     postinc1        equ	4070
   106   000FDE                     postinc2        equ	4062
   107   000FEC                     preinc0         equ	4076
   108   000FE4                     preinc1         equ	4068
   109   000FDC                     preinc2         equ	4060
   110   000FF3                     prod            equ	4083
   111   000FF4                     prodh           equ	4084
   112   000FF3                     prodl           equ	4083
   113   000FD8                     status          equ	4056
   114   000FF5                     tablat          equ	4085
   115   000FF6                     tblptr          equ	4086
   116   000FF7                     tblptrh         equ	4087
   117   000FF6                     tblptrl         equ	4086
   118   000FF8                     tblptru         equ	4088
   119   000FFD                     tosl            equ	4093
   120   000FE8                     wreg            equ	4072
   121   000F80                     PORTA           equ	3968	;# 
   122   000F81                     PORTB           equ	3969	;# 
   123   000F82                     PORTC           equ	3970	;# 
   124   000F83                     PORTD           equ	3971	;# 
   125   000F84                     PORTE           equ	3972	;# 
   126   000F89                     LATA            equ	3977	;# 
   127   000F8A                     LATB            equ	3978	;# 
   128   000F8B                     LATC            equ	3979	;# 
   129   000F8C                     LATD            equ	3980	;# 
   130   000F8D                     LATE            equ	3981	;# 
   131   000F92                     TRISA           equ	3986	;# 
   132   000F92                     DDRA            equ	3986	;# 
   133   000F93                     TRISB           equ	3987	;# 
   134   000F93                     DDRB            equ	3987	;# 
   135   000F94                     TRISC           equ	3988	;# 
   136   000F94                     DDRC            equ	3988	;# 
   137   000F95                     TRISD           equ	3989	;# 
   138   000F95                     DDRD            equ	3989	;# 
   139   000F96                     TRISE           equ	3990	;# 
   140   000F96                     DDRE            equ	3990	;# 
   141   000F9B                     OSCTUNE         equ	3995	;# 
   142   000F9D                     PIE1            equ	3997	;# 
   143   000F9E                     PIR1            equ	3998	;# 
   144   000F9F                     IPR1            equ	3999	;# 
   145   000FA0                     PIE2            equ	4000	;# 
   146   000FA1                     PIR2            equ	4001	;# 
   147   000FA2                     IPR2            equ	4002	;# 
   148   000FA6                     EECON1          equ	4006	;# 
   149   000FA7                     EECON2          equ	4007	;# 
   150   000FA8                     EEDATA          equ	4008	;# 
   151   000FA9                     EEADR           equ	4009	;# 
   152   000FAB                     RCSTA           equ	4011	;# 
   153   000FAB                     RCSTA1          equ	4011	;# 
   154   000FAC                     TXSTA           equ	4012	;# 
   155   000FAC                     TXSTA1          equ	4012	;# 
   156   000FAD                     TXREG           equ	4013	;# 
   157   000FAD                     TXREG1          equ	4013	;# 
   158   000FAE                     RCREG           equ	4014	;# 
   159   000FAE                     RCREG1          equ	4014	;# 
   160   000FAF                     SPBRG           equ	4015	;# 
   161   000FAF                     SPBRG1          equ	4015	;# 
   162   000FB0                     SPBRGH          equ	4016	;# 
   163   000FB1                     T3CON           equ	4017	;# 
   164   000FB2                     TMR3            equ	4018	;# 
   165   000FB2                     TMR3L           equ	4018	;# 
   166   000FB3                     TMR3H           equ	4019	;# 
   167   000FB4                     CMCON           equ	4020	;# 
   168   000FB5                     CVRCON          equ	4021	;# 
   169   000FB6                     ECCP1AS         equ	4022	;# 
   170   000FB6                     ECCPAS          equ	4022	;# 
   171   000FB7                     PWM1CON         equ	4023	;# 
   172   000FB7                     ECCP1DEL        equ	4023	;# 
   173   000FB8                     BAUDCON         equ	4024	;# 
   174   000FB8                     BAUDCTL         equ	4024	;# 
   175   000FBA                     CCP2CON         equ	4026	;# 
   176   000FBB                     CCPR2           equ	4027	;# 
   177   000FBB                     CCPR2L          equ	4027	;# 
   178   000FBC                     CCPR2H          equ	4028	;# 
   179   000FBD                     CCP1CON         equ	4029	;# 
   180   000FBE                     CCPR1           equ	4030	;# 
   181   000FBE                     CCPR1L          equ	4030	;# 
   182   000FBF                     CCPR1H          equ	4031	;# 
   183   000FC0                     ADCON2          equ	4032	;# 
   184   000FC1                     ADCON1          equ	4033	;# 
   185   000FC2                     ADCON0          equ	4034	;# 
   186   000FC3                     ADRES           equ	4035	;# 
   187   000FC3                     ADRESL          equ	4035	;# 
   188   000FC4                     ADRESH          equ	4036	;# 
   189   000FC5                     SSPCON2         equ	4037	;# 
   190   000FC6                     SSPCON1         equ	4038	;# 
   191   000FC7                     SSPSTAT         equ	4039	;# 
   192   000FC8                     SSPADD          equ	4040	;# 
   193   000FC9                     SSPBUF          equ	4041	;# 
   194   000FCA                     T2CON           equ	4042	;# 
   195   000FCB                     PR2             equ	4043	;# 
   196   000FCB                     MEMCON          equ	4043	;# 
   197   000FCC                     TMR2            equ	4044	;# 
   198   000FCD                     T1CON           equ	4045	;# 
   199   000FCE                     TMR1            equ	4046	;# 
   200   000FCE                     TMR1L           equ	4046	;# 
   201   000FCF                     TMR1H           equ	4047	;# 
   202   000FD0                     RCON            equ	4048	;# 
   203   000FD1                     WDTCON          equ	4049	;# 
   204   000FD2                     HLVDCON         equ	4050	;# 
   205   000FD2                     LVDCON          equ	4050	;# 
   206   000FD3                     OSCCON          equ	4051	;# 
   207   000FD5                     T0CON           equ	4053	;# 
   208   000FD6                     TMR0            equ	4054	;# 
   209   000FD6                     TMR0L           equ	4054	;# 
   210   000FD7                     TMR0H           equ	4055	;# 
   211   000FD8                     STATUS          equ	4056	;# 
   212   000FD9                     FSR2            equ	4057	;# 
   213   000FD9                     FSR2L           equ	4057	;# 
   214   000FDA                     FSR2H           equ	4058	;# 
   215   000FDB                     PLUSW2          equ	4059	;# 
   216   000FDC                     PREINC2         equ	4060	;# 
   217   000FDD                     POSTDEC2        equ	4061	;# 
   218   000FDE                     POSTINC2        equ	4062	;# 
   219   000FDF                     INDF2           equ	4063	;# 
   220   000FE0                     BSR             equ	4064	;# 
   221   000FE1                     FSR1            equ	4065	;# 
   222   000FE1                     FSR1L           equ	4065	;# 
   223   000FE2                     FSR1H           equ	4066	;# 
   224   000FE3                     PLUSW1          equ	4067	;# 
   225   000FE4                     PREINC1         equ	4068	;# 
   226   000FE5                     POSTDEC1        equ	4069	;# 
   227   000FE6                     POSTINC1        equ	4070	;# 
   228   000FE7                     INDF1           equ	4071	;# 
   229   000FE8                     WREG            equ	4072	;# 
   230   000FE9                     FSR0            equ	4073	;# 
   231   000FE9                     FSR0L           equ	4073	;# 
   232   000FEA                     FSR0H           equ	4074	;# 
   233   000FEB                     PLUSW0          equ	4075	;# 
   234   000FEC                     PREINC0         equ	4076	;# 
   235   000FED                     POSTDEC0        equ	4077	;# 
   236   000FEE                     POSTINC0        equ	4078	;# 
   237   000FEF                     INDF0           equ	4079	;# 
   238   000FF0                     INTCON3         equ	4080	;# 
   239   000FF1                     INTCON2         equ	4081	;# 
   240   000FF2                     INTCON          equ	4082	;# 
   241   000FF3                     PROD            equ	4083	;# 
   242   000FF3                     PRODL           equ	4083	;# 
   243   000FF4                     PRODH           equ	4084	;# 
   244   000FF5                     TABLAT          equ	4085	;# 
   245   000FF6                     TBLPTR          equ	4086	;# 
   246   000FF6                     TBLPTRL         equ	4086	;# 
   247   000FF7                     TBLPTRH         equ	4087	;# 
   248   000FF8                     TBLPTRU         equ	4088	;# 
   249   000FF9                     PCLAT           equ	4089	;# 
   250   000FF9                     PC              equ	4089	;# 
   251   000FF9                     PCL             equ	4089	;# 
   252   000FFA                     PCLATH          equ	4090	;# 
   253   000FFB                     PCLATU          equ	4091	;# 
   254   000FFC                     STKPTR          equ	4092	;# 
   255   000FFD                     TOS             equ	4093	;# 
   256   000FFD                     TOSL            equ	4093	;# 
   257   000FFE                     TOSH            equ	4094	;# 
   258   000FFF                     TOSU            equ	4095	;# 
   259   000F80                     PORTA           equ	3968	;# 
   260   000F81                     PORTB           equ	3969	;# 
   261   000F82                     PORTC           equ	3970	;# 
   262   000F83                     PORTD           equ	3971	;# 
   263   000F84                     PORTE           equ	3972	;# 
   264   000F89                     LATA            equ	3977	;# 
   265   000F8A                     LATB            equ	3978	;# 
   266   000F8B                     LATC            equ	3979	;# 
   267   000F8C                     LATD            equ	3980	;# 
   268   000F8D                     LATE            equ	3981	;# 
   269   000F92                     TRISA           equ	3986	;# 
   270   000F92                     DDRA            equ	3986	;# 
   271   000F93                     TRISB           equ	3987	;# 
   272   000F93                     DDRB            equ	3987	;# 
   273   000F94                     TRISC           equ	3988	;# 
   274   000F94                     DDRC            equ	3988	;# 
   275   000F95                     TRISD           equ	3989	;# 
   276   000F95                     DDRD            equ	3989	;# 
   277   000F96                     TRISE           equ	3990	;# 
   278   000F96                     DDRE            equ	3990	;# 
   279   000F9B                     OSCTUNE         equ	3995	;# 
   280   000F9D                     PIE1            equ	3997	;# 
   281   000F9E                     PIR1            equ	3998	;# 
   282   000F9F                     IPR1            equ	3999	;# 
   283   000FA0                     PIE2            equ	4000	;# 
   284   000FA1                     PIR2            equ	4001	;# 
   285   000FA2                     IPR2            equ	4002	;# 
   286   000FA6                     EECON1          equ	4006	;# 
   287   000FA7                     EECON2          equ	4007	;# 
   288   000FA8                     EEDATA          equ	4008	;# 
   289   000FA9                     EEADR           equ	4009	;# 
   290   000FAB                     RCSTA           equ	4011	;# 
   291   000FAB                     RCSTA1          equ	4011	;# 
   292   000FAC                     TXSTA           equ	4012	;# 
   293   000FAC                     TXSTA1          equ	4012	;# 
   294   000FAD                     TXREG           equ	4013	;# 
   295   000FAD                     TXREG1          equ	4013	;# 
   296   000FAE                     RCREG           equ	4014	;# 
   297   000FAE                     RCREG1          equ	4014	;# 
   298   000FAF                     SPBRG           equ	4015	;# 
   299   000FAF                     SPBRG1          equ	4015	;# 
   300   000FB0                     SPBRGH          equ	4016	;# 
   301   000FB1                     T3CON           equ	4017	;# 
   302   000FB2                     TMR3            equ	4018	;# 
   303   000FB2                     TMR3L           equ	4018	;# 
   304   000FB3                     TMR3H           equ	4019	;# 
   305   000FB4                     CMCON           equ	4020	;# 
   306   000FB5                     CVRCON          equ	4021	;# 
   307   000FB6                     ECCP1AS         equ	4022	;# 
   308   000FB6                     ECCPAS          equ	4022	;# 
   309   000FB7                     PWM1CON         equ	4023	;# 
   310   000FB7                     ECCP1DEL        equ	4023	;# 
   311   000FB8                     BAUDCON         equ	4024	;# 
   312   000FB8                     BAUDCTL         equ	4024	;# 
   313   000FBA                     CCP2CON         equ	4026	;# 
   314   000FBB                     CCPR2           equ	4027	;# 
   315   000FBB                     CCPR2L          equ	4027	;# 
   316   000FBC                     CCPR2H          equ	4028	;# 
   317   000FBD                     CCP1CON         equ	4029	;# 
   318   000FBE                     CCPR1           equ	4030	;# 
   319   000FBE                     CCPR1L          equ	4030	;# 
   320   000FBF                     CCPR1H          equ	4031	;# 
   321   000FC0                     ADCON2          equ	4032	;# 
   322   000FC1                     ADCON1          equ	4033	;# 
   323   000FC2                     ADCON0          equ	4034	;# 
   324   000FC3                     ADRES           equ	4035	;# 
   325   000FC3                     ADRESL          equ	4035	;# 
   326   000FC4                     ADRESH          equ	4036	;# 
   327   000FC5                     SSPCON2         equ	4037	;# 
   328   000FC6                     SSPCON1         equ	4038	;# 
   329   000FC7                     SSPSTAT         equ	4039	;# 
   330   000FC8                     SSPADD          equ	4040	;# 
   331   000FC9                     SSPBUF          equ	4041	;# 
   332   000FCA                     T2CON           equ	4042	;# 
   333   000FCB                     PR2             equ	4043	;# 
   334   000FCB                     MEMCON          equ	4043	;# 
   335   000FCC                     TMR2            equ	4044	;# 
   336   000FCD                     T1CON           equ	4045	;# 
   337   000FCE                     TMR1            equ	4046	;# 
   338   000FCE                     TMR1L           equ	4046	;# 
   339   000FCF                     TMR1H           equ	4047	;# 
   340   000FD0                     RCON            equ	4048	;# 
   341   000FD1                     WDTCON          equ	4049	;# 
   342   000FD2                     HLVDCON         equ	4050	;# 
   343   000FD2                     LVDCON          equ	4050	;# 
   344   000FD3                     OSCCON          equ	4051	;# 
   345   000FD5                     T0CON           equ	4053	;# 
   346   000FD6                     TMR0            equ	4054	;# 
   347   000FD6                     TMR0L           equ	4054	;# 
   348   000FD7                     TMR0H           equ	4055	;# 
   349   000FD8                     STATUS          equ	4056	;# 
   350   000FD9                     FSR2            equ	4057	;# 
   351   000FD9                     FSR2L           equ	4057	;# 
   352   000FDA                     FSR2H           equ	4058	;# 
   353   000FDB                     PLUSW2          equ	4059	;# 
   354   000FDC                     PREINC2         equ	4060	;# 
   355   000FDD                     POSTDEC2        equ	4061	;# 
   356   000FDE                     POSTINC2        equ	4062	;# 
   357   000FDF                     INDF2           equ	4063	;# 
   358   000FE0                     BSR             equ	4064	;# 
   359   000FE1                     FSR1            equ	4065	;# 
   360   000FE1                     FSR1L           equ	4065	;# 
   361   000FE2                     FSR1H           equ	4066	;# 
   362   000FE3                     PLUSW1          equ	4067	;# 
   363   000FE4                     PREINC1         equ	4068	;# 
   364   000FE5                     POSTDEC1        equ	4069	;# 
   365   000FE6                     POSTINC1        equ	4070	;# 
   366   000FE7                     INDF1           equ	4071	;# 
   367   000FE8                     WREG            equ	4072	;# 
   368   000FE9                     FSR0            equ	4073	;# 
   369   000FE9                     FSR0L           equ	4073	;# 
   370   000FEA                     FSR0H           equ	4074	;# 
   371   000FEB                     PLUSW0          equ	4075	;# 
   372   000FEC                     PREINC0         equ	4076	;# 
   373   000FED                     POSTDEC0        equ	4077	;# 
   374   000FEE                     POSTINC0        equ	4078	;# 
   375   000FEF                     INDF0           equ	4079	;# 
   376   000FF0                     INTCON3         equ	4080	;# 
   377   000FF1                     INTCON2         equ	4081	;# 
   378   000FF2                     INTCON          equ	4082	;# 
   379   000FF3                     PROD            equ	4083	;# 
   380   000FF3                     PRODL           equ	4083	;# 
   381   000FF4                     PRODH           equ	4084	;# 
   382   000FF5                     TABLAT          equ	4085	;# 
   383   000FF6                     TBLPTR          equ	4086	;# 
   384   000FF6                     TBLPTRL         equ	4086	;# 
   385   000FF7                     TBLPTRH         equ	4087	;# 
   386   000FF8                     TBLPTRU         equ	4088	;# 
   387   000FF9                     PCLAT           equ	4089	;# 
   388   000FF9                     PC              equ	4089	;# 
   389   000FF9                     PCL             equ	4089	;# 
   390   000FFA                     PCLATH          equ	4090	;# 
   391   000FFB                     PCLATU          equ	4091	;# 
   392   000FFC                     STKPTR          equ	4092	;# 
   393   000FFD                     TOS             equ	4093	;# 
   394   000FFD                     TOSL            equ	4093	;# 
   395   000FFE                     TOSH            equ	4094	;# 
   396   000FFF                     TOSU            equ	4095	;# 
   397   000F80                     PORTA           equ	3968	;# 
   398   000F81                     PORTB           equ	3969	;# 
   399   000F82                     PORTC           equ	3970	;# 
   400   000F83                     PORTD           equ	3971	;# 
   401   000F84                     PORTE           equ	3972	;# 
   402   000F89                     LATA            equ	3977	;# 
   403   000F8A                     LATB            equ	3978	;# 
   404   000F8B                     LATC            equ	3979	;# 
   405   000F8C                     LATD            equ	3980	;# 
   406   000F8D                     LATE            equ	3981	;# 
   407   000F92                     TRISA           equ	3986	;# 
   408   000F92                     DDRA            equ	3986	;# 
   409   000F93                     TRISB           equ	3987	;# 
   410   000F93                     DDRB            equ	3987	;# 
   411   000F94                     TRISC           equ	3988	;# 
   412   000F94                     DDRC            equ	3988	;# 
   413   000F95                     TRISD           equ	3989	;# 
   414   000F95                     DDRD            equ	3989	;# 
   415   000F96                     TRISE           equ	3990	;# 
   416   000F96                     DDRE            equ	3990	;# 
   417   000F9B                     OSCTUNE         equ	3995	;# 
   418   000F9D                     PIE1            equ	3997	;# 
   419   000F9E                     PIR1            equ	3998	;# 
   420   000F9F                     IPR1            equ	3999	;# 
   421   000FA0                     PIE2            equ	4000	;# 
   422   000FA1                     PIR2            equ	4001	;# 
   423   000FA2                     IPR2            equ	4002	;# 
   424   000FA6                     EECON1          equ	4006	;# 
   425   000FA7                     EECON2          equ	4007	;# 
   426   000FA8                     EEDATA          equ	4008	;# 
   427   000FA9                     EEADR           equ	4009	;# 
   428   000FAB                     RCSTA           equ	4011	;# 
   429   000FAB                     RCSTA1          equ	4011	;# 
   430   000FAC                     TXSTA           equ	4012	;# 
   431   000FAC                     TXSTA1          equ	4012	;# 
   432   000FAD                     TXREG           equ	4013	;# 
   433   000FAD                     TXREG1          equ	4013	;# 
   434   000FAE                     RCREG           equ	4014	;# 
   435   000FAE                     RCREG1          equ	4014	;# 
   436   000FAF                     SPBRG           equ	4015	;# 
   437   000FAF                     SPBRG1          equ	4015	;# 
   438   000FB0                     SPBRGH          equ	4016	;# 
   439   000FB1                     T3CON           equ	4017	;# 
   440   000FB2                     TMR3            equ	4018	;# 
   441   000FB2                     TMR3L           equ	4018	;# 
   442   000FB3                     TMR3H           equ	4019	;# 
   443   000FB4                     CMCON           equ	4020	;# 
   444   000FB5                     CVRCON          equ	4021	;# 
   445   000FB6                     ECCP1AS         equ	4022	;# 
   446   000FB6                     ECCPAS          equ	4022	;# 
   447   000FB7                     PWM1CON         equ	4023	;# 
   448   000FB7                     ECCP1DEL        equ	4023	;# 
   449   000FB8                     BAUDCON         equ	4024	;# 
   450   000FB8                     BAUDCTL         equ	4024	;# 
   451   000FBA                     CCP2CON         equ	4026	;# 
   452   000FBB                     CCPR2           equ	4027	;# 
   453   000FBB                     CCPR2L          equ	4027	;# 
   454   000FBC                     CCPR2H          equ	4028	;# 
   455   000FBD                     CCP1CON         equ	4029	;# 
   456   000FBE                     CCPR1           equ	4030	;# 
   457   000FBE                     CCPR1L          equ	4030	;# 
   458   000FBF                     CCPR1H          equ	4031	;# 
   459   000FC0                     ADCON2          equ	4032	;# 
   460   000FC1                     ADCON1          equ	4033	;# 
   461   000FC2                     ADCON0          equ	4034	;# 
   462   000FC3                     ADRES           equ	4035	;# 
   463   000FC3                     ADRESL          equ	4035	;# 
   464   000FC4                     ADRESH          equ	4036	;# 
   465   000FC5                     SSPCON2         equ	4037	;# 
   466   000FC6                     SSPCON1         equ	4038	;# 
   467   000FC7                     SSPSTAT         equ	4039	;# 
   468   000FC8                     SSPADD          equ	4040	;# 
   469   000FC9                     SSPBUF          equ	4041	;# 
   470   000FCA                     T2CON           equ	4042	;# 
   471   000FCB                     PR2             equ	4043	;# 
   472   000FCB                     MEMCON          equ	4043	;# 
   473   000FCC                     TMR2            equ	4044	;# 
   474   000FCD                     T1CON           equ	4045	;# 
   475   000FCE                     TMR1            equ	4046	;# 
   476   000FCE                     TMR1L           equ	4046	;# 
   477   000FCF                     TMR1H           equ	4047	;# 
   478   000FD0                     RCON            equ	4048	;# 
   479   000FD1                     WDTCON          equ	4049	;# 
   480   000FD2                     HLVDCON         equ	4050	;# 
   481   000FD2                     LVDCON          equ	4050	;# 
   482   000FD3                     OSCCON          equ	4051	;# 
   483   000FD5                     T0CON           equ	4053	;# 
   484   000FD6                     TMR0            equ	4054	;# 
   485   000FD6                     TMR0L           equ	4054	;# 
   486   000FD7                     TMR0H           equ	4055	;# 
   487   000FD8                     STATUS          equ	4056	;# 
   488   000FD9                     FSR2            equ	4057	;# 
   489   000FD9                     FSR2L           equ	4057	;# 
   490   000FDA                     FSR2H           equ	4058	;# 
   491   000FDB                     PLUSW2          equ	4059	;# 
   492   000FDC                     PREINC2         equ	4060	;# 
   493   000FDD                     POSTDEC2        equ	4061	;# 
   494   000FDE                     POSTINC2        equ	4062	;# 
   495   000FDF                     INDF2           equ	4063	;# 
   496   000FE0                     BSR             equ	4064	;# 
   497   000FE1                     FSR1            equ	4065	;# 
   498   000FE1                     FSR1L           equ	4065	;# 
   499   000FE2                     FSR1H           equ	4066	;# 
   500   000FE3                     PLUSW1          equ	4067	;# 
   501   000FE4                     PREINC1         equ	4068	;# 
   502   000FE5                     POSTDEC1        equ	4069	;# 
   503   000FE6                     POSTINC1        equ	4070	;# 
   504   000FE7                     INDF1           equ	4071	;# 
   505   000FE8                     WREG            equ	4072	;# 
   506   000FE9                     FSR0            equ	4073	;# 
   507   000FE9                     FSR0L           equ	4073	;# 
   508   000FEA                     FSR0H           equ	4074	;# 
   509   000FEB                     PLUSW0          equ	4075	;# 
   510   000FEC                     PREINC0         equ	4076	;# 
   511   000FED                     POSTDEC0        equ	4077	;# 
   512   000FEE                     POSTINC0        equ	4078	;# 
   513   000FEF                     INDF0           equ	4079	;# 
   514   000FF0                     INTCON3         equ	4080	;# 
   515   000FF1                     INTCON2         equ	4081	;# 
   516   000FF2                     INTCON          equ	4082	;# 
   517   000FF3                     PROD            equ	4083	;# 
   518   000FF3                     PRODL           equ	4083	;# 
   519   000FF4                     PRODH           equ	4084	;# 
   520   000FF5                     TABLAT          equ	4085	;# 
   521   000FF6                     TBLPTR          equ	4086	;# 
   522   000FF6                     TBLPTRL         equ	4086	;# 
   523   000FF7                     TBLPTRH         equ	4087	;# 
   524   000FF8                     TBLPTRU         equ	4088	;# 
   525   000FF9                     PCLAT           equ	4089	;# 
   526   000FF9                     PC              equ	4089	;# 
   527   000FF9                     PCL             equ	4089	;# 
   528   000FFA                     PCLATH          equ	4090	;# 
   529   000FFB                     PCLATU          equ	4091	;# 
   530   000FFC                     STKPTR          equ	4092	;# 
   531   000FFD                     TOS             equ	4093	;# 
   532   000FFD                     TOSL            equ	4093	;# 
   533   000FFE                     TOSH            equ	4094	;# 
   534   000FFF                     TOSU            equ	4095	;# 
   535   000F80                     PORTA           equ	3968	;# 
   536   000F81                     PORTB           equ	3969	;# 
   537   000F82                     PORTC           equ	3970	;# 
   538   000F83                     PORTD           equ	3971	;# 
   539   000F84                     PORTE           equ	3972	;# 
   540   000F89                     LATA            equ	3977	;# 
   541   000F8A                     LATB            equ	3978	;# 
   542   000F8B                     LATC            equ	3979	;# 
   543   000F8C                     LATD            equ	3980	;# 
   544   000F8D                     LATE            equ	3981	;# 
   545   000F92                     TRISA           equ	3986	;# 
   546   000F92                     DDRA            equ	3986	;# 
   547   000F93                     TRISB           equ	3987	;# 
   548   000F93                     DDRB            equ	3987	;# 
   549   000F94                     TRISC           equ	3988	;# 
   550   000F94                     DDRC            equ	3988	;# 
   551   000F95                     TRISD           equ	3989	;# 
   552   000F95                     DDRD            equ	3989	;# 
   553   000F96                     TRISE           equ	3990	;# 
   554   000F96                     DDRE            equ	3990	;# 
   555   000F9B                     OSCTUNE         equ	3995	;# 
   556   000F9D                     PIE1            equ	3997	;# 
   557   000F9E                     PIR1            equ	3998	;# 
   558   000F9F                     IPR1            equ	3999	;# 
   559   000FA0                     PIE2            equ	4000	;# 
   560   000FA1                     PIR2            equ	4001	;# 
   561   000FA2                     IPR2            equ	4002	;# 
   562   000FA6                     EECON1          equ	4006	;# 
   563   000FA7                     EECON2          equ	4007	;# 
   564   000FA8                     EEDATA          equ	4008	;# 
   565   000FA9                     EEADR           equ	4009	;# 
   566   000FAB                     RCSTA           equ	4011	;# 
   567   000FAB                     RCSTA1          equ	4011	;# 
   568   000FAC                     TXSTA           equ	4012	;# 
   569   000FAC                     TXSTA1          equ	4012	;# 
   570   000FAD                     TXREG           equ	4013	;# 
   571   000FAD                     TXREG1          equ	4013	;# 
   572   000FAE                     RCREG           equ	4014	;# 
   573   000FAE                     RCREG1          equ	4014	;# 
   574   000FAF                     SPBRG           equ	4015	;# 
   575   000FAF                     SPBRG1          equ	4015	;# 
   576   000FB0                     SPBRGH          equ	4016	;# 
   577   000FB1                     T3CON           equ	4017	;# 
   578   000FB2                     TMR3            equ	4018	;# 
   579   000FB2                     TMR3L           equ	4018	;# 
   580   000FB3                     TMR3H           equ	4019	;# 
   581   000FB4                     CMCON           equ	4020	;# 
   582   000FB5                     CVRCON          equ	4021	;# 
   583   000FB6                     ECCP1AS         equ	4022	;# 
   584   000FB6                     ECCPAS          equ	4022	;# 
   585   000FB7                     PWM1CON         equ	4023	;# 
   586   000FB7                     ECCP1DEL        equ	4023	;# 
   587   000FB8                     BAUDCON         equ	4024	;# 
   588   000FB8                     BAUDCTL         equ	4024	;# 
   589   000FBA                     CCP2CON         equ	4026	;# 
   590   000FBB                     CCPR2           equ	4027	;# 
   591   000FBB                     CCPR2L          equ	4027	;# 
   592   000FBC                     CCPR2H          equ	4028	;# 
   593   000FBD                     CCP1CON         equ	4029	;# 
   594   000FBE                     CCPR1           equ	4030	;# 
   595   000FBE                     CCPR1L          equ	4030	;# 
   596   000FBF                     CCPR1H          equ	4031	;# 
   597   000FC0                     ADCON2          equ	4032	;# 
   598   000FC1                     ADCON1          equ	4033	;# 
   599   000FC2                     ADCON0          equ	4034	;# 
   600   000FC3                     ADRES           equ	4035	;# 
   601   000FC3                     ADRESL          equ	4035	;# 
   602   000FC4                     ADRESH          equ	4036	;# 
   603   000FC5                     SSPCON2         equ	4037	;# 
   604   000FC6                     SSPCON1         equ	4038	;# 
   605   000FC7                     SSPSTAT         equ	4039	;# 
   606   000FC8                     SSPADD          equ	4040	;# 
   607   000FC9                     SSPBUF          equ	4041	;# 
   608   000FCA                     T2CON           equ	4042	;# 
   609   000FCB                     PR2             equ	4043	;# 
   610   000FCB                     MEMCON          equ	4043	;# 
   611   000FCC                     TMR2            equ	4044	;# 
   612   000FCD                     T1CON           equ	4045	;# 
   613   000FCE                     TMR1            equ	4046	;# 
   614   000FCE                     TMR1L           equ	4046	;# 
   615   000FCF                     TMR1H           equ	4047	;# 
   616   000FD0                     RCON            equ	4048	;# 
   617   000FD1                     WDTCON          equ	4049	;# 
   618   000FD2                     HLVDCON         equ	4050	;# 
   619   000FD2                     LVDCON          equ	4050	;# 
   620   000FD3                     OSCCON          equ	4051	;# 
   621   000FD5                     T0CON           equ	4053	;# 
   622   000FD6                     TMR0            equ	4054	;# 
   623   000FD6                     TMR0L           equ	4054	;# 
   624   000FD7                     TMR0H           equ	4055	;# 
   625   000FD8                     STATUS          equ	4056	;# 
   626   000FD9                     FSR2            equ	4057	;# 
   627   000FD9                     FSR2L           equ	4057	;# 
   628   000FDA                     FSR2H           equ	4058	;# 
   629   000FDB                     PLUSW2          equ	4059	;# 
   630   000FDC                     PREINC2         equ	4060	;# 
   631   000FDD                     POSTDEC2        equ	4061	;# 
   632   000FDE                     POSTINC2        equ	4062	;# 
   633   000FDF                     INDF2           equ	4063	;# 
   634   000FE0                     BSR             equ	4064	;# 
   635   000FE1                     FSR1            equ	4065	;# 
   636   000FE1                     FSR1L           equ	4065	;# 
   637   000FE2                     FSR1H           equ	4066	;# 
   638   000FE3                     PLUSW1          equ	4067	;# 
   639   000FE4                     PREINC1         equ	4068	;# 
   640   000FE5                     POSTDEC1        equ	4069	;# 
   641   000FE6                     POSTINC1        equ	4070	;# 
   642   000FE7                     INDF1           equ	4071	;# 
   643   000FE8                     WREG            equ	4072	;# 
   644   000FE9                     FSR0            equ	4073	;# 
   645   000FE9                     FSR0L           equ	4073	;# 
   646   000FEA                     FSR0H           equ	4074	;# 
   647   000FEB                     PLUSW0          equ	4075	;# 
   648   000FEC                     PREINC0         equ	4076	;# 
   649   000FED                     POSTDEC0        equ	4077	;# 
   650   000FEE                     POSTINC0        equ	4078	;# 
   651   000FEF                     INDF0           equ	4079	;# 
   652   000FF0                     INTCON3         equ	4080	;# 
   653   000FF1                     INTCON2         equ	4081	;# 
   654   000FF2                     INTCON          equ	4082	;# 
   655   000FF3                     PROD            equ	4083	;# 
   656   000FF3                     PRODL           equ	4083	;# 
   657   000FF4                     PRODH           equ	4084	;# 
   658   000FF5                     TABLAT          equ	4085	;# 
   659   000FF6                     TBLPTR          equ	4086	;# 
   660   000FF6                     TBLPTRL         equ	4086	;# 
   661   000FF7                     TBLPTRH         equ	4087	;# 
   662   000FF8                     TBLPTRU         equ	4088	;# 
   663   000FF9                     PCLAT           equ	4089	;# 
   664   000FF9                     PC              equ	4089	;# 
   665   000FF9                     PCL             equ	4089	;# 
   666   000FFA                     PCLATH          equ	4090	;# 
   667   000FFB                     PCLATU          equ	4091	;# 
   668   000FFC                     STKPTR          equ	4092	;# 
   669   000FFD                     TOS             equ	4093	;# 
   670   000FFD                     TOSL            equ	4093	;# 
   671   000FFE                     TOSH            equ	4094	;# 
   672   000FFF                     TOSU            equ	4095	;# 
   673   000F80                     PORTA           equ	3968	;# 
   674   000F81                     PORTB           equ	3969	;# 
   675   000F82                     PORTC           equ	3970	;# 
   676   000F83                     PORTD           equ	3971	;# 
   677   000F84                     PORTE           equ	3972	;# 
   678   000F89                     LATA            equ	3977	;# 
   679   000F8A                     LATB            equ	3978	;# 
   680   000F8B                     LATC            equ	3979	;# 
   681   000F8C                     LATD            equ	3980	;# 
   682   000F8D                     LATE            equ	3981	;# 
   683   000F92                     TRISA           equ	3986	;# 
   684   000F92                     DDRA            equ	3986	;# 
   685   000F93                     TRISB           equ	3987	;# 
   686   000F93                     DDRB            equ	3987	;# 
   687   000F94                     TRISC           equ	3988	;# 
   688   000F94                     DDRC            equ	3988	;# 
   689   000F95                     TRISD           equ	3989	;# 
   690   000F95                     DDRD            equ	3989	;# 
   691   000F96                     TRISE           equ	3990	;# 
   692   000F96                     DDRE            equ	3990	;# 
   693   000F9B                     OSCTUNE         equ	3995	;# 
   694   000F9D                     PIE1            equ	3997	;# 
   695   000F9E                     PIR1            equ	3998	;# 
   696   000F9F                     IPR1            equ	3999	;# 
   697   000FA0                     PIE2            equ	4000	;# 
   698   000FA1                     PIR2            equ	4001	;# 
   699   000FA2                     IPR2            equ	4002	;# 
   700   000FA6                     EECON1          equ	4006	;# 
   701   000FA7                     EECON2          equ	4007	;# 
   702   000FA8                     EEDATA          equ	4008	;# 
   703   000FA9                     EEADR           equ	4009	;# 
   704   000FAB                     RCSTA           equ	4011	;# 
   705   000FAB                     RCSTA1          equ	4011	;# 
   706   000FAC                     TXSTA           equ	4012	;# 
   707   000FAC                     TXSTA1          equ	4012	;# 
   708   000FAD                     TXREG           equ	4013	;# 
   709   000FAD                     TXREG1          equ	4013	;# 
   710   000FAE                     RCREG           equ	4014	;# 
   711   000FAE                     RCREG1          equ	4014	;# 
   712   000FAF                     SPBRG           equ	4015	;# 
   713   000FAF                     SPBRG1          equ	4015	;# 
   714   000FB0                     SPBRGH          equ	4016	;# 
   715   000FB1                     T3CON           equ	4017	;# 
   716   000FB2                     TMR3            equ	4018	;# 
   717   000FB2                     TMR3L           equ	4018	;# 
   718   000FB3                     TMR3H           equ	4019	;# 
   719   000FB4                     CMCON           equ	4020	;# 
   720   000FB5                     CVRCON          equ	4021	;# 
   721   000FB6                     ECCP1AS         equ	4022	;# 
   722   000FB6                     ECCPAS          equ	4022	;# 
   723   000FB7                     PWM1CON         equ	4023	;# 
   724   000FB7                     ECCP1DEL        equ	4023	;# 
   725   000FB8                     BAUDCON         equ	4024	;# 
   726   000FB8                     BAUDCTL         equ	4024	;# 
   727   000FBA                     CCP2CON         equ	4026	;# 
   728   000FBB                     CCPR2           equ	4027	;# 
   729   000FBB                     CCPR2L          equ	4027	;# 
   730   000FBC                     CCPR2H          equ	4028	;# 
   731   000FBD                     CCP1CON         equ	4029	;# 
   732   000FBE                     CCPR1           equ	4030	;# 
   733   000FBE                     CCPR1L          equ	4030	;# 
   734   000FBF                     CCPR1H          equ	4031	;# 
   735   000FC0                     ADCON2          equ	4032	;# 
   736   000FC1                     ADCON1          equ	4033	;# 
   737   000FC2                     ADCON0          equ	4034	;# 
   738   000FC3                     ADRES           equ	4035	;# 
   739   000FC3                     ADRESL          equ	4035	;# 
   740   000FC4                     ADRESH          equ	4036	;# 
   741   000FC5                     SSPCON2         equ	4037	;# 
   742   000FC6                     SSPCON1         equ	4038	;# 
   743   000FC7                     SSPSTAT         equ	4039	;# 
   744   000FC8                     SSPADD          equ	4040	;# 
   745   000FC9                     SSPBUF          equ	4041	;# 
   746   000FCA                     T2CON           equ	4042	;# 
   747   000FCB                     PR2             equ	4043	;# 
   748   000FCB                     MEMCON          equ	4043	;# 
   749   000FCC                     TMR2            equ	4044	;# 
   750   000FCD                     T1CON           equ	4045	;# 
   751   000FCE                     TMR1            equ	4046	;# 
   752   000FCE                     TMR1L           equ	4046	;# 
   753   000FCF                     TMR1H           equ	4047	;# 
   754   000FD0                     RCON            equ	4048	;# 
   755   000FD1                     WDTCON          equ	4049	;# 
   756   000FD2                     HLVDCON         equ	4050	;# 
   757   000FD2                     LVDCON          equ	4050	;# 
   758   000FD3                     OSCCON          equ	4051	;# 
   759   000FD5                     T0CON           equ	4053	;# 
   760   000FD6                     TMR0            equ	4054	;# 
   761   000FD6                     TMR0L           equ	4054	;# 
   762   000FD7                     TMR0H           equ	4055	;# 
   763   000FD8                     STATUS          equ	4056	;# 
   764   000FD9                     FSR2            equ	4057	;# 
   765   000FD9                     FSR2L           equ	4057	;# 
   766   000FDA                     FSR2H           equ	4058	;# 
   767   000FDB                     PLUSW2          equ	4059	;# 
   768   000FDC                     PREINC2         equ	4060	;# 
   769   000FDD                     POSTDEC2        equ	4061	;# 
   770   000FDE                     POSTINC2        equ	4062	;# 
   771   000FDF                     INDF2           equ	4063	;# 
   772   000FE0                     BSR             equ	4064	;# 
   773   000FE1                     FSR1            equ	4065	;# 
   774   000FE1                     FSR1L           equ	4065	;# 
   775   000FE2                     FSR1H           equ	4066	;# 
   776   000FE3                     PLUSW1          equ	4067	;# 
   777   000FE4                     PREINC1         equ	4068	;# 
   778   000FE5                     POSTDEC1        equ	4069	;# 
   779   000FE6                     POSTINC1        equ	4070	;# 
   780   000FE7                     INDF1           equ	4071	;# 
   781   000FE8                     WREG            equ	4072	;# 
   782   000FE9                     FSR0            equ	4073	;# 
   783   000FE9                     FSR0L           equ	4073	;# 
   784   000FEA                     FSR0H           equ	4074	;# 
   785   000FEB                     PLUSW0          equ	4075	;# 
   786   000FEC                     PREINC0         equ	4076	;# 
   787   000FED                     POSTDEC0        equ	4077	;# 
   788   000FEE                     POSTINC0        equ	4078	;# 
   789   000FEF                     INDF0           equ	4079	;# 
   790   000FF0                     INTCON3         equ	4080	;# 
   791   000FF1                     INTCON2         equ	4081	;# 
   792   000FF2                     INTCON          equ	4082	;# 
   793   000FF3                     PROD            equ	4083	;# 
   794   000FF3                     PRODL           equ	4083	;# 
   795   000FF4                     PRODH           equ	4084	;# 
   796   000FF5                     TABLAT          equ	4085	;# 
   797   000FF6                     TBLPTR          equ	4086	;# 
   798   000FF6                     TBLPTRL         equ	4086	;# 
   799   000FF7                     TBLPTRH         equ	4087	;# 
   800   000FF8                     TBLPTRU         equ	4088	;# 
   801   000FF9                     PCLAT           equ	4089	;# 
   802   000FF9                     PC              equ	4089	;# 
   803   000FF9                     PCL             equ	4089	;# 
   804   000FFA                     PCLATH          equ	4090	;# 
   805   000FFB                     PCLATU          equ	4091	;# 
   806   000FFC                     STKPTR          equ	4092	;# 
   807   000FFD                     TOS             equ	4093	;# 
   808   000FFD                     TOSL            equ	4093	;# 
   809   000FFE                     TOSH            equ	4094	;# 
   810   000FFF                     TOSU            equ	4095	;# 
   811   000F80                     PORTA           equ	3968	;# 
   812   000F81                     PORTB           equ	3969	;# 
   813   000F82                     PORTC           equ	3970	;# 
   814   000F83                     PORTD           equ	3971	;# 
   815   000F84                     PORTE           equ	3972	;# 
   816   000F89                     LATA            equ	3977	;# 
   817   000F8A                     LATB            equ	3978	;# 
   818   000F8B                     LATC            equ	3979	;# 
   819   000F8C                     LATD            equ	3980	;# 
   820   000F8D                     LATE            equ	3981	;# 
   821   000F92                     TRISA           equ	3986	;# 
   822   000F92                     DDRA            equ	3986	;# 
   823   000F93                     TRISB           equ	3987	;# 
   824   000F93                     DDRB            equ	3987	;# 
   825   000F94                     TRISC           equ	3988	;# 
   826   000F94                     DDRC            equ	3988	;# 
   827   000F95                     TRISD           equ	3989	;# 
   828   000F95                     DDRD            equ	3989	;# 
   829   000F96                     TRISE           equ	3990	;# 
   830   000F96                     DDRE            equ	3990	;# 
   831   000F9B                     OSCTUNE         equ	3995	;# 
   832   000F9D                     PIE1            equ	3997	;# 
   833   000F9E                     PIR1            equ	3998	;# 
   834   000F9F                     IPR1            equ	3999	;# 
   835   000FA0                     PIE2            equ	4000	;# 
   836   000FA1                     PIR2            equ	4001	;# 
   837   000FA2                     IPR2            equ	4002	;# 
   838   000FA6                     EECON1          equ	4006	;# 
   839   000FA7                     EECON2          equ	4007	;# 
   840   000FA8                     EEDATA          equ	4008	;# 
   841   000FA9                     EEADR           equ	4009	;# 
   842   000FAB                     RCSTA           equ	4011	;# 
   843   000FAB                     RCSTA1          equ	4011	;# 
   844   000FAC                     TXSTA           equ	4012	;# 
   845   000FAC                     TXSTA1          equ	4012	;# 
   846   000FAD                     TXREG           equ	4013	;# 
   847   000FAD                     TXREG1          equ	4013	;# 
   848   000FAE                     RCREG           equ	4014	;# 
   849   000FAE                     RCREG1          equ	4014	;# 
   850   000FAF                     SPBRG           equ	4015	;# 
   851   000FAF                     SPBRG1          equ	4015	;# 
   852   000FB0                     SPBRGH          equ	4016	;# 
   853   000FB1                     T3CON           equ	4017	;# 
   854   000FB2                     TMR3            equ	4018	;# 
   855   000FB2                     TMR3L           equ	4018	;# 
   856   000FB3                     TMR3H           equ	4019	;# 
   857   000FB4                     CMCON           equ	4020	;# 
   858   000FB5                     CVRCON          equ	4021	;# 
   859   000FB6                     ECCP1AS         equ	4022	;# 
   860   000FB6                     ECCPAS          equ	4022	;# 
   861   000FB7                     PWM1CON         equ	4023	;# 
   862   000FB7                     ECCP1DEL        equ	4023	;# 
   863   000FB8                     BAUDCON         equ	4024	;# 
   864   000FB8                     BAUDCTL         equ	4024	;# 
   865   000FBA                     CCP2CON         equ	4026	;# 
   866   000FBB                     CCPR2           equ	4027	;# 
   867   000FBB                     CCPR2L          equ	4027	;# 
   868   000FBC                     CCPR2H          equ	4028	;# 
   869   000FBD                     CCP1CON         equ	4029	;# 
   870   000FBE                     CCPR1           equ	4030	;# 
   871   000FBE                     CCPR1L          equ	4030	;# 
   872   000FBF                     CCPR1H          equ	4031	;# 
   873   000FC0                     ADCON2          equ	4032	;# 
   874   000FC1                     ADCON1          equ	4033	;# 
   875   000FC2                     ADCON0          equ	4034	;# 
   876   000FC3                     ADRES           equ	4035	;# 
   877   000FC3                     ADRESL          equ	4035	;# 
   878   000FC4                     ADRESH          equ	4036	;# 
   879   000FC5                     SSPCON2         equ	4037	;# 
   880   000FC6                     SSPCON1         equ	4038	;# 
   881   000FC7                     SSPSTAT         equ	4039	;# 
   882   000FC8                     SSPADD          equ	4040	;# 
   883   000FC9                     SSPBUF          equ	4041	;# 
   884   000FCA                     T2CON           equ	4042	;# 
   885   000FCB                     PR2             equ	4043	;# 
   886   000FCB                     MEMCON          equ	4043	;# 
   887   000FCC                     TMR2            equ	4044	;# 
   888   000FCD                     T1CON           equ	4045	;# 
   889   000FCE                     TMR1            equ	4046	;# 
   890   000FCE                     TMR1L           equ	4046	;# 
   891   000FCF                     TMR1H           equ	4047	;# 
   892   000FD0                     RCON            equ	4048	;# 
   893   000FD1                     WDTCON          equ	4049	;# 
   894   000FD2                     HLVDCON         equ	4050	;# 
   895   000FD2                     LVDCON          equ	4050	;# 
   896   000FD3                     OSCCON          equ	4051	;# 
   897   000FD5                     T0CON           equ	4053	;# 
   898   000FD6                     TMR0            equ	4054	;# 
   899   000FD6                     TMR0L           equ	4054	;# 
   900   000FD7                     TMR0H           equ	4055	;# 
   901   000FD8                     STATUS          equ	4056	;# 
   902   000FD9                     FSR2            equ	4057	;# 
   903   000FD9                     FSR2L           equ	4057	;# 
   904   000FDA                     FSR2H           equ	4058	;# 
   905   000FDB                     PLUSW2          equ	4059	;# 
   906   000FDC                     PREINC2         equ	4060	;# 
   907   000FDD                     POSTDEC2        equ	4061	;# 
   908   000FDE                     POSTINC2        equ	4062	;# 
   909   000FDF                     INDF2           equ	4063	;# 
   910   000FE0                     BSR             equ	4064	;# 
   911   000FE1                     FSR1            equ	4065	;# 
   912   000FE1                     FSR1L           equ	4065	;# 
   913   000FE2                     FSR1H           equ	4066	;# 
   914   000FE3                     PLUSW1          equ	4067	;# 
   915   000FE4                     PREINC1         equ	4068	;# 
   916   000FE5                     POSTDEC1        equ	4069	;# 
   917   000FE6                     POSTINC1        equ	4070	;# 
   918   000FE7                     INDF1           equ	4071	;# 
   919   000FE8                     WREG            equ	4072	;# 
   920   000FE9                     FSR0            equ	4073	;# 
   921   000FE9                     FSR0L           equ	4073	;# 
   922   000FEA                     FSR0H           equ	4074	;# 
   923   000FEB                     PLUSW0          equ	4075	;# 
   924   000FEC                     PREINC0         equ	4076	;# 
   925   000FED                     POSTDEC0        equ	4077	;# 
   926   000FEE                     POSTINC0        equ	4078	;# 
   927   000FEF                     INDF0           equ	4079	;# 
   928   000FF0                     INTCON3         equ	4080	;# 
   929   000FF1                     INTCON2         equ	4081	;# 
   930   000FF2                     INTCON          equ	4082	;# 
   931   000FF3                     PROD            equ	4083	;# 
   932   000FF3                     PRODL           equ	4083	;# 
   933   000FF4                     PRODH           equ	4084	;# 
   934   000FF5                     TABLAT          equ	4085	;# 
   935   000FF6                     TBLPTR          equ	4086	;# 
   936   000FF6                     TBLPTRL         equ	4086	;# 
   937   000FF7                     TBLPTRH         equ	4087	;# 
   938   000FF8                     TBLPTRU         equ	4088	;# 
   939   000FF9                     PCLAT           equ	4089	;# 
   940   000FF9                     PC              equ	4089	;# 
   941   000FF9                     PCL             equ	4089	;# 
   942   000FFA                     PCLATH          equ	4090	;# 
   943   000FFB                     PCLATU          equ	4091	;# 
   944   000FFC                     STKPTR          equ	4092	;# 
   945   000FFD                     TOS             equ	4093	;# 
   946   000FFD                     TOSL            equ	4093	;# 
   947   000FFE                     TOSH            equ	4094	;# 
   948   000FFF                     TOSU            equ	4095	;# 
   949   000F80                     PORTA           equ	3968	;# 
   950   000F81                     PORTB           equ	3969	;# 
   951   000F82                     PORTC           equ	3970	;# 
   952   000F83                     PORTD           equ	3971	;# 
   953   000F84                     PORTE           equ	3972	;# 
   954   000F89                     LATA            equ	3977	;# 
   955   000F8A                     LATB            equ	3978	;# 
   956   000F8B                     LATC            equ	3979	;# 
   957   000F8C                     LATD            equ	3980	;# 
   958   000F8D                     LATE            equ	3981	;# 
   959   000F92                     TRISA           equ	3986	;# 
   960   000F92                     DDRA            equ	3986	;# 
   961   000F93                     TRISB           equ	3987	;# 
   962   000F93                     DDRB            equ	3987	;# 
   963   000F94                     TRISC           equ	3988	;# 
   964   000F94                     DDRC            equ	3988	;# 
   965   000F95                     TRISD           equ	3989	;# 
   966   000F95                     DDRD            equ	3989	;# 
   967   000F96                     TRISE           equ	3990	;# 
   968   000F96                     DDRE            equ	3990	;# 
   969   000F9B                     OSCTUNE         equ	3995	;# 
   970   000F9D                     PIE1            equ	3997	;# 
   971   000F9E                     PIR1            equ	3998	;# 
   972   000F9F                     IPR1            equ	3999	;# 
   973   000FA0                     PIE2            equ	4000	;# 
   974   000FA1                     PIR2            equ	4001	;# 
   975   000FA2                     IPR2            equ	4002	;# 
   976   000FA6                     EECON1          equ	4006	;# 
   977   000FA7                     EECON2          equ	4007	;# 
   978   000FA8                     EEDATA          equ	4008	;# 
   979   000FA9                     EEADR           equ	4009	;# 
   980   000FAB                     RCSTA           equ	4011	;# 
   981   000FAB                     RCSTA1          equ	4011	;# 
   982   000FAC                     TXSTA           equ	4012	;# 
   983   000FAC                     TXSTA1          equ	4012	;# 
   984   000FAD                     TXREG           equ	4013	;# 
   985   000FAD                     TXREG1          equ	4013	;# 
   986   000FAE                     RCREG           equ	4014	;# 
   987   000FAE                     RCREG1          equ	4014	;# 
   988   000FAF                     SPBRG           equ	4015	;# 
   989   000FAF                     SPBRG1          equ	4015	;# 
   990   000FB0                     SPBRGH          equ	4016	;# 
   991   000FB1                     T3CON           equ	4017	;# 
   992   000FB2                     TMR3            equ	4018	;# 
   993   000FB2                     TMR3L           equ	4018	;# 
   994   000FB3                     TMR3H           equ	4019	;# 
   995   000FB4                     CMCON           equ	4020	;# 
   996   000FB5                     CVRCON          equ	4021	;# 
   997   000FB6                     ECCP1AS         equ	4022	;# 
   998   000FB6                     ECCPAS          equ	4022	;# 
   999   000FB7                     PWM1CON         equ	4023	;# 
  1000   000FB7                     ECCP1DEL        equ	4023	;# 
  1001   000FB8                     BAUDCON         equ	4024	;# 
  1002   000FB8                     BAUDCTL         equ	4024	;# 
  1003   000FBA                     CCP2CON         equ	4026	;# 
  1004   000FBB                     CCPR2           equ	4027	;# 
  1005   000FBB                     CCPR2L          equ	4027	;# 
  1006   000FBC                     CCPR2H          equ	4028	;# 
  1007   000FBD                     CCP1CON         equ	4029	;# 
  1008   000FBE                     CCPR1           equ	4030	;# 
  1009   000FBE                     CCPR1L          equ	4030	;# 
  1010   000FBF                     CCPR1H          equ	4031	;# 
  1011   000FC0                     ADCON2          equ	4032	;# 
  1012   000FC1                     ADCON1          equ	4033	;# 
  1013   000FC2                     ADCON0          equ	4034	;# 
  1014   000FC3                     ADRES           equ	4035	;# 
  1015   000FC3                     ADRESL          equ	4035	;# 
  1016   000FC4                     ADRESH          equ	4036	;# 
  1017   000FC5                     SSPCON2         equ	4037	;# 
  1018   000FC6                     SSPCON1         equ	4038	;# 
  1019   000FC7                     SSPSTAT         equ	4039	;# 
  1020   000FC8                     SSPADD          equ	4040	;# 
  1021   000FC9                     SSPBUF          equ	4041	;# 
  1022   000FCA                     T2CON           equ	4042	;# 
  1023   000FCB                     PR2             equ	4043	;# 
  1024   000FCB                     MEMCON          equ	4043	;# 
  1025   000FCC                     TMR2            equ	4044	;# 
  1026   000FCD                     T1CON           equ	4045	;# 
  1027   000FCE                     TMR1            equ	4046	;# 
  1028   000FCE                     TMR1L           equ	4046	;# 
  1029   000FCF                     TMR1H           equ	4047	;# 
  1030   000FD0                     RCON            equ	4048	;# 
  1031   000FD1                     WDTCON          equ	4049	;# 
  1032   000FD2                     HLVDCON         equ	4050	;# 
  1033   000FD2                     LVDCON          equ	4050	;# 
  1034   000FD3                     OSCCON          equ	4051	;# 
  1035   000FD5                     T0CON           equ	4053	;# 
  1036   000FD6                     TMR0            equ	4054	;# 
  1037   000FD6                     TMR0L           equ	4054	;# 
  1038   000FD7                     TMR0H           equ	4055	;# 
  1039   000FD8                     STATUS          equ	4056	;# 
  1040   000FD9                     FSR2            equ	4057	;# 
  1041   000FD9                     FSR2L           equ	4057	;# 
  1042   000FDA                     FSR2H           equ	4058	;# 
  1043   000FDB                     PLUSW2          equ	4059	;# 
  1044   000FDC                     PREINC2         equ	4060	;# 
  1045   000FDD                     POSTDEC2        equ	4061	;# 
  1046   000FDE                     POSTINC2        equ	4062	;# 
  1047   000FDF                     INDF2           equ	4063	;# 
  1048   000FE0                     BSR             equ	4064	;# 
  1049   000FE1                     FSR1            equ	4065	;# 
  1050   000FE1                     FSR1L           equ	4065	;# 
  1051   000FE2                     FSR1H           equ	4066	;# 
  1052   000FE3                     PLUSW1          equ	4067	;# 
  1053   000FE4                     PREINC1         equ	4068	;# 
  1054   000FE5                     POSTDEC1        equ	4069	;# 
  1055   000FE6                     POSTINC1        equ	4070	;# 
  1056   000FE7                     INDF1           equ	4071	;# 
  1057   000FE8                     WREG            equ	4072	;# 
  1058   000FE9                     FSR0            equ	4073	;# 
  1059   000FE9                     FSR0L           equ	4073	;# 
  1060   000FEA                     FSR0H           equ	4074	;# 
  1061   000FEB                     PLUSW0          equ	4075	;# 
  1062   000FEC                     PREINC0         equ	4076	;# 
  1063   000FED                     POSTDEC0        equ	4077	;# 
  1064   000FEE                     POSTINC0        equ	4078	;# 
  1065   000FEF                     INDF0           equ	4079	;# 
  1066   000FF0                     INTCON3         equ	4080	;# 
  1067   000FF1                     INTCON2         equ	4081	;# 
  1068   000FF2                     INTCON          equ	4082	;# 
  1069   000FF3                     PROD            equ	4083	;# 
  1070   000FF3                     PRODL           equ	4083	;# 
  1071   000FF4                     PRODH           equ	4084	;# 
  1072   000FF5                     TABLAT          equ	4085	;# 
  1073   000FF6                     TBLPTR          equ	4086	;# 
  1074   000FF6                     TBLPTRL         equ	4086	;# 
  1075   000FF7                     TBLPTRH         equ	4087	;# 
  1076   000FF8                     TBLPTRU         equ	4088	;# 
  1077   000FF9                     PCLAT           equ	4089	;# 
  1078   000FF9                     PC              equ	4089	;# 
  1079   000FF9                     PCL             equ	4089	;# 
  1080   000FFA                     PCLATH          equ	4090	;# 
  1081   000FFB                     PCLATU          equ	4091	;# 
  1082   000FFC                     STKPTR          equ	4092	;# 
  1083   000FFD                     TOS             equ	4093	;# 
  1084   000FFD                     TOSL            equ	4093	;# 
  1085   000FFE                     TOSH            equ	4094	;# 
  1086   000FFF                     TOSU            equ	4095	;# 
  1087                           
  1088                           	psect	mediumconst
  1089   007CE6                     __pmediumconst:
  1090                           	callstack 0
  1091   007CE6  00                 	db	0
  1092   007CE7                     _atanlo:
  1093                           	callstack 0
  1094   007CE7  3769               	dw	14185
  1095   007CE9  31AC               	dw	12716
  1096   007CEB  2168               	dw	8552
  1097   007CED  3322               	dw	13090
  1098   007CEF  0FB4               	dw	4020
  1099   007CF1  3314               	dw	13076
  1100   007CF3  2168               	dw	8552
  1101   007CF5  33A2               	dw	13218
  1102   007CF7                     __end_of_atanlo:
  1103                           	callstack 0
  1104   007CF7                     _atanhi:
  1105                           	callstack 0
  1106   007CF7  6338               	dw	25400
  1107   007CF9  3EED               	dw	16109
  1108   007CFB  0FDA               	dw	4058
  1109   007CFD  3F49               	dw	16201
  1110   007CFF  985E               	dw	39006
  1111   007D01  3F7B               	dw	16251
  1112   007D03  0FDA               	dw	4058
  1113   007D05  3FC9               	dw	16329
  1114   007D07                     __end_of_atanhi:
  1115                           	callstack 0
  1116   007D07  AC25               	dw	44069
  1117   007D09  3D7C               	dw	15740
  1118   007D0B                     __end_of_aT4:
  1119                           	callstack 0
  1120   007D0B  1247               	dw	4679
  1121   007D0D  BDDA               	dw	48602
  1122   007D0F                     __end_of_aT3:
  1123                           	callstack 0
  1124   007D0F  F50D               	dw	62733
  1125   007D11  3E11               	dw	15889
  1126   007D13                     __end_of_aT2:
  1127                           	callstack 0
  1128   007D13  CA98               	dw	51864
  1129   007D15  BE4C               	dw	48716
  1130   007D17                     __end_of_aT1:
  1131                           	callstack 0
  1132   007D17  AAA9               	dw	43689
  1133   007D19  3EAA               	dw	16042
  1134   007D1B                     __end_of_aT0:
  1135                           	callstack 0
  1136   007D1B  BD2E               	dw	48430
  1137   007D1D  B3BB               	dw	46011
  1138   007D1F                     __end_of_pi_lo:
  1139                           	callstack 0
  1140   007D1F  0FDB               	dw	4059
  1141   007D21  4049               	dw	16457
  1142   007D23                     __end_of_pi:
  1143                           	callstack 0
  1144   007E2C                     _ACKEN          set	32300
  1145   007E2D                     _ACKDT          set	32301
  1146   007E2B                     _RCEN           set	32299
  1147   007E38                     _BF             set	32312
  1148   007E2A                     _PEN            set	32298
  1149   007E28                     _SEN            set	32296
  1150   007E9C                     _IRCF0          set	32412
  1151   007E9D                     _IRCF1          set	32413
  1152   007E9E                     _IRCF2          set	32414
  1153   007E07                     _ADFM           set	32263
  1154   000F8A                     _LATBbits       set	3978
  1155   000F93                     _TRISB          set	3987
  1156   000F92                     _TRISA          set	3986
  1157   000F89                     _LATA           set	3977
  1158   000F94                     _TRISCbits      set	3988
  1159   000F89                     _LATAbits       set	3977
  1160   000F92                     _TRISAbits      set	3986
  1161   000FC5                     _SSPCON2bits    set	4037
  1162   000FC9                     _SSPBUF         set	4041
  1163   000FC7                     _SSPSTAT        set	4039
  1164   000FC8                     _SSPADD         set	4040
  1165   000FC5                     _SSPCON2        set	4037
  1166   000FC6                     _SSPCON1        set	4038
  1167   000FD3                     _OSCCON         set	4051
  1168   000FAE                     _RCREG          set	4014
  1169   000FAD                     _TXREG          set	4013
  1170   000F9D                     _PIE1bits       set	3997
  1171   000FAB                     _RCSTAbits      set	4011
  1172   000FAF                     _SPBRG          set	4015
  1173   000FB8                     _BAUDCONbits    set	4024
  1174   000FAC                     _TXSTAbits      set	4012
  1175   000FD0                     _RCONbits       set	4048
  1176   000F9F                     _IPR1bits       set	3999
  1177   000F9E                     _PIR1bits       set	3998
  1178   000FBD                     _CCP1CON        set	4029
  1179   000FC2                     _ADCON0bits     set	4034
  1180   000FC3                     _ADRESL         set	4035
  1181   000FC4                     _ADRESH         set	4036
  1182   000FC0                     _ADCON2bits     set	4032
  1183   000FC1                     _ADCON1         set	4033
  1184   000FF2                     _INTCONbits     set	4082
  1185   007D23                     STR_3:
  1186   007D23  4C                 	db	76	;'L'
  1187   007D24  4C                 	db	76	;'L'
  1188   007D25  4E                 	db	78	;'N'
  1189   007D26  0D                 	db	13
  1190   007D27  0A                 	db	10
  1191   007D28  00                 	db	0
  1192   007D29                     STR_2:
  1193   007D29  4C                 	db	76	;'L'
  1194   007D2A  46                 	db	70	;'F'
  1195   007D2B  0D                 	db	13
  1196   007D2C  0A                 	db	10
  1197   007D2D  00                 	db	0
  1198   007D2B                     STR_1           equ	STR_2+2
  1199   007D2E  00                 	db	0	; dummy byte at the end
  1200   000002                     __activetblptr  equ	2
  1201                           
  1202                           ; #config settings
  1203                           
  1204                           	psect	cinit
  1205   0053DA                     __pcinit:
  1206                           	callstack 0
  1207   0053DA                     start_initialization:
  1208                           	callstack 0
  1209   0053DA                     __initialization:
  1210                           	callstack 0
  1211                           
  1212                           ; Clear objects allocated to BANK1 (72 bytes)
  1213   0053DA  EE01  F000         	lfsr	0,__pbssBANK1
  1214   0053DE  0E48               	movlw	72
  1215   0053E0                     clear_0:
  1216   0053E0  6AEE               	clrf	postinc0,c
  1217   0053E2  06E8               	decf	wreg,f,c
  1218   0053E4  E1FD               	bnz	clear_0
  1219                           
  1220                           ; Clear objects allocated to BANK0 (12 bytes)
  1221   0053E6  EE00  F0F3         	lfsr	0,__pbssBANK0
  1222   0053EA  0E0C               	movlw	12
  1223   0053EC                     clear_1:
  1224   0053EC  6AEE               	clrf	postinc0,c
  1225   0053EE  06E8               	decf	wreg,f,c
  1226   0053F0  E1FD               	bnz	clear_1
  1227   0053F2                     end_of_initialization:
  1228                           	callstack 0
  1229   0053F2                     __end_of__initialization:
  1230                           	callstack 0
  1231   0053F2  0E00               	movlw	low (__Lmediumconst shr (0+16))
  1232   0053F4  6EF8               	movwf	tblptru,c
  1233   0053F6  0100               	movlb	0
  1234   0053F8  EF9B  F02A         	goto	_main	;jump to C main() function
  1235                           
  1236                           	psect	bssBANK0
  1237   0000F3                     __pbssBANK0:
  1238                           	callstack 0
  1239   0000F3                     _from_mid:
  1240                           	callstack 0
  1241   0000F3                     	ds	2
  1242   0000F5                     _dir:
  1243                           	callstack 0
  1244   0000F5                     	ds	2
  1245   0000F7                     _accY:
  1246                           	callstack 0
  1247   0000F7                     	ds	2
  1248   0000F9                     _accZ_low:
  1249                           	callstack 0
  1250   0000F9                     	ds	1
  1251   0000FA                     _accZ_high:
  1252                           	callstack 0
  1253   0000FA                     	ds	1
  1254   0000FB                     _accY_low:
  1255                           	callstack 0
  1256   0000FB                     	ds	1
  1257   0000FC                     _accY_high:
  1258                           	callstack 0
  1259   0000FC                     	ds	1
  1260   0000FD                     _accX_low:
  1261                           	callstack 0
  1262   0000FD                     	ds	1
  1263   0000FE                     _accX_high:
  1264                           	callstack 0
  1265   0000FE                     	ds	1
  1266                           
  1267                           	psect	bssBANK1
  1268   000100                     __pbssBANK1:
  1269                           	callstack 0
  1270   000100                     _str:
  1271                           	callstack 0
  1272   000100                     	ds	20
  1273   000114                     fabsf@F465:
  1274                           	callstack 0
  1275   000114                     	ds	4
  1276   000118                     ___fpclassifyf@F465:
  1277                           	callstack 0
  1278   000118                     	ds	4
  1279   00011C                     _angle:
  1280                           	callstack 0
  1281   00011C                     	ds	4
  1282   000120                     _pitch_offset:
  1283                           	callstack 0
  1284   000120                     	ds	4
  1285   000124                     _errno:
  1286                           	callstack 0
  1287   000124                     	ds	2
  1288   000126                     _postpostscaler:
  1289                           	callstack 0
  1290   000126                     	ds	2
  1291   000128                     _accZ:
  1292                           	callstack 0
  1293   000128                     	ds	2
  1294   00012A                     _accX:
  1295                           	callstack 0
  1296   00012A                     	ds	2
  1297   00012C                     _needSendMsg:
  1298                           	callstack 0
  1299   00012C                     	ds	2
  1300   00012E                     _isConnected:
  1301                           	callstack 0
  1302   00012E                     	ds	2
  1303   000130                     _count:
  1304                           	callstack 0
  1305   000130                     	ds	2
  1306   000132                     _lenStr:
  1307                           	callstack 0
  1308   000132                     	ds	2
  1309   000134                     _mystring:
  1310                           	callstack 0
  1311   000134                     	ds	20
  1312                           
  1313                           	psect	cstackBANK0
  1314   000080                     __pcstackBANK0:
  1315                           	callstack 0
  1316   000080                     ?_atanf:
  1317                           	callstack 0
  1318   000080                     atanf@x:
  1319                           	callstack 0
  1320                           
  1321                           ; 4 bytes @ 0x0
  1322   000080                     	ds	4
  1323   000084                     _atanf$1843:
  1324                           	callstack 0
  1325                           
  1326                           ; 4 bytes @ 0x4
  1327   000084                     	ds	4
  1328   000088                     _atanf$1845:
  1329                           	callstack 0
  1330                           
  1331                           ; 4 bytes @ 0x8
  1332   000088                     	ds	4
  1333   00008C                     _atanf$1846:
  1334                           	callstack 0
  1335                           
  1336                           ; 4 bytes @ 0xC
  1337   00008C                     	ds	4
  1338   000090                     atanf@s1:
  1339                           	callstack 0
  1340                           
  1341                           ; 4 bytes @ 0x10
  1342   000090                     	ds	4
  1343   000094                     atanf@s2:
  1344                           	callstack 0
  1345                           
  1346                           ; 4 bytes @ 0x14
  1347   000094                     	ds	4
  1348   000098                     _atanf$1842:
  1349                           	callstack 0
  1350                           
  1351                           ; 4 bytes @ 0x18
  1352   000098                     	ds	4
  1353   00009C                     _atanf$1844:
  1354                           	callstack 0
  1355                           
  1356                           ; 4 bytes @ 0x1C
  1357   00009C                     	ds	4
  1358   0000A0                     atanf@sign:
  1359                           	callstack 0
  1360                           
  1361                           ; 1 bytes @ 0x20
  1362   0000A0                     	ds	1
  1363   0000A1                     atanf@w:
  1364                           	callstack 0
  1365                           
  1366                           ; 4 bytes @ 0x21
  1367   0000A1                     	ds	4
  1368   0000A5                     atanf@id:
  1369                           	callstack 0
  1370                           
  1371                           ; 1 bytes @ 0x25
  1372   0000A5                     	ds	1
  1373   0000A6                     atanf@z:
  1374                           	callstack 0
  1375                           
  1376                           ; 4 bytes @ 0x26
  1377   0000A6                     	ds	4
  1378   0000AA                     atanf@ix:
  1379                           	callstack 0
  1380                           
  1381                           ; 4 bytes @ 0x2A
  1382   0000AA                     	ds	4
  1383   0000AE                     ?_atan2f:
  1384                           	callstack 0
  1385   0000AE                     atan2f@y:
  1386                           	callstack 0
  1387                           
  1388                           ; 4 bytes @ 0x2E
  1389   0000AE                     	ds	4
  1390   0000B2                     atan2f@x:
  1391                           	callstack 0
  1392                           
  1393                           ; 4 bytes @ 0x32
  1394   0000B2                     	ds	4
  1395   0000B6                     ??_atan2f:
  1396                           
  1397                           ; 1 bytes @ 0x36
  1398   0000B6                     	ds	8
  1399   0000BE                     _atan2f$1839:
  1400                           	callstack 0
  1401                           
  1402                           ; 4 bytes @ 0x3E
  1403   0000BE                     	ds	4
  1404   0000C2                     _atan2f$1840:
  1405                           	callstack 0
  1406                           
  1407                           ; 4 bytes @ 0x42
  1408   0000C2                     	ds	4
  1409   0000C6                     _atan2f$1841:
  1410                           	callstack 0
  1411                           
  1412                           ; 4 bytes @ 0x46
  1413   0000C6                     	ds	4
  1414   0000CA                     atan2f@z:
  1415                           	callstack 0
  1416                           
  1417                           ; 4 bytes @ 0x4A
  1418   0000CA                     	ds	4
  1419   0000CE                     atan2f@ix:
  1420                           	callstack 0
  1421                           
  1422                           ; 4 bytes @ 0x4E
  1423   0000CE                     	ds	4
  1424   0000D2                     atan2f@iy:
  1425                           	callstack 0
  1426                           
  1427                           ; 4 bytes @ 0x52
  1428   0000D2                     	ds	4
  1429   0000D6                     atan2f@m:
  1430                           	callstack 0
  1431                           
  1432                           ; 1 bytes @ 0x56
  1433   0000D6                     	ds	1
  1434   0000D7                     ?_calculate_angle:
  1435                           	callstack 0
  1436   0000D7                     calculate_angle@accX:
  1437                           	callstack 0
  1438                           
  1439                           ; 2 bytes @ 0x57
  1440   0000D7                     	ds	2
  1441   0000D9                     calculate_angle@accY:
  1442                           	callstack 0
  1443                           
  1444                           ; 2 bytes @ 0x59
  1445   0000D9                     	ds	2
  1446   0000DB                     calculate_angle@accZ:
  1447                           	callstack 0
  1448                           
  1449                           ; 2 bytes @ 0x5B
  1450   0000DB                     	ds	2
  1451   0000DD                     _calculate_angle$1837:
  1452                           	callstack 0
  1453                           
  1454                           ; 4 bytes @ 0x5D
  1455   0000DD                     	ds	4
  1456   0000E1                     _calculate_angle$1838:
  1457                           	callstack 0
  1458                           
  1459                           ; 4 bytes @ 0x61
  1460   0000E1                     	ds	4
  1461   0000E5                     Calibration@accX:
  1462                           	callstack 0
  1463   0000E5                     ??_Check_Gyroscope:
  1464                           
  1465                           ; 1 bytes @ 0x65
  1466   0000E5                     	ds	2
  1467   0000E7                     Calibration@accZ:
  1468                           	callstack 0
  1469   0000E7                     _Check_Gyroscope$1836:
  1470                           	callstack 0
  1471                           
  1472                           ; 4 bytes @ 0x67
  1473   0000E7                     	ds	2
  1474   0000E9                     Calibration@accX_high:
  1475                           	callstack 0
  1476                           
  1477                           ; 1 bytes @ 0x69
  1478   0000E9                     	ds	1
  1479   0000EA                     Calibration@accX_low:
  1480                           	callstack 0
  1481                           
  1482                           ; 1 bytes @ 0x6A
  1483   0000EA                     	ds	1
  1484   0000EB                     Calibration@accZ_high:
  1485                           	callstack 0
  1486                           
  1487                           ; 1 bytes @ 0x6B
  1488   0000EB                     	ds	1
  1489   0000EC                     Calibration@accZ_low:
  1490                           	callstack 0
  1491                           
  1492                           ; 1 bytes @ 0x6C
  1493   0000EC                     	ds	1
  1494   0000ED                     ??_Gyroscope_Initialize:
  1495                           
  1496                           ; 1 bytes @ 0x6D
  1497   0000ED                     	ds	1
  1498   0000EE                     ??_main:
  1499                           
  1500                           ; 1 bytes @ 0x6E
  1501   0000EE                     	ds	1
  1502   0000EF                     main@prev_bend_sensor_val:
  1503                           	callstack 0
  1504                           
  1505                           ; 2 bytes @ 0x6F
  1506   0000EF                     	ds	2
  1507   0000F1                     main@blinker_dir:
  1508                           	callstack 0
  1509                           
  1510                           ; 2 bytes @ 0x71
  1511   0000F1                     	ds	2
  1512                           
  1513                           	psect	cstackCOMRAM
  1514   000001                     __pcstackCOMRAM:
  1515                           	callstack 0
  1516   000001                     ?___fpclassifyf:
  1517                           	callstack 0
  1518   000001                     ?_ADC_Read:
  1519                           	callstack 0
  1520   000001                     ?___flneg:
  1521                           	callstack 0
  1522   000001                     ?___xxtofl:
  1523                           	callstack 0
  1524   000001                     UART_Write@data:
  1525                           	callstack 0
  1526   000001                     I2C_Write@data:
  1527                           	callstack 0
  1528   000001                     I2C_Read@ack:
  1529                           	callstack 0
  1530   000001                     ADC_Read@channel:
  1531                           	callstack 0
  1532   000001                     ___flge@ff1:
  1533                           	callstack 0
  1534   000001                     ___flneg@f1:
  1535                           	callstack 0
  1536   000001                     ___xxtofl@val:
  1537                           	callstack 0
  1538   000001                     ___fpclassifyf@x:
  1539                           	callstack 0
  1540   000001                     
  1541                           ; 1 bytes @ 0x0
  1542   000001                     	ds	1
  1543   000002                     I2C_Read@data:
  1544                           	callstack 0
  1545   000002                     UART_Write_Text@text:
  1546                           	callstack 0
  1547                           
  1548                           ; 2 bytes @ 0x1
  1549   000002                     	ds	1
  1550   000003                     ??_ADC_Read:
  1551                           
  1552                           ; 1 bytes @ 0x2
  1553   000003                     	ds	1
  1554   000004                     ??_UART_Write_Text:
  1555                           
  1556                           ; 1 bytes @ 0x3
  1557   000004                     	ds	1
  1558   000005                     ADC_Read@digital:
  1559                           	callstack 0
  1560   000005                     ___flge@ff2:
  1561                           	callstack 0
  1562   000005                     ??___fpclassifyf:
  1563   000005                     ??___xxtofl:
  1564                           
  1565                           ; 1 bytes @ 0x4
  1566   000005                     	ds	1
  1567   000006                     UART_Write_Text@i:
  1568                           	callstack 0
  1569                           
  1570                           ; 2 bytes @ 0x5
  1571   000006                     	ds	1
  1572   000007                     Check_ADC@prev_sensor_val:
  1573                           	callstack 0
  1574                           
  1575                           ; 2 bytes @ 0x6
  1576   000007                     	ds	2
  1577   000009                     ___xxtofl@sign:
  1578                           	callstack 0
  1579   000009                     ___fpclassifyf@e:
  1580                           	callstack 0
  1581   000009                     ??_Check_ADC:
  1582   000009                     ??___flge:
  1583                           
  1584                           ; 1 bytes @ 0x8
  1585   000009                     	ds	1
  1586   00000A                     ___xxtofl@exp:
  1587                           	callstack 0
  1588                           
  1589                           ; 1 bytes @ 0x9
  1590   00000A                     	ds	1
  1591   00000B                     ___xxtofl@arg:
  1592                           	callstack 0
  1593   00000B                     ___fpclassifyf@u:
  1594                           	callstack 0
  1595                           
  1596                           ; 4 bytes @ 0xA
  1597   00000B                     	ds	1
  1598   00000C                     Check_ADC@bend_sensor_val:
  1599                           	callstack 0
  1600                           
  1601                           ; 2 bytes @ 0xB
  1602   00000C                     	ds	3
  1603   00000F                     ?___flmul:
  1604                           	callstack 0
  1605   00000F                     ___flmul@b:
  1606                           	callstack 0
  1607                           
  1608                           ; 4 bytes @ 0xE
  1609   00000F                     	ds	4
  1610   000013                     ___flmul@a:
  1611                           	callstack 0
  1612                           
  1613                           ; 4 bytes @ 0x12
  1614   000013                     	ds	4
  1615   000017                     ??___flmul:
  1616                           
  1617                           ; 1 bytes @ 0x16
  1618   000017                     	ds	4
  1619   00001B                     ___flmul@sign:
  1620                           	callstack 0
  1621                           
  1622                           ; 1 bytes @ 0x1A
  1623   00001B                     	ds	1
  1624   00001C                     ___flmul@grs:
  1625                           	callstack 0
  1626                           
  1627                           ; 4 bytes @ 0x1B
  1628   00001C                     	ds	4
  1629   000020                     ___flmul@aexp:
  1630                           	callstack 0
  1631                           
  1632                           ; 1 bytes @ 0x1F
  1633   000020                     	ds	1
  1634   000021                     ___flmul@bexp:
  1635                           	callstack 0
  1636                           
  1637                           ; 1 bytes @ 0x20
  1638   000021                     	ds	1
  1639   000022                     ___flmul@prod:
  1640                           	callstack 0
  1641                           
  1642                           ; 4 bytes @ 0x21
  1643   000022                     	ds	4
  1644   000026                     ___flmul@temp:
  1645                           	callstack 0
  1646                           
  1647                           ; 2 bytes @ 0x25
  1648   000026                     	ds	2
  1649   000028                     ?___fladd:
  1650                           	callstack 0
  1651   000028                     ___fladd@b:
  1652                           	callstack 0
  1653                           
  1654                           ; 4 bytes @ 0x27
  1655   000028                     	ds	4
  1656   00002C                     ___fladd@a:
  1657                           	callstack 0
  1658                           
  1659                           ; 4 bytes @ 0x2B
  1660   00002C                     	ds	4
  1661   000030                     ??___fladd:
  1662                           
  1663                           ; 1 bytes @ 0x2F
  1664   000030                     	ds	4
  1665   000034                     ___fladd@signs:
  1666                           	callstack 0
  1667                           
  1668                           ; 1 bytes @ 0x33
  1669   000034                     	ds	1
  1670   000035                     ___fladd@aexp:
  1671                           	callstack 0
  1672                           
  1673                           ; 1 bytes @ 0x34
  1674   000035                     	ds	1
  1675   000036                     ___fladd@bexp:
  1676                           	callstack 0
  1677                           
  1678                           ; 1 bytes @ 0x35
  1679   000036                     	ds	1
  1680   000037                     ___fladd@grs:
  1681                           	callstack 0
  1682                           
  1683                           ; 1 bytes @ 0x36
  1684   000037                     	ds	1
  1685   000038                     ?_sqrtf:
  1686                           	callstack 0
  1687   000038                     ?___flsub:
  1688                           	callstack 0
  1689   000038                     ___flsub@b:
  1690                           	callstack 0
  1691   000038                     sqrtf@x:
  1692                           	callstack 0
  1693                           
  1694                           ; 4 bytes @ 0x37
  1695   000038                     	ds	4
  1696   00003C                     ___flsub@a:
  1697                           	callstack 0
  1698   00003C                     ??_sqrtf:
  1699                           
  1700                           ; 1 bytes @ 0x3B
  1701   00003C                     	ds	4
  1702   000040                     
  1703                           ; 1 bytes @ 0x3F
  1704   000040                     	ds	1
  1705   000041                     sqrtf@s:
  1706                           	callstack 0
  1707                           
  1708                           ; 4 bytes @ 0x40
  1709   000041                     	ds	4
  1710   000045                     sqrtf@i:
  1711                           	callstack 0
  1712                           
  1713                           ; 4 bytes @ 0x44
  1714   000045                     	ds	4
  1715   000049                     sqrtf@q:
  1716                           	callstack 0
  1717                           
  1718                           ; 4 bytes @ 0x48
  1719   000049                     	ds	4
  1720   00004D                     sqrtf@t:
  1721                           	callstack 0
  1722                           
  1723                           ; 4 bytes @ 0x4C
  1724   00004D                     	ds	4
  1725   000051                     sqrtf@m:
  1726                           	callstack 0
  1727                           
  1728                           ; 4 bytes @ 0x50
  1729   000051                     	ds	4
  1730   000055                     sqrtf@r:
  1731                           	callstack 0
  1732                           
  1733                           ; 4 bytes @ 0x54
  1734   000055                     	ds	4
  1735   000059                     sqrtf@ix:
  1736                           	callstack 0
  1737                           
  1738                           ; 4 bytes @ 0x58
  1739   000059                     	ds	4
  1740   00005D                     ?___fldiv:
  1741                           	callstack 0
  1742   00005D                     ___fldiv@b:
  1743                           	callstack 0
  1744                           
  1745                           ; 4 bytes @ 0x5C
  1746   00005D                     	ds	4
  1747   000061                     ___fldiv@a:
  1748                           	callstack 0
  1749                           
  1750                           ; 4 bytes @ 0x60
  1751   000061                     	ds	4
  1752   000065                     ??___fldiv:
  1753                           
  1754                           ; 1 bytes @ 0x64
  1755   000065                     	ds	4
  1756   000069                     ___fldiv@rem:
  1757                           	callstack 0
  1758                           
  1759                           ; 4 bytes @ 0x68
  1760   000069                     	ds	4
  1761   00006D                     ___fldiv@sign:
  1762                           	callstack 0
  1763                           
  1764                           ; 1 bytes @ 0x6C
  1765   00006D                     	ds	1
  1766   00006E                     ___fldiv@new_exp:
  1767                           	callstack 0
  1768                           
  1769                           ; 2 bytes @ 0x6D
  1770   00006E                     	ds	2
  1771   000070                     ___fldiv@grs:
  1772                           	callstack 0
  1773                           
  1774                           ; 4 bytes @ 0x6F
  1775   000070                     	ds	4
  1776   000074                     ___fldiv@bexp:
  1777                           	callstack 0
  1778                           
  1779                           ; 1 bytes @ 0x73
  1780   000074                     	ds	1
  1781   000075                     ___fldiv@aexp:
  1782                           	callstack 0
  1783                           
  1784                           ; 1 bytes @ 0x74
  1785   000075                     	ds	1
  1786   000076                     ?_fabsf:
  1787                           	callstack 0
  1788   000076                     fabsf@x:
  1789                           	callstack 0
  1790                           
  1791                           ; 4 bytes @ 0x75
  1792   000076                     	ds	4
  1793   00007A                     fabsf@u:
  1794                           	callstack 0
  1795   00007A                     
  1796                           ; 1 bytes @ 0x79
  1797   00007A                     	ds	4
  1798   00007E                     Check_Gyroscope@blinker_dir:
  1799                           	callstack 0
  1800   00007E                     ??_Calibration:
  1801   00007E                     
  1802                           ; 1 bytes @ 0x7D
  1803   00007E                     	ds	2
  1804   000080                     
  1805                           ; 1 bytes @ 0x7F
  1806 ;;
  1807 ;;Main: autosize = 0, tempsize = 1, incstack = 0, save=0
  1808 ;;
  1809 ;; *************** function _main *****************
  1810 ;; Defined at:
  1811 ;;		line 22 in file "main.c"
  1812 ;; Parameters:    Size  Location     Type
  1813 ;;		None
  1814 ;; Auto vars:     Size  Location     Type
  1815 ;;  blinker_dir     2  113[BANK0 ] int 
  1816 ;;  prev_bend_se    2  111[BANK0 ] int 
  1817 ;; Return value:  Size  Location     Type
  1818 ;;                  1    wreg      void 
  1819 ;; Registers used:
  1820 ;;		wreg, status,2, status,0, tblptrl, tblptrh, tblptru, prodl, prodh, cstack
  1821 ;; Tracked objects:
  1822 ;;		On entry : 0/0
  1823 ;;		On exit  : 0/0
  1824 ;;		Unchanged: 0/0
  1825 ;; Data sizes:     COMRAM   BANK0   BANK1   BANK2   BANK3   BANK4   BANK5
  1826 ;;      Params:         0       0       0       0       0       0       0
  1827 ;;      Locals:         0       4       0       0       0       0       0
  1828 ;;      Temps:          0       1       0       0       0       0       0
  1829 ;;      Totals:         0       5       0       0       0       0       0
  1830 ;;Total ram usage:        5 bytes
  1831 ;; Hardware stack levels required when called: 8
  1832 ;; This function calls:
  1833 ;;		_Check_ADC
  1834 ;;		_Check_Gyroscope
  1835 ;;		_SYSTEM_Initialize
  1836 ;; This function is called by:
  1837 ;;		Startup code after reset
  1838 ;; This function uses a non-reentrant model
  1839 ;;
  1840                           
  1841                           	psect	text0
  1842   005536                     __ptext0:
  1843                           	callstack 0
  1844   005536                     _main:
  1845                           	callstack 23
  1846   005536                     
  1847                           ;main.c: 25:     SYSTEM_Initialize() ;
  1848   005536  ECBE  F029         	call	_SYSTEM_Initialize	;wreg free
  1849   00553A                     
  1850                           ;main.c: 27:     int blinker_dir = 0;
  1851   00553A  0E00               	movlw	0
  1852   00553C  0100               	movlb	0	; () banked
  1853   00553E  6FF2               	movwf	(main@blinker_dir+1)& (0+255),b
  1854   005540  0E00               	movlw	0
  1855   005542  6FF1               	movwf	main@blinker_dir& (0+255),b
  1856   005544                     l3376:
  1857                           
  1858                           ;main.c: 37:         Check_ADC(prev_bend_sensor_val);
  1859   005544  C0EF  F007         	movff	main@prev_bend_sensor_val,Check_ADC@prev_sensor_val
  1860   005548  C0F0  F008         	movff	main@prev_bend_sensor_val+1,Check_ADC@prev_sensor_val+1
  1861   00554C  EC09  F02B         	call	_Check_ADC	;wreg free
  1862   005550                     
  1863                           ;main.c: 39:         Check_Gyroscope(blinker_dir);
  1864   005550  C0F1  F07E         	movff	main@blinker_dir,Check_Gyroscope@blinker_dir
  1865   005554  C0F2  F07F         	movff	main@blinker_dir+1,Check_Gyroscope@blinker_dir+1
  1866   005558  EC6E  F02E         	call	_Check_Gyroscope	;wreg free
  1867   00555C                     
  1868                           ;main.c: 40:         _delay((unsigned long)((20)*(4000000/4000.0)));
  1869   00555C  0E1A               	movlw	26
  1870   00555E  0100               	movlb	0	; () banked
  1871   005560  6FEE               	movwf	??_main& (0+255),b
  1872   005562  0EF8               	movlw	248
  1873   005564                     u3537:
  1874   005564  2EE8               	decfsz	wreg,f,c
  1875   005566  D7FE               	bra	u3537
  1876   005568  2FEE               	decfsz	??_main& (0+255),f,b
  1877   00556A  D7FC               	bra	u3537
  1878   00556C  0000               	nop	
  1879   00556E  EFA2  F02A         	goto	l3376
  1880   005572  EF00  F000         	goto	start
  1881   005576                     __end_of_main:
  1882                           	callstack 0
  1883                           
  1884 ;; *************** function _SYSTEM_Initialize *****************
  1885 ;; Defined at:
  1886 ;;		line 60 in file "setting_hardaware/setting.c"
  1887 ;; Parameters:    Size  Location     Type
  1888 ;;		None
  1889 ;; Auto vars:     Size  Location     Type
  1890 ;;		None
  1891 ;; Return value:  Size  Location     Type
  1892 ;;                  1    wreg      void 
  1893 ;; Registers used:
  1894 ;;		wreg, status,2, status,0, tblptrl, tblptrh, tblptru, prodl, prodh, cstack
  1895 ;; Tracked objects:
  1896 ;;		On entry : 0/0
  1897 ;;		On exit  : 0/0
  1898 ;;		Unchanged: 0/0
  1899 ;; Data sizes:     COMRAM   BANK0   BANK1   BANK2   BANK3   BANK4   BANK5
  1900 ;;      Params:         0       0       0       0       0       0       0
  1901 ;;      Locals:         0       0       0       0       0       0       0
  1902 ;;      Temps:          0       0       0       0       0       0       0
  1903 ;;      Totals:         0       0       0       0       0       0       0
  1904 ;;Total ram usage:        0 bytes
  1905 ;; Hardware stack levels used: 1
  1906 ;; Hardware stack levels required when called: 7
  1907 ;; This function calls:
  1908 ;;		_ADC_Initialize
  1909 ;;		_Gyroscope_Initialize
  1910 ;;		_INTERRUPT_Initialize
  1911 ;;		_OSCILLATOR_Initialize
  1912 ;; This function is called by:
  1913 ;;		_main
  1914 ;; This function uses a non-reentrant model
  1915 ;;
  1916                           
  1917                           	psect	text1
  1918   00537C                     __ptext1:
  1919                           	callstack 0
  1920   00537C                     _SYSTEM_Initialize:
  1921                           	callstack 23
  1922   00537C                     
  1923                           ;setting_hardaware/setting.c: 63:     OSCILLATOR_Initialize();
  1924   00537C  ECA1  F029         	call	_OSCILLATOR_Initialize	;wreg free
  1925   005380                     
  1926                           ;setting_hardaware/setting.c: 67:     INTERRUPT_Initialize();
  1927   005380  ECDF  F029         	call	_INTERRUPT_Initialize	;wreg free
  1928   005384                     
  1929                           ;setting_hardaware/setting.c: 70:     ADC_Initialize();
  1930   005384  ECD2  F029         	call	_ADC_Initialize	;wreg free
  1931   005388                     
  1932                           ;setting_hardaware/setting.c: 71:     Gyroscope_Initialize();
  1933   005388  EC5F  F02A         	call	_Gyroscope_Initialize	;wreg free
  1934   00538C  0012               	return		;funcret
  1935   00538E                     __end_of_SYSTEM_Initialize:
  1936                           	callstack 0
  1937                           
  1938 ;; *************** function _OSCILLATOR_Initialize *****************
  1939 ;; Defined at:
  1940 ;;		line 74 in file "setting_hardaware/setting.c"
  1941 ;; Parameters:    Size  Location     Type
  1942 ;;		None
  1943 ;; Auto vars:     Size  Location     Type
  1944 ;;		None
  1945 ;; Return value:  Size  Location     Type
  1946 ;;                  1    wreg      void 
  1947 ;; Registers used:
  1948 ;;		None
  1949 ;; Tracked objects:
  1950 ;;		On entry : 0/0
  1951 ;;		On exit  : 0/0
  1952 ;;		Unchanged: 0/0
  1953 ;; Data sizes:     COMRAM   BANK0   BANK1   BANK2   BANK3   BANK4   BANK5
  1954 ;;      Params:         0       0       0       0       0       0       0
  1955 ;;      Locals:         0       0       0       0       0       0       0
  1956 ;;      Temps:          0       0       0       0       0       0       0
  1957 ;;      Totals:         0       0       0       0       0       0       0
  1958 ;;Total ram usage:        0 bytes
  1959 ;; Hardware stack levels used: 1
  1960 ;; This function calls:
  1961 ;;		Nothing
  1962 ;; This function is called by:
  1963 ;;		_SYSTEM_Initialize
  1964 ;; This function uses a non-reentrant model
  1965 ;;
  1966                           
  1967                           	psect	text2
  1968   005342                     __ptext2:
  1969                           	callstack 0
  1970   005342                     _OSCILLATOR_Initialize:
  1971                           	callstack 29
  1972   005342                     
  1973                           ;setting_hardaware/setting.c: 76:     IRCF2 = 1;
  1974   005342  8CD3               	bsf	4051,6,c	;volatile
  1975                           
  1976                           ;setting_hardaware/setting.c: 77:     IRCF1 = 1;
  1977   005344  8AD3               	bsf	4051,5,c	;volatile
  1978                           
  1979                           ;setting_hardaware/setting.c: 78:     IRCF0 = 0;
  1980   005346  98D3               	bcf	4051,4,c	;volatile
  1981   005348  0012               	return		;funcret
  1982   00534A                     __end_of_OSCILLATOR_Initialize:
  1983                           	callstack 0
  1984                           
  1985 ;; *************** function _INTERRUPT_Initialize *****************
  1986 ;; Defined at:
  1987 ;;		line 3 in file "setting_hardaware/interrupt_manager.c"
  1988 ;; Parameters:    Size  Location     Type
  1989 ;;		None
  1990 ;; Auto vars:     Size  Location     Type
  1991 ;;		None
  1992 ;; Return value:  Size  Location     Type
  1993 ;;                  1    wreg      void 
  1994 ;; Registers used:
  1995 ;;		wreg, status,2
  1996 ;; Tracked objects:
  1997 ;;		On entry : 0/0
  1998 ;;		On exit  : 0/0
  1999 ;;		Unchanged: 0/0
  2000 ;; Data sizes:     COMRAM   BANK0   BANK1   BANK2   BANK3   BANK4   BANK5
  2001 ;;      Params:         0       0       0       0       0       0       0
  2002 ;;      Locals:         0       0       0       0       0       0       0
  2003 ;;      Temps:          0       0       0       0       0       0       0
  2004 ;;      Totals:         0       0       0       0       0       0       0
  2005 ;;Total ram usage:        0 bytes
  2006 ;; Hardware stack levels used: 1
  2007 ;; This function calls:
  2008 ;;		Nothing
  2009 ;; This function is called by:
  2010 ;;		_SYSTEM_Initialize
  2011 ;; This function uses a non-reentrant model
  2012 ;;
  2013                           
  2014                           	psect	text3
  2015   0053BE                     __ptext3:
  2016                           	callstack 0
  2017   0053BE                     _INTERRUPT_Initialize:
  2018                           	callstack 29
  2019   0053BE                     
  2020                           ;setting_hardaware/interrupt_manager.c: 5:     RCONbits.IPEN = 1;
  2021   0053BE  8ED0               	bsf	208,7,c	;volatile
  2022                           
  2023                           ;setting_hardaware/interrupt_manager.c: 6:     INTCONbits.GIEH = 1;
  2024   0053C0  8EF2               	bsf	242,7,c	;volatile
  2025                           
  2026                           ;setting_hardaware/interrupt_manager.c: 7:     INTCONbits.GIEL = 1;
  2027   0053C2  8CF2               	bsf	242,6,c	;volatile
  2028   0053C4                     
  2029                           ;setting_hardaware/interrupt_manager.c: 10:     ADCON1 = 0x0f;
  2030   0053C4  0E0F               	movlw	15
  2031   0053C6  6EC1               	movwf	193,c	;volatile
  2032   0053C8                     
  2033                           ;setting_hardaware/interrupt_manager.c: 11:     LATA = 0x00;
  2034   0053C8  6A89               	clrf	137,c	;volatile
  2035   0053CA                     
  2036                           ;setting_hardaware/interrupt_manager.c: 12:     TRISA = 0x00;
  2037   0053CA  6A92               	clrf	146,c	;volatile
  2038   0053CC                     
  2039                           ;setting_hardaware/interrupt_manager.c: 13:     TRISAbits.TRISA0 = 1;
  2040   0053CC  8092               	bsf	146,0,c	;volatile
  2041                           
  2042                           ;setting_hardaware/interrupt_manager.c: 16:     TRISB = 0x01;
  2043   0053CE  0E01               	movlw	1
  2044   0053D0  6E93               	movwf	147,c	;volatile
  2045   0053D2                     
  2046                           ;setting_hardaware/interrupt_manager.c: 17:     LATBbits.LATB0 = 0;
  2047   0053D2  908A               	bcf	138,0,c	;volatile
  2048   0053D4                     
  2049                           ;setting_hardaware/interrupt_manager.c: 19:     INTCONbits.INT0IE = 0;
  2050   0053D4  98F2               	bcf	242,4,c	;volatile
  2051   0053D6                     
  2052                           ;setting_hardaware/interrupt_manager.c: 20:     INTCONbits.INT0IF = 0;
  2053   0053D6  92F2               	bcf	242,1,c	;volatile
  2054   0053D8  0012               	return		;funcret
  2055   0053DA                     __end_of_INTERRUPT_Initialize:
  2056                           	callstack 0
  2057                           
  2058 ;; *************** function _Gyroscope_Initialize *****************
  2059 ;; Defined at:
  2060 ;;		line 32 in file "setting_hardaware/gyroscope.c"
  2061 ;; Parameters:    Size  Location     Type
  2062 ;;		None
  2063 ;; Auto vars:     Size  Location     Type
  2064 ;;		None
  2065 ;; Return value:  Size  Location     Type
  2066 ;;                  1    wreg      void 
  2067 ;; Registers used:
  2068 ;;		wreg, status,2, status,0, tblptrl, tblptrh, tblptru, prodl, prodh, cstack
  2069 ;; Tracked objects:
  2070 ;;		On entry : 0/0
  2071 ;;		On exit  : 0/0
  2072 ;;		Unchanged: 0/0
  2073 ;; Data sizes:     COMRAM   BANK0   BANK1   BANK2   BANK3   BANK4   BANK5
  2074 ;;      Params:         0       0       0       0       0       0       0
  2075 ;;      Locals:         0       0       0       0       0       0       0
  2076 ;;      Temps:          0       1       0       0       0       0       0
  2077 ;;      Totals:         0       1       0       0       0       0       0
  2078 ;;Total ram usage:        1 bytes
  2079 ;; Hardware stack levels used: 1
  2080 ;; Hardware stack levels required when called: 6
  2081 ;; This function calls:
  2082 ;;		_Calibration
  2083 ;;		_I2C_Init
  2084 ;;		_I2C_Start
  2085 ;;		_I2C_Stop
  2086 ;;		_I2C_Write
  2087 ;; This function is called by:
  2088 ;;		_SYSTEM_Initialize
  2089 ;; This function uses a non-reentrant model
  2090 ;;
  2091                           
  2092                           	psect	text4
  2093   0054BE                     __ptext4:
  2094                           	callstack 0
  2095   0054BE                     _Gyroscope_Initialize:
  2096                           	callstack 23
  2097   0054BE                     
  2098                           ;setting_hardaware/gyroscope.c: 33:     OSCCON = 0x60;
  2099   0054BE  0E60               	movlw	96
  2100   0054C0  6ED3               	movwf	211,c	;volatile
  2101   0054C2                     
  2102                           ;setting_hardaware/gyroscope.c: 35:     I2C_Init();
  2103   0054C2  ECA5  F029         	call	_I2C_Init	;wreg free
  2104   0054C6                     
  2105                           ;setting_hardaware/gyroscope.c: 36:     _delay((unsigned long)((100)*(4000000/4000.0)));
  2106   0054C6  0E82               	movlw	130
  2107   0054C8  0100               	movlb	0	; () banked
  2108   0054CA  6FED               	movwf	??_Gyroscope_Initialize& (0+255),b
  2109   0054CC  0EDD               	movlw	221
  2110   0054CE                     u3547:
  2111   0054CE  2EE8               	decfsz	wreg,f,c
  2112   0054D0  D7FE               	bra	u3547
  2113   0054D2  2FED               	decfsz	??_Gyroscope_Initialize& (0+255),f,b
  2114   0054D4  D7FC               	bra	u3547
  2115   0054D6  D000               	nop2	
  2116   0054D8                     
  2117                           ;setting_hardaware/gyroscope.c: 39:     I2C_Start();
  2118   0054D8  ECAC  F029         	call	_I2C_Start	;wreg free
  2119   0054DC                     
  2120                           ;setting_hardaware/gyroscope.c: 40:     I2C_Write(0x68 << 1);
  2121   0054DC  0ED0               	movlw	208
  2122   0054DE  ECFE  F029         	call	_I2C_Write
  2123   0054E2                     
  2124                           ;setting_hardaware/gyroscope.c: 41:     I2C_Write(0x6B);
  2125   0054E2  0E6B               	movlw	107
  2126   0054E4  ECFE  F029         	call	_I2C_Write
  2127   0054E8                     
  2128                           ;setting_hardaware/gyroscope.c: 42:     I2C_Write(0x00);
  2129   0054E8  0E00               	movlw	0
  2130   0054EA  ECFE  F029         	call	_I2C_Write
  2131                           
  2132                           ;setting_hardaware/gyroscope.c: 43:     I2C_Stop();
  2133   0054EE  ECB5  F029         	call	_I2C_Stop	;wreg free
  2134   0054F2                     
  2135                           ;setting_hardaware/gyroscope.c: 45:     Calibration();
  2136   0054F2  EC62  F02B         	call	_Calibration	;wreg free
  2137   0054F6  0012               	return		;funcret
  2138   0054F8                     __end_of_Gyroscope_Initialize:
  2139                           	callstack 0
  2140                           
  2141 ;; *************** function _I2C_Init *****************
  2142 ;; Defined at:
  2143 ;;		line 106 in file "setting_hardaware/gyroscope.c"
  2144 ;; Parameters:    Size  Location     Type
  2145 ;;		None
  2146 ;; Auto vars:     Size  Location     Type
  2147 ;;		None
  2148 ;; Return value:  Size  Location     Type
  2149 ;;                  1    wreg      void 
  2150 ;; Registers used:
  2151 ;;		wreg, status,2
  2152 ;; Tracked objects:
  2153 ;;		On entry : 0/0
  2154 ;;		On exit  : 0/0
  2155 ;;		Unchanged: 0/0
  2156 ;; Data sizes:     COMRAM   BANK0   BANK1   BANK2   BANK3   BANK4   BANK5
  2157 ;;      Params:         0       0       0       0       0       0       0
  2158 ;;      Locals:         0       0       0       0       0       0       0
  2159 ;;      Temps:          0       0       0       0       0       0       0
  2160 ;;      Totals:         0       0       0       0       0       0       0
  2161 ;;Total ram usage:        0 bytes
  2162 ;; Hardware stack levels used: 1
  2163 ;; This function calls:
  2164 ;;		Nothing
  2165 ;; This function is called by:
  2166 ;;		_Gyroscope_Initialize
  2167 ;; This function uses a non-reentrant model
  2168 ;;
  2169                           
  2170                           	psect	text5
  2171   00534A                     __ptext5:
  2172                           	callstack 0
  2173   00534A                     _I2C_Init:
  2174                           	callstack 28
  2175   00534A                     
  2176                           ;setting_hardaware/gyroscope.c: 107:     SSPCON1 = 0x28;
  2177   00534A  0E28               	movlw	40
  2178   00534C  6EC6               	movwf	198,c	;volatile
  2179   00534E                     
  2180                           ;setting_hardaware/gyroscope.c: 108:     SSPCON2 = 0x00;
  2181   00534E  6AC5               	clrf	197,c	;volatile
  2182                           
  2183                           ;setting_hardaware/gyroscope.c: 110:     SSPADD = 9;
  2184   005350  0E09               	movlw	9
  2185   005352  6EC8               	movwf	200,c	;volatile
  2186   005354                     
  2187                           ;setting_hardaware/gyroscope.c: 111:     SSPSTAT = 0x00;
  2188   005354  6AC7               	clrf	199,c	;volatile
  2189   005356  0012               	return		;funcret
  2190   005358                     __end_of_I2C_Init:
  2191                           	callstack 0
  2192                           
  2193 ;; *************** function _Calibration *****************
  2194 ;; Defined at:
  2195 ;;		line 146 in file "setting_hardaware/gyroscope.c"
  2196 ;; Parameters:    Size  Location     Type
  2197 ;;		None
  2198 ;; Auto vars:     Size  Location     Type
  2199 ;;  accZ            2  103[BANK0 ] short 
  2200 ;;  accX            2  101[BANK0 ] short 
  2201 ;;  accZ_low        1  108[BANK0 ] unsigned char 
  2202 ;;  accZ_high       1  107[BANK0 ] unsigned char 
  2203 ;;  accX_low        1  106[BANK0 ] unsigned char 
  2204 ;;  accX_high       1  105[BANK0 ] unsigned char 
  2205 ;; Return value:  Size  Location     Type
  2206 ;;                  1    wreg      void 
  2207 ;; Registers used:
  2208 ;;		wreg, status,2, status,0, tblptrl, tblptrh, tblptru, prodl, prodh, cstack
  2209 ;; Tracked objects:
  2210 ;;		On entry : 0/0
  2211 ;;		On exit  : 0/0
  2212 ;;		Unchanged: 0/0
  2213 ;; Data sizes:     COMRAM   BANK0   BANK1   BANK2   BANK3   BANK4   BANK5
  2214 ;;      Params:         0       0       0       0       0       0       0
  2215 ;;      Locals:         0       8       0       0       0       0       0
  2216 ;;      Temps:          2       0       0       0       0       0       0
  2217 ;;      Totals:         2       8       0       0       0       0       0
  2218 ;;Total ram usage:       10 bytes
  2219 ;; Hardware stack levels used: 1
  2220 ;; Hardware stack levels required when called: 5
  2221 ;; This function calls:
  2222 ;;		_I2C_Read
  2223 ;;		_I2C_Start
  2224 ;;		_I2C_Stop
  2225 ;;		_I2C_Write
  2226 ;;		_calculate_angle
  2227 ;; This function is called by:
  2228 ;;		_Gyroscope_Initialize
  2229 ;; This function uses a non-reentrant model
  2230 ;;
  2231                           
  2232                           	psect	text6
  2233   0056C4                     __ptext6:
  2234                           	callstack 0
  2235   0056C4                     _Calibration:
  2236                           	callstack 23
  2237   0056C4                     
  2238                           ;setting_hardaware/gyroscope.c: 147:     int16_t accX, accZ;;setting_hardaware/gyroscope
      +                          .c: 148:     uint8_t accX_high, accX_low, accZ_high, accZ_low;;setting_hardaware/gyrosco
      +                          pe.c: 149:     I2C_Start();
  2239   0056C4  ECAC  F029         	call	_I2C_Start	;wreg free
  2240   0056C8                     
  2241                           ;setting_hardaware/gyroscope.c: 150:     I2C_Write(0x68 << 1);
  2242   0056C8  0ED0               	movlw	208
  2243   0056CA  ECFE  F029         	call	_I2C_Write
  2244   0056CE                     
  2245                           ;setting_hardaware/gyroscope.c: 151:     I2C_Write(0x3B);
  2246   0056CE  0E3B               	movlw	59
  2247   0056D0  ECFE  F029         	call	_I2C_Write
  2248                           
  2249                           ;setting_hardaware/gyroscope.c: 152:     I2C_Start();
  2250   0056D4  ECAC  F029         	call	_I2C_Start	;wreg free
  2251   0056D8                     
  2252                           ;setting_hardaware/gyroscope.c: 153:     I2C_Write((0x68 << 1) | 1);
  2253   0056D8  0ED1               	movlw	209
  2254   0056DA  ECFE  F029         	call	_I2C_Write
  2255   0056DE                     
  2256                           ;setting_hardaware/gyroscope.c: 154:     accX_high = I2C_Read(1);
  2257   0056DE  0E01               	movlw	1
  2258   0056E0  EC7C  F02A         	call	_I2C_Read
  2259   0056E4  0100               	movlb	0	; () banked
  2260   0056E6  6FE9               	movwf	Calibration@accX_high& (0+255),b
  2261   0056E8                     
  2262                           ; BSR set to: 0
  2263                           ;setting_hardaware/gyroscope.c: 155:     accX_low = I2C_Read(1);
  2264   0056E8  0E01               	movlw	1
  2265   0056EA  EC7C  F02A         	call	_I2C_Read
  2266   0056EE  0100               	movlb	0	; () banked
  2267   0056F0  6FEA               	movwf	Calibration@accX_low& (0+255),b
  2268   0056F2                     
  2269                           ; BSR set to: 0
  2270                           ;setting_hardaware/gyroscope.c: 156:     accY_high = I2C_Read(1);
  2271   0056F2  0E01               	movlw	1
  2272   0056F4  EC7C  F02A         	call	_I2C_Read
  2273   0056F8  0100               	movlb	0	; () banked
  2274   0056FA  6FFC               	movwf	_accY_high& (0+255),b
  2275   0056FC                     
  2276                           ; BSR set to: 0
  2277                           ;setting_hardaware/gyroscope.c: 157:     accY_low = I2C_Read(1);
  2278   0056FC  0E01               	movlw	1
  2279   0056FE  EC7C  F02A         	call	_I2C_Read
  2280   005702  0100               	movlb	0	; () banked
  2281   005704  6FFB               	movwf	_accY_low& (0+255),b
  2282   005706                     
  2283                           ; BSR set to: 0
  2284                           ;setting_hardaware/gyroscope.c: 158:     accZ_high = I2C_Read(1);
  2285   005706  0E01               	movlw	1
  2286   005708  EC7C  F02A         	call	_I2C_Read
  2287   00570C  0100               	movlb	0	; () banked
  2288   00570E  6FEB               	movwf	Calibration@accZ_high& (0+255),b
  2289   005710                     
  2290                           ; BSR set to: 0
  2291                           ;setting_hardaware/gyroscope.c: 159:     accZ_low = I2C_Read(0);
  2292   005710  0E00               	movlw	0
  2293   005712  EC7C  F02A         	call	_I2C_Read
  2294   005716  0100               	movlb	0	; () banked
  2295   005718  6FEC               	movwf	Calibration@accZ_low& (0+255),b
  2296   00571A                     
  2297                           ; BSR set to: 0
  2298                           ;setting_hardaware/gyroscope.c: 160:     I2C_Stop();
  2299   00571A  ECB5  F029         	call	_I2C_Stop	;wreg free
  2300   00571E                     
  2301                           ;setting_hardaware/gyroscope.c: 162:     accX = (accX_high << 8) | accX_low;
  2302   00571E  0100               	movlb	0	; () banked
  2303   005720  51EA               	movf	Calibration@accX_low& (0+255),w,b
  2304   005722  C0E9  F07E         	movff	Calibration@accX_high,??_Calibration
  2305   005726  6A7F               	clrf	(??_Calibration+1)^0,c
  2306   005728  C07E  F07F         	movff	??_Calibration,??_Calibration+1
  2307   00572C  6A7E               	clrf	??_Calibration^0,c
  2308   00572E  107E               	iorwf	??_Calibration^0,w,c
  2309   005730  6FE5               	movwf	Calibration@accX& (0+255),b
  2310   005732  507F               	movf	(??_Calibration+1)^0,w,c
  2311   005734  6FE6               	movwf	(Calibration@accX+1)& (0+255),b
  2312   005736                     
  2313                           ; BSR set to: 0
  2314                           ;setting_hardaware/gyroscope.c: 163:     accY = (accY_high << 8) | accY_low;
  2315   005736  51FB               	movf	_accY_low& (0+255),w,b
  2316   005738  C0FC  F07E         	movff	_accY_high,??_Calibration
  2317   00573C  6A7F               	clrf	(??_Calibration+1)^0,c
  2318   00573E  C07E  F07F         	movff	??_Calibration,??_Calibration+1
  2319   005742  6A7E               	clrf	??_Calibration^0,c
  2320   005744  107E               	iorwf	??_Calibration^0,w,c
  2321   005746  6FF7               	movwf	_accY& (0+255),b
  2322   005748  507F               	movf	(??_Calibration+1)^0,w,c
  2323   00574A  6FF8               	movwf	(_accY+1)& (0+255),b
  2324   00574C                     
  2325                           ; BSR set to: 0
  2326                           ;setting_hardaware/gyroscope.c: 164:     accZ = (accZ_high << 8) | accZ_low;
  2327   00574C  51EC               	movf	Calibration@accZ_low& (0+255),w,b
  2328   00574E  C0EB  F07E         	movff	Calibration@accZ_high,??_Calibration
  2329   005752  6A7F               	clrf	(??_Calibration+1)^0,c
  2330   005754  C07E  F07F         	movff	??_Calibration,??_Calibration+1
  2331   005758  6A7E               	clrf	??_Calibration^0,c
  2332   00575A  107E               	iorwf	??_Calibration^0,w,c
  2333   00575C  6FE7               	movwf	Calibration@accZ& (0+255),b
  2334   00575E  507F               	movf	(??_Calibration+1)^0,w,c
  2335   005760  6FE8               	movwf	(Calibration@accZ+1)& (0+255),b
  2336   005762                     
  2337                           ; BSR set to: 0
  2338                           ;setting_hardaware/gyroscope.c: 165:     pitch_offset = calculate_angle(accX, accY, accZ
      +                          );
  2339   005762  C0E5  F0D7         	movff	Calibration@accX,calculate_angle@accX
  2340   005766  C0E6  F0D8         	movff	Calibration@accX+1,calculate_angle@accX+1
  2341   00576A  C0F7  F0D9         	movff	_accY,calculate_angle@accY
  2342   00576E  C0F8  F0DA         	movff	_accY+1,calculate_angle@accY+1
  2343   005772  C0E7  F0DB         	movff	Calibration@accZ,calculate_angle@accZ
  2344   005776  C0E8  F0DC         	movff	Calibration@accZ+1,calculate_angle@accZ+1
  2345   00577A  ECC9  F02C         	call	_calculate_angle	;wreg free
  2346   00577E  C0D7  F120         	movff	?_calculate_angle,_pitch_offset
  2347   005782  C0D8  F121         	movff	?_calculate_angle+1,_pitch_offset+1
  2348   005786  C0D9  F122         	movff	?_calculate_angle+2,_pitch_offset+2
  2349   00578A  C0DA  F123         	movff	?_calculate_angle+3,_pitch_offset+3
  2350   00578E  0012               	return		;funcret
  2351   005790                     __end_of_Calibration:
  2352                           	callstack 0
  2353                           
  2354 ;; *************** function _ADC_Initialize *****************
  2355 ;; Defined at:
  2356 ;;		line 8 in file "setting_hardaware/adc.c"
  2357 ;; Parameters:    Size  Location     Type
  2358 ;;		None
  2359 ;; Auto vars:     Size  Location     Type
  2360 ;;		None
  2361 ;; Return value:  Size  Location     Type
  2362 ;;                  1    wreg      void 
  2363 ;; Registers used:
  2364 ;;		wreg, status,2
  2365 ;; Tracked objects:
  2366 ;;		On entry : 0/0
  2367 ;;		On exit  : 0/0
  2368 ;;		Unchanged: 0/0
  2369 ;; Data sizes:     COMRAM   BANK0   BANK1   BANK2   BANK3   BANK4   BANK5
  2370 ;;      Params:         0       0       0       0       0       0       0
  2371 ;;      Locals:         0       0       0       0       0       0       0
  2372 ;;      Temps:          0       0       0       0       0       0       0
  2373 ;;      Totals:         0       0       0       0       0       0       0
  2374 ;;Total ram usage:        0 bytes
  2375 ;; Hardware stack levels used: 1
  2376 ;; This function calls:
  2377 ;;		Nothing
  2378 ;; This function is called by:
  2379 ;;		_SYSTEM_Initialize
  2380 ;; This function uses a non-reentrant model
  2381 ;;
  2382                           
  2383                           	psect	text7
  2384   0053A4                     __ptext7:
  2385                           	callstack 0
  2386   0053A4                     _ADC_Initialize:
  2387                           	callstack 29
  2388   0053A4                     
  2389                           ;setting_hardaware/adc.c: 10:     TRISAbits.RA0 = 1;
  2390   0053A4  8092               	bsf	146,0,c	;volatile
  2391   0053A6                     
  2392                           ;setting_hardaware/adc.c: 12:     ADCON1 = 0x0e;
  2393   0053A6  0E0E               	movlw	14
  2394   0053A8  6EC1               	movwf	193,c	;volatile
  2395   0053AA                     
  2396                           ;setting_hardaware/adc.c: 14:     ADFM = 1 ;
  2397   0053AA  8EC0               	bsf	4032,7,c	;volatile
  2398                           
  2399                           ;setting_hardaware/adc.c: 15:     ADCON2bits.ADCS = 7;
  2400   0053AC  0E07               	movlw	7
  2401   0053AE  12C0               	iorwf	192,f,c	;volatile
  2402                           
  2403                           ;setting_hardaware/adc.c: 16:     ADCON2bits.ACQT = 0b001;
  2404   0053B0  50C0               	movf	192,w,c	;volatile
  2405   0053B2  0BC7               	andlw	-57
  2406   0053B4  0908               	iorlw	8
  2407   0053B6  6EC0               	movwf	192,c	;volatile
  2408   0053B8                     
  2409                           ;setting_hardaware/adc.c: 18:     ADRESH=0;
  2410   0053B8  6AC4               	clrf	196,c	;volatile
  2411   0053BA                     
  2412                           ;setting_hardaware/adc.c: 19:     ADRESL=0;
  2413   0053BA  6AC3               	clrf	195,c	;volatile
  2414   0053BC  0012               	return		;funcret
  2415   0053BE                     __end_of_ADC_Initialize:
  2416                           	callstack 0
  2417                           
  2418 ;; *************** function _Check_Gyroscope *****************
  2419 ;; Defined at:
  2420 ;;		line 48 in file "setting_hardaware/gyroscope.c"
  2421 ;; Parameters:    Size  Location     Type
  2422 ;;  blinker_dir     2  125[COMRAM] int 
  2423 ;; Auto vars:     Size  Location     Type
  2424 ;;		None
  2425 ;; Return value:  Size  Location     Type
  2426 ;;                  1    wreg      void 
  2427 ;; Registers used:
  2428 ;;		wreg, status,2, status,0, tblptrl, tblptrh, tblptru, prodl, prodh, cstack
  2429 ;; Tracked objects:
  2430 ;;		On entry : 0/0
  2431 ;;		On exit  : 0/0
  2432 ;;		Unchanged: 0/0
  2433 ;; Data sizes:     COMRAM   BANK0   BANK1   BANK2   BANK3   BANK4   BANK5
  2434 ;;      Params:         2       0       0       0       0       0       0
  2435 ;;      Locals:         0       4       0       0       0       0       0
  2436 ;;      Temps:          0       2       0       0       0       0       0
  2437 ;;      Totals:         2       6       0       0       0       0       0
  2438 ;;Total ram usage:        8 bytes
  2439 ;; Hardware stack levels used: 1
  2440 ;; Hardware stack levels required when called: 5
  2441 ;; This function calls:
  2442 ;;		_I2C_Read
  2443 ;;		_I2C_Start
  2444 ;;		_I2C_Stop
  2445 ;;		_I2C_Write
  2446 ;;		_UART_Write_Text
  2447 ;;		___flge
  2448 ;;		___flsub
  2449 ;;		_calculate_angle
  2450 ;; This function is called by:
  2451 ;;		_main
  2452 ;; This function uses a non-reentrant model
  2453 ;;
  2454                           
  2455                           	psect	text8
  2456   005CDC                     __ptext8:
  2457                           	callstack 0
  2458   005CDC                     _Check_Gyroscope:
  2459                           	callstack 25
  2460   005CDC                     
  2461                           ;setting_hardaware/gyroscope.c: 49:     I2C_Start();
  2462   005CDC  ECAC  F029         	call	_I2C_Start	;wreg free
  2463   005CE0                     
  2464                           ;setting_hardaware/gyroscope.c: 50:     I2C_Write(0x68 << 1);
  2465   005CE0  0ED0               	movlw	208
  2466   005CE2  ECFE  F029         	call	_I2C_Write
  2467   005CE6                     
  2468                           ;setting_hardaware/gyroscope.c: 51:     I2C_Write(0x3B);
  2469   005CE6  0E3B               	movlw	59
  2470   005CE8  ECFE  F029         	call	_I2C_Write
  2471                           
  2472                           ;setting_hardaware/gyroscope.c: 52:     I2C_Start();
  2473   005CEC  ECAC  F029         	call	_I2C_Start	;wreg free
  2474   005CF0                     
  2475                           ;setting_hardaware/gyroscope.c: 53:     I2C_Write((0x68 << 1) | 1);
  2476   005CF0  0ED1               	movlw	209
  2477   005CF2  ECFE  F029         	call	_I2C_Write
  2478   005CF6                     
  2479                           ;setting_hardaware/gyroscope.c: 55:     accX_high = I2C_Read(1);
  2480   005CF6  0E01               	movlw	1
  2481   005CF8  EC7C  F02A         	call	_I2C_Read
  2482   005CFC  0100               	movlb	0	; () banked
  2483   005CFE  6FFE               	movwf	_accX_high& (0+255),b
  2484   005D00                     
  2485                           ; BSR set to: 0
  2486                           ;setting_hardaware/gyroscope.c: 56:     accX_low = I2C_Read(1);
  2487   005D00  0E01               	movlw	1
  2488   005D02  EC7C  F02A         	call	_I2C_Read
  2489   005D06  0100               	movlb	0	; () banked
  2490   005D08  6FFD               	movwf	_accX_low& (0+255),b
  2491   005D0A                     
  2492                           ; BSR set to: 0
  2493                           ;setting_hardaware/gyroscope.c: 57:     accY_high = I2C_Read(1);
  2494   005D0A  0E01               	movlw	1
  2495   005D0C  EC7C  F02A         	call	_I2C_Read
  2496   005D10  0100               	movlb	0	; () banked
  2497   005D12  6FFC               	movwf	_accY_high& (0+255),b
  2498   005D14                     
  2499                           ; BSR set to: 0
  2500                           ;setting_hardaware/gyroscope.c: 58:     accY_low = I2C_Read(1);
  2501   005D14  0E01               	movlw	1
  2502   005D16  EC7C  F02A         	call	_I2C_Read
  2503   005D1A  0100               	movlb	0	; () banked
  2504   005D1C  6FFB               	movwf	_accY_low& (0+255),b
  2505   005D1E                     
  2506                           ; BSR set to: 0
  2507                           ;setting_hardaware/gyroscope.c: 59:     accZ_high = I2C_Read(1);
  2508   005D1E  0E01               	movlw	1
  2509   005D20  EC7C  F02A         	call	_I2C_Read
  2510   005D24  0100               	movlb	0	; () banked
  2511   005D26  6FFA               	movwf	_accZ_high& (0+255),b
  2512   005D28                     
  2513                           ; BSR set to: 0
  2514                           ;setting_hardaware/gyroscope.c: 60:     accZ_low = I2C_Read(0);
  2515   005D28  0E00               	movlw	0
  2516   005D2A  EC7C  F02A         	call	_I2C_Read
  2517   005D2E  0100               	movlb	0	; () banked
  2518   005D30  6FF9               	movwf	_accZ_low& (0+255),b
  2519   005D32                     
  2520                           ; BSR set to: 0
  2521                           ;setting_hardaware/gyroscope.c: 61:     I2C_Stop();
  2522   005D32  ECB5  F029         	call	_I2C_Stop	;wreg free
  2523   005D36                     
  2524                           ;setting_hardaware/gyroscope.c: 64:     accX = (accX_high << 8) | accX_low;
  2525   005D36  0100               	movlb	0	; () banked
  2526   005D38  51FD               	movf	_accX_low& (0+255),w,b
  2527   005D3A  C0FE  F0E5         	movff	_accX_high,??_Check_Gyroscope
  2528   005D3E  6BE6               	clrf	(??_Check_Gyroscope+1)& (0+255),b
  2529   005D40  C0E5  F0E6         	movff	??_Check_Gyroscope,??_Check_Gyroscope+1
  2530   005D44  6BE5               	clrf	??_Check_Gyroscope& (0+255),b
  2531   005D46  11E5               	iorwf	??_Check_Gyroscope& (0+255),w,b
  2532   005D48  0101               	movlb	1	; () banked
  2533   005D4A  6F2A               	movwf	_accX& (0+255),b
  2534   005D4C  0100               	movlb	0	; () banked
  2535   005D4E  51E6               	movf	(??_Check_Gyroscope+1)& (0+255),w,b
  2536   005D50  0101               	movlb	1	; () banked
  2537   005D52  6F2B               	movwf	(_accX+1)& (0+255),b
  2538   005D54                     
  2539                           ; BSR set to: 1
  2540                           ;setting_hardaware/gyroscope.c: 65:     accY = (accY_high << 8) | accY_low;
  2541   005D54  0100               	movlb	0	; () banked
  2542   005D56  51FB               	movf	_accY_low& (0+255),w,b
  2543   005D58  C0FC  F0E5         	movff	_accY_high,??_Check_Gyroscope
  2544   005D5C  6BE6               	clrf	(??_Check_Gyroscope+1)& (0+255),b
  2545   005D5E  C0E5  F0E6         	movff	??_Check_Gyroscope,??_Check_Gyroscope+1
  2546   005D62  6BE5               	clrf	??_Check_Gyroscope& (0+255),b
  2547   005D64  11E5               	iorwf	??_Check_Gyroscope& (0+255),w,b
  2548   005D66  6FF7               	movwf	_accY& (0+255),b
  2549   005D68  51E6               	movf	(??_Check_Gyroscope+1)& (0+255),w,b
  2550   005D6A  6FF8               	movwf	(_accY+1)& (0+255),b
  2551   005D6C                     
  2552                           ; BSR set to: 0
  2553                           ;setting_hardaware/gyroscope.c: 66:     accZ = (accZ_high << 8) | accZ_low;
  2554   005D6C  51F9               	movf	_accZ_low& (0+255),w,b
  2555   005D6E  C0FA  F0E5         	movff	_accZ_high,??_Check_Gyroscope
  2556   005D72  6BE6               	clrf	(??_Check_Gyroscope+1)& (0+255),b
  2557   005D74  C0E5  F0E6         	movff	??_Check_Gyroscope,??_Check_Gyroscope+1
  2558   005D78  6BE5               	clrf	??_Check_Gyroscope& (0+255),b
  2559   005D7A  11E5               	iorwf	??_Check_Gyroscope& (0+255),w,b
  2560   005D7C  0101               	movlb	1	; () banked
  2561   005D7E  6F28               	movwf	_accZ& (0+255),b
  2562   005D80  0100               	movlb	0	; () banked
  2563   005D82  51E6               	movf	(??_Check_Gyroscope+1)& (0+255),w,b
  2564   005D84  0101               	movlb	1	; () banked
  2565   005D86  6F29               	movwf	(_accZ+1)& (0+255),b
  2566   005D88                     
  2567                           ; BSR set to: 1
  2568                           ;setting_hardaware/gyroscope.c: 69:     angle = calculate_angle(accX, accY, accZ) - pitc
      +                          h_offset;
  2569   005D88  C128  F0DB         	movff	_accZ,calculate_angle@accZ
  2570   005D8C  C129  F0DC         	movff	_accZ+1,calculate_angle@accZ+1
  2571   005D90  C0F7  F0D9         	movff	_accY,calculate_angle@accY
  2572   005D94  C0F8  F0DA         	movff	_accY+1,calculate_angle@accY+1
  2573   005D98  C12A  F0D7         	movff	_accX,calculate_angle@accX
  2574   005D9C  C12B  F0D8         	movff	_accX+1,calculate_angle@accX+1
  2575   005DA0  ECC9  F02C         	call	_calculate_angle	;wreg free
  2576   005DA4  C0D7  F0E7         	movff	?_calculate_angle,_Check_Gyroscope$1836
  2577   005DA8  C0D8  F0E8         	movff	?_calculate_angle+1,_Check_Gyroscope$1836+1
  2578   005DAC  C0D9  F0E9         	movff	?_calculate_angle+2,_Check_Gyroscope$1836+2
  2579   005DB0  C0DA  F0EA         	movff	?_calculate_angle+3,_Check_Gyroscope$1836+3
  2580   005DB4                     
  2581                           ;setting_hardaware/gyroscope.c: 69:     angle = calculate_angle(accX, accY, accZ) - pitc
      +                          h_offset;
  2582   005DB4  C0E7  F038         	movff	_Check_Gyroscope$1836,___flsub@b
  2583   005DB8  C0E8  F039         	movff	_Check_Gyroscope$1836+1,___flsub@b+1
  2584   005DBC  C0E9  F03A         	movff	_Check_Gyroscope$1836+2,___flsub@b+2
  2585   005DC0  C0EA  F03B         	movff	_Check_Gyroscope$1836+3,___flsub@b+3
  2586   005DC4  C120  F03C         	movff	_pitch_offset,___flsub@a
  2587   005DC8  C121  F03D         	movff	_pitch_offset+1,___flsub@a+1
  2588   005DCC  C122  F03E         	movff	_pitch_offset+2,___flsub@a+2
  2589   005DD0  C123  F03F         	movff	_pitch_offset+3,___flsub@a+3
  2590   005DD4  ECBB  F02A         	call	___flsub	;wreg free
  2591   005DD8  C038  F11C         	movff	?___flsub,_angle
  2592   005DDC  C039  F11D         	movff	?___flsub+1,_angle+1
  2593   005DE0  C03A  F11E         	movff	?___flsub+2,_angle+2
  2594   005DE4  C03B  F11F         	movff	?___flsub+3,_angle+3
  2595   005DE8                     
  2596                           ;setting_hardaware/gyroscope.c: 72:     if (angle > 30.0) {
  2597   005DE8  0E00               	movlw	0
  2598   005DEA  6E01               	movwf	___flge@ff1^0,c
  2599   005DEC  0E00               	movlw	0
  2600   005DEE  6E02               	movwf	(___flge@ff1+1)^0,c
  2601   005DF0  0EF0               	movlw	240
  2602   005DF2  6E03               	movwf	(___flge@ff1+2)^0,c
  2603   005DF4  0E41               	movlw	65
  2604   005DF6  6E04               	movwf	(___flge@ff1+3)^0,c
  2605   005DF8  C11C  F005         	movff	_angle,___flge@ff2
  2606   005DFC  C11D  F006         	movff	_angle+1,___flge@ff2+1
  2607   005E00  C11E  F007         	movff	_angle+2,___flge@ff2+2
  2608   005E04  C11F  F008         	movff	_angle+3,___flge@ff2+3
  2609   005E08  EC47  F02C         	call	___flge	;wreg free
  2610   005E0C  B0D8               	btfsc	status,0,c
  2611   005E0E  EF0B  F02F         	goto	u3411
  2612   005E12  EF0D  F02F         	goto	u3410
  2613   005E16                     u3411:
  2614   005E16  EF60  F02F         	goto	l3318
  2615   005E1A                     u3410:
  2616   005E1A                     
  2617                           ;setting_hardaware/gyroscope.c: 73:         if (dir == -1 && from_mid) {
  2618   005E1A  0100               	movlb	0	; () banked
  2619   005E1C  29F5               	incf	_dir& (0+255),w,b
  2620   005E1E  E106               	bnz	u3421
  2621   005E20  29F6               	incf	(_dir+1)& (0+255),w,b
  2622   005E22  A4D8               	btfss	status,2,c
  2623   005E24  EF16  F02F         	goto	u3421
  2624   005E28  EF18  F02F         	goto	u3420
  2625   005E2C                     u3421:
  2626   005E2C  EF33  F02F         	goto	l3304
  2627   005E30                     u3420:
  2628   005E30                     
  2629                           ; BSR set to: 0
  2630   005E30  51F3               	movf	_from_mid& (0+255),w,b
  2631   005E32  11F4               	iorwf	(_from_mid+1)& (0+255),w,b
  2632   005E34  B4D8               	btfsc	status,2,c
  2633   005E36  EF1F  F02F         	goto	u3431
  2634   005E3A  EF21  F02F         	goto	u3430
  2635   005E3E                     u3431:
  2636   005E3E  EF33  F02F         	goto	l3304
  2637   005E42                     u3430:
  2638   005E42                     
  2639                           ; BSR set to: 0
  2640                           ;setting_hardaware/gyroscope.c: 74:             dir = 0;
  2641   005E42  0E00               	movlw	0
  2642   005E44  6FF6               	movwf	(_dir+1)& (0+255),b
  2643   005E46  0E00               	movlw	0
  2644   005E48  6FF5               	movwf	_dir& (0+255),b
  2645                           
  2646                           ;setting_hardaware/gyroscope.c: 75:             from_mid = 0;
  2647   005E4A  0E00               	movlw	0
  2648   005E4C  6FF4               	movwf	(_from_mid+1)& (0+255),b
  2649   005E4E  0E00               	movlw	0
  2650   005E50  6FF3               	movwf	_from_mid& (0+255),b
  2651   005E52                     
  2652                           ; BSR set to: 0
  2653                           ;setting_hardaware/gyroscope.c: 76:             LATAbits.LATA5 = 0; LATAbits.LATA6 = 0;;
  2654   005E52  9A89               	bcf	137,5,c	;volatile
  2655   005E54                     
  2656                           ; BSR set to: 0
  2657   005E54  9C89               	bcf	137,6,c	;volatile
  2658   005E56                     
  2659                           ; BSR set to: 0
  2660                           ;setting_hardaware/gyroscope.c: 77:             UART_Write_Text("LF\r\n");
  2661   005E56  0E29               	movlw	low STR_2
  2662   005E58  6E02               	movwf	UART_Write_Text@text^0,c
  2663   005E5A  0E7D               	movlw	high STR_2
  2664   005E5C  6E03               	movwf	(UART_Write_Text@text+1)^0,c
  2665   005E5E  ECDE  F02A         	call	_UART_Write_Text	;wreg free
  2666                           
  2667                           ;setting_hardaware/gyroscope.c: 78:         } else if (dir == 0 && from_mid) {
  2668   005E62  EF52  F02F         	goto	l3316
  2669   005E66                     l3304:
  2670                           
  2671                           ; BSR set to: 0
  2672   005E66  51F5               	movf	_dir& (0+255),w,b
  2673   005E68  11F6               	iorwf	(_dir+1)& (0+255),w,b
  2674   005E6A  A4D8               	btfss	status,2,c
  2675   005E6C  EF3A  F02F         	goto	u3441
  2676   005E70  EF3C  F02F         	goto	u3440
  2677   005E74                     u3441:
  2678   005E74  EF52  F02F         	goto	l3316
  2679   005E78                     u3440:
  2680   005E78                     
  2681                           ; BSR set to: 0
  2682   005E78  51F3               	movf	_from_mid& (0+255),w,b
  2683   005E7A  11F4               	iorwf	(_from_mid+1)& (0+255),w,b
  2684   005E7C  B4D8               	btfsc	status,2,c
  2685   005E7E  EF43  F02F         	goto	u3451
  2686   005E82  EF45  F02F         	goto	u3450
  2687   005E86                     u3451:
  2688   005E86  EF52  F02F         	goto	l3316
  2689   005E8A                     u3450:
  2690   005E8A                     
  2691                           ; BSR set to: 0
  2692                           ;setting_hardaware/gyroscope.c: 79:             dir = -1;
  2693   005E8A  69F5               	setf	_dir& (0+255),b
  2694   005E8C  69F6               	setf	(_dir+1)& (0+255),b
  2695   005E8E                     
  2696                           ; BSR set to: 0
  2697                           ;setting_hardaware/gyroscope.c: 80:             from_mid = 0;
  2698   005E8E  0E00               	movlw	0
  2699   005E90  6FF4               	movwf	(_from_mid+1)& (0+255),b
  2700   005E92  0E00               	movlw	0
  2701   005E94  6FF3               	movwf	_from_mid& (0+255),b
  2702   005E96                     
  2703                           ; BSR set to: 0
  2704                           ;setting_hardaware/gyroscope.c: 81:             LATAbits.LATA6 = 1;;
  2705   005E96  8C89               	bsf	137,6,c	;volatile
  2706   005E98                     
  2707                           ; BSR set to: 0
  2708                           ;setting_hardaware/gyroscope.c: 82:             UART_Write_Text("LLN\r\n");
  2709   005E98  0E23               	movlw	low STR_3
  2710   005E9A  6E02               	movwf	UART_Write_Text@text^0,c
  2711   005E9C  0E7D               	movlw	high STR_3
  2712   005E9E  6E03               	movwf	(UART_Write_Text@text+1)^0,c
  2713   005EA0  ECDE  F02A         	call	_UART_Write_Text	;wreg free
  2714   005EA4                     l3316:
  2715                           
  2716                           ;setting_hardaware/gyroscope.c: 84:         _delay((unsigned long)((300)*(4000000/4000.0
      +                          )));
  2717   005EA4  0E02               	movlw	2
  2718   005EA6  0100               	movlb	0	; () banked
  2719   005EA8  6FE6               	movwf	(??_Check_Gyroscope+1)& (0+255),b
  2720   005EAA  0E86               	movlw	134
  2721   005EAC  6FE5               	movwf	??_Check_Gyroscope& (0+255),b
  2722   005EAE  0E99               	movlw	153
  2723   005EB0                     u3557:
  2724   005EB0  2EE8               	decfsz	wreg,f,c
  2725   005EB2  D7FE               	bra	u3557
  2726   005EB4  2FE5               	decfsz	??_Check_Gyroscope& (0+255),f,b
  2727   005EB6  D7FC               	bra	u3557
  2728   005EB8  2FE6               	decfsz	(??_Check_Gyroscope+1)& (0+255),f,b
  2729   005EBA  D7FA               	bra	u3557
  2730                           
  2731                           ;setting_hardaware/gyroscope.c: 85:     } else if (angle < -30.0) {
  2732   005EBC  EFBA  F02F         	goto	l258
  2733   005EC0                     l3318:
  2734   005EC0  C11C  F001         	movff	_angle,___flge@ff1
  2735   005EC4  C11D  F002         	movff	_angle+1,___flge@ff1+1
  2736   005EC8  C11E  F003         	movff	_angle+2,___flge@ff1+2
  2737   005ECC  C11F  F004         	movff	_angle+3,___flge@ff1+3
  2738   005ED0  0E00               	movlw	0
  2739   005ED2  6E05               	movwf	___flge@ff2^0,c
  2740   005ED4  0E00               	movlw	0
  2741   005ED6  6E06               	movwf	(___flge@ff2+1)^0,c
  2742   005ED8  0EF0               	movlw	240
  2743   005EDA  6E07               	movwf	(___flge@ff2+2)^0,c
  2744   005EDC  0EC1               	movlw	193
  2745   005EDE  6E08               	movwf	(___flge@ff2+3)^0,c
  2746   005EE0  EC47  F02C         	call	___flge	;wreg free
  2747   005EE4  B0D8               	btfsc	status,0,c
  2748   005EE6  EF77  F02F         	goto	u3461
  2749   005EEA  EF79  F02F         	goto	u3460
  2750   005EEE                     u3461:
  2751   005EEE  EFB5  F02F         	goto	l3340
  2752   005EF2                     u3460:
  2753   005EF2                     
  2754                           ;setting_hardaware/gyroscope.c: 86:         if (dir == 1 && from_mid) {
  2755   005EF2  0100               	movlb	0	; () banked
  2756   005EF4  05F5               	decf	_dir& (0+255),w,b
  2757   005EF6  11F6               	iorwf	(_dir+1)& (0+255),w,b
  2758   005EF8  A4D8               	btfss	status,2,c
  2759   005EFA  EF81  F02F         	goto	u3471
  2760   005EFE  EF83  F02F         	goto	u3470
  2761   005F02                     u3471:
  2762   005F02  EF98  F02F         	goto	l3330
  2763   005F06                     u3470:
  2764   005F06                     
  2765                           ; BSR set to: 0
  2766   005F06  51F3               	movf	_from_mid& (0+255),w,b
  2767   005F08  11F4               	iorwf	(_from_mid+1)& (0+255),w,b
  2768   005F0A  B4D8               	btfsc	status,2,c
  2769   005F0C  EF8A  F02F         	goto	u3481
  2770   005F10  EF8C  F02F         	goto	u3480
  2771   005F14                     u3481:
  2772   005F14  EF98  F02F         	goto	l3330
  2773   005F18                     u3480:
  2774   005F18                     
  2775                           ; BSR set to: 0
  2776                           ;setting_hardaware/gyroscope.c: 87:             dir = 0;
  2777   005F18  0E00               	movlw	0
  2778   005F1A  6FF6               	movwf	(_dir+1)& (0+255),b
  2779   005F1C  0E00               	movlw	0
  2780   005F1E  6FF5               	movwf	_dir& (0+255),b
  2781                           
  2782                           ;setting_hardaware/gyroscope.c: 88:             from_mid = 0;
  2783   005F20  0E00               	movlw	0
  2784   005F22  6FF4               	movwf	(_from_mid+1)& (0+255),b
  2785   005F24  0E00               	movlw	0
  2786   005F26  6FF3               	movwf	_from_mid& (0+255),b
  2787   005F28                     
  2788                           ; BSR set to: 0
  2789                           ;setting_hardaware/gyroscope.c: 89:             LATAbits.LATA5 = 0; LATAbits.LATA6 = 0;;
  2790   005F28  9A89               	bcf	137,5,c	;volatile
  2791   005F2A                     
  2792                           ; BSR set to: 0
  2793   005F2A  9C89               	bcf	137,6,c	;volatile
  2794                           
  2795                           ;setting_hardaware/gyroscope.c: 90:         } else if (dir == 0 && from_mid) {
  2796   005F2C  EF52  F02F         	goto	l3316
  2797   005F30                     l3330:
  2798                           
  2799                           ; BSR set to: 0
  2800   005F30  51F5               	movf	_dir& (0+255),w,b
  2801   005F32  11F6               	iorwf	(_dir+1)& (0+255),w,b
  2802   005F34  A4D8               	btfss	status,2,c
  2803   005F36  EF9F  F02F         	goto	u3491
  2804   005F3A  EFA1  F02F         	goto	u3490
  2805   005F3E                     u3491:
  2806   005F3E  EF52  F02F         	goto	l3316
  2807   005F42                     u3490:
  2808   005F42                     
  2809                           ; BSR set to: 0
  2810   005F42  51F3               	movf	_from_mid& (0+255),w,b
  2811   005F44  11F4               	iorwf	(_from_mid+1)& (0+255),w,b
  2812   005F46  B4D8               	btfsc	status,2,c
  2813   005F48  EFA8  F02F         	goto	u3501
  2814   005F4C  EFAA  F02F         	goto	u3500
  2815   005F50                     u3501:
  2816   005F50  EF52  F02F         	goto	l3316
  2817   005F54                     u3500:
  2818   005F54                     
  2819                           ; BSR set to: 0
  2820                           ;setting_hardaware/gyroscope.c: 91:             dir = 1;
  2821   005F54  0E00               	movlw	0
  2822   005F56  6FF6               	movwf	(_dir+1)& (0+255),b
  2823   005F58  0E01               	movlw	1
  2824   005F5A  6FF5               	movwf	_dir& (0+255),b
  2825                           
  2826                           ;setting_hardaware/gyroscope.c: 92:             from_mid = 0;
  2827   005F5C  0E00               	movlw	0
  2828   005F5E  6FF4               	movwf	(_from_mid+1)& (0+255),b
  2829   005F60  0E00               	movlw	0
  2830   005F62  6FF3               	movwf	_from_mid& (0+255),b
  2831   005F64                     
  2832                           ; BSR set to: 0
  2833                           ;setting_hardaware/gyroscope.c: 93:             LATAbits.LATA5 = 1;;
  2834   005F64  8A89               	bsf	137,5,c	;volatile
  2835   005F66  EF52  F02F         	goto	l3316
  2836   005F6A                     l3340:
  2837                           
  2838                           ;setting_hardaware/gyroscope.c: 97:         from_mid = 1;
  2839   005F6A  0E00               	movlw	0
  2840   005F6C  0100               	movlb	0	; () banked
  2841   005F6E  6FF4               	movwf	(_from_mid+1)& (0+255),b
  2842   005F70  0E01               	movlw	1
  2843   005F72  6FF3               	movwf	_from_mid& (0+255),b
  2844   005F74                     l258:
  2845   005F74  0012               	return		;funcret
  2846   005F76                     __end_of_Check_Gyroscope:
  2847                           	callstack 0
  2848                           
  2849 ;; *************** function _calculate_angle *****************
  2850 ;; Defined at:
  2851 ;;		line 101 in file "setting_hardaware/gyroscope.c"
  2852 ;; Parameters:    Size  Location     Type
  2853 ;;  accX            2   87[BANK0 ] short 
  2854 ;;  accY            2   89[BANK0 ] short 
  2855 ;;  accZ            2   91[BANK0 ] short 
  2856 ;; Auto vars:     Size  Location     Type
  2857 ;;		None
  2858 ;; Return value:  Size  Location     Type
  2859 ;;                  4   87[BANK0 ] float 
  2860 ;; Registers used:
  2861 ;;		wreg, status,2, status,0, tblptrl, tblptrh, tblptru, prodl, prodh, cstack
  2862 ;; Tracked objects:
  2863 ;;		On entry : 0/0
  2864 ;;		On exit  : 0/0
  2865 ;;		Unchanged: 0/0
  2866 ;; Data sizes:     COMRAM   BANK0   BANK1   BANK2   BANK3   BANK4   BANK5
  2867 ;;      Params:         0       6       0       0       0       0       0
  2868 ;;      Locals:         0       8       0       0       0       0       0
  2869 ;;      Temps:          0       0       0       0       0       0       0
  2870 ;;      Totals:         0      14       0       0       0       0       0
  2871 ;;Total ram usage:       14 bytes
  2872 ;; Hardware stack levels used: 1
  2873 ;; Hardware stack levels required when called: 4
  2874 ;; This function calls:
  2875 ;;		___fladd
  2876 ;;		___fldiv
  2877 ;;		___flmul
  2878 ;;		___xxtofl
  2879 ;;		_atan2f
  2880 ;;		_sqrtf
  2881 ;; This function is called by:
  2882 ;;		_Check_Gyroscope
  2883 ;;		_Calibration
  2884 ;; This function uses a non-reentrant model
  2885 ;;
  2886                           
  2887                           	psect	text9
  2888   005992                     __ptext9:
  2889                           	callstack 0
  2890   005992                     _calculate_angle:
  2891                           	callstack 23
  2892   005992                     
  2893                           ;setting_hardaware/gyroscope.c: 102:     return atan2f((float)accX,sqrtf((float)accY * a
      +                          ccY + (float)accZ * accZ)) * 180.0 / 3.14159265358979323846;
  2894   005992  C0DB  F001         	movff	calculate_angle@accZ,___xxtofl@val
  2895   005996  C0DC  F002         	movff	calculate_angle@accZ+1,___xxtofl@val+1
  2896   00599A  0E00               	movlw	0
  2897   00599C  BE02               	btfsc	(___xxtofl@val+1)^0,7,c
  2898   00599E  0EFF               	movlw	-1
  2899   0059A0  6E03               	movwf	(___xxtofl@val+2)^0,c
  2900   0059A2  6E04               	movwf	(___xxtofl@val+3)^0,c
  2901   0059A4  0E01               	movlw	1
  2902   0059A6  EC94  F02D         	call	___xxtofl
  2903   0059AA  C001  F013         	movff	?___xxtofl,___flmul@a
  2904   0059AE  C002  F014         	movff	?___xxtofl+1,___flmul@a+1
  2905   0059B2  C003  F015         	movff	?___xxtofl+2,___flmul@a+2
  2906   0059B6  C004  F016         	movff	?___xxtofl+3,___flmul@a+3
  2907   0059BA  C0DB  F001         	movff	calculate_angle@accZ,___xxtofl@val
  2908   0059BE  C0DC  F002         	movff	calculate_angle@accZ+1,___xxtofl@val+1
  2909   0059C2  0E00               	movlw	0
  2910   0059C4  BE02               	btfsc	(___xxtofl@val+1)^0,7,c
  2911   0059C6  0EFF               	movlw	-1
  2912   0059C8  6E03               	movwf	(___xxtofl@val+2)^0,c
  2913   0059CA  6E04               	movwf	(___xxtofl@val+3)^0,c
  2914   0059CC  0E01               	movlw	1
  2915   0059CE  EC94  F02D         	call	___xxtofl
  2916   0059D2  C001  F00F         	movff	?___xxtofl,___flmul@b
  2917   0059D6  C002  F010         	movff	?___xxtofl+1,___flmul@b+1
  2918   0059DA  C003  F011         	movff	?___xxtofl+2,___flmul@b+2
  2919   0059DE  C004  F012         	movff	?___xxtofl+3,___flmul@b+3
  2920   0059E2  EC72  F033         	call	___flmul	;wreg free
  2921   0059E6  C00F  F02C         	movff	?___flmul,___fladd@a
  2922   0059EA  C010  F02D         	movff	?___flmul+1,___fladd@a+1
  2923   0059EE  C011  F02E         	movff	?___flmul+2,___fladd@a+2
  2924   0059F2  C012  F02F         	movff	?___flmul+3,___fladd@a+3
  2925   0059F6  C0D9  F001         	movff	calculate_angle@accY,___xxtofl@val
  2926   0059FA  C0DA  F002         	movff	calculate_angle@accY+1,___xxtofl@val+1
  2927   0059FE  0E00               	movlw	0
  2928   005A00  BE02               	btfsc	(___xxtofl@val+1)^0,7,c
  2929   005A02  0EFF               	movlw	-1
  2930   005A04  6E03               	movwf	(___xxtofl@val+2)^0,c
  2931   005A06  6E04               	movwf	(___xxtofl@val+3)^0,c
  2932   005A08  0E01               	movlw	1
  2933   005A0A  EC94  F02D         	call	___xxtofl
  2934   005A0E  C001  F013         	movff	?___xxtofl,___flmul@a
  2935   005A12  C002  F014         	movff	?___xxtofl+1,___flmul@a+1
  2936   005A16  C003  F015         	movff	?___xxtofl+2,___flmul@a+2
  2937   005A1A  C004  F016         	movff	?___xxtofl+3,___flmul@a+3
  2938   005A1E  C0D9  F001         	movff	calculate_angle@accY,___xxtofl@val
  2939   005A22  C0DA  F002         	movff	calculate_angle@accY+1,___xxtofl@val+1
  2940   005A26  0E00               	movlw	0
  2941   005A28  BE02               	btfsc	(___xxtofl@val+1)^0,7,c
  2942   005A2A  0EFF               	movlw	-1
  2943   005A2C  6E03               	movwf	(___xxtofl@val+2)^0,c
  2944   005A2E  6E04               	movwf	(___xxtofl@val+3)^0,c
  2945   005A30  0E01               	movlw	1
  2946   005A32  EC94  F02D         	call	___xxtofl
  2947   005A36  C001  F00F         	movff	?___xxtofl,___flmul@b
  2948   005A3A  C002  F010         	movff	?___xxtofl+1,___flmul@b+1
  2949   005A3E  C003  F011         	movff	?___xxtofl+2,___flmul@b+2
  2950   005A42  C004  F012         	movff	?___xxtofl+3,___flmul@b+3
  2951   005A46  EC72  F033         	call	___flmul	;wreg free
  2952   005A4A  C00F  F028         	movff	?___flmul,___fladd@b
  2953   005A4E  C010  F029         	movff	?___flmul+1,___fladd@b+1
  2954   005A52  C011  F02A         	movff	?___flmul+2,___fladd@b+2
  2955   005A56  C012  F02B         	movff	?___flmul+3,___fladd@b+3
  2956   005A5A  EC85  F035         	call	___fladd	;wreg free
  2957   005A5E  C028  F038         	movff	?___fladd,sqrtf@x
  2958   005A62  C029  F039         	movff	?___fladd+1,sqrtf@x+1
  2959   005A66  C02A  F03A         	movff	?___fladd+2,sqrtf@x+2
  2960   005A6A  C02B  F03B         	movff	?___fladd+3,sqrtf@x+3
  2961   005A6E  EC83  F031         	call	_sqrtf	;wreg free
  2962   005A72  C038  F0DD         	movff	?_sqrtf,_calculate_angle$1837
  2963   005A76  C039  F0DE         	movff	?_sqrtf+1,_calculate_angle$1837+1
  2964   005A7A  C03A  F0DF         	movff	?_sqrtf+2,_calculate_angle$1837+2
  2965   005A7E  C03B  F0E0         	movff	?_sqrtf+3,_calculate_angle$1837+3
  2966   005A82                     
  2967                           ;setting_hardaware/gyroscope.c: 102:     return atan2f((float)accX,sqrtf((float)accY * a
      +                          ccY + (float)accZ * accZ)) * 180.0 / 3.14159265358979323846;
  2968   005A82  C0DD  F0B2         	movff	_calculate_angle$1837,atan2f@x
  2969   005A86  C0DE  F0B3         	movff	_calculate_angle$1837+1,atan2f@x+1
  2970   005A8A  C0DF  F0B4         	movff	_calculate_angle$1837+2,atan2f@x+2
  2971   005A8E  C0E0  F0B5         	movff	_calculate_angle$1837+3,atan2f@x+3
  2972   005A92  C0D7  F001         	movff	calculate_angle@accX,___xxtofl@val
  2973   005A96  C0D8  F002         	movff	calculate_angle@accX+1,___xxtofl@val+1
  2974   005A9A  0E00               	movlw	0
  2975   005A9C  BE02               	btfsc	(___xxtofl@val+1)^0,7,c
  2976   005A9E  0EFF               	movlw	-1
  2977   005AA0  6E03               	movwf	(___xxtofl@val+2)^0,c
  2978   005AA2  6E04               	movwf	(___xxtofl@val+3)^0,c
  2979   005AA4  0E01               	movlw	1
  2980   005AA6  EC94  F02D         	call	___xxtofl
  2981   005AAA  C001  F0AE         	movff	?___xxtofl,atan2f@y
  2982   005AAE  C002  F0AF         	movff	?___xxtofl+1,atan2f@y+1
  2983   005AB2  C003  F0B0         	movff	?___xxtofl+2,atan2f@y+2
  2984   005AB6  C004  F0B1         	movff	?___xxtofl+3,atan2f@y+3
  2985   005ABA  ECE0  F037         	call	_atan2f	;wreg free
  2986   005ABE  C0AE  F0E1         	movff	?_atan2f,_calculate_angle$1838
  2987   005AC2  C0AF  F0E2         	movff	?_atan2f+1,_calculate_angle$1838+1
  2988   005AC6  C0B0  F0E3         	movff	?_atan2f+2,_calculate_angle$1838+2
  2989   005ACA  C0B1  F0E4         	movff	?_atan2f+3,_calculate_angle$1838+3
  2990   005ACE                     
  2991                           ;setting_hardaware/gyroscope.c: 102:     return atan2f((float)accX,sqrtf((float)accY * a
      +                          ccY + (float)accZ * accZ)) * 180.0 / 3.14159265358979323846;
  2992   005ACE  0E00               	movlw	0
  2993   005AD0  6E13               	movwf	___flmul@a^0,c
  2994   005AD2  0E00               	movlw	0
  2995   005AD4  6E14               	movwf	(___flmul@a+1)^0,c
  2996   005AD6  0E34               	movlw	52
  2997   005AD8  6E15               	movwf	(___flmul@a+2)^0,c
  2998   005ADA  0E43               	movlw	67
  2999   005ADC  6E16               	movwf	(___flmul@a+3)^0,c
  3000   005ADE  C0E1  F00F         	movff	_calculate_angle$1838,___flmul@b
  3001   005AE2  C0E2  F010         	movff	_calculate_angle$1838+1,___flmul@b+1
  3002   005AE6  C0E3  F011         	movff	_calculate_angle$1838+2,___flmul@b+2
  3003   005AEA  C0E4  F012         	movff	_calculate_angle$1838+3,___flmul@b+3
  3004   005AEE  EC72  F033         	call	___flmul	;wreg free
  3005   005AF2  C00F  F05D         	movff	?___flmul,___fldiv@b
  3006   005AF6  C010  F05E         	movff	?___flmul+1,___fldiv@b+1
  3007   005AFA  C011  F05F         	movff	?___flmul+2,___fldiv@b+2
  3008   005AFE  C012  F060         	movff	?___flmul+3,___fldiv@b+3
  3009   005B02  0EDB               	movlw	219
  3010   005B04  6E61               	movwf	___fldiv@a^0,c
  3011   005B06  0E0F               	movlw	15
  3012   005B08  6E62               	movwf	(___fldiv@a+1)^0,c
  3013   005B0A  0E49               	movlw	73
  3014   005B0C  6E63               	movwf	(___fldiv@a+2)^0,c
  3015   005B0E  0E40               	movlw	64
  3016   005B10  6E64               	movwf	(___fldiv@a+3)^0,c
  3017   005B12  ECBB  F02F         	call	___fldiv	;wreg free
  3018   005B16  C05D  F0D7         	movff	?___fldiv,?_calculate_angle
  3019   005B1A  C05E  F0D8         	movff	?___fldiv+1,?_calculate_angle+1
  3020   005B1E  C05F  F0D9         	movff	?___fldiv+2,?_calculate_angle+2
  3021   005B22  C060  F0DA         	movff	?___fldiv+3,?_calculate_angle+3
  3022   005B26  0012               	return		;funcret
  3023   005B28                     __end_of_calculate_angle:
  3024                           	callstack 0
  3025                           
  3026 ;; *************** function _sqrtf *****************
  3027 ;; Defined at:
  3028 ;;		line 24 in file "C:\Program Files\Microchip\xc8\v2.50\pic\sources\c99\common\sqrtf.c"
  3029 ;; Parameters:    Size  Location     Type
  3030 ;;  x               4   55[COMRAM] float 
  3031 ;; Auto vars:     Size  Location     Type
  3032 ;;  ix              4   88[COMRAM] struct .
  3033 ;;  r               4   84[COMRAM] unsigned long 
  3034 ;;  m               4   80[COMRAM] long 
  3035 ;;  t               4   76[COMRAM] long 
  3036 ;;  q               4   72[COMRAM] long 
  3037 ;;  i               4   68[COMRAM] long 
  3038 ;;  s               4   64[COMRAM] long 
  3039 ;;  z               4    0        float 
  3040 ;; Return value:  Size  Location     Type
  3041 ;;                  4   55[COMRAM] float 
  3042 ;; Registers used:
  3043 ;;		wreg, status,2, status,0
  3044 ;; Tracked objects:
  3045 ;;		On entry : 0/0
  3046 ;;		On exit  : 0/0
  3047 ;;		Unchanged: 0/0
  3048 ;; Data sizes:     COMRAM   BANK0   BANK1   BANK2   BANK3   BANK4   BANK5
  3049 ;;      Params:         4       0       0       0       0       0       0
  3050 ;;      Locals:        28       0       0       0       0       0       0
  3051 ;;      Temps:          5       0       0       0       0       0       0
  3052 ;;      Totals:        37       0       0       0       0       0       0
  3053 ;;Total ram usage:       37 bytes
  3054 ;; Hardware stack levels used: 1
  3055 ;; This function calls:
  3056 ;;		Nothing
  3057 ;; This function is called by:
  3058 ;;		_calculate_angle
  3059 ;; This function uses a non-reentrant model
  3060 ;;
  3061                           
  3062                           	psect	text10
  3063   006306                     __ptext10:
  3064                           	callstack 0
  3065   006306                     _sqrtf:
  3066                           	callstack 26
  3067   006306  C038  F059         	movff	sqrtf@x,sqrtf@ix
  3068   00630A  C039  F05A         	movff	sqrtf@x+1,sqrtf@ix+1
  3069   00630E  C03A  F05B         	movff	sqrtf@x+2,sqrtf@ix+2
  3070   006312  C03B  F05C         	movff	sqrtf@x+3,sqrtf@ix+3
  3071   006316  0E00               	movlw	0
  3072   006318  1459               	andwf	sqrtf@ix^0,w,c
  3073   00631A  6E3C               	movwf	??_sqrtf^0,c
  3074   00631C  0E00               	movlw	0
  3075   00631E  145A               	andwf	(sqrtf@ix+1)^0,w,c
  3076   006320  6E3D               	movwf	(??_sqrtf+1)^0,c
  3077   006322  0E80               	movlw	128
  3078   006324  145B               	andwf	(sqrtf@ix+2)^0,w,c
  3079   006326  6E3E               	movwf	(??_sqrtf+2)^0,c
  3080   006328  0E7F               	movlw	127
  3081   00632A  145C               	andwf	(sqrtf@ix+3)^0,w,c
  3082   00632C  6E3F               	movwf	(??_sqrtf+3)^0,c
  3083   00632E  0E80               	movlw	128
  3084   006330  183E               	xorwf	(??_sqrtf+2)^0,w,c
  3085   006332  E109               	bnz	u2821
  3086   006334  0E7F               	movlw	127
  3087   006336  183F               	xorwf	(??_sqrtf+3)^0,w,c
  3088   006338  103C               	iorwf	??_sqrtf^0,w,c
  3089   00633A  103D               	iorwf	(??_sqrtf+1)^0,w,c
  3090   00633C  A4D8               	btfss	status,2,c
  3091   00633E  EFA3  F031         	goto	u2821
  3092   006342  EFA5  F031         	goto	u2820
  3093   006346                     u2821:
  3094   006346  EFD5  F031         	goto	l2872
  3095   00634A                     u2820:
  3096   00634A  0EFF               	movlw	255
  3097   00634C  1459               	andwf	sqrtf@ix^0,w,c
  3098   00634E  6E3C               	movwf	??_sqrtf^0,c
  3099   006350  0EFF               	movlw	255
  3100   006352  145A               	andwf	(sqrtf@ix+1)^0,w,c
  3101   006354  6E3D               	movwf	(??_sqrtf+1)^0,c
  3102   006356  0E7F               	movlw	127
  3103   006358  145B               	andwf	(sqrtf@ix+2)^0,w,c
  3104   00635A  6E3E               	movwf	(??_sqrtf+2)^0,c
  3105   00635C  0E00               	movlw	0
  3106   00635E  145C               	andwf	(sqrtf@ix+3)^0,w,c
  3107   006360  6E3F               	movwf	(??_sqrtf+3)^0,c
  3108   006362  503C               	movf	??_sqrtf^0,w,c
  3109   006364  103D               	iorwf	(??_sqrtf+1)^0,w,c
  3110   006366  103E               	iorwf	(??_sqrtf+2)^0,w,c
  3111   006368  103F               	iorwf	(??_sqrtf+3)^0,w,c
  3112   00636A  A4D8               	btfss	status,2,c
  3113   00636C  EFBA  F031         	goto	u2831
  3114   006370  EFBC  F031         	goto	u2830
  3115   006374                     u2831:
  3116   006374  EFC3  F031         	goto	l2866
  3117   006378                     u2830:
  3118   006378  BE5C               	btfsc	(sqrtf@ix+3)^0,7,c
  3119   00637A  EFC3  F031         	goto	u2840
  3120   00637E  EFC1  F031         	goto	u2841
  3121   006382                     u2841:
  3122   006382  EFCB  F031         	goto	l2868
  3123   006386                     u2840:
  3124   006386                     l2866:
  3125   006386  0EFF               	movlw	255
  3126   006388  1259               	iorwf	sqrtf@ix^0,f,c
  3127   00638A  0EFF               	movlw	255
  3128   00638C  125A               	iorwf	(sqrtf@ix+1)^0,f,c
  3129   00638E  0E7F               	movlw	127
  3130   006390  125B               	iorwf	(sqrtf@ix+2)^0,f,c
  3131   006392  0E00               	movlw	0
  3132   006394  125C               	iorwf	(sqrtf@ix+3)^0,f,c
  3133   006396                     l2868:
  3134   006396  C059  F038         	movff	sqrtf@ix,?_sqrtf
  3135   00639A  C05A  F039         	movff	sqrtf@ix+1,?_sqrtf+1
  3136   00639E  C05B  F03A         	movff	sqrtf@ix+2,?_sqrtf+2
  3137   0063A2  C05C  F03B         	movff	sqrtf@ix+3,?_sqrtf+3
  3138   0063A6  EF71  F033         	goto	l1097
  3139   0063AA                     l2872:
  3140   0063AA  BE5C               	btfsc	(sqrtf@ix+3)^0,7,c
  3141   0063AC  EFE4  F031         	goto	u2850
  3142   0063B0  505C               	movf	(sqrtf@ix+3)^0,w,c
  3143   0063B2  105B               	iorwf	(sqrtf@ix+2)^0,w,c
  3144   0063B4  105A               	iorwf	(sqrtf@ix+1)^0,w,c
  3145   0063B6  E106               	bnz	u2851
  3146   0063B8  0459               	decf	sqrtf@ix^0,w,c
  3147   0063BA  B0D8               	btfsc	status,0,c
  3148   0063BC  EFE2  F031         	goto	u2851
  3149   0063C0  EFE4  F031         	goto	u2850
  3150   0063C4                     u2851:
  3151   0063C4  EF1B  F032         	goto	l2888
  3152   0063C8                     u2850:
  3153   0063C8  0EFF               	movlw	255
  3154   0063CA  1459               	andwf	sqrtf@ix^0,w,c
  3155   0063CC  6E3C               	movwf	??_sqrtf^0,c
  3156   0063CE  0EFF               	movlw	255
  3157   0063D0  145A               	andwf	(sqrtf@ix+1)^0,w,c
  3158   0063D2  6E3D               	movwf	(??_sqrtf+1)^0,c
  3159   0063D4  0EFF               	movlw	255
  3160   0063D6  145B               	andwf	(sqrtf@ix+2)^0,w,c
  3161   0063D8  6E3E               	movwf	(??_sqrtf+2)^0,c
  3162   0063DA  0E7F               	movlw	127
  3163   0063DC  145C               	andwf	(sqrtf@ix+3)^0,w,c
  3164   0063DE  6E3F               	movwf	(??_sqrtf+3)^0,c
  3165   0063E0  503C               	movf	??_sqrtf^0,w,c
  3166   0063E2  103D               	iorwf	(??_sqrtf+1)^0,w,c
  3167   0063E4  103E               	iorwf	(??_sqrtf+2)^0,w,c
  3168   0063E6  103F               	iorwf	(??_sqrtf+3)^0,w,c
  3169   0063E8  A4D8               	btfss	status,2,c
  3170   0063EA  EFF9  F031         	goto	u2861
  3171   0063EE  EFFB  F031         	goto	u2860
  3172   0063F2                     u2861:
  3173   0063F2  EF05  F032         	goto	l2880
  3174   0063F6                     u2860:
  3175   0063F6  0E00               	movlw	0
  3176   0063F8  6E38               	movwf	?_sqrtf^0,c
  3177   0063FA  0E00               	movlw	0
  3178   0063FC  6E39               	movwf	(?_sqrtf+1)^0,c
  3179   0063FE  0E00               	movlw	0
  3180   006400  6E3A               	movwf	(?_sqrtf+2)^0,c
  3181   006402  0E00               	movlw	0
  3182   006404  6E3B               	movwf	(?_sqrtf+3)^0,c
  3183   006406  EF71  F033         	goto	l1097
  3184   00640A                     l2880:
  3185   00640A  BE5C               	btfsc	(sqrtf@ix+3)^0,7,c
  3186   00640C  EF0C  F032         	goto	u2870
  3187   006410  EF0A  F032         	goto	u2871
  3188   006414                     u2871:
  3189   006414  EF1B  F032         	goto	l2888
  3190   006418                     u2870:
  3191   006418  0E00               	movlw	0
  3192   00641A  0101               	movlb	1	; () banked
  3193   00641C  6F25               	movwf	(_errno+1)& (0+255),b
  3194   00641E  0E21               	movlw	33
  3195   006420  6F24               	movwf	_errno& (0+255),b
  3196   006422  0EFF               	movlw	255
  3197   006424  6E59               	movwf	sqrtf@ix^0,c
  3198   006426  0EFF               	movlw	255
  3199   006428  6E5A               	movwf	(sqrtf@ix+1)^0,c
  3200   00642A  0EFF               	movlw	255
  3201   00642C  6E5B               	movwf	(sqrtf@ix+2)^0,c
  3202   00642E  0E7F               	movlw	127
  3203   006430  6E5C               	movwf	(sqrtf@ix+3)^0,c
  3204   006432  EFCB  F031         	goto	l2868
  3205   006436                     l2888:
  3206   006436  0E17               	movlw	23
  3207   006438  6E3C               	movwf	??_sqrtf^0,c
  3208   00643A  C059  F03D         	movff	sqrtf@ix,??_sqrtf+1
  3209   00643E  C05A  F03E         	movff	sqrtf@ix+1,??_sqrtf+2
  3210   006442  C05B  F03F         	movff	sqrtf@ix+2,??_sqrtf+3
  3211   006446  C05C  F040         	movff	sqrtf@ix+3,??_sqrtf+4
  3212   00644A                     u2885:
  3213   00644A  663C               	tstfsz	??_sqrtf^0,c
  3214   00644C  EF2A  F032         	goto	u2886
  3215   006450  EF32  F032         	goto	u2887
  3216   006454                     u2886:
  3217   006454  3440               	rlcf	(??_sqrtf+4)^0,w,c
  3218   006456  3240               	rrcf	(??_sqrtf+4)^0,f,c
  3219   006458  323F               	rrcf	(??_sqrtf+3)^0,f,c
  3220   00645A  323E               	rrcf	(??_sqrtf+2)^0,f,c
  3221   00645C  323D               	rrcf	(??_sqrtf+1)^0,f,c
  3222   00645E  2E3C               	decfsz	??_sqrtf^0,f,c
  3223   006460  EF25  F032         	goto	u2885
  3224   006464                     u2887:
  3225   006464  C03D  F051         	movff	??_sqrtf+1,sqrtf@m
  3226   006468  C03E  F052         	movff	??_sqrtf+2,sqrtf@m+1
  3227   00646C  C03F  F053         	movff	??_sqrtf+3,sqrtf@m+2
  3228   006470  C040  F054         	movff	??_sqrtf+4,sqrtf@m+3
  3229   006474  5051               	movf	sqrtf@m^0,w,c
  3230   006476  1052               	iorwf	(sqrtf@m+1)^0,w,c
  3231   006478  1053               	iorwf	(sqrtf@m+2)^0,w,c
  3232   00647A  1054               	iorwf	(sqrtf@m+3)^0,w,c
  3233   00647C  A4D8               	btfss	status,2,c
  3234   00647E  EF43  F032         	goto	u2891
  3235   006482  EF45  F032         	goto	u2890
  3236   006486                     u2891:
  3237   006486  EF75  F032         	goto	l1101
  3238   00648A                     u2890:
  3239   00648A  0E00               	movlw	0
  3240   00648C  6E45               	movwf	sqrtf@i^0,c
  3241   00648E  0E00               	movlw	0
  3242   006490  6E46               	movwf	(sqrtf@i+1)^0,c
  3243   006492  0E00               	movlw	0
  3244   006494  6E47               	movwf	(sqrtf@i+2)^0,c
  3245   006496  0E00               	movlw	0
  3246   006498  6E48               	movwf	(sqrtf@i+3)^0,c
  3247   00649A  EF5A  F032         	goto	l2896
  3248   00649E                     l2892:
  3249   00649E  90D8               	bcf	status,0,c
  3250   0064A0  3659               	rlcf	sqrtf@ix^0,f,c
  3251   0064A2  365A               	rlcf	(sqrtf@ix+1)^0,f,c
  3252   0064A4  365B               	rlcf	(sqrtf@ix+2)^0,f,c
  3253   0064A6  365C               	rlcf	(sqrtf@ix+3)^0,f,c
  3254   0064A8  0E01               	movlw	1
  3255   0064AA  2645               	addwf	sqrtf@i^0,f,c
  3256   0064AC  0E00               	movlw	0
  3257   0064AE  2246               	addwfc	(sqrtf@i+1)^0,f,c
  3258   0064B0  2247               	addwfc	(sqrtf@i+2)^0,f,c
  3259   0064B2  2248               	addwfc	(sqrtf@i+3)^0,f,c
  3260   0064B4                     l2896:
  3261   0064B4  AE5B               	btfss	(sqrtf@ix+2)^0,7,c
  3262   0064B6  EF5F  F032         	goto	u2901
  3263   0064BA  EF61  F032         	goto	u2900
  3264   0064BE                     u2901:
  3265   0064BE  EF4F  F032         	goto	l2892
  3266   0064C2                     u2900:
  3267   0064C2  0EFF               	movlw	255
  3268   0064C4  2445               	addwf	sqrtf@i^0,w,c
  3269   0064C6  6E3C               	movwf	??_sqrtf^0,c
  3270   0064C8  0EFF               	movlw	255
  3271   0064CA  2046               	addwfc	(sqrtf@i+1)^0,w,c
  3272   0064CC  6E3D               	movwf	(??_sqrtf+1)^0,c
  3273   0064CE  0EFF               	movlw	255
  3274   0064D0  2047               	addwfc	(sqrtf@i+2)^0,w,c
  3275   0064D2  6E3E               	movwf	(??_sqrtf+2)^0,c
  3276   0064D4  0EFF               	movlw	255
  3277   0064D6  2048               	addwfc	(sqrtf@i+3)^0,w,c
  3278   0064D8  6E3F               	movwf	(??_sqrtf+3)^0,c
  3279   0064DA  503C               	movf	??_sqrtf^0,w,c
  3280   0064DC  5E51               	subwf	sqrtf@m^0,f,c
  3281   0064DE  503D               	movf	(??_sqrtf+1)^0,w,c
  3282   0064E0  5A52               	subwfb	(sqrtf@m+1)^0,f,c
  3283   0064E2  503E               	movf	(??_sqrtf+2)^0,w,c
  3284   0064E4  5A53               	subwfb	(sqrtf@m+2)^0,f,c
  3285   0064E6  503F               	movf	(??_sqrtf+3)^0,w,c
  3286   0064E8  5A54               	subwfb	(sqrtf@m+3)^0,f,c
  3287   0064EA                     l1101:
  3288   0064EA  0E81               	movlw	129
  3289   0064EC  2651               	addwf	sqrtf@m^0,f,c
  3290   0064EE  0EFF               	movlw	255
  3291   0064F0  2252               	addwfc	(sqrtf@m+1)^0,f,c
  3292   0064F2  0EFF               	movlw	255
  3293   0064F4  2253               	addwfc	(sqrtf@m+2)^0,f,c
  3294   0064F6  0EFF               	movlw	255
  3295   0064F8  2254               	addwfc	(sqrtf@m+3)^0,f,c
  3296   0064FA  0EFF               	movlw	255
  3297   0064FC  1459               	andwf	sqrtf@ix^0,w,c
  3298   0064FE  6E3C               	movwf	??_sqrtf^0,c
  3299   006500  0EFF               	movlw	255
  3300   006502  145A               	andwf	(sqrtf@ix+1)^0,w,c
  3301   006504  6E3D               	movwf	(??_sqrtf+1)^0,c
  3302   006506  0E7F               	movlw	127
  3303   006508  145B               	andwf	(sqrtf@ix+2)^0,w,c
  3304   00650A  6E3E               	movwf	(??_sqrtf+2)^0,c
  3305   00650C  0E00               	movlw	0
  3306   00650E  145C               	andwf	(sqrtf@ix+3)^0,w,c
  3307   006510  6E3F               	movwf	(??_sqrtf+3)^0,c
  3308   006512  0E00               	movlw	0
  3309   006514  103C               	iorwf	??_sqrtf^0,w,c
  3310   006516  6E59               	movwf	sqrtf@ix^0,c
  3311   006518  0E00               	movlw	0
  3312   00651A  103D               	iorwf	(??_sqrtf+1)^0,w,c
  3313   00651C  6E5A               	movwf	(sqrtf@ix+1)^0,c
  3314   00651E  0E80               	movlw	128
  3315   006520  103E               	iorwf	(??_sqrtf+2)^0,w,c
  3316   006522  6E5B               	movwf	(sqrtf@ix+2)^0,c
  3317   006524  0E00               	movlw	0
  3318   006526  103F               	iorwf	(??_sqrtf+3)^0,w,c
  3319   006528  6E5C               	movwf	(sqrtf@ix+3)^0,c
  3320   00652A  A051               	btfss	sqrtf@m^0,0,c
  3321   00652C  EF9A  F032         	goto	u2911
  3322   006530  EF9C  F032         	goto	u2910
  3323   006534                     u2911:
  3324   006534  EFA4  F032         	goto	l1105
  3325   006538                     u2910:
  3326   006538  5059               	movf	sqrtf@ix^0,w,c
  3327   00653A  2659               	addwf	sqrtf@ix^0,f,c
  3328   00653C  505A               	movf	(sqrtf@ix+1)^0,w,c
  3329   00653E  225A               	addwfc	(sqrtf@ix+1)^0,f,c
  3330   006540  505B               	movf	(sqrtf@ix+2)^0,w,c
  3331   006542  225B               	addwfc	(sqrtf@ix+2)^0,f,c
  3332   006544  505C               	movf	(sqrtf@ix+3)^0,w,c
  3333   006546  225C               	addwfc	(sqrtf@ix+3)^0,f,c
  3334   006548                     l1105:
  3335   006548  3454               	rlcf	(sqrtf@m+3)^0,w,c
  3336   00654A  3254               	rrcf	(sqrtf@m+3)^0,f,c
  3337   00654C  3253               	rrcf	(sqrtf@m+2)^0,f,c
  3338   00654E  3252               	rrcf	(sqrtf@m+1)^0,f,c
  3339   006550  3251               	rrcf	sqrtf@m^0,f,c
  3340   006552  5059               	movf	sqrtf@ix^0,w,c
  3341   006554  2659               	addwf	sqrtf@ix^0,f,c
  3342   006556  505A               	movf	(sqrtf@ix+1)^0,w,c
  3343   006558  225A               	addwfc	(sqrtf@ix+1)^0,f,c
  3344   00655A  505B               	movf	(sqrtf@ix+2)^0,w,c
  3345   00655C  225B               	addwfc	(sqrtf@ix+2)^0,f,c
  3346   00655E  505C               	movf	(sqrtf@ix+3)^0,w,c
  3347   006560  225C               	addwfc	(sqrtf@ix+3)^0,f,c
  3348   006562  0E00               	movlw	0
  3349   006564  6E41               	movwf	sqrtf@s^0,c
  3350   006566  0E00               	movlw	0
  3351   006568  6E42               	movwf	(sqrtf@s+1)^0,c
  3352   00656A  0E00               	movlw	0
  3353   00656C  6E43               	movwf	(sqrtf@s+2)^0,c
  3354   00656E  0E00               	movlw	0
  3355   006570  6E44               	movwf	(sqrtf@s+3)^0,c
  3356   006572  C041  F049         	movff	sqrtf@s,sqrtf@q
  3357   006576  C042  F04A         	movff	sqrtf@s+1,sqrtf@q+1
  3358   00657A  C043  F04B         	movff	sqrtf@s+2,sqrtf@q+2
  3359   00657E  C044  F04C         	movff	sqrtf@s+3,sqrtf@q+3
  3360   006582  0E00               	movlw	0
  3361   006584  6E55               	movwf	sqrtf@r^0,c
  3362   006586  0E00               	movlw	0
  3363   006588  6E56               	movwf	(sqrtf@r+1)^0,c
  3364   00658A  0E00               	movlw	0
  3365   00658C  6E57               	movwf	(sqrtf@r+2)^0,c
  3366   00658E  0E01               	movlw	1
  3367   006590  6E58               	movwf	(sqrtf@r+3)^0,c
  3368   006592  EF13  F033         	goto	l2914
  3369   006596                     l2908:
  3370   006596  5041               	movf	sqrtf@s^0,w,c
  3371   006598  2455               	addwf	sqrtf@r^0,w,c
  3372   00659A  6E4D               	movwf	sqrtf@t^0,c
  3373   00659C  5042               	movf	(sqrtf@s+1)^0,w,c
  3374   00659E  2056               	addwfc	(sqrtf@r+1)^0,w,c
  3375   0065A0  6E4E               	movwf	(sqrtf@t+1)^0,c
  3376   0065A2  5043               	movf	(sqrtf@s+2)^0,w,c
  3377   0065A4  2057               	addwfc	(sqrtf@r+2)^0,w,c
  3378   0065A6  6E4F               	movwf	(sqrtf@t+2)^0,c
  3379   0065A8  5044               	movf	(sqrtf@s+3)^0,w,c
  3380   0065AA  2058               	addwfc	(sqrtf@r+3)^0,w,c
  3381   0065AC  6E50               	movwf	(sqrtf@t+3)^0,c
  3382   0065AE  504D               	movf	sqrtf@t^0,w,c
  3383   0065B0  5C59               	subwf	sqrtf@ix^0,w,c
  3384   0065B2  504E               	movf	(sqrtf@t+1)^0,w,c
  3385   0065B4  585A               	subwfb	(sqrtf@ix+1)^0,w,c
  3386   0065B6  504F               	movf	(sqrtf@t+2)^0,w,c
  3387   0065B8  585B               	subwfb	(sqrtf@ix+2)^0,w,c
  3388   0065BA  505C               	movf	(sqrtf@ix+3)^0,w,c
  3389   0065BC  0A80               	xorlw	128
  3390   0065BE  6E3C               	movwf	??_sqrtf^0,c
  3391   0065C0  5050               	movf	(sqrtf@t+3)^0,w,c
  3392   0065C2  0A80               	xorlw	128
  3393   0065C4  583C               	subwfb	??_sqrtf^0,w,c
  3394   0065C6  A0D8               	btfss	status,0,c
  3395   0065C8  EFE8  F032         	goto	u2921
  3396   0065CC  EFEA  F032         	goto	u2920
  3397   0065D0                     u2921:
  3398   0065D0  EF06  F033         	goto	l1108
  3399   0065D4                     u2920:
  3400   0065D4  504D               	movf	sqrtf@t^0,w,c
  3401   0065D6  2455               	addwf	sqrtf@r^0,w,c
  3402   0065D8  6E41               	movwf	sqrtf@s^0,c
  3403   0065DA  504E               	movf	(sqrtf@t+1)^0,w,c
  3404   0065DC  2056               	addwfc	(sqrtf@r+1)^0,w,c
  3405   0065DE  6E42               	movwf	(sqrtf@s+1)^0,c
  3406   0065E0  504F               	movf	(sqrtf@t+2)^0,w,c
  3407   0065E2  2057               	addwfc	(sqrtf@r+2)^0,w,c
  3408   0065E4  6E43               	movwf	(sqrtf@s+2)^0,c
  3409   0065E6  5050               	movf	(sqrtf@t+3)^0,w,c
  3410   0065E8  2058               	addwfc	(sqrtf@r+3)^0,w,c
  3411   0065EA  6E44               	movwf	(sqrtf@s+3)^0,c
  3412   0065EC  504D               	movf	sqrtf@t^0,w,c
  3413   0065EE  5E59               	subwf	sqrtf@ix^0,f,c
  3414   0065F0  504E               	movf	(sqrtf@t+1)^0,w,c
  3415   0065F2  5A5A               	subwfb	(sqrtf@ix+1)^0,f,c
  3416   0065F4  504F               	movf	(sqrtf@t+2)^0,w,c
  3417   0065F6  5A5B               	subwfb	(sqrtf@ix+2)^0,f,c
  3418   0065F8  5050               	movf	(sqrtf@t+3)^0,w,c
  3419   0065FA  5A5C               	subwfb	(sqrtf@ix+3)^0,f,c
  3420   0065FC  5055               	movf	sqrtf@r^0,w,c
  3421   0065FE  2649               	addwf	sqrtf@q^0,f,c
  3422   006600  5056               	movf	(sqrtf@r+1)^0,w,c
  3423   006602  224A               	addwfc	(sqrtf@q+1)^0,f,c
  3424   006604  5057               	movf	(sqrtf@r+2)^0,w,c
  3425   006606  224B               	addwfc	(sqrtf@q+2)^0,f,c
  3426   006608  5058               	movf	(sqrtf@r+3)^0,w,c
  3427   00660A  224C               	addwfc	(sqrtf@q+3)^0,f,c
  3428   00660C                     l1108:
  3429   00660C  5059               	movf	sqrtf@ix^0,w,c
  3430   00660E  2659               	addwf	sqrtf@ix^0,f,c
  3431   006610  505A               	movf	(sqrtf@ix+1)^0,w,c
  3432   006612  225A               	addwfc	(sqrtf@ix+1)^0,f,c
  3433   006614  505B               	movf	(sqrtf@ix+2)^0,w,c
  3434   006616  225B               	addwfc	(sqrtf@ix+2)^0,f,c
  3435   006618  505C               	movf	(sqrtf@ix+3)^0,w,c
  3436   00661A  225C               	addwfc	(sqrtf@ix+3)^0,f,c
  3437   00661C  90D8               	bcf	status,0,c
  3438   00661E  3258               	rrcf	(sqrtf@r+3)^0,f,c
  3439   006620  3257               	rrcf	(sqrtf@r+2)^0,f,c
  3440   006622  3256               	rrcf	(sqrtf@r+1)^0,f,c
  3441   006624  3255               	rrcf	sqrtf@r^0,f,c
  3442   006626                     l2914:
  3443   006626  5055               	movf	sqrtf@r^0,w,c
  3444   006628  1056               	iorwf	(sqrtf@r+1)^0,w,c
  3445   00662A  1057               	iorwf	(sqrtf@r+2)^0,w,c
  3446   00662C  1058               	iorwf	(sqrtf@r+3)^0,w,c
  3447   00662E  A4D8               	btfss	status,2,c
  3448   006630  EF1C  F033         	goto	u2931
  3449   006634  EF1E  F033         	goto	u2930
  3450   006638                     u2931:
  3451   006638  EFCB  F032         	goto	l2908
  3452   00663C                     u2930:
  3453   00663C  5059               	movf	sqrtf@ix^0,w,c
  3454   00663E  105A               	iorwf	(sqrtf@ix+1)^0,w,c
  3455   006640  105B               	iorwf	(sqrtf@ix+2)^0,w,c
  3456   006642  105C               	iorwf	(sqrtf@ix+3)^0,w,c
  3457   006644  B4D8               	btfsc	status,2,c
  3458   006646  EF27  F033         	goto	u2941
  3459   00664A  EF29  F033         	goto	u2940
  3460   00664E                     u2941:
  3461   00664E  EF3D  F033         	goto	l1110
  3462   006652                     u2940:
  3463   006652  0E01               	movlw	1
  3464   006654  1449               	andwf	sqrtf@q^0,w,c
  3465   006656  6E3C               	movwf	??_sqrtf^0,c
  3466   006658  0E00               	movlw	0
  3467   00665A  144A               	andwf	(sqrtf@q+1)^0,w,c
  3468   00665C  6E3D               	movwf	(??_sqrtf+1)^0,c
  3469   00665E  0E00               	movlw	0
  3470   006660  144B               	andwf	(sqrtf@q+2)^0,w,c
  3471   006662  6E3E               	movwf	(??_sqrtf+2)^0,c
  3472   006664  0E00               	movlw	0
  3473   006666  144C               	andwf	(sqrtf@q+3)^0,w,c
  3474   006668  6E3F               	movwf	(??_sqrtf+3)^0,c
  3475   00666A  503C               	movf	??_sqrtf^0,w,c
  3476   00666C  2649               	addwf	sqrtf@q^0,f,c
  3477   00666E  503D               	movf	(??_sqrtf+1)^0,w,c
  3478   006670  224A               	addwfc	(sqrtf@q+1)^0,f,c
  3479   006672  503E               	movf	(??_sqrtf+2)^0,w,c
  3480   006674  224B               	addwfc	(sqrtf@q+2)^0,f,c
  3481   006676  503F               	movf	(??_sqrtf+3)^0,w,c
  3482   006678  224C               	addwfc	(sqrtf@q+3)^0,f,c
  3483   00667A                     l1110:
  3484   00667A  C049  F03C         	movff	sqrtf@q,??_sqrtf
  3485   00667E  C04A  F03D         	movff	sqrtf@q+1,??_sqrtf+1
  3486   006682  C04B  F03E         	movff	sqrtf@q+2,??_sqrtf+2
  3487   006686  C04C  F03F         	movff	sqrtf@q+3,??_sqrtf+3
  3488   00668A  343F               	rlcf	(??_sqrtf+3)^0,w,c
  3489   00668C  323F               	rrcf	(??_sqrtf+3)^0,f,c
  3490   00668E  323E               	rrcf	(??_sqrtf+2)^0,f,c
  3491   006690  323D               	rrcf	(??_sqrtf+1)^0,f,c
  3492   006692  323C               	rrcf	??_sqrtf^0,f,c
  3493   006694  0E00               	movlw	0
  3494   006696  243C               	addwf	??_sqrtf^0,w,c
  3495   006698  6E59               	movwf	sqrtf@ix^0,c
  3496   00669A  0E00               	movlw	0
  3497   00669C  203D               	addwfc	(??_sqrtf+1)^0,w,c
  3498   00669E  6E5A               	movwf	(sqrtf@ix+1)^0,c
  3499   0066A0  0E00               	movlw	0
  3500   0066A2  203E               	addwfc	(??_sqrtf+2)^0,w,c
  3501   0066A4  6E5B               	movwf	(sqrtf@ix+2)^0,c
  3502   0066A6  0E3F               	movlw	63
  3503   0066A8  203F               	addwfc	(??_sqrtf+3)^0,w,c
  3504   0066AA  6E5C               	movwf	(sqrtf@ix+3)^0,c
  3505   0066AC  C051  F03C         	movff	sqrtf@m,??_sqrtf
  3506   0066B0  C052  F03D         	movff	sqrtf@m+1,??_sqrtf+1
  3507   0066B4  C053  F03E         	movff	sqrtf@m+2,??_sqrtf+2
  3508   0066B8  C054  F03F         	movff	sqrtf@m+3,??_sqrtf+3
  3509   0066BC  0E17               	movlw	23
  3510   0066BE                     u2955:
  3511   0066BE  90D8               	bcf	status,0,c
  3512   0066C0  363C               	rlcf	??_sqrtf^0,f,c
  3513   0066C2  363D               	rlcf	(??_sqrtf+1)^0,f,c
  3514   0066C4  363E               	rlcf	(??_sqrtf+2)^0,f,c
  3515   0066C6  363F               	rlcf	(??_sqrtf+3)^0,f,c
  3516   0066C8  2EE8               	decfsz	wreg,f,c
  3517   0066CA  EF5F  F033         	goto	u2955
  3518   0066CE  503C               	movf	??_sqrtf^0,w,c
  3519   0066D0  2659               	addwf	sqrtf@ix^0,f,c
  3520   0066D2  503D               	movf	(??_sqrtf+1)^0,w,c
  3521   0066D4  225A               	addwfc	(sqrtf@ix+1)^0,f,c
  3522   0066D6  503E               	movf	(??_sqrtf+2)^0,w,c
  3523   0066D8  225B               	addwfc	(sqrtf@ix+2)^0,f,c
  3524   0066DA  503F               	movf	(??_sqrtf+3)^0,w,c
  3525   0066DC  225C               	addwfc	(sqrtf@ix+3)^0,f,c
  3526   0066DE  EFCB  F031         	goto	l2868
  3527   0066E2                     l1097:
  3528   0066E2  0012               	return		;funcret
  3529   0066E4                     __end_of_sqrtf:
  3530                           	callstack 0
  3531                           
  3532 ;; *************** function _atan2f *****************
  3533 ;; Defined at:
  3534 ;;		line 22 in file "C:\Program Files\Microchip\xc8\v2.50\pic\sources\c99\common\atan2f.c"
  3535 ;; Parameters:    Size  Location     Type
  3536 ;;  y               4   46[BANK0 ] float 
  3537 ;;  x               4   50[BANK0 ] float 
  3538 ;; Auto vars:     Size  Location     Type
  3539 ;;  iy              4   82[BANK0 ] struct .
  3540 ;;  ix              4   78[BANK0 ] struct .
  3541 ;;  z               4   74[BANK0 ] float 
  3542 ;;  m               1   86[BANK0 ] unsigned char 
  3543 ;; Return value:  Size  Location     Type
  3544 ;;                  4   46[BANK0 ] float 
  3545 ;; Registers used:
  3546 ;;		wreg, status,2, status,0, tblptrl, tblptrh, tblptru, prodl, prodh, cstack
  3547 ;; Tracked objects:
  3548 ;;		On entry : 0/0
  3549 ;;		On exit  : 0/0
  3550 ;;		Unchanged: 0/0
  3551 ;; Data sizes:     COMRAM   BANK0   BANK1   BANK2   BANK3   BANK4   BANK5
  3552 ;;      Params:         0       8       0       0       0       0       0
  3553 ;;      Locals:         0      25       0       0       0       0       0
  3554 ;;      Temps:          0       8       0       0       0       0       0
  3555 ;;      Totals:         0      41       0       0       0       0       0
  3556 ;;Total ram usage:       41 bytes
  3557 ;; Hardware stack levels used: 1
  3558 ;; Hardware stack levels required when called: 3
  3559 ;; This function calls:
  3560 ;;		___fladd
  3561 ;;		___fldiv
  3562 ;;		___flneg
  3563 ;;		___flsub
  3564 ;;		___fpclassifyf
  3565 ;;		_atanf
  3566 ;;		_fabsf
  3567 ;; This function is called by:
  3568 ;;		_calculate_angle
  3569 ;; This function uses a non-reentrant model
  3570 ;;
  3571                           
  3572                           	psect	text11
  3573   006FC0                     __ptext11:
  3574                           	callstack 0
  3575   006FC0                     _atan2f:
  3576                           	callstack 23
  3577   006FC0  C0B2  F001         	movff	atan2f@x,___fpclassifyf@x
  3578   006FC4  C0B3  F002         	movff	atan2f@x+1,___fpclassifyf@x+1
  3579   006FC8  C0B4  F003         	movff	atan2f@x+2,___fpclassifyf@x+2
  3580   006FCC  C0B5  F004         	movff	atan2f@x+3,___fpclassifyf@x+3
  3581   006FD0  ECC8  F02B         	call	___fpclassifyf	;wreg free
  3582   006FD4  5001               	movf	?___fpclassifyf^0,w,c
  3583   006FD6  1002               	iorwf	(?___fpclassifyf+1)^0,w,c
  3584   006FD8  B4D8               	btfsc	status,2,c
  3585   006FDA  EFF1  F037         	goto	u2961
  3586   006FDE  EFF3  F037         	goto	u2960
  3587   006FE2                     u2961:
  3588   006FE2  EF06  F038         	goto	l2928
  3589   006FE6                     u2960:
  3590   006FE6  C0AE  F001         	movff	atan2f@y,___fpclassifyf@x
  3591   006FEA  C0AF  F002         	movff	atan2f@y+1,___fpclassifyf@x+1
  3592   006FEE  C0B0  F003         	movff	atan2f@y+2,___fpclassifyf@x+2
  3593   006FF2  C0B1  F004         	movff	atan2f@y+3,___fpclassifyf@x+3
  3594   006FF6  ECC8  F02B         	call	___fpclassifyf	;wreg free
  3595   006FFA  5001               	movf	?___fpclassifyf^0,w,c
  3596   006FFC  1002               	iorwf	(?___fpclassifyf+1)^0,w,c
  3597   006FFE  A4D8               	btfss	status,2,c
  3598   007000  EF04  F038         	goto	u2971
  3599   007004  EF06  F038         	goto	u2970
  3600   007008                     u2971:
  3601   007008  EF22  F038         	goto	l984
  3602   00700C                     u2970:
  3603   00700C                     l2928:
  3604   00700C  C0B2  F028         	movff	atan2f@x,___fladd@b
  3605   007010  C0B3  F029         	movff	atan2f@x+1,___fladd@b+1
  3606   007014  C0B4  F02A         	movff	atan2f@x+2,___fladd@b+2
  3607   007018  C0B5  F02B         	movff	atan2f@x+3,___fladd@b+3
  3608   00701C  C0AE  F02C         	movff	atan2f@y,___fladd@a
  3609   007020  C0AF  F02D         	movff	atan2f@y+1,___fladd@a+1
  3610   007024  C0B0  F02E         	movff	atan2f@y+2,___fladd@a+2
  3611   007028  C0B1  F02F         	movff	atan2f@y+3,___fladd@a+3
  3612   00702C  EC85  F035         	call	___fladd	;wreg free
  3613   007030  C028  F0AE         	movff	?___fladd,?_atan2f
  3614   007034  C029  F0AF         	movff	?___fladd+1,?_atan2f+1
  3615   007038  C02A  F0B0         	movff	?___fladd+2,?_atan2f+2
  3616   00703C  C02B  F0B1         	movff	?___fladd+3,?_atan2f+3
  3617   007040  EFBD  F03A         	goto	l987
  3618   007044                     l984:
  3619   007044  C0B2  F0CE         	movff	atan2f@x,atan2f@ix
  3620   007048  C0B3  F0CF         	movff	atan2f@x+1,atan2f@ix+1
  3621   00704C  C0B4  F0D0         	movff	atan2f@x+2,atan2f@ix+2
  3622   007050  C0B5  F0D1         	movff	atan2f@x+3,atan2f@ix+3
  3623   007054  C0AE  F0D2         	movff	atan2f@y,atan2f@iy
  3624   007058  C0AF  F0D3         	movff	atan2f@y+1,atan2f@iy+1
  3625   00705C  C0B0  F0D4         	movff	atan2f@y+2,atan2f@iy+2
  3626   007060  C0B1  F0D5         	movff	atan2f@y+3,atan2f@iy+3
  3627   007064  0E80               	movlw	128
  3628   007066  0100               	movlb	0	; () banked
  3629   007068  19D0               	xorwf	(atan2f@ix+2)& (0+255),w,b
  3630   00706A  E109               	bnz	u2981
  3631   00706C  0E3F               	movlw	63
  3632   00706E  19D1               	xorwf	(atan2f@ix+3)& (0+255),w,b
  3633   007070  11CE               	iorwf	atan2f@ix& (0+255),w,b
  3634   007072  11CF               	iorwf	(atan2f@ix+1)& (0+255),w,b
  3635   007074  A4D8               	btfss	status,2,c
  3636   007076  EF3F  F038         	goto	u2981
  3637   00707A  EF41  F038         	goto	u2980
  3638   00707E                     u2981:
  3639   00707E  EF55  F038         	goto	l2938
  3640   007082                     u2980:
  3641   007082                     
  3642                           ; BSR set to: 0
  3643   007082  C0AE  F080         	movff	atan2f@y,atanf@x
  3644   007086  C0AF  F081         	movff	atan2f@y+1,atanf@x+1
  3645   00708A  C0B0  F082         	movff	atan2f@y+2,atanf@x+2
  3646   00708E  C0B1  F083         	movff	atan2f@y+3,atanf@x+3
  3647   007092  ECBE  F03A         	call	_atanf	;wreg free
  3648   007096  C080  F0AE         	movff	?_atanf,?_atan2f
  3649   00709A  C081  F0AF         	movff	?_atanf+1,?_atan2f+1
  3650   00709E  C082  F0B0         	movff	?_atanf+2,?_atan2f+2
  3651   0070A2  C083  F0B1         	movff	?_atanf+3,?_atan2f+3
  3652   0070A6  EFBD  F03A         	goto	l987
  3653   0070AA                     l2938:
  3654                           
  3655                           ; BSR set to: 0
  3656   0070AA  C0CE  F0B6         	movff	atan2f@ix,??_atan2f
  3657   0070AE  C0CF  F0B7         	movff	atan2f@ix+1,??_atan2f+1
  3658   0070B2  C0D0  F0B8         	movff	atan2f@ix+2,??_atan2f+2
  3659   0070B6  C0D1  F0B9         	movff	atan2f@ix+3,??_atan2f+3
  3660   0070BA  0E1F               	movlw	31
  3661   0070BC  EF65  F038         	goto	u2990
  3662   0070C0                     u2995:
  3663   0070C0  90D8               	bcf	status,0,c
  3664   0070C2  33B9               	rrcf	(??_atan2f+3)& (0+255),f,b
  3665   0070C4  33B8               	rrcf	(??_atan2f+2)& (0+255),f,b
  3666   0070C6  33B7               	rrcf	(??_atan2f+1)& (0+255),f,b
  3667   0070C8  33B6               	rrcf	??_atan2f& (0+255),f,b
  3668   0070CA                     u2990:
  3669   0070CA  2EE8               	decfsz	wreg,f,c
  3670   0070CC  EF60  F038         	goto	u2995
  3671   0070D0  0E02               	movlw	2
  3672   0070D2  17B6               	andwf	??_atan2f& (0+255),f,b
  3673   0070D4  C0D2  F0BA         	movff	atan2f@iy,??_atan2f+4
  3674   0070D8  C0D3  F0BB         	movff	atan2f@iy+1,??_atan2f+5
  3675   0070DC  C0D4  F0BC         	movff	atan2f@iy+2,??_atan2f+6
  3676   0070E0  C0D5  F0BD         	movff	atan2f@iy+3,??_atan2f+7
  3677   0070E4  0E20               	movlw	32
  3678   0070E6  EF7A  F038         	goto	u3000
  3679   0070EA                     u3005:
  3680   0070EA  90D8               	bcf	status,0,c
  3681   0070EC  33BD               	rrcf	(??_atan2f+7)& (0+255),f,b
  3682   0070EE  33BC               	rrcf	(??_atan2f+6)& (0+255),f,b
  3683   0070F0  33BB               	rrcf	(??_atan2f+5)& (0+255),f,b
  3684   0070F2  33BA               	rrcf	(??_atan2f+4)& (0+255),f,b
  3685   0070F4                     u3000:
  3686   0070F4  2EE8               	decfsz	wreg,f,c
  3687   0070F6  EF75  F038         	goto	u3005
  3688   0070FA  51BA               	movf	(??_atan2f+4)& (0+255),w,b
  3689   0070FC  0B01               	andlw	1
  3690   0070FE  11B6               	iorwf	??_atan2f& (0+255),w,b
  3691   007100  6FD6               	movwf	atan2f@m& (0+255),b
  3692   007102                     
  3693                           ; BSR set to: 0
  3694   007102  9FD1               	bcf	(atan2f@ix+3)& (0+255),7,b
  3695   007104                     
  3696                           ; BSR set to: 0
  3697   007104  9FD5               	bcf	(atan2f@iy+3)& (0+255),7,b
  3698   007106  51D2               	movf	atan2f@iy& (0+255),w,b
  3699   007108  11D3               	iorwf	(atan2f@iy+1)& (0+255),w,b
  3700   00710A  11D4               	iorwf	(atan2f@iy+2)& (0+255),w,b
  3701   00710C  11D5               	iorwf	(atan2f@iy+3)& (0+255),w,b
  3702   00710E  A4D8               	btfss	status,2,c
  3703   007110  EF8C  F038         	goto	u3011
  3704   007114  EF8E  F038         	goto	u3010
  3705   007118                     u3011:
  3706   007118  EFC1  F038         	goto	l2958
  3707   00711C                     u3010:
  3708   00711C  EFAE  F038         	goto	l2956
  3709   007120                     l992:
  3710                           
  3711                           ; BSR set to: 0
  3712   007120  C0AE  F0AE         	movff	atan2f@y,?_atan2f
  3713   007124  C0AF  F0AF         	movff	atan2f@y+1,?_atan2f+1
  3714   007128  C0B0  F0B0         	movff	atan2f@y+2,?_atan2f+2
  3715   00712C  C0B1  F0B1         	movff	atan2f@y+3,?_atan2f+3
  3716   007130  EFBD  F03A         	goto	l987
  3717   007134                     l2946:
  3718                           
  3719                           ; BSR set to: 0
  3720   007134  0EDB               	movlw	219
  3721   007136  6FAE               	movwf	?_atan2f& (0+255),b
  3722   007138  0E0F               	movlw	15
  3723   00713A  6FAF               	movwf	(?_atan2f+1)& (0+255),b
  3724   00713C  0E49               	movlw	73
  3725   00713E  6FB0               	movwf	(?_atan2f+2)& (0+255),b
  3726   007140  0E40               	movlw	64
  3727   007142  6FB1               	movwf	(?_atan2f+3)& (0+255),b
  3728   007144  EFBD  F03A         	goto	l987
  3729   007148                     l2950:
  3730                           
  3731                           ; BSR set to: 0
  3732   007148  0EDB               	movlw	219
  3733   00714A  6FAE               	movwf	?_atan2f& (0+255),b
  3734   00714C  0E0F               	movlw	15
  3735   00714E  6FAF               	movwf	(?_atan2f+1)& (0+255),b
  3736   007150  0E49               	movlw	73
  3737   007152  6FB0               	movwf	(?_atan2f+2)& (0+255),b
  3738   007154  0EC0               	movlw	192
  3739   007156  6FB1               	movwf	(?_atan2f+3)& (0+255),b
  3740   007158  EFBD  F03A         	goto	l987
  3741   00715C                     l2956:
  3742                           
  3743                           ; BSR set to: 0
  3744   00715C  51D6               	movf	atan2f@m& (0+255),w,b
  3745                           
  3746                           ; Switch size 1, requested type "simple"
  3747                           ; Number of cases is 4, Range of values is 0 to 3
  3748                           ; switch strategies available:
  3749                           ; Name         Instructions Cycles
  3750                           ; simple_byte           13     7 (average)
  3751                           ;	Chosen strategy is simple_byte
  3752   00715E  0A00               	xorlw	0	; case 0
  3753   007160  B4D8               	btfsc	status,2,c
  3754   007162  EF90  F038         	goto	l992
  3755   007166  0A01               	xorlw	1	; case 1
  3756   007168  B4D8               	btfsc	status,2,c
  3757   00716A  EF90  F038         	goto	l992
  3758   00716E  0A03               	xorlw	3	; case 2
  3759   007170  B4D8               	btfsc	status,2,c
  3760   007172  EF9A  F038         	goto	l2946
  3761   007176  0A01               	xorlw	1	; case 3
  3762   007178  B4D8               	btfsc	status,2,c
  3763   00717A  EFA4  F038         	goto	l2950
  3764   00717E  EFC1  F038         	goto	l2958
  3765   007182                     l2958:
  3766                           
  3767                           ; BSR set to: 0
  3768   007182  51CE               	movf	atan2f@ix& (0+255),w,b
  3769   007184  11CF               	iorwf	(atan2f@ix+1)& (0+255),w,b
  3770   007186  11D0               	iorwf	(atan2f@ix+2)& (0+255),w,b
  3771   007188  11D1               	iorwf	(atan2f@ix+3)& (0+255),w,b
  3772   00718A  A4D8               	btfss	status,2,c
  3773   00718C  EFCA  F038         	goto	u3021
  3774   007190  EFCC  F038         	goto	u3020
  3775   007194                     u3021:
  3776   007194  EFE7  F038         	goto	l2968
  3777   007198                     u3020:
  3778   007198                     
  3779                           ; BSR set to: 0
  3780   007198  B1D6               	btfsc	atan2f@m& (0+255),0,b
  3781   00719A  EFD1  F038         	goto	u3031
  3782   00719E  EFD3  F038         	goto	u3030
  3783   0071A2                     u3031:
  3784   0071A2  EFDD  F038         	goto	l2964
  3785   0071A6                     u3030:
  3786   0071A6                     
  3787                           ; BSR set to: 0
  3788   0071A6  0EDB               	movlw	219
  3789   0071A8  6FAE               	movwf	?_atan2f& (0+255),b
  3790   0071AA  0E0F               	movlw	15
  3791   0071AC  6FAF               	movwf	(?_atan2f+1)& (0+255),b
  3792   0071AE  0EC9               	movlw	201
  3793   0071B0  6FB0               	movwf	(?_atan2f+2)& (0+255),b
  3794   0071B2  0E3F               	movlw	63
  3795   0071B4  6FB1               	movwf	(?_atan2f+3)& (0+255),b
  3796   0071B6  EFBD  F03A         	goto	l987
  3797   0071BA                     l2964:
  3798                           
  3799                           ; BSR set to: 0
  3800   0071BA  0EDB               	movlw	219
  3801   0071BC  6FAE               	movwf	?_atan2f& (0+255),b
  3802   0071BE  0E0F               	movlw	15
  3803   0071C0  6FAF               	movwf	(?_atan2f+1)& (0+255),b
  3804   0071C2  0EC9               	movlw	201
  3805   0071C4  6FB0               	movwf	(?_atan2f+2)& (0+255),b
  3806   0071C6  0EBF               	movlw	191
  3807   0071C8  6FB1               	movwf	(?_atan2f+3)& (0+255),b
  3808   0071CA  EFBD  F03A         	goto	l987
  3809   0071CE                     l2968:
  3810                           
  3811                           ; BSR set to: 0
  3812   0071CE  0E80               	movlw	128
  3813   0071D0  19D0               	xorwf	(atan2f@ix+2)& (0+255),w,b
  3814   0071D2  E109               	bnz	u3041
  3815   0071D4  0E7F               	movlw	127
  3816   0071D6  19D1               	xorwf	(atan2f@ix+3)& (0+255),w,b
  3817   0071D8  11CE               	iorwf	atan2f@ix& (0+255),w,b
  3818   0071DA  11CF               	iorwf	(atan2f@ix+1)& (0+255),w,b
  3819   0071DC  A4D8               	btfss	status,2,c
  3820   0071DE  EFF3  F038         	goto	u3041
  3821   0071E2  EFF5  F038         	goto	u3040
  3822   0071E6                     u3041:
  3823   0071E6  EF7B  F039         	goto	l3014
  3824   0071EA                     u3040:
  3825   0071EA                     
  3826                           ; BSR set to: 0
  3827   0071EA  0E80               	movlw	128
  3828   0071EC  19D4               	xorwf	(atan2f@iy+2)& (0+255),w,b
  3829   0071EE  E109               	bnz	u3051
  3830   0071F0  0E7F               	movlw	127
  3831   0071F2  19D5               	xorwf	(atan2f@iy+3)& (0+255),w,b
  3832   0071F4  11D2               	iorwf	atan2f@iy& (0+255),w,b
  3833   0071F6  11D3               	iorwf	(atan2f@iy+1)& (0+255),w,b
  3834   0071F8  A4D8               	btfss	status,2,c
  3835   0071FA  EF01  F039         	goto	u3051
  3836   0071FE  EF03  F039         	goto	u3050
  3837   007202                     u3051:
  3838   007202  EF68  F039         	goto	l3012
  3839   007206                     u3050:
  3840   007206  EF2D  F039         	goto	l2992
  3841   00720A                     l2974:
  3842                           
  3843                           ; BSR set to: 0
  3844   00720A  0EDB               	movlw	219
  3845   00720C  6FAE               	movwf	?_atan2f& (0+255),b
  3846   00720E  0E0F               	movlw	15
  3847   007210  6FAF               	movwf	(?_atan2f+1)& (0+255),b
  3848   007212  0E49               	movlw	73
  3849   007214  6FB0               	movwf	(?_atan2f+2)& (0+255),b
  3850   007216  0E3F               	movlw	63
  3851   007218  6FB1               	movwf	(?_atan2f+3)& (0+255),b
  3852   00721A  EFBD  F03A         	goto	l987
  3853   00721E                     l2978:
  3854                           
  3855                           ; BSR set to: 0
  3856   00721E  0EDB               	movlw	219
  3857   007220  6FAE               	movwf	?_atan2f& (0+255),b
  3858   007222  0E0F               	movlw	15
  3859   007224  6FAF               	movwf	(?_atan2f+1)& (0+255),b
  3860   007226  0E49               	movlw	73
  3861   007228  6FB0               	movwf	(?_atan2f+2)& (0+255),b
  3862   00722A  0EBF               	movlw	191
  3863   00722C  6FB1               	movwf	(?_atan2f+3)& (0+255),b
  3864   00722E  EFBD  F03A         	goto	l987
  3865   007232                     l2982:
  3866                           
  3867                           ; BSR set to: 0
  3868   007232  0EE4               	movlw	228
  3869   007234  6FAE               	movwf	?_atan2f& (0+255),b
  3870   007236  0ECB               	movlw	203
  3871   007238  6FAF               	movwf	(?_atan2f+1)& (0+255),b
  3872   00723A  0E16               	movlw	22
  3873   00723C  6FB0               	movwf	(?_atan2f+2)& (0+255),b
  3874   00723E  0E40               	movlw	64
  3875   007240  6FB1               	movwf	(?_atan2f+3)& (0+255),b
  3876   007242  EFBD  F03A         	goto	l987
  3877   007246                     l2986:
  3878                           
  3879                           ; BSR set to: 0
  3880   007246  0EE4               	movlw	228
  3881   007248  6FAE               	movwf	?_atan2f& (0+255),b
  3882   00724A  0ECB               	movlw	203
  3883   00724C  6FAF               	movwf	(?_atan2f+1)& (0+255),b
  3884   00724E  0E16               	movlw	22
  3885   007250  6FB0               	movwf	(?_atan2f+2)& (0+255),b
  3886   007252  0EC0               	movlw	192
  3887   007254  6FB1               	movwf	(?_atan2f+3)& (0+255),b
  3888   007256  EFBD  F03A         	goto	l987
  3889   00725A                     l2992:
  3890                           
  3891                           ; BSR set to: 0
  3892   00725A  51D6               	movf	atan2f@m& (0+255),w,b
  3893                           
  3894                           ; Switch size 1, requested type "simple"
  3895                           ; Number of cases is 4, Range of values is 0 to 3
  3896                           ; switch strategies available:
  3897                           ; Name         Instructions Cycles
  3898                           ; simple_byte           13     7 (average)
  3899                           ;	Chosen strategy is simple_byte
  3900   00725C  0A00               	xorlw	0	; case 0
  3901   00725E  B4D8               	btfsc	status,2,c
  3902   007260  EF05  F039         	goto	l2974
  3903   007264  0A01               	xorlw	1	; case 1
  3904   007266  B4D8               	btfsc	status,2,c
  3905   007268  EF0F  F039         	goto	l2978
  3906   00726C  0A03               	xorlw	3	; case 2
  3907   00726E  B4D8               	btfsc	status,2,c
  3908   007270  EF19  F039         	goto	l2982
  3909   007274  0A01               	xorlw	1	; case 3
  3910   007276  B4D8               	btfsc	status,2,c
  3911   007278  EF23  F039         	goto	l2986
  3912   00727C  EF7B  F039         	goto	l3014
  3913   007280                     l2994:
  3914                           
  3915                           ; BSR set to: 0
  3916   007280  0E00               	movlw	0
  3917   007282  6FAE               	movwf	?_atan2f& (0+255),b
  3918   007284  0E00               	movlw	0
  3919   007286  6FAF               	movwf	(?_atan2f+1)& (0+255),b
  3920   007288  0E00               	movlw	0
  3921   00728A  6FB0               	movwf	(?_atan2f+2)& (0+255),b
  3922   00728C  0E00               	movlw	0
  3923   00728E  6FB1               	movwf	(?_atan2f+3)& (0+255),b
  3924   007290  EFBD  F03A         	goto	l987
  3925   007294                     l2998:
  3926                           
  3927                           ; BSR set to: 0
  3928   007294  0E00               	movlw	0
  3929   007296  6FAE               	movwf	?_atan2f& (0+255),b
  3930   007298  0E00               	movlw	0
  3931   00729A  6FAF               	movwf	(?_atan2f+1)& (0+255),b
  3932   00729C  0E00               	movlw	0
  3933   00729E  6FB0               	movwf	(?_atan2f+2)& (0+255),b
  3934   0072A0  0E80               	movlw	128
  3935   0072A2  6FB1               	movwf	(?_atan2f+3)& (0+255),b
  3936   0072A4  EFBD  F03A         	goto	l987
  3937   0072A8                     l3002:
  3938                           
  3939                           ; BSR set to: 0
  3940   0072A8  0EDB               	movlw	219
  3941   0072AA  6FAE               	movwf	?_atan2f& (0+255),b
  3942   0072AC  0E0F               	movlw	15
  3943   0072AE  6FAF               	movwf	(?_atan2f+1)& (0+255),b
  3944   0072B0  0E49               	movlw	73
  3945   0072B2  6FB0               	movwf	(?_atan2f+2)& (0+255),b
  3946   0072B4  0E40               	movlw	64
  3947   0072B6  6FB1               	movwf	(?_atan2f+3)& (0+255),b
  3948   0072B8  EFBD  F03A         	goto	l987
  3949   0072BC                     l3006:
  3950                           
  3951                           ; BSR set to: 0
  3952   0072BC  0EDB               	movlw	219
  3953   0072BE  6FAE               	movwf	?_atan2f& (0+255),b
  3954   0072C0  0E0F               	movlw	15
  3955   0072C2  6FAF               	movwf	(?_atan2f+1)& (0+255),b
  3956   0072C4  0E49               	movlw	73
  3957   0072C6  6FB0               	movwf	(?_atan2f+2)& (0+255),b
  3958   0072C8  0EC0               	movlw	192
  3959   0072CA  6FB1               	movwf	(?_atan2f+3)& (0+255),b
  3960   0072CC  EFBD  F03A         	goto	l987
  3961   0072D0                     l3012:
  3962                           
  3963                           ; BSR set to: 0
  3964   0072D0  51D6               	movf	atan2f@m& (0+255),w,b
  3965                           
  3966                           ; Switch size 1, requested type "simple"
  3967                           ; Number of cases is 4, Range of values is 0 to 3
  3968                           ; switch strategies available:
  3969                           ; Name         Instructions Cycles
  3970                           ; simple_byte           13     7 (average)
  3971                           ;	Chosen strategy is simple_byte
  3972   0072D2  0A00               	xorlw	0	; case 0
  3973   0072D4  B4D8               	btfsc	status,2,c
  3974   0072D6  EF40  F039         	goto	l2994
  3975   0072DA  0A01               	xorlw	1	; case 1
  3976   0072DC  B4D8               	btfsc	status,2,c
  3977   0072DE  EF4A  F039         	goto	l2998
  3978   0072E2  0A03               	xorlw	3	; case 2
  3979   0072E4  B4D8               	btfsc	status,2,c
  3980   0072E6  EF54  F039         	goto	l3002
  3981   0072EA  0A01               	xorlw	1	; case 3
  3982   0072EC  B4D8               	btfsc	status,2,c
  3983   0072EE  EF5E  F039         	goto	l3006
  3984   0072F2  EF7B  F039         	goto	l3014
  3985   0072F6                     l3014:
  3986                           
  3987                           ; BSR set to: 0
  3988   0072F6  0E00               	movlw	0
  3989   0072F8  25CE               	addwf	atan2f@ix& (0+255),w,b
  3990   0072FA  6FB6               	movwf	??_atan2f& (0+255),b
  3991   0072FC  0E00               	movlw	0
  3992   0072FE  21CF               	addwfc	(atan2f@ix+1)& (0+255),w,b
  3993   007300  6FB7               	movwf	(??_atan2f+1)& (0+255),b
  3994   007302  0E00               	movlw	0
  3995   007304  21D0               	addwfc	(atan2f@ix+2)& (0+255),w,b
  3996   007306  6FB8               	movwf	(??_atan2f+2)& (0+255),b
  3997   007308  0E0D               	movlw	13
  3998   00730A  21D1               	addwfc	(atan2f@ix+3)& (0+255),w,b
  3999   00730C  6FB9               	movwf	(??_atan2f+3)& (0+255),b
  4000   00730E  51D2               	movf	atan2f@iy& (0+255),w,b
  4001   007310  5DB6               	subwf	??_atan2f& (0+255),w,b
  4002   007312  51D3               	movf	(atan2f@iy+1)& (0+255),w,b
  4003   007314  59B7               	subwfb	(??_atan2f+1)& (0+255),w,b
  4004   007316  51D4               	movf	(atan2f@iy+2)& (0+255),w,b
  4005   007318  59B8               	subwfb	(??_atan2f+2)& (0+255),w,b
  4006   00731A  51D5               	movf	(atan2f@iy+3)& (0+255),w,b
  4007   00731C  59B9               	subwfb	(??_atan2f+3)& (0+255),w,b
  4008   00731E  A0D8               	btfss	status,0,c
  4009   007320  EF94  F039         	goto	u3061
  4010   007324  EF96  F039         	goto	u3060
  4011   007328                     u3061:
  4012   007328  EFA4  F039         	goto	l1018
  4013   00732C                     u3060:
  4014   00732C                     
  4015                           ; BSR set to: 0
  4016   00732C  0E80               	movlw	128
  4017   00732E  19D4               	xorwf	(atan2f@iy+2)& (0+255),w,b
  4018   007330  E109               	bnz	u3071
  4019   007332  0E7F               	movlw	127
  4020   007334  19D5               	xorwf	(atan2f@iy+3)& (0+255),w,b
  4021   007336  11D2               	iorwf	atan2f@iy& (0+255),w,b
  4022   007338  11D3               	iorwf	(atan2f@iy+1)& (0+255),w,b
  4023   00733A  A4D8               	btfss	status,2,c
  4024   00733C  EFA2  F039         	goto	u3071
  4025   007340  EFA4  F039         	goto	u3070
  4026   007344                     u3071:
  4027   007344  EFBF  F039         	goto	l1016
  4028   007348                     u3070:
  4029   007348                     l1018:
  4030                           
  4031                           ; BSR set to: 0
  4032   007348  B1D6               	btfsc	atan2f@m& (0+255),0,b
  4033   00734A  EFA9  F039         	goto	u3081
  4034   00734E  EFAB  F039         	goto	u3080
  4035   007352                     u3081:
  4036   007352  EFB5  F039         	goto	l3020
  4037   007356                     u3080:
  4038   007356                     
  4039                           ; BSR set to: 0
  4040   007356  0EDB               	movlw	219
  4041   007358  6FAE               	movwf	?_atan2f& (0+255),b
  4042   00735A  0E0F               	movlw	15
  4043   00735C  6FAF               	movwf	(?_atan2f+1)& (0+255),b
  4044   00735E  0EC9               	movlw	201
  4045   007360  6FB0               	movwf	(?_atan2f+2)& (0+255),b
  4046   007362  0E3F               	movlw	63
  4047   007364  6FB1               	movwf	(?_atan2f+3)& (0+255),b
  4048   007366  EFBD  F03A         	goto	l987
  4049   00736A                     l3020:
  4050                           
  4051                           ; BSR set to: 0
  4052   00736A  0EDB               	movlw	219
  4053   00736C  6FAE               	movwf	?_atan2f& (0+255),b
  4054   00736E  0E0F               	movlw	15
  4055   007370  6FAF               	movwf	(?_atan2f+1)& (0+255),b
  4056   007372  0EC9               	movlw	201
  4057   007374  6FB0               	movwf	(?_atan2f+2)& (0+255),b
  4058   007376  0EBF               	movlw	191
  4059   007378  6FB1               	movwf	(?_atan2f+3)& (0+255),b
  4060   00737A  EFBD  F03A         	goto	l987
  4061   00737E                     l1016:
  4062                           
  4063                           ; BSR set to: 0
  4064   00737E  A3D6               	btfss	atan2f@m& (0+255),1,b
  4065   007380  EFC4  F039         	goto	u3091
  4066   007384  EFC6  F039         	goto	u3090
  4067   007388                     u3091:
  4068   007388  EFEB  F039         	goto	l3028
  4069   00738C                     u3090:
  4070   00738C                     
  4071                           ; BSR set to: 0
  4072   00738C  0E00               	movlw	0
  4073   00738E  25D2               	addwf	atan2f@iy& (0+255),w,b
  4074   007390  6FB6               	movwf	??_atan2f& (0+255),b
  4075   007392  0E00               	movlw	0
  4076   007394  21D3               	addwfc	(atan2f@iy+1)& (0+255),w,b
  4077   007396  6FB7               	movwf	(??_atan2f+1)& (0+255),b
  4078   007398  0E00               	movlw	0
  4079   00739A  21D4               	addwfc	(atan2f@iy+2)& (0+255),w,b
  4080   00739C  6FB8               	movwf	(??_atan2f+2)& (0+255),b
  4081   00739E  0E0D               	movlw	13
  4082   0073A0  21D5               	addwfc	(atan2f@iy+3)& (0+255),w,b
  4083   0073A2  6FB9               	movwf	(??_atan2f+3)& (0+255),b
  4084   0073A4  51CE               	movf	atan2f@ix& (0+255),w,b
  4085   0073A6  5DB6               	subwf	??_atan2f& (0+255),w,b
  4086   0073A8  51CF               	movf	(atan2f@ix+1)& (0+255),w,b
  4087   0073AA  59B7               	subwfb	(??_atan2f+1)& (0+255),w,b
  4088   0073AC  51D0               	movf	(atan2f@ix+2)& (0+255),w,b
  4089   0073AE  59B8               	subwfb	(??_atan2f+2)& (0+255),w,b
  4090   0073B0  51D1               	movf	(atan2f@ix+3)& (0+255),w,b
  4091   0073B2  59B9               	subwfb	(??_atan2f+3)& (0+255),w,b
  4092   0073B4  B0D8               	btfsc	status,0,c
  4093   0073B6  EFDF  F039         	goto	u3101
  4094   0073BA  EFE1  F039         	goto	u3100
  4095   0073BE                     u3101:
  4096   0073BE  EFEB  F039         	goto	l3028
  4097   0073C2                     u3100:
  4098   0073C2                     
  4099                           ; BSR set to: 0
  4100   0073C2  0E00               	movlw	0
  4101   0073C4  6FCA               	movwf	atan2f@z& (0+255),b
  4102   0073C6  0E00               	movlw	0
  4103   0073C8  6FCB               	movwf	(atan2f@z+1)& (0+255),b
  4104   0073CA  0E00               	movlw	0
  4105   0073CC  6FCC               	movwf	(atan2f@z+2)& (0+255),b
  4106   0073CE  0E00               	movlw	0
  4107   0073D0  6FCD               	movwf	(atan2f@z+3)& (0+255),b
  4108   0073D2  EFAD  F03A         	goto	l3046
  4109   0073D6                     l3028:
  4110                           
  4111                           ; BSR set to: 0
  4112   0073D6  C0AE  F05D         	movff	atan2f@y,___fldiv@b
  4113   0073DA  C0AF  F05E         	movff	atan2f@y+1,___fldiv@b+1
  4114   0073DE  C0B0  F05F         	movff	atan2f@y+2,___fldiv@b+2
  4115   0073E2  C0B1  F060         	movff	atan2f@y+3,___fldiv@b+3
  4116   0073E6  C0B2  F061         	movff	atan2f@x,___fldiv@a
  4117   0073EA  C0B3  F062         	movff	atan2f@x+1,___fldiv@a+1
  4118   0073EE  C0B4  F063         	movff	atan2f@x+2,___fldiv@a+2
  4119   0073F2  C0B5  F064         	movff	atan2f@x+3,___fldiv@a+3
  4120   0073F6  ECBB  F02F         	call	___fldiv	;wreg free
  4121   0073FA  C05D  F076         	movff	?___fldiv,fabsf@x
  4122   0073FE  C05E  F077         	movff	?___fldiv+1,fabsf@x+1
  4123   007402  C05F  F078         	movff	?___fldiv+2,fabsf@x+2
  4124   007406  C060  F079         	movff	?___fldiv+3,fabsf@x+3
  4125   00740A  EC29  F02A         	call	_fabsf	;wreg free
  4126   00740E  C076  F0BE         	movff	?_fabsf,_atan2f$1839
  4127   007412  C077  F0BF         	movff	?_fabsf+1,_atan2f$1839+1
  4128   007416  C078  F0C0         	movff	?_fabsf+2,_atan2f$1839+2
  4129   00741A  C079  F0C1         	movff	?_fabsf+3,_atan2f$1839+3
  4130   00741E  C0BE  F080         	movff	_atan2f$1839,atanf@x
  4131   007422  C0BF  F081         	movff	_atan2f$1839+1,atanf@x+1
  4132   007426  C0C0  F082         	movff	_atan2f$1839+2,atanf@x+2
  4133   00742A  C0C1  F083         	movff	_atan2f$1839+3,atanf@x+3
  4134   00742E  ECBE  F03A         	call	_atanf	;wreg free
  4135   007432  C080  F0CA         	movff	?_atanf,atan2f@z
  4136   007436  C081  F0CB         	movff	?_atanf+1,atan2f@z+1
  4137   00743A  C082  F0CC         	movff	?_atanf+2,atan2f@z+2
  4138   00743E  C083  F0CD         	movff	?_atanf+3,atan2f@z+3
  4139   007442  EFAD  F03A         	goto	l3046
  4140   007446                     l1026:
  4141                           
  4142                           ; BSR set to: 0
  4143   007446  C0CA  F0AE         	movff	atan2f@z,?_atan2f
  4144   00744A  C0CB  F0AF         	movff	atan2f@z+1,?_atan2f+1
  4145   00744E  C0CC  F0B0         	movff	atan2f@z+2,?_atan2f+2
  4146   007452  C0CD  F0B1         	movff	atan2f@z+3,?_atan2f+3
  4147   007456  EFBD  F03A         	goto	l987
  4148   00745A                     l3032:
  4149                           
  4150                           ; BSR set to: 0
  4151   00745A  C0CA  F001         	movff	atan2f@z,___flneg@f1
  4152   00745E  C0CB  F002         	movff	atan2f@z+1,___flneg@f1+1
  4153   007462  C0CC  F003         	movff	atan2f@z+2,___flneg@f1+2
  4154   007466  C0CD  F004         	movff	atan2f@z+3,___flneg@f1+3
  4155   00746A  EC43  F02A         	call	___flneg	;wreg free
  4156   00746E  C001  F0AE         	movff	?___flneg,?_atan2f
  4157   007472  C002  F0AF         	movff	?___flneg+1,?_atan2f+1
  4158   007476  C003  F0B0         	movff	?___flneg+2,?_atan2f+2
  4159   00747A  C004  F0B1         	movff	?___flneg+3,?_atan2f+3
  4160   00747E  EFBD  F03A         	goto	l987
  4161   007482                     l3036:
  4162                           
  4163                           ; BSR set to: 0
  4164   007482  0E2E               	movlw	46
  4165   007484  6E2C               	movwf	___fladd@a^0,c
  4166   007486  0EBD               	movlw	189
  4167   007488  6E2D               	movwf	(___fladd@a+1)^0,c
  4168   00748A  0EBB               	movlw	187
  4169   00748C  6E2E               	movwf	(___fladd@a+2)^0,c
  4170   00748E  0E33               	movlw	51
  4171   007490  6E2F               	movwf	(___fladd@a+3)^0,c
  4172   007492  C0CA  F028         	movff	atan2f@z,___fladd@b
  4173   007496  C0CB  F029         	movff	atan2f@z+1,___fladd@b+1
  4174   00749A  C0CC  F02A         	movff	atan2f@z+2,___fladd@b+2
  4175   00749E  C0CD  F02B         	movff	atan2f@z+3,___fladd@b+3
  4176   0074A2  EC85  F035         	call	___fladd	;wreg free
  4177   0074A6  C028  F0C2         	movff	?___fladd,_atan2f$1840
  4178   0074AA  C029  F0C3         	movff	?___fladd+1,_atan2f$1840+1
  4179   0074AE  C02A  F0C4         	movff	?___fladd+2,_atan2f$1840+2
  4180   0074B2  C02B  F0C5         	movff	?___fladd+3,_atan2f$1840+3
  4181   0074B6  0EDB               	movlw	219
  4182   0074B8  6E38               	movwf	___flsub@b^0,c
  4183   0074BA  0E0F               	movlw	15
  4184   0074BC  6E39               	movwf	(___flsub@b+1)^0,c
  4185   0074BE  0E49               	movlw	73
  4186   0074C0  6E3A               	movwf	(___flsub@b+2)^0,c
  4187   0074C2  0E40               	movlw	64
  4188   0074C4  6E3B               	movwf	(___flsub@b+3)^0,c
  4189   0074C6  C0C2  F03C         	movff	_atan2f$1840,___flsub@a
  4190   0074CA  C0C3  F03D         	movff	_atan2f$1840+1,___flsub@a+1
  4191   0074CE  C0C4  F03E         	movff	_atan2f$1840+2,___flsub@a+2
  4192   0074D2  C0C5  F03F         	movff	_atan2f$1840+3,___flsub@a+3
  4193   0074D6  ECBB  F02A         	call	___flsub	;wreg free
  4194   0074DA  C038  F0AE         	movff	?___flsub,?_atan2f
  4195   0074DE  C039  F0AF         	movff	?___flsub+1,?_atan2f+1
  4196   0074E2  C03A  F0B0         	movff	?___flsub+2,?_atan2f+2
  4197   0074E6  C03B  F0B1         	movff	?___flsub+3,?_atan2f+3
  4198   0074EA  EFBD  F03A         	goto	l987
  4199   0074EE                     l3040:
  4200                           
  4201                           ; BSR set to: 0
  4202   0074EE  0E2E               	movlw	46
  4203   0074F0  6E2C               	movwf	___fladd@a^0,c
  4204   0074F2  0EBD               	movlw	189
  4205   0074F4  6E2D               	movwf	(___fladd@a+1)^0,c
  4206   0074F6  0EBB               	movlw	187
  4207   0074F8  6E2E               	movwf	(___fladd@a+2)^0,c
  4208   0074FA  0E33               	movlw	51
  4209   0074FC  6E2F               	movwf	(___fladd@a+3)^0,c
  4210   0074FE  C0CA  F028         	movff	atan2f@z,___fladd@b
  4211   007502  C0CB  F029         	movff	atan2f@z+1,___fladd@b+1
  4212   007506  C0CC  F02A         	movff	atan2f@z+2,___fladd@b+2
  4213   00750A  C0CD  F02B         	movff	atan2f@z+3,___fladd@b+3
  4214   00750E  EC85  F035         	call	___fladd	;wreg free
  4215   007512  C028  F0C6         	movff	?___fladd,_atan2f$1841
  4216   007516  C029  F0C7         	movff	?___fladd+1,_atan2f$1841+1
  4217   00751A  C02A  F0C8         	movff	?___fladd+2,_atan2f$1841+2
  4218   00751E  C02B  F0C9         	movff	?___fladd+3,_atan2f$1841+3
  4219   007522  C0C6  F028         	movff	_atan2f$1841,___fladd@b
  4220   007526  C0C7  F029         	movff	_atan2f$1841+1,___fladd@b+1
  4221   00752A  C0C8  F02A         	movff	_atan2f$1841+2,___fladd@b+2
  4222   00752E  C0C9  F02B         	movff	_atan2f$1841+3,___fladd@b+3
  4223   007532  0EDB               	movlw	219
  4224   007534  6E2C               	movwf	___fladd@a^0,c
  4225   007536  0E0F               	movlw	15
  4226   007538  6E2D               	movwf	(___fladd@a+1)^0,c
  4227   00753A  0E49               	movlw	73
  4228   00753C  6E2E               	movwf	(___fladd@a+2)^0,c
  4229   00753E  0EC0               	movlw	192
  4230   007540  6E2F               	movwf	(___fladd@a+3)^0,c
  4231   007542  EC85  F035         	call	___fladd	;wreg free
  4232   007546  C028  F0AE         	movff	?___fladd,?_atan2f
  4233   00754A  C029  F0AF         	movff	?___fladd+1,?_atan2f+1
  4234   00754E  C02A  F0B0         	movff	?___fladd+2,?_atan2f+2
  4235   007552  C02B  F0B1         	movff	?___fladd+3,?_atan2f+3
  4236   007556  EFBD  F03A         	goto	l987
  4237   00755A                     l3046:
  4238   00755A  0100               	movlb	0	; () banked
  4239   00755C  51D6               	movf	atan2f@m& (0+255),w,b
  4240                           
  4241                           ; Switch size 1, requested type "simple"
  4242                           ; Number of cases is 3, Range of values is 0 to 2
  4243                           ; switch strategies available:
  4244                           ; Name         Instructions Cycles
  4245                           ; simple_byte           10     6 (average)
  4246                           ;	Chosen strategy is simple_byte
  4247   00755E  0A00               	xorlw	0	; case 0
  4248   007560  B4D8               	btfsc	status,2,c
  4249   007562  EF23  F03A         	goto	l1026
  4250   007566  0A01               	xorlw	1	; case 1
  4251   007568  B4D8               	btfsc	status,2,c
  4252   00756A  EF2D  F03A         	goto	l3032
  4253   00756E  0A03               	xorlw	3	; case 2
  4254   007570  B4D8               	btfsc	status,2,c
  4255   007572  EF41  F03A         	goto	l3036
  4256   007576  EF77  F03A         	goto	l3040
  4257   00757A                     l987:
  4258   00757A  0012               	return		;funcret
  4259   00757C                     __end_of_atan2f:
  4260                           	callstack 0
  4261                           
  4262 ;; *************** function _atanf *****************
  4263 ;; Defined at:
  4264 ;;		line 40 in file "C:\Program Files\Microchip\xc8\v2.50\pic\sources\c99\common\atanf.c"
  4265 ;; Parameters:    Size  Location     Type
  4266 ;;  x               4    0[BANK0 ] float 
  4267 ;; Auto vars:     Size  Location     Type
  4268 ;;  ix              4   42[BANK0 ] struct .
  4269 ;;  z               4   38[BANK0 ] float 
  4270 ;;  w               4   33[BANK0 ] float 
  4271 ;;  s2              4   20[BANK0 ] float 
  4272 ;;  s1              4   16[BANK0 ] float 
  4273 ;;  id              1   37[BANK0 ] char 
  4274 ;;  sign            1   32[BANK0 ] _Bool 
  4275 ;; Return value:  Size  Location     Type
  4276 ;;                  4    0[BANK0 ] float 
  4277 ;; Registers used:
  4278 ;;		wreg, status,2, status,0, tblptrl, tblptrh, tblptru, prodl, prodh, cstack
  4279 ;; Tracked objects:
  4280 ;;		On entry : 0/0
  4281 ;;		On exit  : 0/0
  4282 ;;		Unchanged: 0/0
  4283 ;; Data sizes:     COMRAM   BANK0   BANK1   BANK2   BANK3   BANK4   BANK5
  4284 ;;      Params:         0       4       0       0       0       0       0
  4285 ;;      Locals:         0      42       0       0       0       0       0
  4286 ;;      Temps:          0       0       0       0       0       0       0
  4287 ;;      Totals:         0      46       0       0       0       0       0
  4288 ;;Total ram usage:       46 bytes
  4289 ;; Hardware stack levels used: 1
  4290 ;; Hardware stack levels required when called: 2
  4291 ;; This function calls:
  4292 ;;		___fladd
  4293 ;;		___fldiv
  4294 ;;		___flmul
  4295 ;;		___flneg
  4296 ;;		___flsub
  4297 ;;		___fpclassifyf
  4298 ;;		_fabsf
  4299 ;; This function is called by:
  4300 ;;		_atan2f
  4301 ;; This function uses a non-reentrant model
  4302 ;;
  4303                           
  4304                           	psect	text12
  4305   00757C                     __ptext12:
  4306                           	callstack 0
  4307   00757C                     _atanf:
  4308                           	callstack 23
  4309   00757C  C080  F0AA         	movff	atanf@x,atanf@ix
  4310   007580  C081  F0AB         	movff	atanf@x+1,atanf@ix+1
  4311   007584  C082  F0AC         	movff	atanf@x+2,atanf@ix+2
  4312   007588  C083  F0AD         	movff	atanf@x+3,atanf@ix+3
  4313   00758C  0100               	movlb	0	; () banked
  4314   00758E  BFAD               	btfsc	(atanf@ix+3)& (0+255),7,b
  4315   007590  EFCC  F03A         	goto	u2701
  4316   007594  EFCF  F03A         	goto	u2700
  4317   007598                     u2701:
  4318   007598  0E01               	movlw	1
  4319   00759A  EFD0  F03A         	goto	u2710
  4320   00759E                     u2700:
  4321   00759E  0E00               	movlw	0
  4322   0075A0                     u2710:
  4323   0075A0  6FA0               	movwf	atanf@sign& (0+255),b
  4324   0075A2                     
  4325                           ; BSR set to: 0
  4326   0075A2  9FAD               	bcf	(atanf@ix+3)& (0+255),7,b
  4327   0075A4                     
  4328                           ; BSR set to: 0
  4329   0075A4  0E80               	movlw	128
  4330   0075A6  5DAC               	subwf	(atanf@ix+2)& (0+255),w,b
  4331   0075A8  0E4C               	movlw	76
  4332   0075AA  59AD               	subwfb	(atanf@ix+3)& (0+255),w,b
  4333   0075AC  A0D8               	btfss	status,0,c
  4334   0075AE  EFDB  F03A         	goto	u2721
  4335   0075B2  EFDD  F03A         	goto	u2720
  4336   0075B6                     u2721:
  4337   0075B6  EF43  F03B         	goto	l2790
  4338   0075BA                     u2720:
  4339   0075BA                     
  4340                           ; BSR set to: 0
  4341   0075BA  C080  F001         	movff	atanf@x,___fpclassifyf@x
  4342   0075BE  C081  F002         	movff	atanf@x+1,___fpclassifyf@x+1
  4343   0075C2  C082  F003         	movff	atanf@x+2,___fpclassifyf@x+2
  4344   0075C6  C083  F004         	movff	atanf@x+3,___fpclassifyf@x+3
  4345   0075CA  ECC8  F02B         	call	___fpclassifyf	;wreg free
  4346   0075CE  5001               	movf	?___fpclassifyf^0,w,c
  4347   0075D0  1002               	iorwf	(?___fpclassifyf+1)^0,w,c
  4348   0075D2  A4D8               	btfss	status,2,c
  4349   0075D4  EFEE  F03A         	goto	u2731
  4350   0075D8  EFF0  F03A         	goto	u2730
  4351   0075DC                     u2731:
  4352   0075DC  EFFA  F03A         	goto	l2780
  4353   0075E0                     u2730:
  4354   0075E0                     l2778:
  4355   0075E0  C080  F080         	movff	atanf@x,?_atanf
  4356   0075E4  C081  F081         	movff	atanf@x+1,?_atanf+1
  4357   0075E8  C082  F082         	movff	atanf@x+2,?_atanf+2
  4358   0075EC  C083  F083         	movff	atanf@x+3,?_atanf+3
  4359   0075F0  EF72  F03E         	goto	l1064
  4360   0075F4                     l2780:
  4361   0075F4  0E03               	movlw	low (_atanhi+12)
  4362   0075F6  6EF6               	movwf	tblptrl,c
  4363   0075F8  0E7D               	movlw	high (_atanhi+12)
  4364   0075FA  6EF7               	movwf	tblptrh,c
  4365   0075FC                     	if	0	;tblptru may be non-zero
  4366   0075FC                     	endif
  4367   0075FC                     	if	0	;tblptru may be non-zero
  4368   0075FC                     	endif
  4369   0075FC  0009               	tblrd		*+
  4370   0075FE  CFF5 F028          	movff	tablat,___fladd@b
  4371   007602  0009               	tblrd		*+
  4372   007604  CFF5 F029          	movff	tablat,___fladd@b+1
  4373   007608  0009               	tblrd		*+
  4374   00760A  CFF5 F02A          	movff	tablat,___fladd@b+2
  4375   00760E  000A               	tblrd		*-
  4376   007610  CFF5 F02B          	movff	tablat,___fladd@b+3
  4377   007614  0E00               	movlw	0
  4378   007616  6E2C               	movwf	___fladd@a^0,c
  4379   007618  0E00               	movlw	0
  4380   00761A  6E2D               	movwf	(___fladd@a+1)^0,c
  4381   00761C  0E80               	movlw	128
  4382   00761E  6E2E               	movwf	(___fladd@a+2)^0,c
  4383   007620  0E03               	movlw	3
  4384   007622  6E2F               	movwf	(___fladd@a+3)^0,c
  4385   007624  EC85  F035         	call	___fladd	;wreg free
  4386   007628  C028  F0A6         	movff	?___fladd,atanf@z
  4387   00762C  C029  F0A7         	movff	?___fladd+1,atanf@z+1
  4388   007630  C02A  F0A8         	movff	?___fladd+2,atanf@z+2
  4389   007634  C02B  F0A9         	movff	?___fladd+3,atanf@z+3
  4390   007638  0100               	movlb	0	; () banked
  4391   00763A  51A0               	movf	atanf@sign& (0+255),w,b
  4392   00763C  A4D8               	btfss	status,2,c
  4393   00763E  EF23  F03B         	goto	u2741
  4394   007642  EF25  F03B         	goto	u2740
  4395   007646                     u2741:
  4396   007646  EF2F  F03B         	goto	l2786
  4397   00764A                     u2740:
  4398   00764A                     l2784:
  4399                           
  4400                           ; BSR set to: 0
  4401   00764A  C0A6  F080         	movff	atanf@z,?_atanf
  4402   00764E  C0A7  F081         	movff	atanf@z+1,?_atanf+1
  4403   007652  C0A8  F082         	movff	atanf@z+2,?_atanf+2
  4404   007656  C0A9  F083         	movff	atanf@z+3,?_atanf+3
  4405   00765A  EF72  F03E         	goto	l1064
  4406   00765E                     l2786:
  4407                           
  4408                           ; BSR set to: 0
  4409   00765E  C0A6  F001         	movff	atanf@z,___flneg@f1
  4410   007662  C0A7  F002         	movff	atanf@z+1,___flneg@f1+1
  4411   007666  C0A8  F003         	movff	atanf@z+2,___flneg@f1+2
  4412   00766A  C0A9  F004         	movff	atanf@z+3,___flneg@f1+3
  4413   00766E  EC43  F02A         	call	___flneg	;wreg free
  4414   007672  C001  F080         	movff	?___flneg,?_atanf
  4415   007676  C002  F081         	movff	?___flneg+1,?_atanf+1
  4416   00767A  C003  F082         	movff	?___flneg+2,?_atanf+2
  4417   00767E  C004  F083         	movff	?___flneg+3,?_atanf+3
  4418   007682  EF72  F03E         	goto	l1064
  4419   007686                     l2790:
  4420                           
  4421                           ; BSR set to: 0
  4422   007686  0EE0               	movlw	224
  4423   007688  5DAC               	subwf	(atanf@ix+2)& (0+255),w,b
  4424   00768A  0E3E               	movlw	62
  4425   00768C  59AD               	subwfb	(atanf@ix+3)& (0+255),w,b
  4426   00768E  B0D8               	btfsc	status,0,c
  4427   007690  EF4C  F03B         	goto	u2751
  4428   007694  EF4E  F03B         	goto	u2750
  4429   007698                     u2751:
  4430   007698  EF5E  F03B         	goto	l2796
  4431   00769C                     u2750:
  4432   00769C                     
  4433                           ; BSR set to: 0
  4434   00769C  0E80               	movlw	128
  4435   00769E  5DAC               	subwf	(atanf@ix+2)& (0+255),w,b
  4436   0076A0  0E39               	movlw	57
  4437   0076A2  59AD               	subwfb	(atanf@ix+3)& (0+255),w,b
  4438   0076A4  B0D8               	btfsc	status,0,c
  4439   0076A6  EF57  F03B         	goto	u2761
  4440   0076AA  EF59  F03B         	goto	u2760
  4441   0076AE                     u2761:
  4442   0076AE  EF5B  F03B         	goto	l1070
  4443   0076B2                     u2760:
  4444   0076B2  EFF0  F03A         	goto	l2778
  4445   0076B6                     l1070:
  4446                           
  4447                           ; BSR set to: 0
  4448   0076B6  69A5               	setf	atanf@id& (0+255),b
  4449   0076B8  EF97  F03C         	goto	l2820
  4450   0076BC                     l2796:
  4451                           
  4452                           ; BSR set to: 0
  4453   0076BC  C080  F076         	movff	atanf@x,fabsf@x
  4454   0076C0  C081  F077         	movff	atanf@x+1,fabsf@x+1
  4455   0076C4  C082  F078         	movff	atanf@x+2,fabsf@x+2
  4456   0076C8  C083  F079         	movff	atanf@x+3,fabsf@x+3
  4457   0076CC  EC29  F02A         	call	_fabsf	;wreg free
  4458   0076D0  C076  F080         	movff	?_fabsf,atanf@x
  4459   0076D4  C077  F081         	movff	?_fabsf+1,atanf@x+1
  4460   0076D8  C078  F082         	movff	?_fabsf+2,atanf@x+2
  4461   0076DC  C079  F083         	movff	?_fabsf+3,atanf@x+3
  4462   0076E0  0E98               	movlw	152
  4463   0076E2  0100               	movlb	0	; () banked
  4464   0076E4  5DAC               	subwf	(atanf@ix+2)& (0+255),w,b
  4465   0076E6  0E3F               	movlw	63
  4466   0076E8  59AD               	subwfb	(atanf@ix+3)& (0+255),w,b
  4467   0076EA  B0D8               	btfsc	status,0,c
  4468   0076EC  EF7A  F03B         	goto	u2771
  4469   0076F0  EF7C  F03B         	goto	u2770
  4470   0076F4                     u2771:
  4471   0076F4  EF1C  F03C         	goto	l2810
  4472   0076F8                     u2770:
  4473   0076F8                     
  4474                           ; BSR set to: 0
  4475   0076F8  0E30               	movlw	48
  4476   0076FA  5DAC               	subwf	(atanf@ix+2)& (0+255),w,b
  4477   0076FC  0E3F               	movlw	63
  4478   0076FE  59AD               	subwfb	(atanf@ix+3)& (0+255),w,b
  4479   007700  B0D8               	btfsc	status,0,c
  4480   007702  EF85  F03B         	goto	u2781
  4481   007706  EF87  F03B         	goto	u2780
  4482   00770A                     u2781:
  4483   00770A  EFDA  F03B         	goto	l2806
  4484   00770E                     u2780:
  4485   00770E                     
  4486                           ; BSR set to: 0
  4487   00770E  6BA5               	clrf	atanf@id& (0+255),b
  4488   007710                     
  4489                           ; BSR set to: 0
  4490   007710  0E00               	movlw	0
  4491   007712  6E2C               	movwf	___fladd@a^0,c
  4492   007714  0E00               	movlw	0
  4493   007716  6E2D               	movwf	(___fladd@a+1)^0,c
  4494   007718  0E80               	movlw	128
  4495   00771A  6E2E               	movwf	(___fladd@a+2)^0,c
  4496   00771C  0EBF               	movlw	191
  4497   00771E  6E2F               	movwf	(___fladd@a+3)^0,c
  4498   007720  0E00               	movlw	0
  4499   007722  6E13               	movwf	___flmul@a^0,c
  4500   007724  0E00               	movlw	0
  4501   007726  6E14               	movwf	(___flmul@a+1)^0,c
  4502   007728  0E00               	movlw	0
  4503   00772A  6E15               	movwf	(___flmul@a+2)^0,c
  4504   00772C  0E40               	movlw	64
  4505   00772E  6E16               	movwf	(___flmul@a+3)^0,c
  4506   007730  C080  F00F         	movff	atanf@x,___flmul@b
  4507   007734  C081  F010         	movff	atanf@x+1,___flmul@b+1
  4508   007738  C082  F011         	movff	atanf@x+2,___flmul@b+2
  4509   00773C  C083  F012         	movff	atanf@x+3,___flmul@b+3
  4510   007740  EC72  F033         	call	___flmul	;wreg free
  4511   007744  C00F  F028         	movff	?___flmul,___fladd@b
  4512   007748  C010  F029         	movff	?___flmul+1,___fladd@b+1
  4513   00774C  C011  F02A         	movff	?___flmul+2,___fladd@b+2
  4514   007750  C012  F02B         	movff	?___flmul+3,___fladd@b+3
  4515   007754  EC85  F035         	call	___fladd	;wreg free
  4516   007758  C028  F05D         	movff	?___fladd,___fldiv@b
  4517   00775C  C029  F05E         	movff	?___fladd+1,___fldiv@b+1
  4518   007760  C02A  F05F         	movff	?___fladd+2,___fldiv@b+2
  4519   007764  C02B  F060         	movff	?___fladd+3,___fldiv@b+3
  4520   007768  0E00               	movlw	0
  4521   00776A  6E2C               	movwf	___fladd@a^0,c
  4522   00776C  0E00               	movlw	0
  4523   00776E  6E2D               	movwf	(___fladd@a+1)^0,c
  4524   007770  0E00               	movlw	0
  4525   007772  6E2E               	movwf	(___fladd@a+2)^0,c
  4526   007774  0E40               	movlw	64
  4527   007776  6E2F               	movwf	(___fladd@a+3)^0,c
  4528   007778  C080  F028         	movff	atanf@x,___fladd@b
  4529   00777C  C081  F029         	movff	atanf@x+1,___fladd@b+1
  4530   007780  C082  F02A         	movff	atanf@x+2,___fladd@b+2
  4531   007784  C083  F02B         	movff	atanf@x+3,___fladd@b+3
  4532   007788  EC85  F035         	call	___fladd	;wreg free
  4533   00778C  C028  F061         	movff	?___fladd,___fldiv@a
  4534   007790  C029  F062         	movff	?___fladd+1,___fldiv@a+1
  4535   007794  C02A  F063         	movff	?___fladd+2,___fldiv@a+2
  4536   007798  C02B  F064         	movff	?___fladd+3,___fldiv@a+3
  4537   00779C  ECBB  F02F         	call	___fldiv	;wreg free
  4538   0077A0  C05D  F080         	movff	?___fldiv,atanf@x
  4539   0077A4  C05E  F081         	movff	?___fldiv+1,atanf@x+1
  4540   0077A8  C05F  F082         	movff	?___fldiv+2,atanf@x+2
  4541   0077AC  C060  F083         	movff	?___fldiv+3,atanf@x+3
  4542   0077B0  EF97  F03C         	goto	l2820
  4543   0077B4                     l2806:
  4544                           
  4545                           ; BSR set to: 0
  4546   0077B4  0E01               	movlw	1
  4547   0077B6  6FA5               	movwf	atanf@id& (0+255),b
  4548   0077B8                     
  4549                           ; BSR set to: 0
  4550   0077B8  0E00               	movlw	0
  4551   0077BA  6E2C               	movwf	___fladd@a^0,c
  4552   0077BC  0E00               	movlw	0
  4553   0077BE  6E2D               	movwf	(___fladd@a+1)^0,c
  4554   0077C0  0E80               	movlw	128
  4555   0077C2  6E2E               	movwf	(___fladd@a+2)^0,c
  4556   0077C4  0EBF               	movlw	191
  4557   0077C6  6E2F               	movwf	(___fladd@a+3)^0,c
  4558   0077C8  C080  F028         	movff	atanf@x,___fladd@b
  4559   0077CC  C081  F029         	movff	atanf@x+1,___fladd@b+1
  4560   0077D0  C082  F02A         	movff	atanf@x+2,___fladd@b+2
  4561   0077D4  C083  F02B         	movff	atanf@x+3,___fladd@b+3
  4562   0077D8  EC85  F035         	call	___fladd	;wreg free
  4563   0077DC  C028  F05D         	movff	?___fladd,___fldiv@b
  4564   0077E0  C029  F05E         	movff	?___fladd+1,___fldiv@b+1
  4565   0077E4  C02A  F05F         	movff	?___fladd+2,___fldiv@b+2
  4566   0077E8  C02B  F060         	movff	?___fladd+3,___fldiv@b+3
  4567   0077EC  0E00               	movlw	0
  4568   0077EE  6E2C               	movwf	___fladd@a^0,c
  4569   0077F0  0E00               	movlw	0
  4570   0077F2  6E2D               	movwf	(___fladd@a+1)^0,c
  4571   0077F4  0E80               	movlw	128
  4572   0077F6  6E2E               	movwf	(___fladd@a+2)^0,c
  4573   0077F8  0E3F               	movlw	63
  4574   0077FA  6E2F               	movwf	(___fladd@a+3)^0,c
  4575   0077FC  C080  F028         	movff	atanf@x,___fladd@b
  4576   007800  C081  F029         	movff	atanf@x+1,___fladd@b+1
  4577   007804  C082  F02A         	movff	atanf@x+2,___fladd@b+2
  4578   007808  C083  F02B         	movff	atanf@x+3,___fladd@b+3
  4579   00780C  EC85  F035         	call	___fladd	;wreg free
  4580   007810  C028  F061         	movff	?___fladd,___fldiv@a
  4581   007814  C029  F062         	movff	?___fladd+1,___fldiv@a+1
  4582   007818  C02A  F063         	movff	?___fladd+2,___fldiv@a+2
  4583   00781C  C02B  F064         	movff	?___fladd+3,___fldiv@a+3
  4584   007820  ECBB  F02F         	call	___fldiv	;wreg free
  4585   007824  C05D  F080         	movff	?___fldiv,atanf@x
  4586   007828  C05E  F081         	movff	?___fldiv+1,atanf@x+1
  4587   00782C  C05F  F082         	movff	?___fldiv+2,atanf@x+2
  4588   007830  C060  F083         	movff	?___fldiv+3,atanf@x+3
  4589   007834  EF97  F03C         	goto	l2820
  4590   007838                     l2810:
  4591                           
  4592                           ; BSR set to: 0
  4593   007838  0E1C               	movlw	28
  4594   00783A  5DAC               	subwf	(atanf@ix+2)& (0+255),w,b
  4595   00783C  0E40               	movlw	64
  4596   00783E  59AD               	subwfb	(atanf@ix+3)& (0+255),w,b
  4597   007840  B0D8               	btfsc	status,0,c
  4598   007842  EF25  F03C         	goto	u2791
  4599   007846  EF27  F03C         	goto	u2790
  4600   00784A                     u2791:
  4601   00784A  EF7B  F03C         	goto	l2816
  4602   00784E                     u2790:
  4603   00784E                     
  4604                           ; BSR set to: 0
  4605   00784E  0E02               	movlw	2
  4606   007850  6FA5               	movwf	atanf@id& (0+255),b
  4607   007852                     
  4608                           ; BSR set to: 0
  4609   007852  0E00               	movlw	0
  4610   007854  6E2C               	movwf	___fladd@a^0,c
  4611   007856  0E00               	movlw	0
  4612   007858  6E2D               	movwf	(___fladd@a+1)^0,c
  4613   00785A  0EC0               	movlw	192
  4614   00785C  6E2E               	movwf	(___fladd@a+2)^0,c
  4615   00785E  0EBF               	movlw	191
  4616   007860  6E2F               	movwf	(___fladd@a+3)^0,c
  4617   007862  C080  F028         	movff	atanf@x,___fladd@b
  4618   007866  C081  F029         	movff	atanf@x+1,___fladd@b+1
  4619   00786A  C082  F02A         	movff	atanf@x+2,___fladd@b+2
  4620   00786E  C083  F02B         	movff	atanf@x+3,___fladd@b+3
  4621   007872  EC85  F035         	call	___fladd	;wreg free
  4622   007876  C028  F05D         	movff	?___fladd,___fldiv@b
  4623   00787A  C029  F05E         	movff	?___fladd+1,___fldiv@b+1
  4624   00787E  C02A  F05F         	movff	?___fladd+2,___fldiv@b+2
  4625   007882  C02B  F060         	movff	?___fladd+3,___fldiv@b+3
  4626   007886  0E00               	movlw	0
  4627   007888  6E2C               	movwf	___fladd@a^0,c
  4628   00788A  0E00               	movlw	0
  4629   00788C  6E2D               	movwf	(___fladd@a+1)^0,c
  4630   00788E  0E80               	movlw	128
  4631   007890  6E2E               	movwf	(___fladd@a+2)^0,c
  4632   007892  0E3F               	movlw	63
  4633   007894  6E2F               	movwf	(___fladd@a+3)^0,c
  4634   007896  0E00               	movlw	0
  4635   007898  6E13               	movwf	___flmul@a^0,c
  4636   00789A  0E00               	movlw	0
  4637   00789C  6E14               	movwf	(___flmul@a+1)^0,c
  4638   00789E  0EC0               	movlw	192
  4639   0078A0  6E15               	movwf	(___flmul@a+2)^0,c
  4640   0078A2  0E3F               	movlw	63
  4641   0078A4  6E16               	movwf	(___flmul@a+3)^0,c
  4642   0078A6  C080  F00F         	movff	atanf@x,___flmul@b
  4643   0078AA  C081  F010         	movff	atanf@x+1,___flmul@b+1
  4644   0078AE  C082  F011         	movff	atanf@x+2,___flmul@b+2
  4645   0078B2  C083  F012         	movff	atanf@x+3,___flmul@b+3
  4646   0078B6  EC72  F033         	call	___flmul	;wreg free
  4647   0078BA  C00F  F028         	movff	?___flmul,___fladd@b
  4648   0078BE  C010  F029         	movff	?___flmul+1,___fladd@b+1
  4649   0078C2  C011  F02A         	movff	?___flmul+2,___fladd@b+2
  4650   0078C6  C012  F02B         	movff	?___flmul+3,___fladd@b+3
  4651   0078CA  EC85  F035         	call	___fladd	;wreg free
  4652   0078CE  C028  F061         	movff	?___fladd,___fldiv@a
  4653   0078D2  C029  F062         	movff	?___fladd+1,___fldiv@a+1
  4654   0078D6  C02A  F063         	movff	?___fladd+2,___fldiv@a+2
  4655   0078DA  C02B  F064         	movff	?___fladd+3,___fldiv@a+3
  4656   0078DE  ECBB  F02F         	call	___fldiv	;wreg free
  4657   0078E2  C05D  F080         	movff	?___fldiv,atanf@x
  4658   0078E6  C05E  F081         	movff	?___fldiv+1,atanf@x+1
  4659   0078EA  C05F  F082         	movff	?___fldiv+2,atanf@x+2
  4660   0078EE  C060  F083         	movff	?___fldiv+3,atanf@x+3
  4661   0078F2  EF97  F03C         	goto	l2820
  4662   0078F6                     l2816:
  4663                           
  4664                           ; BSR set to: 0
  4665   0078F6  0E03               	movlw	3
  4666   0078F8  6FA5               	movwf	atanf@id& (0+255),b
  4667   0078FA                     
  4668                           ; BSR set to: 0
  4669   0078FA  0E00               	movlw	0
  4670   0078FC  6E5D               	movwf	___fldiv@b^0,c
  4671   0078FE  0E00               	movlw	0
  4672   007900  6E5E               	movwf	(___fldiv@b+1)^0,c
  4673   007902  0E80               	movlw	128
  4674   007904  6E5F               	movwf	(___fldiv@b+2)^0,c
  4675   007906  0EBF               	movlw	191
  4676   007908  6E60               	movwf	(___fldiv@b+3)^0,c
  4677   00790A  C080  F061         	movff	atanf@x,___fldiv@a
  4678   00790E  C081  F062         	movff	atanf@x+1,___fldiv@a+1
  4679   007912  C082  F063         	movff	atanf@x+2,___fldiv@a+2
  4680   007916  C083  F064         	movff	atanf@x+3,___fldiv@a+3
  4681   00791A  ECBB  F02F         	call	___fldiv	;wreg free
  4682   00791E  C05D  F080         	movff	?___fldiv,atanf@x
  4683   007922  C05E  F081         	movff	?___fldiv+1,atanf@x+1
  4684   007926  C05F  F082         	movff	?___fldiv+2,atanf@x+2
  4685   00792A  C060  F083         	movff	?___fldiv+3,atanf@x+3
  4686   00792E                     l2820:
  4687   00792E  C080  F00F         	movff	atanf@x,___flmul@b
  4688   007932  C081  F010         	movff	atanf@x+1,___flmul@b+1
  4689   007936  C082  F011         	movff	atanf@x+2,___flmul@b+2
  4690   00793A  C083  F012         	movff	atanf@x+3,___flmul@b+3
  4691   00793E  C080  F013         	movff	atanf@x,___flmul@a
  4692   007942  C081  F014         	movff	atanf@x+1,___flmul@a+1
  4693   007946  C082  F015         	movff	atanf@x+2,___flmul@a+2
  4694   00794A  C083  F016         	movff	atanf@x+3,___flmul@a+3
  4695   00794E  EC72  F033         	call	___flmul	;wreg free
  4696   007952  C00F  F0A6         	movff	?___flmul,atanf@z
  4697   007956  C010  F0A7         	movff	?___flmul+1,atanf@z+1
  4698   00795A  C011  F0A8         	movff	?___flmul+2,atanf@z+2
  4699   00795E  C012  F0A9         	movff	?___flmul+3,atanf@z+3
  4700   007962  C0A6  F00F         	movff	atanf@z,___flmul@b
  4701   007966  C0A7  F010         	movff	atanf@z+1,___flmul@b+1
  4702   00796A  C0A8  F011         	movff	atanf@z+2,___flmul@b+2
  4703   00796E  C0A9  F012         	movff	atanf@z+3,___flmul@b+3
  4704   007972  C0A6  F013         	movff	atanf@z,___flmul@a
  4705   007976  C0A7  F014         	movff	atanf@z+1,___flmul@a+1
  4706   00797A  C0A8  F015         	movff	atanf@z+2,___flmul@a+2
  4707   00797E  C0A9  F016         	movff	atanf@z+3,___flmul@a+3
  4708   007982  EC72  F033         	call	___flmul	;wreg free
  4709   007986  C00F  F0A1         	movff	?___flmul,atanf@w
  4710   00798A  C010  F0A2         	movff	?___flmul+1,atanf@w+1
  4711   00798E  C011  F0A3         	movff	?___flmul+2,atanf@w+2
  4712   007992  C012  F0A4         	movff	?___flmul+3,atanf@w+3
  4713   007996  0E0D               	movlw	13
  4714   007998  6E2C               	movwf	___fladd@a^0,c
  4715   00799A  0EF5               	movlw	245
  4716   00799C  6E2D               	movwf	(___fladd@a+1)^0,c
  4717   00799E  0E11               	movlw	17
  4718   0079A0  6E2E               	movwf	(___fladd@a+2)^0,c
  4719   0079A2  0E3E               	movlw	62
  4720   0079A4  6E2F               	movwf	(___fladd@a+3)^0,c
  4721   0079A6  0E25               	movlw	37
  4722   0079A8  6E13               	movwf	___flmul@a^0,c
  4723   0079AA  0EAC               	movlw	172
  4724   0079AC  6E14               	movwf	(___flmul@a+1)^0,c
  4725   0079AE  0E7C               	movlw	124
  4726   0079B0  6E15               	movwf	(___flmul@a+2)^0,c
  4727   0079B2  0E3D               	movlw	61
  4728   0079B4  6E16               	movwf	(___flmul@a+3)^0,c
  4729   0079B6  C0A1  F00F         	movff	atanf@w,___flmul@b
  4730   0079BA  C0A2  F010         	movff	atanf@w+1,___flmul@b+1
  4731   0079BE  C0A3  F011         	movff	atanf@w+2,___flmul@b+2
  4732   0079C2  C0A4  F012         	movff	atanf@w+3,___flmul@b+3
  4733   0079C6  EC72  F033         	call	___flmul	;wreg free
  4734   0079CA  C00F  F028         	movff	?___flmul,___fladd@b
  4735   0079CE  C010  F029         	movff	?___flmul+1,___fladd@b+1
  4736   0079D2  C011  F02A         	movff	?___flmul+2,___fladd@b+2
  4737   0079D6  C012  F02B         	movff	?___flmul+3,___fladd@b+3
  4738   0079DA  EC85  F035         	call	___fladd	;wreg free
  4739   0079DE  C028  F098         	movff	?___fladd,_atanf$1842
  4740   0079E2  C029  F099         	movff	?___fladd+1,_atanf$1842+1
  4741   0079E6  C02A  F09A         	movff	?___fladd+2,_atanf$1842+2
  4742   0079EA  C02B  F09B         	movff	?___fladd+3,_atanf$1842+3
  4743   0079EE  0EA9               	movlw	169
  4744   0079F0  6E2C               	movwf	___fladd@a^0,c
  4745   0079F2  0EAA               	movlw	170
  4746   0079F4  6E2D               	movwf	(___fladd@a+1)^0,c
  4747   0079F6  0EAA               	movlw	170
  4748   0079F8  6E2E               	movwf	(___fladd@a+2)^0,c
  4749   0079FA  0E3E               	movlw	62
  4750   0079FC  6E2F               	movwf	(___fladd@a+3)^0,c
  4751   0079FE  C0A1  F013         	movff	atanf@w,___flmul@a
  4752   007A02  C0A2  F014         	movff	atanf@w+1,___flmul@a+1
  4753   007A06  C0A3  F015         	movff	atanf@w+2,___flmul@a+2
  4754   007A0A  C0A4  F016         	movff	atanf@w+3,___flmul@a+3
  4755   007A0E  C098  F00F         	movff	_atanf$1842,___flmul@b
  4756   007A12  C099  F010         	movff	_atanf$1842+1,___flmul@b+1
  4757   007A16  C09A  F011         	movff	_atanf$1842+2,___flmul@b+2
  4758   007A1A  C09B  F012         	movff	_atanf$1842+3,___flmul@b+3
  4759   007A1E  EC72  F033         	call	___flmul	;wreg free
  4760   007A22  C00F  F028         	movff	?___flmul,___fladd@b
  4761   007A26  C010  F029         	movff	?___flmul+1,___fladd@b+1
  4762   007A2A  C011  F02A         	movff	?___flmul+2,___fladd@b+2
  4763   007A2E  C012  F02B         	movff	?___flmul+3,___fladd@b+3
  4764   007A32  EC85  F035         	call	___fladd	;wreg free
  4765   007A36  C028  F084         	movff	?___fladd,_atanf$1843
  4766   007A3A  C029  F085         	movff	?___fladd+1,_atanf$1843+1
  4767   007A3E  C02A  F086         	movff	?___fladd+2,_atanf$1843+2
  4768   007A42  C02B  F087         	movff	?___fladd+3,_atanf$1843+3
  4769   007A46  C084  F00F         	movff	_atanf$1843,___flmul@b
  4770   007A4A  C085  F010         	movff	_atanf$1843+1,___flmul@b+1
  4771   007A4E  C086  F011         	movff	_atanf$1843+2,___flmul@b+2
  4772   007A52  C087  F012         	movff	_atanf$1843+3,___flmul@b+3
  4773   007A56  C0A6  F013         	movff	atanf@z,___flmul@a
  4774   007A5A  C0A7  F014         	movff	atanf@z+1,___flmul@a+1
  4775   007A5E  C0A8  F015         	movff	atanf@z+2,___flmul@a+2
  4776   007A62  C0A9  F016         	movff	atanf@z+3,___flmul@a+3
  4777   007A66  EC72  F033         	call	___flmul	;wreg free
  4778   007A6A  C00F  F090         	movff	?___flmul,atanf@s1
  4779   007A6E  C010  F091         	movff	?___flmul+1,atanf@s1+1
  4780   007A72  C011  F092         	movff	?___flmul+2,atanf@s1+2
  4781   007A76  C012  F093         	movff	?___flmul+3,atanf@s1+3
  4782   007A7A  0E98               	movlw	152
  4783   007A7C  6E2C               	movwf	___fladd@a^0,c
  4784   007A7E  0ECA               	movlw	202
  4785   007A80  6E2D               	movwf	(___fladd@a+1)^0,c
  4786   007A82  0E4C               	movlw	76
  4787   007A84  6E2E               	movwf	(___fladd@a+2)^0,c
  4788   007A86  0EBE               	movlw	190
  4789   007A88  6E2F               	movwf	(___fladd@a+3)^0,c
  4790   007A8A  0E47               	movlw	71
  4791   007A8C  6E13               	movwf	___flmul@a^0,c
  4792   007A8E  0E12               	movlw	18
  4793   007A90  6E14               	movwf	(___flmul@a+1)^0,c
  4794   007A92  0EDA               	movlw	218
  4795   007A94  6E15               	movwf	(___flmul@a+2)^0,c
  4796   007A96  0EBD               	movlw	189
  4797   007A98  6E16               	movwf	(___flmul@a+3)^0,c
  4798   007A9A  C0A1  F00F         	movff	atanf@w,___flmul@b
  4799   007A9E  C0A2  F010         	movff	atanf@w+1,___flmul@b+1
  4800   007AA2  C0A3  F011         	movff	atanf@w+2,___flmul@b+2
  4801   007AA6  C0A4  F012         	movff	atanf@w+3,___flmul@b+3
  4802   007AAA  EC72  F033         	call	___flmul	;wreg free
  4803   007AAE  C00F  F028         	movff	?___flmul,___fladd@b
  4804   007AB2  C010  F029         	movff	?___flmul+1,___fladd@b+1
  4805   007AB6  C011  F02A         	movff	?___flmul+2,___fladd@b+2
  4806   007ABA  C012  F02B         	movff	?___flmul+3,___fladd@b+3
  4807   007ABE  EC85  F035         	call	___fladd	;wreg free
  4808   007AC2  C028  F098         	movff	?___fladd,_atanf$1842
  4809   007AC6  C029  F099         	movff	?___fladd+1,_atanf$1842+1
  4810   007ACA  C02A  F09A         	movff	?___fladd+2,_atanf$1842+2
  4811   007ACE  C02B  F09B         	movff	?___fladd+3,_atanf$1842+3
  4812   007AD2  C098  F00F         	movff	_atanf$1842,___flmul@b
  4813   007AD6  C099  F010         	movff	_atanf$1842+1,___flmul@b+1
  4814   007ADA  C09A  F011         	movff	_atanf$1842+2,___flmul@b+2
  4815   007ADE  C09B  F012         	movff	_atanf$1842+3,___flmul@b+3
  4816   007AE2  C0A1  F013         	movff	atanf@w,___flmul@a
  4817   007AE6  C0A2  F014         	movff	atanf@w+1,___flmul@a+1
  4818   007AEA  C0A3  F015         	movff	atanf@w+2,___flmul@a+2
  4819   007AEE  C0A4  F016         	movff	atanf@w+3,___flmul@a+3
  4820   007AF2  EC72  F033         	call	___flmul	;wreg free
  4821   007AF6  C00F  F094         	movff	?___flmul,atanf@s2
  4822   007AFA  C010  F095         	movff	?___flmul+1,atanf@s2+1
  4823   007AFE  C011  F096         	movff	?___flmul+2,atanf@s2+2
  4824   007B02  C012  F097         	movff	?___flmul+3,atanf@s2+3
  4825   007B06  0100               	movlb	0	; () banked
  4826   007B08  BFA5               	btfsc	atanf@id& (0+255),7,b
  4827   007B0A  EF8B  F03D         	goto	u2800
  4828   007B0E  EF89  F03D         	goto	u2801
  4829   007B12                     u2801:
  4830   007B12  EFD3  F03D         	goto	l2842
  4831   007B16                     u2800:
  4832   007B16                     
  4833                           ; BSR set to: 0
  4834   007B16  C080  F013         	movff	atanf@x,___flmul@a
  4835   007B1A  C081  F014         	movff	atanf@x+1,___flmul@a+1
  4836   007B1E  C082  F015         	movff	atanf@x+2,___flmul@a+2
  4837   007B22  C083  F016         	movff	atanf@x+3,___flmul@a+3
  4838   007B26  C094  F02C         	movff	atanf@s2,___fladd@a
  4839   007B2A  C095  F02D         	movff	atanf@s2+1,___fladd@a+1
  4840   007B2E  C096  F02E         	movff	atanf@s2+2,___fladd@a+2
  4841   007B32  C097  F02F         	movff	atanf@s2+3,___fladd@a+3
  4842   007B36  C090  F028         	movff	atanf@s1,___fladd@b
  4843   007B3A  C091  F029         	movff	atanf@s1+1,___fladd@b+1
  4844   007B3E  C092  F02A         	movff	atanf@s1+2,___fladd@b+2
  4845   007B42  C093  F02B         	movff	atanf@s1+3,___fladd@b+3
  4846   007B46  EC85  F035         	call	___fladd	;wreg free
  4847   007B4A  C028  F00F         	movff	?___fladd,___flmul@b
  4848   007B4E  C029  F010         	movff	?___fladd+1,___flmul@b+1
  4849   007B52  C02A  F011         	movff	?___fladd+2,___flmul@b+2
  4850   007B56  C02B  F012         	movff	?___fladd+3,___flmul@b+3
  4851   007B5A  EC72  F033         	call	___flmul	;wreg free
  4852   007B5E  C00F  F09C         	movff	?___flmul,_atanf$1844
  4853   007B62  C010  F09D         	movff	?___flmul+1,_atanf$1844+1
  4854   007B66  C011  F09E         	movff	?___flmul+2,_atanf$1844+2
  4855   007B6A  C012  F09F         	movff	?___flmul+3,_atanf$1844+3
  4856   007B6E  C080  F038         	movff	atanf@x,___flsub@b
  4857   007B72  C081  F039         	movff	atanf@x+1,___flsub@b+1
  4858   007B76  C082  F03A         	movff	atanf@x+2,___flsub@b+2
  4859   007B7A  C083  F03B         	movff	atanf@x+3,___flsub@b+3
  4860   007B7E  C09C  F03C         	movff	_atanf$1844,___flsub@a
  4861   007B82  C09D  F03D         	movff	_atanf$1844+1,___flsub@a+1
  4862   007B86  C09E  F03E         	movff	_atanf$1844+2,___flsub@a+2
  4863   007B8A  C09F  F03F         	movff	_atanf$1844+3,___flsub@a+3
  4864   007B8E  ECBB  F02A         	call	___flsub	;wreg free
  4865   007B92  C038  F080         	movff	?___flsub,?_atanf
  4866   007B96  C039  F081         	movff	?___flsub+1,?_atanf+1
  4867   007B9A  C03A  F082         	movff	?___flsub+2,?_atanf+2
  4868   007B9E  C03B  F083         	movff	?___flsub+3,?_atanf+3
  4869   007BA2  EF72  F03E         	goto	l1064
  4870   007BA6                     l2842:
  4871                           
  4872                           ; BSR set to: 0
  4873   007BA6  C080  F013         	movff	atanf@x,___flmul@a
  4874   007BAA  C081  F014         	movff	atanf@x+1,___flmul@a+1
  4875   007BAE  C082  F015         	movff	atanf@x+2,___flmul@a+2
  4876   007BB2  C083  F016         	movff	atanf@x+3,___flmul@a+3
  4877   007BB6  C094  F02C         	movff	atanf@s2,___fladd@a
  4878   007BBA  C095  F02D         	movff	atanf@s2+1,___fladd@a+1
  4879   007BBE  C096  F02E         	movff	atanf@s2+2,___fladd@a+2
  4880   007BC2  C097  F02F         	movff	atanf@s2+3,___fladd@a+3
  4881   007BC6  C090  F028         	movff	atanf@s1,___fladd@b
  4882   007BCA  C091  F029         	movff	atanf@s1+1,___fladd@b+1
  4883   007BCE  C092  F02A         	movff	atanf@s1+2,___fladd@b+2
  4884   007BD2  C093  F02B         	movff	atanf@s1+3,___fladd@b+3
  4885   007BD6  EC85  F035         	call	___fladd	;wreg free
  4886   007BDA  C028  F00F         	movff	?___fladd,___flmul@b
  4887   007BDE  C029  F010         	movff	?___fladd+1,___flmul@b+1
  4888   007BE2  C02A  F011         	movff	?___fladd+2,___flmul@b+2
  4889   007BE6  C02B  F012         	movff	?___fladd+3,___flmul@b+3
  4890   007BEA  EC72  F033         	call	___flmul	;wreg free
  4891   007BEE  C00F  F09C         	movff	?___flmul,_atanf$1844
  4892   007BF2  C010  F09D         	movff	?___flmul+1,_atanf$1844+1
  4893   007BF6  C011  F09E         	movff	?___flmul+2,_atanf$1844+2
  4894   007BFA  C012  F09F         	movff	?___flmul+3,_atanf$1844+3
  4895   007BFE  0100               	movlb	0	; () banked
  4896   007C00  51A5               	movf	atanf@id& (0+255),w,b
  4897   007C02  0D04               	mullw	4
  4898   007C04  0EE7               	movlw	low _atanlo
  4899   007C06  24F3               	addwf	243,w,c
  4900   007C08  6EF6               	movwf	tblptrl,c
  4901   007C0A  0E7C               	movlw	high _atanlo
  4902   007C0C  20F4               	addwfc	244,w,c
  4903   007C0E  6EF7               	movwf	tblptrh,c
  4904   007C10                     	if	0	;There are less than 3 active tblptr bytes
  4905   007C10                     	endif
  4906   007C10  0009               	tblrd		*+
  4907   007C12  CFF5 F03C          	movff	tablat,___flsub@a
  4908   007C16  0009               	tblrd		*+
  4909   007C18  CFF5 F03D          	movff	tablat,___flsub@a+1
  4910   007C1C  0009               	tblrd		*+
  4911   007C1E  CFF5 F03E          	movff	tablat,___flsub@a+2
  4912   007C22  000A               	tblrd		*-
  4913   007C24  CFF5 F03F          	movff	tablat,___flsub@a+3
  4914   007C28  C09C  F038         	movff	_atanf$1844,___flsub@b
  4915   007C2C  C09D  F039         	movff	_atanf$1844+1,___flsub@b+1
  4916   007C30  C09E  F03A         	movff	_atanf$1844+2,___flsub@b+2
  4917   007C34  C09F  F03B         	movff	_atanf$1844+3,___flsub@b+3
  4918   007C38  ECBB  F02A         	call	___flsub	;wreg free
  4919   007C3C  C038  F088         	movff	?___flsub,_atanf$1845
  4920   007C40  C039  F089         	movff	?___flsub+1,_atanf$1845+1
  4921   007C44  C03A  F08A         	movff	?___flsub+2,_atanf$1845+2
  4922   007C48  C03B  F08B         	movff	?___flsub+3,_atanf$1845+3
  4923   007C4C  C080  F03C         	movff	atanf@x,___flsub@a
  4924   007C50  C081  F03D         	movff	atanf@x+1,___flsub@a+1
  4925   007C54  C082  F03E         	movff	atanf@x+2,___flsub@a+2
  4926   007C58  C083  F03F         	movff	atanf@x+3,___flsub@a+3
  4927   007C5C  C088  F038         	movff	_atanf$1845,___flsub@b
  4928   007C60  C089  F039         	movff	_atanf$1845+1,___flsub@b+1
  4929   007C64  C08A  F03A         	movff	_atanf$1845+2,___flsub@b+2
  4930   007C68  C08B  F03B         	movff	_atanf$1845+3,___flsub@b+3
  4931   007C6C  ECBB  F02A         	call	___flsub	;wreg free
  4932   007C70  C038  F08C         	movff	?___flsub,_atanf$1846
  4933   007C74  C039  F08D         	movff	?___flsub+1,_atanf$1846+1
  4934   007C78  C03A  F08E         	movff	?___flsub+2,_atanf$1846+2
  4935   007C7C  C03B  F08F         	movff	?___flsub+3,_atanf$1846+3
  4936   007C80  0100               	movlb	0	; () banked
  4937   007C82  51A5               	movf	atanf@id& (0+255),w,b
  4938   007C84  0D04               	mullw	4
  4939   007C86  0EF7               	movlw	low _atanhi
  4940   007C88  24F3               	addwf	243,w,c
  4941   007C8A  6EF6               	movwf	tblptrl,c
  4942   007C8C  0E7C               	movlw	high _atanhi
  4943   007C8E  20F4               	addwfc	244,w,c
  4944   007C90  6EF7               	movwf	tblptrh,c
  4945   007C92                     	if	0	;There are less than 3 active tblptr bytes
  4946   007C92                     	endif
  4947   007C92  0009               	tblrd		*+
  4948   007C94  CFF5 F038          	movff	tablat,___flsub@b
  4949   007C98  0009               	tblrd		*+
  4950   007C9A  CFF5 F039          	movff	tablat,___flsub@b+1
  4951   007C9E  0009               	tblrd		*+
  4952   007CA0  CFF5 F03A          	movff	tablat,___flsub@b+2
  4953   007CA4  000A               	tblrd		*-
  4954   007CA6  CFF5 F03B          	movff	tablat,___flsub@b+3
  4955   007CAA  C08C  F03C         	movff	_atanf$1846,___flsub@a
  4956   007CAE  C08D  F03D         	movff	_atanf$1846+1,___flsub@a+1
  4957   007CB2  C08E  F03E         	movff	_atanf$1846+2,___flsub@a+2
  4958   007CB6  C08F  F03F         	movff	_atanf$1846+3,___flsub@a+3
  4959   007CBA  ECBB  F02A         	call	___flsub	;wreg free
  4960   007CBE  C038  F0A6         	movff	?___flsub,atanf@z
  4961   007CC2  C039  F0A7         	movff	?___flsub+1,atanf@z+1
  4962   007CC6  C03A  F0A8         	movff	?___flsub+2,atanf@z+2
  4963   007CCA  C03B  F0A9         	movff	?___flsub+3,atanf@z+3
  4964   007CCE  0100               	movlb	0	; () banked
  4965   007CD0  51A0               	movf	atanf@sign& (0+255),w,b
  4966   007CD2  A4D8               	btfss	status,2,c
  4967   007CD4  EF6E  F03E         	goto	u2811
  4968   007CD8  EF70  F03E         	goto	u2810
  4969   007CDC                     u2811:
  4970   007CDC  EF2F  F03B         	goto	l2786
  4971   007CE0                     u2810:
  4972   007CE0  EF25  F03B         	goto	l2784
  4973   007CE4                     l1064:
  4974   007CE4  0012               	return		;funcret
  4975   007CE6                     __end_of_atanf:
  4976                           	callstack 0
  4977                           
  4978 ;; *************** function _fabsf *****************
  4979 ;; Defined at:
  4980 ;;		line 4 in file "C:\Program Files\Microchip\xc8\v2.50\pic\sources\c99\common\fabsf.c"
  4981 ;; Parameters:    Size  Location     Type
  4982 ;;  x               4  117[COMRAM] float 
  4983 ;; Auto vars:     Size  Location     Type
  4984 ;;  u               4  121[COMRAM] struct .
  4985 ;; Return value:  Size  Location     Type
  4986 ;;                  4  117[COMRAM] float 
  4987 ;; Registers used:
  4988 ;;		status,2, status,0
  4989 ;; Tracked objects:
  4990 ;;		On entry : 0/0
  4991 ;;		On exit  : 0/0
  4992 ;;		Unchanged: 0/0
  4993 ;; Data sizes:     COMRAM   BANK0   BANK1   BANK2   BANK3   BANK4   BANK5
  4994 ;;      Params:         4       0       0       0       0       0       0
  4995 ;;      Locals:         4       0       0       0       0       0       0
  4996 ;;      Temps:          0       0       0       0       0       0       0
  4997 ;;      Totals:         8       0       0       0       0       0       0
  4998 ;;Total ram usage:        8 bytes
  4999 ;; Hardware stack levels used: 1
  5000 ;; This function calls:
  5001 ;;		Nothing
  5002 ;; This function is called by:
  5003 ;;		_atan2f
  5004 ;;		_atanf
  5005 ;; This function uses a non-reentrant model
  5006 ;;
  5007                           
  5008                           	psect	text13
  5009   005452                     __ptext13:
  5010                           	callstack 0
  5011   005452                     _fabsf:
  5012                           	callstack 25
  5013   005452  C114  F07A         	movff	fabsf@F465,fabsf@u
  5014   005456  C115  F07B         	movff	fabsf@F465+1,fabsf@u+1
  5015   00545A  C116  F07C         	movff	fabsf@F465+2,fabsf@u+2
  5016   00545E  C117  F07D         	movff	fabsf@F465+3,fabsf@u+3
  5017   005462  C076  F07A         	movff	fabsf@x,fabsf@u
  5018   005466  C077  F07B         	movff	fabsf@x+1,fabsf@u+1
  5019   00546A  C078  F07C         	movff	fabsf@x+2,fabsf@u+2
  5020   00546E  C079  F07D         	movff	fabsf@x+3,fabsf@u+3
  5021   005472  9E7D               	bcf	(fabsf@u+3)^0,7,c
  5022   005474  C07A  F076         	movff	fabsf@u,?_fabsf
  5023   005478  C07B  F077         	movff	fabsf@u+1,?_fabsf+1
  5024   00547C  C07C  F078         	movff	fabsf@u+2,?_fabsf+2
  5025   005480  C07D  F079         	movff	fabsf@u+3,?_fabsf+3
  5026   005484  0012               	return		;funcret
  5027   005486                     __end_of_fabsf:
  5028                           	callstack 0
  5029                           
  5030 ;; *************** function ___fpclassifyf *****************
  5031 ;; Defined at:
  5032 ;;		line 4 in file "C:\Program Files\Microchip\xc8\v2.50\pic\sources\c99\common\__fpclassifyf.c"
  5033 ;; Parameters:    Size  Location     Type
  5034 ;;  x               4    0[COMRAM] float 
  5035 ;; Auto vars:     Size  Location     Type
  5036 ;;  u               4   10[COMRAM] struct .
  5037 ;;  e               2    8[COMRAM] int 
  5038 ;; Return value:  Size  Location     Type
  5039 ;;                  2    0[COMRAM] int 
  5040 ;; Registers used:
  5041 ;;		wreg, status,2, status,0
  5042 ;; Tracked objects:
  5043 ;;		On entry : 0/0
  5044 ;;		On exit  : 0/0
  5045 ;;		Unchanged: 0/0
  5046 ;; Data sizes:     COMRAM   BANK0   BANK1   BANK2   BANK3   BANK4   BANK5
  5047 ;;      Params:         4       0       0       0       0       0       0
  5048 ;;      Locals:         6       0       0       0       0       0       0
  5049 ;;      Temps:          4       0       0       0       0       0       0
  5050 ;;      Totals:        14       0       0       0       0       0       0
  5051 ;;Total ram usage:       14 bytes
  5052 ;; Hardware stack levels used: 1
  5053 ;; This function calls:
  5054 ;;		Nothing
  5055 ;; This function is called by:
  5056 ;;		_atan2f
  5057 ;;		_atanf
  5058 ;; This function uses a non-reentrant model
  5059 ;;
  5060                           
  5061                           	psect	text14
  5062   005790                     __ptext14:
  5063                           	callstack 0
  5064   005790                     ___fpclassifyf:
  5065                           	callstack 24
  5066   005790  C118  F00B         	movff	___fpclassifyf@F465,___fpclassifyf@u
  5067   005794  C119  F00C         	movff	___fpclassifyf@F465+1,___fpclassifyf@u+1
  5068   005798  C11A  F00D         	movff	___fpclassifyf@F465+2,___fpclassifyf@u+2
  5069   00579C  C11B  F00E         	movff	___fpclassifyf@F465+3,___fpclassifyf@u+3
  5070   0057A0  C001  F00B         	movff	___fpclassifyf@x,___fpclassifyf@u
  5071   0057A4  C002  F00C         	movff	___fpclassifyf@x+1,___fpclassifyf@u+1
  5072   0057A8  C003  F00D         	movff	___fpclassifyf@x+2,___fpclassifyf@u+2
  5073   0057AC  C004  F00E         	movff	___fpclassifyf@x+3,___fpclassifyf@u+3
  5074   0057B0  C00B  F005         	movff	___fpclassifyf@u,??___fpclassifyf
  5075   0057B4  C00C  F006         	movff	___fpclassifyf@u+1,??___fpclassifyf+1
  5076   0057B8  C00D  F007         	movff	___fpclassifyf@u+2,??___fpclassifyf+2
  5077   0057BC  C00E  F008         	movff	___fpclassifyf@u+3,??___fpclassifyf+3
  5078   0057C0  0E18               	movlw	24
  5079   0057C2  EFE8  F02B         	goto	u2630
  5080   0057C6                     u2635:
  5081   0057C6  90D8               	bcf	status,0,c
  5082   0057C8  3208               	rrcf	(??___fpclassifyf+3)^0,f,c
  5083   0057CA  3207               	rrcf	(??___fpclassifyf+2)^0,f,c
  5084   0057CC  3206               	rrcf	(??___fpclassifyf+1)^0,f,c
  5085   0057CE  3205               	rrcf	??___fpclassifyf^0,f,c
  5086   0057D0                     u2630:
  5087   0057D0  2EE8               	decfsz	wreg,f,c
  5088   0057D2  EFE3  F02B         	goto	u2635
  5089   0057D6  5005               	movf	??___fpclassifyf^0,w,c
  5090   0057D8  6E09               	movwf	___fpclassifyf@e^0,c
  5091   0057DA  6A0A               	clrf	(___fpclassifyf@e+1)^0,c
  5092   0057DC  5009               	movf	___fpclassifyf@e^0,w,c
  5093   0057DE  100A               	iorwf	(___fpclassifyf@e+1)^0,w,c
  5094   0057E0  A4D8               	btfss	status,2,c
  5095   0057E2  EFF5  F02B         	goto	u2641
  5096   0057E6  EFF7  F02B         	goto	u2640
  5097   0057EA                     u2641:
  5098   0057EA  EF17  F02C         	goto	l2750
  5099   0057EE                     u2640:
  5100   0057EE  90D8               	bcf	status,0,c
  5101   0057F0  340B               	rlcf	___fpclassifyf@u^0,w,c
  5102   0057F2  6E05               	movwf	??___fpclassifyf^0,c
  5103   0057F4  340C               	rlcf	(___fpclassifyf@u+1)^0,w,c
  5104   0057F6  6E06               	movwf	(??___fpclassifyf+1)^0,c
  5105   0057F8  340D               	rlcf	(___fpclassifyf@u+2)^0,w,c
  5106   0057FA  6E07               	movwf	(??___fpclassifyf+2)^0,c
  5107   0057FC  340E               	rlcf	(___fpclassifyf@u+3)^0,w,c
  5108   0057FE  6E08               	movwf	(??___fpclassifyf+3)^0,c
  5109   005800  5005               	movf	??___fpclassifyf^0,w,c
  5110   005802  1006               	iorwf	(??___fpclassifyf+1)^0,w,c
  5111   005804  1007               	iorwf	(??___fpclassifyf+2)^0,w,c
  5112   005806  1008               	iorwf	(??___fpclassifyf+3)^0,w,c
  5113   005808  A4D8               	btfss	status,2,c
  5114   00580A  EF09  F02C         	goto	u2651
  5115   00580E  EF0B  F02C         	goto	u2650
  5116   005812                     u2651:
  5117   005812  EF11  F02C         	goto	l2746
  5118   005816                     u2650:
  5119   005816  0E00               	movlw	0
  5120   005818  6E02               	movwf	(?___fpclassifyf+1)^0,c
  5121   00581A  0E02               	movlw	2
  5122   00581C  6E01               	movwf	?___fpclassifyf^0,c
  5123   00581E  EF46  F02C         	goto	l1040
  5124   005822                     l2746:
  5125   005822  0E00               	movlw	0
  5126   005824  6E02               	movwf	(?___fpclassifyf+1)^0,c
  5127   005826  0E03               	movlw	3
  5128   005828  6E01               	movwf	?___fpclassifyf^0,c
  5129   00582A  EF46  F02C         	goto	l1040
  5130   00582E                     l2750:
  5131   00582E  2809               	incf	___fpclassifyf@e^0,w,c
  5132   005830  100A               	iorwf	(___fpclassifyf@e+1)^0,w,c
  5133   005832  A4D8               	btfss	status,2,c
  5134   005834  EF1E  F02C         	goto	u2661
  5135   005838  EF20  F02C         	goto	u2660
  5136   00583C                     u2661:
  5137   00583C  EF42  F02C         	goto	l2756
  5138   005840                     u2660:
  5139   005840  C00B  F005         	movff	___fpclassifyf@u,??___fpclassifyf
  5140   005844  C00C  F006         	movff	___fpclassifyf@u+1,??___fpclassifyf+1
  5141   005848  C00D  F007         	movff	___fpclassifyf@u+2,??___fpclassifyf+2
  5142   00584C  C00E  F008         	movff	___fpclassifyf@u+3,??___fpclassifyf+3
  5143   005850  0E09               	movlw	9
  5144   005852                     u2675:
  5145   005852  90D8               	bcf	status,0,c
  5146   005854  3605               	rlcf	??___fpclassifyf^0,f,c
  5147   005856  3606               	rlcf	(??___fpclassifyf+1)^0,f,c
  5148   005858  3607               	rlcf	(??___fpclassifyf+2)^0,f,c
  5149   00585A  3608               	rlcf	(??___fpclassifyf+3)^0,f,c
  5150   00585C  2EE8               	decfsz	wreg,f,c
  5151   00585E  EF29  F02C         	goto	u2675
  5152   005862  5005               	movf	??___fpclassifyf^0,w,c
  5153   005864  1006               	iorwf	(??___fpclassifyf+1)^0,w,c
  5154   005866  1007               	iorwf	(??___fpclassifyf+2)^0,w,c
  5155   005868  1008               	iorwf	(??___fpclassifyf+3)^0,w,c
  5156   00586A  B4D8               	btfsc	status,2,c
  5157   00586C  EF3A  F02C         	goto	u2681
  5158   005870  EF3D  F02C         	goto	u2680
  5159   005874                     u2681:
  5160   005874  0E01               	movlw	1
  5161   005876  EF3E  F02C         	goto	u2690
  5162   00587A                     u2680:
  5163   00587A  0E00               	movlw	0
  5164   00587C                     u2690:
  5165   00587C  6E01               	movwf	?___fpclassifyf^0,c
  5166   00587E  6A02               	clrf	(?___fpclassifyf+1)^0,c
  5167   005880  EF46  F02C         	goto	l1040
  5168   005884                     l2756:
  5169   005884  0E00               	movlw	0
  5170   005886  6E02               	movwf	(?___fpclassifyf+1)^0,c
  5171   005888  0E04               	movlw	4
  5172   00588A  6E01               	movwf	?___fpclassifyf^0,c
  5173   00588C                     l1040:
  5174   00588C  0012               	return		;funcret
  5175   00588E                     __end_of___fpclassifyf:
  5176                           	callstack 0
  5177                           
  5178 ;; *************** function ___flsub *****************
  5179 ;; Defined at:
  5180 ;;		line 245 in file "C:\Program Files\Microchip\xc8\v2.50\pic\sources\c99\common\sprcadd.c"
  5181 ;; Parameters:    Size  Location     Type
  5182 ;;  b               4   55[COMRAM] int 
  5183 ;;  a               4   59[COMRAM] int 
  5184 ;; Auto vars:     Size  Location     Type
  5185 ;;		None
  5186 ;; Return value:  Size  Location     Type
  5187 ;;                  4   55[COMRAM] int 
  5188 ;; Registers used:
  5189 ;;		wreg, status,2, status,0, cstack
  5190 ;; Tracked objects:
  5191 ;;		On entry : 0/0
  5192 ;;		On exit  : 0/0
  5193 ;;		Unchanged: 0/0
  5194 ;; Data sizes:     COMRAM   BANK0   BANK1   BANK2   BANK3   BANK4   BANK5
  5195 ;;      Params:         8       0       0       0       0       0       0
  5196 ;;      Locals:         0       0       0       0       0       0       0
  5197 ;;      Temps:          0       0       0       0       0       0       0
  5198 ;;      Totals:         8       0       0       0       0       0       0
  5199 ;;Total ram usage:        8 bytes
  5200 ;; Hardware stack levels used: 1
  5201 ;; Hardware stack levels required when called: 1
  5202 ;; This function calls:
  5203 ;;		___fladd
  5204 ;; This function is called by:
  5205 ;;		_Check_Gyroscope
  5206 ;;		_atan2f
  5207 ;;		_atanf
  5208 ;; This function uses a non-reentrant model
  5209 ;;
  5210                           
  5211                           	psect	text15
  5212   005576                     __ptext15:
  5213                           	callstack 0
  5214   005576                     ___flsub:
  5215                           	callstack 23
  5216   005576  0E00               	movlw	0
  5217   005578  1A3C               	xorwf	___flsub@a^0,f,c
  5218   00557A  0E00               	movlw	0
  5219   00557C  1A3D               	xorwf	(___flsub@a+1)^0,f,c
  5220   00557E  0E00               	movlw	0
  5221   005580  1A3E               	xorwf	(___flsub@a+2)^0,f,c
  5222   005582  0E80               	movlw	128
  5223   005584  1A3F               	xorwf	(___flsub@a+3)^0,f,c
  5224   005586  C038  F028         	movff	___flsub@b,___fladd@b
  5225   00558A  C039  F029         	movff	___flsub@b+1,___fladd@b+1
  5226   00558E  C03A  F02A         	movff	___flsub@b+2,___fladd@b+2
  5227   005592  C03B  F02B         	movff	___flsub@b+3,___fladd@b+3
  5228   005596  C03C  F02C         	movff	___flsub@a,___fladd@a
  5229   00559A  C03D  F02D         	movff	___flsub@a+1,___fladd@a+1
  5230   00559E  C03E  F02E         	movff	___flsub@a+2,___fladd@a+2
  5231   0055A2  C03F  F02F         	movff	___flsub@a+3,___fladd@a+3
  5232   0055A6  EC85  F035         	call	___fladd	;wreg free
  5233   0055AA  C028  F038         	movff	?___fladd,?___flsub
  5234   0055AE  C029  F039         	movff	?___fladd+1,?___flsub+1
  5235   0055B2  C02A  F03A         	movff	?___fladd+2,?___flsub+2
  5236   0055B6  C02B  F03B         	movff	?___fladd+3,?___flsub+3
  5237   0055BA  0012               	return		;funcret
  5238   0055BC                     __end_of___flsub:
  5239                           	callstack 0
  5240                           
  5241 ;; *************** function ___fladd *****************
  5242 ;; Defined at:
  5243 ;;		line 10 in file "C:\Program Files\Microchip\xc8\v2.50\pic\sources\c99\common\sprcadd.c"
  5244 ;; Parameters:    Size  Location     Type
  5245 ;;  b               4   39[COMRAM] int 
  5246 ;;  a               4   43[COMRAM] int 
  5247 ;; Auto vars:     Size  Location     Type
  5248 ;;  grs             1   54[COMRAM] unsigned char 
  5249 ;;  bexp            1   53[COMRAM] unsigned char 
  5250 ;;  aexp            1   52[COMRAM] unsigned char 
  5251 ;;  signs           1   51[COMRAM] unsigned char 
  5252 ;; Return value:  Size  Location     Type
  5253 ;;                  4   39[COMRAM] unsigned char 
  5254 ;; Registers used:
  5255 ;;		wreg, status,2, status,0
  5256 ;; Tracked objects:
  5257 ;;		On entry : 0/0
  5258 ;;		On exit  : 0/0
  5259 ;;		Unchanged: 0/0
  5260 ;; Data sizes:     COMRAM   BANK0   BANK1   BANK2   BANK3   BANK4   BANK5
  5261 ;;      Params:         8       0       0       0       0       0       0
  5262 ;;      Locals:         4       0       0       0       0       0       0
  5263 ;;      Temps:          4       0       0       0       0       0       0
  5264 ;;      Totals:        16       0       0       0       0       0       0
  5265 ;;Total ram usage:       16 bytes
  5266 ;; Hardware stack levels used: 1
  5267 ;; This function calls:
  5268 ;;		Nothing
  5269 ;; This function is called by:
  5270 ;;		_calculate_angle
  5271 ;;		___flsub
  5272 ;;		_atan2f
  5273 ;;		_atanf
  5274 ;; This function uses a non-reentrant model
  5275 ;;
  5276                           
  5277                           	psect	text16
  5278   006B0A                     __ptext16:
  5279                           	callstack 0
  5280   006B0A                     ___fladd:
  5281                           	callstack 23
  5282   006B0A  502B               	movf	(___fladd@b+3)^0,w,c
  5283   006B0C  0B80               	andlw	128
  5284   006B0E  6E34               	movwf	___fladd@signs^0,c
  5285   006B10  502B               	movf	(___fladd@b+3)^0,w,c
  5286   006B12  242B               	addwf	(___fladd@b+3)^0,w,c
  5287   006B14  6E36               	movwf	___fladd@bexp^0,c
  5288   006B16  AE2A               	btfss	(___fladd@b+2)^0,7,c
  5289   006B18  EF90  F035         	goto	u1811
  5290   006B1C  EF92  F035         	goto	u1810
  5291   006B20                     u1811:
  5292   006B20  EF93  F035         	goto	l2272
  5293   006B24                     u1810:
  5294   006B24  8036               	bsf	___fladd@bexp^0,0,c
  5295   006B26                     l2272:
  5296   006B26  5036               	movf	___fladd@bexp^0,w,c
  5297   006B28  B4D8               	btfsc	status,2,c
  5298   006B2A  EF99  F035         	goto	u1821
  5299   006B2E  EF9B  F035         	goto	u1820
  5300   006B32                     u1821:
  5301   006B32  EFAF  F035         	goto	l2282
  5302   006B36                     u1820:
  5303   006B36  2836               	incf	___fladd@bexp^0,w,c
  5304   006B38  A4D8               	btfss	status,2,c
  5305   006B3A  EFA1  F035         	goto	u1831
  5306   006B3E  EFA3  F035         	goto	u1830
  5307   006B42                     u1831:
  5308   006B42  EFAB  F035         	goto	l2278
  5309   006B46                     u1830:
  5310   006B46  0E00               	movlw	0
  5311   006B48  6E28               	movwf	___fladd@b^0,c
  5312   006B4A  0E00               	movlw	0
  5313   006B4C  6E29               	movwf	(___fladd@b+1)^0,c
  5314   006B4E  0E00               	movlw	0
  5315   006B50  6E2A               	movwf	(___fladd@b+2)^0,c
  5316   006B52  0E00               	movlw	0
  5317   006B54  6E2B               	movwf	(___fladd@b+3)^0,c
  5318   006B56                     l2278:
  5319   006B56  8E2A               	bsf	(___fladd@b+2)^0,7,c
  5320   006B58  6A2B               	clrf	(___fladd@b+3)^0,c
  5321   006B5A  EFB7  F035         	goto	l2284
  5322   006B5E                     l2282:
  5323   006B5E  0E00               	movlw	0
  5324   006B60  6E28               	movwf	___fladd@b^0,c
  5325   006B62  0E00               	movlw	0
  5326   006B64  6E29               	movwf	(___fladd@b+1)^0,c
  5327   006B66  0E00               	movlw	0
  5328   006B68  6E2A               	movwf	(___fladd@b+2)^0,c
  5329   006B6A  0E00               	movlw	0
  5330   006B6C  6E2B               	movwf	(___fladd@b+3)^0,c
  5331   006B6E                     l2284:
  5332   006B6E  502F               	movf	(___fladd@a+3)^0,w,c
  5333   006B70  0B80               	andlw	128
  5334   006B72  6E35               	movwf	___fladd@aexp^0,c
  5335   006B74  5034               	movf	___fladd@signs^0,w,c
  5336   006B76  1835               	xorwf	___fladd@aexp^0,w,c
  5337   006B78  B4D8               	btfsc	status,2,c
  5338   006B7A  EFC1  F035         	goto	u1841
  5339   006B7E  EFC3  F035         	goto	u1840
  5340   006B82                     u1841:
  5341   006B82  EFC4  F035         	goto	l2290
  5342   006B86                     u1840:
  5343   006B86  8C34               	bsf	___fladd@signs^0,6,c
  5344   006B88                     l2290:
  5345   006B88  502F               	movf	(___fladd@a+3)^0,w,c
  5346   006B8A  242F               	addwf	(___fladd@a+3)^0,w,c
  5347   006B8C  6E35               	movwf	___fladd@aexp^0,c
  5348   006B8E  AE2E               	btfss	(___fladd@a+2)^0,7,c
  5349   006B90  EFCC  F035         	goto	u1851
  5350   006B94  EFCE  F035         	goto	u1850
  5351   006B98                     u1851:
  5352   006B98  EFCF  F035         	goto	l2296
  5353   006B9C                     u1850:
  5354   006B9C  8035               	bsf	___fladd@aexp^0,0,c
  5355   006B9E                     l2296:
  5356   006B9E  5035               	movf	___fladd@aexp^0,w,c
  5357   006BA0  B4D8               	btfsc	status,2,c
  5358   006BA2  EFD5  F035         	goto	u1861
  5359   006BA6  EFD7  F035         	goto	u1860
  5360   006BAA                     u1861:
  5361   006BAA  EFEB  F035         	goto	l2306
  5362   006BAE                     u1860:
  5363   006BAE  2835               	incf	___fladd@aexp^0,w,c
  5364   006BB0  A4D8               	btfss	status,2,c
  5365   006BB2  EFDD  F035         	goto	u1871
  5366   006BB6  EFDF  F035         	goto	u1870
  5367   006BBA                     u1871:
  5368   006BBA  EFE7  F035         	goto	l2302
  5369   006BBE                     u1870:
  5370   006BBE  0E00               	movlw	0
  5371   006BC0  6E2C               	movwf	___fladd@a^0,c
  5372   006BC2  0E00               	movlw	0
  5373   006BC4  6E2D               	movwf	(___fladd@a+1)^0,c
  5374   006BC6  0E00               	movlw	0
  5375   006BC8  6E2E               	movwf	(___fladd@a+2)^0,c
  5376   006BCA  0E00               	movlw	0
  5377   006BCC  6E2F               	movwf	(___fladd@a+3)^0,c
  5378   006BCE                     l2302:
  5379   006BCE  8E2E               	bsf	(___fladd@a+2)^0,7,c
  5380   006BD0  6A2F               	clrf	(___fladd@a+3)^0,c
  5381   006BD2  EFF3  F035         	goto	l2308
  5382   006BD6                     l2306:
  5383   006BD6  0E00               	movlw	0
  5384   006BD8  6E2C               	movwf	___fladd@a^0,c
  5385   006BDA  0E00               	movlw	0
  5386   006BDC  6E2D               	movwf	(___fladd@a+1)^0,c
  5387   006BDE  0E00               	movlw	0
  5388   006BE0  6E2E               	movwf	(___fladd@a+2)^0,c
  5389   006BE2  0E00               	movlw	0
  5390   006BE4  6E2F               	movwf	(___fladd@a+3)^0,c
  5391   006BE6                     l2308:
  5392   006BE6  5036               	movf	___fladd@bexp^0,w,c
  5393   006BE8  5C35               	subwf	___fladd@aexp^0,w,c
  5394   006BEA  B0D8               	btfsc	status,0,c
  5395   006BEC  EFFA  F035         	goto	u1881
  5396   006BF0  EFFC  F035         	goto	u1880
  5397   006BF4                     u1881:
  5398   006BF4  EF23  F036         	goto	l2344
  5399   006BF8                     u1880:
  5400   006BF8  AC34               	btfss	___fladd@signs^0,6,c
  5401   006BFA  EF01  F036         	goto	u1891
  5402   006BFE  EF03  F036         	goto	u1890
  5403   006C02                     u1891:
  5404   006C02  EF05  F036         	goto	l2314
  5405   006C06                     u1890:
  5406   006C06  0E80               	movlw	128
  5407   006C08  1A34               	xorwf	___fladd@signs^0,f,c
  5408   006C0A                     l2314:
  5409   006C0A  C036  F037         	movff	___fladd@bexp,___fladd@grs
  5410   006C0E  C035  F036         	movff	___fladd@aexp,___fladd@bexp
  5411   006C12  C037  F035         	movff	___fladd@grs,___fladd@aexp
  5412   006C16  C028  F037         	movff	___fladd@b,___fladd@grs
  5413   006C1A  C02C  F028         	movff	___fladd@a,___fladd@b
  5414   006C1E  C037  F02C         	movff	___fladd@grs,___fladd@a
  5415   006C22  C029  F037         	movff	___fladd@b+1,___fladd@grs
  5416   006C26  C02D  F029         	movff	___fladd@a+1,___fladd@b+1
  5417   006C2A  C037  F02D         	movff	___fladd@grs,___fladd@a+1
  5418   006C2E  C02A  F037         	movff	___fladd@b+2,___fladd@grs
  5419   006C32  C02E  F02A         	movff	___fladd@a+2,___fladd@b+2
  5420   006C36  C037  F02E         	movff	___fladd@grs,___fladd@a+2
  5421   006C3A  C02B  F037         	movff	___fladd@b+3,___fladd@grs
  5422   006C3E  C02F  F02B         	movff	___fladd@a+3,___fladd@b+3
  5423   006C42  C037  F02F         	movff	___fladd@grs,___fladd@a+3
  5424   006C46                     l2344:
  5425   006C46  6A37               	clrf	___fladd@grs^0,c
  5426   006C48  5036               	movf	___fladd@bexp^0,w,c
  5427   006C4A  C035  F030         	movff	___fladd@aexp,??___fladd
  5428   006C4E  6A31               	clrf	(??___fladd+1)^0,c
  5429   006C50  5E30               	subwf	??___fladd^0,f,c
  5430   006C52  0E00               	movlw	0
  5431   006C54  5A31               	subwfb	(??___fladd+1)^0,f,c
  5432   006C56  BE31               	btfsc	(??___fladd+1)^0,7,c
  5433   006C58  EF37  F036         	goto	u1901
  5434   006C5C  5031               	movf	(??___fladd+1)^0,w,c
  5435   006C5E  E109               	bnz	u1900
  5436   006C60  0E1A               	movlw	26
  5437   006C62  5C30               	subwf	??___fladd^0,w,c
  5438   006C64  A0D8               	btfss	status,0,c
  5439   006C66  EF37  F036         	goto	u1901
  5440   006C6A  EF39  F036         	goto	u1900
  5441   006C6E                     u1901:
  5442   006C6E  EF70  F036         	goto	l829
  5443   006C72                     u1900:
  5444   006C72  5028               	movf	___fladd@b^0,w,c
  5445   006C74  1029               	iorwf	(___fladd@b+1)^0,w,c
  5446   006C76  102A               	iorwf	(___fladd@b+2)^0,w,c
  5447   006C78  102B               	iorwf	(___fladd@b+3)^0,w,c
  5448   006C7A  A4D8               	btfss	status,2,c
  5449   006C7C  EF42  F036         	goto	u1911
  5450   006C80  EF45  F036         	goto	u1910
  5451   006C84                     u1911:
  5452   006C84  0E01               	movlw	1
  5453   006C86  EF46  F036         	goto	u1920
  5454   006C8A                     u1910:
  5455   006C8A  0E00               	movlw	0
  5456   006C8C                     u1920:
  5457   006C8C  6E37               	movwf	___fladd@grs^0,c
  5458   006C8E  0E00               	movlw	0
  5459   006C90  6E28               	movwf	___fladd@b^0,c
  5460   006C92  0E00               	movlw	0
  5461   006C94  6E29               	movwf	(___fladd@b+1)^0,c
  5462   006C96  0E00               	movlw	0
  5463   006C98  6E2A               	movwf	(___fladd@b+2)^0,c
  5464   006C9A  0E00               	movlw	0
  5465   006C9C  6E2B               	movwf	(___fladd@b+3)^0,c
  5466   006C9E  C035  F036         	movff	___fladd@aexp,___fladd@bexp
  5467   006CA2  EF79  F036         	goto	l828
  5468   006CA6                     l830:
  5469   006CA6  A037               	btfss	___fladd@grs^0,0,c
  5470   006CA8  EF58  F036         	goto	u1931
  5471   006CAC  EF5A  F036         	goto	u1930
  5472   006CB0                     u1931:
  5473   006CB0  EF60  F036         	goto	l2354
  5474   006CB4                     u1930:
  5475   006CB4  90D8               	bcf	status,0,c
  5476   006CB6  3037               	rrcf	___fladd@grs^0,w,c
  5477   006CB8  0901               	iorlw	1
  5478   006CBA  6E37               	movwf	___fladd@grs^0,c
  5479   006CBC  EF62  F036         	goto	l2356
  5480   006CC0                     l2354:
  5481   006CC0  90D8               	bcf	status,0,c
  5482   006CC2  3237               	rrcf	___fladd@grs^0,f,c
  5483   006CC4                     l2356:
  5484   006CC4  A028               	btfss	___fladd@b^0,0,c
  5485   006CC6  EF67  F036         	goto	u1941
  5486   006CCA  EF69  F036         	goto	u1940
  5487   006CCE                     u1941:
  5488   006CCE  EF6A  F036         	goto	l2360
  5489   006CD2                     u1940:
  5490   006CD2  8E37               	bsf	___fladd@grs^0,7,c
  5491   006CD4                     l2360:
  5492   006CD4  342B               	rlcf	(___fladd@b+3)^0,w,c
  5493   006CD6  322B               	rrcf	(___fladd@b+3)^0,f,c
  5494   006CD8  322A               	rrcf	(___fladd@b+2)^0,f,c
  5495   006CDA  3229               	rrcf	(___fladd@b+1)^0,f,c
  5496   006CDC  3228               	rrcf	___fladd@b^0,f,c
  5497   006CDE  2A36               	incf	___fladd@bexp^0,f,c
  5498   006CE0                     l829:
  5499   006CE0  5035               	movf	___fladd@aexp^0,w,c
  5500   006CE2  5C36               	subwf	___fladd@bexp^0,w,c
  5501   006CE4  A0D8               	btfss	status,0,c
  5502   006CE6  EF77  F036         	goto	u1951
  5503   006CEA  EF79  F036         	goto	u1950
  5504   006CEE                     u1951:
  5505   006CEE  EF53  F036         	goto	l830
  5506   006CF2                     u1950:
  5507   006CF2                     l828:
  5508   006CF2  BC34               	btfsc	___fladd@signs^0,6,c
  5509   006CF4  EF7E  F036         	goto	u1961
  5510   006CF8  EF80  F036         	goto	u1960
  5511   006CFC                     u1961:
  5512   006CFC  EFC0  F036         	goto	l2388
  5513   006D00                     u1960:
  5514   006D00  5036               	movf	___fladd@bexp^0,w,c
  5515   006D02  A4D8               	btfss	status,2,c
  5516   006D04  EF86  F036         	goto	u1971
  5517   006D08  EF88  F036         	goto	u1970
  5518   006D0C                     u1971:
  5519   006D0C  EF92  F036         	goto	l2370
  5520   006D10                     u1970:
  5521   006D10  0E00               	movlw	0
  5522   006D12  6E28               	movwf	?___fladd^0,c
  5523   006D14  0E00               	movlw	0
  5524   006D16  6E29               	movwf	(?___fladd+1)^0,c
  5525   006D18  0E00               	movlw	0
  5526   006D1A  6E2A               	movwf	(?___fladd+2)^0,c
  5527   006D1C  0E00               	movlw	0
  5528   006D1E  6E2B               	movwf	(?___fladd+3)^0,c
  5529   006D20  EFDF  F037         	goto	l837
  5530   006D24                     l2370:
  5531   006D24  502C               	movf	___fladd@a^0,w,c
  5532   006D26  2628               	addwf	___fladd@b^0,f,c
  5533   006D28  502D               	movf	(___fladd@a+1)^0,w,c
  5534   006D2A  2229               	addwfc	(___fladd@b+1)^0,f,c
  5535   006D2C  502E               	movf	(___fladd@a+2)^0,w,c
  5536   006D2E  222A               	addwfc	(___fladd@b+2)^0,f,c
  5537   006D30  502F               	movf	(___fladd@a+3)^0,w,c
  5538   006D32  222B               	addwfc	(___fladd@b+3)^0,f,c
  5539   006D34  A02B               	btfss	(___fladd@b+3)^0,0,c
  5540   006D36  EF9F  F036         	goto	u1981
  5541   006D3A  EFA1  F036         	goto	u1980
  5542   006D3E                     u1981:
  5543   006D3E  EF4D  F037         	goto	l842
  5544   006D42                     u1980:
  5545   006D42  A037               	btfss	___fladd@grs^0,0,c
  5546   006D44  EFA6  F036         	goto	u1991
  5547   006D48  EFA8  F036         	goto	u1990
  5548   006D4C                     u1991:
  5549   006D4C  EFAE  F036         	goto	l2378
  5550   006D50                     u1990:
  5551   006D50  90D8               	bcf	status,0,c
  5552   006D52  3037               	rrcf	___fladd@grs^0,w,c
  5553   006D54  0901               	iorlw	1
  5554   006D56  6E37               	movwf	___fladd@grs^0,c
  5555   006D58  EFB0  F036         	goto	l2380
  5556   006D5C                     l2378:
  5557   006D5C  90D8               	bcf	status,0,c
  5558   006D5E  3237               	rrcf	___fladd@grs^0,f,c
  5559   006D60                     l2380:
  5560   006D60  A028               	btfss	___fladd@b^0,0,c
  5561   006D62  EFB5  F036         	goto	u2001
  5562   006D66  EFB7  F036         	goto	u2000
  5563   006D6A                     u2001:
  5564   006D6A  EFB8  F036         	goto	l2384
  5565   006D6E                     u2000:
  5566   006D6E  8E37               	bsf	___fladd@grs^0,7,c
  5567   006D70                     l2384:
  5568   006D70  342B               	rlcf	(___fladd@b+3)^0,w,c
  5569   006D72  322B               	rrcf	(___fladd@b+3)^0,f,c
  5570   006D74  322A               	rrcf	(___fladd@b+2)^0,f,c
  5571   006D76  3229               	rrcf	(___fladd@b+1)^0,f,c
  5572   006D78  3228               	rrcf	___fladd@b^0,f,c
  5573   006D7A  2A36               	incf	___fladd@bexp^0,f,c
  5574   006D7C  EF4D  F037         	goto	l842
  5575   006D80                     l2388:
  5576   006D80  502C               	movf	___fladd@a^0,w,c
  5577   006D82  5C28               	subwf	___fladd@b^0,w,c
  5578   006D84  502D               	movf	(___fladd@a+1)^0,w,c
  5579   006D86  5829               	subwfb	(___fladd@b+1)^0,w,c
  5580   006D88  502E               	movf	(___fladd@a+2)^0,w,c
  5581   006D8A  582A               	subwfb	(___fladd@b+2)^0,w,c
  5582   006D8C  502B               	movf	(___fladd@b+3)^0,w,c
  5583   006D8E  0A80               	xorlw	128
  5584   006D90  6E30               	movwf	??___fladd^0,c
  5585   006D92  502F               	movf	(___fladd@a+3)^0,w,c
  5586   006D94  0A80               	xorlw	128
  5587   006D96  5830               	subwfb	??___fladd^0,w,c
  5588   006D98  B0D8               	btfsc	status,0,c
  5589   006D9A  EFD1  F036         	goto	u2011
  5590   006D9E  EFD3  F036         	goto	u2010
  5591   006DA2                     u2011:
  5592   006DA2  EFFE  F036         	goto	l2398
  5593   006DA6                     u2010:
  5594   006DA6  5028               	movf	___fladd@b^0,w,c
  5595   006DA8  5C2C               	subwf	___fladd@a^0,w,c
  5596   006DAA  6E30               	movwf	??___fladd^0,c
  5597   006DAC  5029               	movf	(___fladd@b+1)^0,w,c
  5598   006DAE  582D               	subwfb	(___fladd@a+1)^0,w,c
  5599   006DB0  6E31               	movwf	(??___fladd+1)^0,c
  5600   006DB2  502A               	movf	(___fladd@b+2)^0,w,c
  5601   006DB4  582E               	subwfb	(___fladd@a+2)^0,w,c
  5602   006DB6  6E32               	movwf	(??___fladd+2)^0,c
  5603   006DB8  502B               	movf	(___fladd@b+3)^0,w,c
  5604   006DBA  582F               	subwfb	(___fladd@a+3)^0,w,c
  5605   006DBC  6E33               	movwf	(??___fladd+3)^0,c
  5606   006DBE  0EFF               	movlw	255
  5607   006DC0  2430               	addwf	??___fladd^0,w,c
  5608   006DC2  6E28               	movwf	___fladd@b^0,c
  5609   006DC4  0EFF               	movlw	255
  5610   006DC6  2031               	addwfc	(??___fladd+1)^0,w,c
  5611   006DC8  6E29               	movwf	(___fladd@b+1)^0,c
  5612   006DCA  0EFF               	movlw	255
  5613   006DCC  2032               	addwfc	(??___fladd+2)^0,w,c
  5614   006DCE  6E2A               	movwf	(___fladd@b+2)^0,c
  5615   006DD0  0EFF               	movlw	255
  5616   006DD2  2033               	addwfc	(??___fladd+3)^0,w,c
  5617   006DD4  6E2B               	movwf	(___fladd@b+3)^0,c
  5618   006DD6  0E80               	movlw	128
  5619   006DD8  1A34               	xorwf	___fladd@signs^0,f,c
  5620   006DDA  6C37               	negf	___fladd@grs^0,c
  5621   006DDC  5037               	movf	___fladd@grs^0,w,c
  5622   006DDE  A4D8               	btfss	status,2,c
  5623   006DE0  EFF4  F036         	goto	u2021
  5624   006DE4  EFF6  F036         	goto	u2020
  5625   006DE8                     u2021:
  5626   006DE8  EF06  F037         	goto	l845
  5627   006DEC                     u2020:
  5628   006DEC  0E01               	movlw	1
  5629   006DEE  2628               	addwf	___fladd@b^0,f,c
  5630   006DF0  0E00               	movlw	0
  5631   006DF2  2229               	addwfc	(___fladd@b+1)^0,f,c
  5632   006DF4  222A               	addwfc	(___fladd@b+2)^0,f,c
  5633   006DF6  222B               	addwfc	(___fladd@b+3)^0,f,c
  5634   006DF8  EF06  F037         	goto	l845
  5635   006DFC                     l2398:
  5636   006DFC  502C               	movf	___fladd@a^0,w,c
  5637   006DFE  5E28               	subwf	___fladd@b^0,f,c
  5638   006E00  502D               	movf	(___fladd@a+1)^0,w,c
  5639   006E02  5A29               	subwfb	(___fladd@b+1)^0,f,c
  5640   006E04  502E               	movf	(___fladd@a+2)^0,w,c
  5641   006E06  5A2A               	subwfb	(___fladd@b+2)^0,f,c
  5642   006E08  502F               	movf	(___fladd@a+3)^0,w,c
  5643   006E0A  5A2B               	subwfb	(___fladd@b+3)^0,f,c
  5644   006E0C                     l845:
  5645   006E0C  5028               	movf	___fladd@b^0,w,c
  5646   006E0E  1029               	iorwf	(___fladd@b+1)^0,w,c
  5647   006E10  102A               	iorwf	(___fladd@b+2)^0,w,c
  5648   006E12  102B               	iorwf	(___fladd@b+3)^0,w,c
  5649   006E14  A4D8               	btfss	status,2,c
  5650   006E16  EF0F  F037         	goto	u2031
  5651   006E1A  EF11  F037         	goto	u2030
  5652   006E1E                     u2031:
  5653   006E1E  EF46  F037         	goto	l2422
  5654   006E22                     u2030:
  5655   006E22  5037               	movf	___fladd@grs^0,w,c
  5656   006E24  A4D8               	btfss	status,2,c
  5657   006E26  EF17  F037         	goto	u2041
  5658   006E2A  EF19  F037         	goto	u2040
  5659   006E2E                     u2041:
  5660   006E2E  EF46  F037         	goto	l2422
  5661   006E32                     u2040:
  5662   006E32  0E00               	movlw	0
  5663   006E34  6E28               	movwf	?___fladd^0,c
  5664   006E36  0E00               	movlw	0
  5665   006E38  6E29               	movwf	(?___fladd+1)^0,c
  5666   006E3A  0E00               	movlw	0
  5667   006E3C  6E2A               	movwf	(?___fladd+2)^0,c
  5668   006E3E  0E00               	movlw	0
  5669   006E40  6E2B               	movwf	(?___fladd+3)^0,c
  5670   006E42  EFDF  F037         	goto	l837
  5671   006E46                     l2406:
  5672   006E46  90D8               	bcf	status,0,c
  5673   006E48  3628               	rlcf	___fladd@b^0,f,c
  5674   006E4A  3629               	rlcf	(___fladd@b+1)^0,f,c
  5675   006E4C  362A               	rlcf	(___fladd@b+2)^0,f,c
  5676   006E4E  362B               	rlcf	(___fladd@b+3)^0,f,c
  5677   006E50  AE37               	btfss	___fladd@grs^0,7,c
  5678   006E52  EF2D  F037         	goto	u2051
  5679   006E56  EF2F  F037         	goto	u2050
  5680   006E5A                     u2051:
  5681   006E5A  EF30  F037         	goto	l2412
  5682   006E5E                     u2050:
  5683   006E5E  8028               	bsf	___fladd@b^0,0,c
  5684   006E60                     l2412:
  5685   006E60  A037               	btfss	___fladd@grs^0,0,c
  5686   006E62  EF35  F037         	goto	u2061
  5687   006E66  EF37  F037         	goto	u2060
  5688   006E6A                     u2061:
  5689   006E6A  EF3B  F037         	goto	l2416
  5690   006E6E                     u2060:
  5691   006E6E  80D8               	bsf	status,0,c
  5692   006E70  3637               	rlcf	___fladd@grs^0,f,c
  5693   006E72  EF3D  F037         	goto	l2418
  5694   006E76                     l2416:
  5695   006E76  90D8               	bcf	status,0,c
  5696   006E78  3637               	rlcf	___fladd@grs^0,f,c
  5697   006E7A                     l2418:
  5698   006E7A  5036               	movf	___fladd@bexp^0,w,c
  5699   006E7C  B4D8               	btfsc	status,2,c
  5700   006E7E  EF43  F037         	goto	u2071
  5701   006E82  EF45  F037         	goto	u2070
  5702   006E86                     u2071:
  5703   006E86  EF46  F037         	goto	l2422
  5704   006E8A                     u2070:
  5705   006E8A  0636               	decf	___fladd@bexp^0,f,c
  5706   006E8C                     l2422:
  5707   006E8C  AE2A               	btfss	(___fladd@b+2)^0,7,c
  5708   006E8E  EF4B  F037         	goto	u2081
  5709   006E92  EF4D  F037         	goto	u2080
  5710   006E96                     u2081:
  5711   006E96  EF23  F037         	goto	l2406
  5712   006E9A                     u2080:
  5713   006E9A                     l842:
  5714   006E9A  6A35               	clrf	___fladd@aexp^0,c
  5715   006E9C  AE37               	btfss	___fladd@grs^0,7,c
  5716   006E9E  EF53  F037         	goto	u2091
  5717   006EA2  EF55  F037         	goto	u2090
  5718   006EA6                     u2091:
  5719   006EA6  EF6D  F037         	goto	l854
  5720   006EAA                     u2090:
  5721   006EAA  C037  F030         	movff	___fladd@grs,??___fladd
  5722   006EAE  0E7F               	movlw	127
  5723   006EB0  1630               	andwf	??___fladd^0,f,c
  5724   006EB2  B4D8               	btfsc	status,2,c
  5725   006EB4  EF5E  F037         	goto	u2101
  5726   006EB8  EF60  F037         	goto	u2100
  5727   006EBC                     u2101:
  5728   006EBC  EF64  F037         	goto	l855
  5729   006EC0                     u2100:
  5730   006EC0                     l2426:
  5731   006EC0  0E01               	movlw	1
  5732   006EC2  6E35               	movwf	___fladd@aexp^0,c
  5733   006EC4  EF6D  F037         	goto	l854
  5734   006EC8                     l855:
  5735   006EC8  A028               	btfss	___fladd@b^0,0,c
  5736   006ECA  EF69  F037         	goto	u2111
  5737   006ECE  EF6B  F037         	goto	u2110
  5738   006ED2                     u2111:
  5739   006ED2  EF6D  F037         	goto	l854
  5740   006ED6                     u2110:
  5741   006ED6  EF60  F037         	goto	l2426
  5742   006EDA                     l854:
  5743   006EDA  5035               	movf	___fladd@aexp^0,w,c
  5744   006EDC  B4D8               	btfsc	status,2,c
  5745   006EDE  EF73  F037         	goto	u2121
  5746   006EE2  EF75  F037         	goto	u2120
  5747   006EE6                     u2121:
  5748   006EE6  EFA0  F037         	goto	l2438
  5749   006EEA                     u2120:
  5750   006EEA  0E01               	movlw	1
  5751   006EEC  2628               	addwf	___fladd@b^0,f,c
  5752   006EEE  0E00               	movlw	0
  5753   006EF0  2229               	addwfc	(___fladd@b+1)^0,f,c
  5754   006EF2  222A               	addwfc	(___fladd@b+2)^0,f,c
  5755   006EF4  222B               	addwfc	(___fladd@b+3)^0,f,c
  5756   006EF6  A02B               	btfss	(___fladd@b+3)^0,0,c
  5757   006EF8  EF80  F037         	goto	u2131
  5758   006EFC  EF82  F037         	goto	u2130
  5759   006F00                     u2131:
  5760   006F00  EFA0  F037         	goto	l2438
  5761   006F04                     u2130:
  5762   006F04  C028  F030         	movff	___fladd@b,??___fladd
  5763   006F08  C029  F031         	movff	___fladd@b+1,??___fladd+1
  5764   006F0C  C02A  F032         	movff	___fladd@b+2,??___fladd+2
  5765   006F10  C02B  F033         	movff	___fladd@b+3,??___fladd+3
  5766   006F14  3433               	rlcf	(??___fladd+3)^0,w,c
  5767   006F16  3233               	rrcf	(??___fladd+3)^0,f,c
  5768   006F18  3232               	rrcf	(??___fladd+2)^0,f,c
  5769   006F1A  3231               	rrcf	(??___fladd+1)^0,f,c
  5770   006F1C  3230               	rrcf	??___fladd^0,f,c
  5771   006F1E  C030  F028         	movff	??___fladd,___fladd@b
  5772   006F22  C031  F029         	movff	??___fladd+1,___fladd@b+1
  5773   006F26  C032  F02A         	movff	??___fladd+2,___fladd@b+2
  5774   006F2A  C033  F02B         	movff	??___fladd+3,___fladd@b+3
  5775   006F2E  2836               	incf	___fladd@bexp^0,w,c
  5776   006F30  B4D8               	btfsc	status,2,c
  5777   006F32  EF9D  F037         	goto	u2141
  5778   006F36  EF9F  F037         	goto	u2140
  5779   006F3A                     u2141:
  5780   006F3A  EFA0  F037         	goto	l2438
  5781   006F3E                     u2140:
  5782   006F3E  2A36               	incf	___fladd@bexp^0,f,c
  5783   006F40                     l2438:
  5784   006F40  2836               	incf	___fladd@bexp^0,w,c
  5785   006F42  B4D8               	btfsc	status,2,c
  5786   006F44  EFA6  F037         	goto	u2151
  5787   006F48  EFA8  F037         	goto	u2150
  5788   006F4C                     u2151:
  5789   006F4C  EFB0  F037         	goto	l2442
  5790   006F50                     u2150:
  5791   006F50  5036               	movf	___fladd@bexp^0,w,c
  5792   006F52  A4D8               	btfss	status,2,c
  5793   006F54  EFAE  F037         	goto	u2161
  5794   006F58  EFB0  F037         	goto	u2160
  5795   006F5C                     u2161:
  5796   006F5C  EFC1  F037         	goto	l861
  5797   006F60                     u2160:
  5798   006F60                     l2442:
  5799   006F60  0E00               	movlw	0
  5800   006F62  6E28               	movwf	___fladd@b^0,c
  5801   006F64  0E00               	movlw	0
  5802   006F66  6E29               	movwf	(___fladd@b+1)^0,c
  5803   006F68  0E00               	movlw	0
  5804   006F6A  6E2A               	movwf	(___fladd@b+2)^0,c
  5805   006F6C  0E00               	movlw	0
  5806   006F6E  6E2B               	movwf	(___fladd@b+3)^0,c
  5807   006F70  5036               	movf	___fladd@bexp^0,w,c
  5808   006F72  A4D8               	btfss	status,2,c
  5809   006F74  EFBE  F037         	goto	u2171
  5810   006F78  EFC0  F037         	goto	u2170
  5811   006F7C                     u2171:
  5812   006F7C  EFC1  F037         	goto	l861
  5813   006F80                     u2170:
  5814   006F80  6A34               	clrf	___fladd@signs^0,c
  5815   006F82                     l861:
  5816   006F82  A036               	btfss	___fladd@bexp^0,0,c
  5817   006F84  EFC6  F037         	goto	u2181
  5818   006F88  EFC8  F037         	goto	u2180
  5819   006F8C                     u2181:
  5820   006F8C  EFCB  F037         	goto	l2448
  5821   006F90                     u2180:
  5822   006F90  8E2A               	bsf	(___fladd@b+2)^0,7,c
  5823   006F92  EFCC  F037         	goto	l2450
  5824   006F96                     l2448:
  5825   006F96  9E2A               	bcf	(___fladd@b+2)^0,7,c
  5826   006F98                     l2450:
  5827   006F98  90D8               	bcf	status,0,c
  5828   006F9A  3036               	rrcf	___fladd@bexp^0,w,c
  5829   006F9C  6E2B               	movwf	(___fladd@b+3)^0,c
  5830   006F9E  AE34               	btfss	___fladd@signs^0,7,c
  5831   006FA0  EFD4  F037         	goto	u2191
  5832   006FA4  EFD6  F037         	goto	u2190
  5833   006FA8                     u2191:
  5834   006FA8  EFD7  F037         	goto	l2456
  5835   006FAC                     u2190:
  5836   006FAC  8E2B               	bsf	(___fladd@b+3)^0,7,c
  5837   006FAE                     l2456:
  5838   006FAE  C028  F028         	movff	___fladd@b,?___fladd
  5839   006FB2  C029  F029         	movff	___fladd@b+1,?___fladd+1
  5840   006FB6  C02A  F02A         	movff	___fladd@b+2,?___fladd+2
  5841   006FBA  C02B  F02B         	movff	___fladd@b+3,?___fladd+3
  5842   006FBE                     l837:
  5843   006FBE  0012               	return		;funcret
  5844   006FC0                     __end_of___fladd:
  5845                           	callstack 0
  5846                           
  5847 ;; *************** function ___flneg *****************
  5848 ;; Defined at:
  5849 ;;		line 15 in file "C:\Program Files\Microchip\xc8\v2.50\pic\sources\c99\common\flneg.c"
  5850 ;; Parameters:    Size  Location     Type
  5851 ;;  f1              4    0[COMRAM] unsigned char 
  5852 ;; Auto vars:     Size  Location     Type
  5853 ;;		None
  5854 ;; Return value:  Size  Location     Type
  5855 ;;                  4    0[COMRAM] unsigned char 
  5856 ;; Registers used:
  5857 ;;		wreg, status,2, status,0
  5858 ;; Tracked objects:
  5859 ;;		On entry : 0/0
  5860 ;;		On exit  : 0/0
  5861 ;;		Unchanged: 0/0
  5862 ;; Data sizes:     COMRAM   BANK0   BANK1   BANK2   BANK3   BANK4   BANK5
  5863 ;;      Params:         4       0       0       0       0       0       0
  5864 ;;      Locals:         0       0       0       0       0       0       0
  5865 ;;      Temps:          0       0       0       0       0       0       0
  5866 ;;      Totals:         4       0       0       0       0       0       0
  5867 ;;Total ram usage:        4 bytes
  5868 ;; Hardware stack levels used: 1
  5869 ;; This function calls:
  5870 ;;		Nothing
  5871 ;; This function is called by:
  5872 ;;		_atan2f
  5873 ;;		_atanf
  5874 ;; This function uses a non-reentrant model
  5875 ;;
  5876                           
  5877                           	psect	text17
  5878   005486                     __ptext17:
  5879                           	callstack 0
  5880   005486                     ___flneg:
  5881                           	callstack 24
  5882   005486  5001               	movf	___flneg@f1^0,w,c
  5883   005488  1002               	iorwf	(___flneg@f1+1)^0,w,c
  5884   00548A  1003               	iorwf	(___flneg@f1+2)^0,w,c
  5885   00548C  1004               	iorwf	(___flneg@f1+3)^0,w,c
  5886   00548E  B4D8               	btfsc	status,2,c
  5887   005490  EF4C  F02A         	goto	u2621
  5888   005494  EF4E  F02A         	goto	u2620
  5889   005498                     u2621:
  5890   005498  EF56  F02A         	goto	l2734
  5891   00549C                     u2620:
  5892   00549C  0E00               	movlw	0
  5893   00549E  1A01               	xorwf	___flneg@f1^0,f,c
  5894   0054A0  0E00               	movlw	0
  5895   0054A2  1A02               	xorwf	(___flneg@f1+1)^0,f,c
  5896   0054A4  0E00               	movlw	0
  5897   0054A6  1A03               	xorwf	(___flneg@f1+2)^0,f,c
  5898   0054A8  0E80               	movlw	128
  5899   0054AA  1A04               	xorwf	(___flneg@f1+3)^0,f,c
  5900   0054AC                     l2734:
  5901   0054AC  C001  F001         	movff	___flneg@f1,?___flneg
  5902   0054B0  C002  F002         	movff	___flneg@f1+1,?___flneg+1
  5903   0054B4  C003  F003         	movff	___flneg@f1+2,?___flneg+2
  5904   0054B8  C004  F004         	movff	___flneg@f1+3,?___flneg+3
  5905   0054BC  0012               	return		;funcret
  5906   0054BE                     __end_of___flneg:
  5907                           	callstack 0
  5908                           
  5909 ;; *************** function ___flmul *****************
  5910 ;; Defined at:
  5911 ;;		line 8 in file "C:\Program Files\Microchip\xc8\v2.50\pic\sources\c99\common\sprcmul.c"
  5912 ;; Parameters:    Size  Location     Type
  5913 ;;  b               4   14[COMRAM] unsigned char 
  5914 ;;  a               4   18[COMRAM] unsigned char 
  5915 ;; Auto vars:     Size  Location     Type
  5916 ;;  prod            4   33[COMRAM] struct .
  5917 ;;  grs             4   27[COMRAM] unsigned long 
  5918 ;;  temp            2   37[COMRAM] struct .
  5919 ;;  bexp            1   32[COMRAM] unsigned char 
  5920 ;;  aexp            1   31[COMRAM] unsigned char 
  5921 ;;  sign            1   26[COMRAM] unsigned char 
  5922 ;; Return value:  Size  Location     Type
  5923 ;;                  4   14[COMRAM] unsigned char 
  5924 ;; Registers used:
  5925 ;;		wreg, status,2, status,0, prodl, prodh
  5926 ;; Tracked objects:
  5927 ;;		On entry : 0/0
  5928 ;;		On exit  : 0/0
  5929 ;;		Unchanged: 0/0
  5930 ;; Data sizes:     COMRAM   BANK0   BANK1   BANK2   BANK3   BANK4   BANK5
  5931 ;;      Params:         8       0       0       0       0       0       0
  5932 ;;      Locals:        13       0       0       0       0       0       0
  5933 ;;      Temps:          4       0       0       0       0       0       0
  5934 ;;      Totals:        25       0       0       0       0       0       0
  5935 ;;Total ram usage:       25 bytes
  5936 ;; Hardware stack levels used: 1
  5937 ;; This function calls:
  5938 ;;		Nothing
  5939 ;; This function is called by:
  5940 ;;		_calculate_angle
  5941 ;;		_atanf
  5942 ;; This function uses a non-reentrant model
  5943 ;;
  5944                           
  5945                           	psect	text18
  5946   0066E4                     __ptext18:
  5947                           	callstack 0
  5948   0066E4                     ___flmul:
  5949                           	callstack 24
  5950   0066E4  5012               	movf	(___flmul@b+3)^0,w,c
  5951   0066E6  0B80               	andlw	128
  5952   0066E8  6E1B               	movwf	___flmul@sign^0,c
  5953   0066EA  5012               	movf	(___flmul@b+3)^0,w,c
  5954   0066EC  2412               	addwf	(___flmul@b+3)^0,w,c
  5955   0066EE  6E21               	movwf	___flmul@bexp^0,c
  5956   0066F0  AE11               	btfss	(___flmul@b+2)^0,7,c
  5957   0066F2  EF7D  F033         	goto	u2431
  5958   0066F6  EF7F  F033         	goto	u2430
  5959   0066FA                     u2431:
  5960   0066FA  EF80  F033         	goto	l2602
  5961   0066FE                     u2430:
  5962   0066FE  8021               	bsf	___flmul@bexp^0,0,c
  5963   006700                     l2602:
  5964   006700  5021               	movf	___flmul@bexp^0,w,c
  5965   006702  B4D8               	btfsc	status,2,c
  5966   006704  EF86  F033         	goto	u2441
  5967   006708  EF88  F033         	goto	u2440
  5968   00670C                     u2441:
  5969   00670C  EF9B  F033         	goto	l2610
  5970   006710                     u2440:
  5971   006710  2821               	incf	___flmul@bexp^0,w,c
  5972   006712  A4D8               	btfss	status,2,c
  5973   006714  EF8E  F033         	goto	u2451
  5974   006718  EF90  F033         	goto	u2450
  5975   00671C                     u2451:
  5976   00671C  EF98  F033         	goto	l2608
  5977   006720                     u2450:
  5978   006720  0E00               	movlw	0
  5979   006722  6E0F               	movwf	___flmul@b^0,c
  5980   006724  0E00               	movlw	0
  5981   006726  6E10               	movwf	(___flmul@b+1)^0,c
  5982   006728  0E00               	movlw	0
  5983   00672A  6E11               	movwf	(___flmul@b+2)^0,c
  5984   00672C  0E00               	movlw	0
  5985   00672E  6E12               	movwf	(___flmul@b+3)^0,c
  5986   006730                     l2608:
  5987   006730  8E11               	bsf	(___flmul@b+2)^0,7,c
  5988   006732  EFA3  F033         	goto	l2612
  5989   006736                     l2610:
  5990   006736  0E00               	movlw	0
  5991   006738  6E0F               	movwf	___flmul@b^0,c
  5992   00673A  0E00               	movlw	0
  5993   00673C  6E10               	movwf	(___flmul@b+1)^0,c
  5994   00673E  0E00               	movlw	0
  5995   006740  6E11               	movwf	(___flmul@b+2)^0,c
  5996   006742  0E00               	movlw	0
  5997   006744  6E12               	movwf	(___flmul@b+3)^0,c
  5998   006746                     l2612:
  5999   006746  5016               	movf	(___flmul@a+3)^0,w,c
  6000   006748  0B80               	andlw	128
  6001   00674A  1A1B               	xorwf	___flmul@sign^0,f,c
  6002   00674C  5016               	movf	(___flmul@a+3)^0,w,c
  6003   00674E  2416               	addwf	(___flmul@a+3)^0,w,c
  6004   006750  6E20               	movwf	___flmul@aexp^0,c
  6005   006752  AE15               	btfss	(___flmul@a+2)^0,7,c
  6006   006754  EFAE  F033         	goto	u2461
  6007   006758  EFB0  F033         	goto	u2460
  6008   00675C                     u2461:
  6009   00675C  EFB1  F033         	goto	l2620
  6010   006760                     u2460:
  6011   006760  8020               	bsf	___flmul@aexp^0,0,c
  6012   006762                     l2620:
  6013   006762  5020               	movf	___flmul@aexp^0,w,c
  6014   006764  B4D8               	btfsc	status,2,c
  6015   006766  EFB7  F033         	goto	u2471
  6016   00676A  EFB9  F033         	goto	u2470
  6017   00676E                     u2471:
  6018   00676E  EFCC  F033         	goto	l2628
  6019   006772                     u2470:
  6020   006772  2820               	incf	___flmul@aexp^0,w,c
  6021   006774  A4D8               	btfss	status,2,c
  6022   006776  EFBF  F033         	goto	u2481
  6023   00677A  EFC1  F033         	goto	u2480
  6024   00677E                     u2481:
  6025   00677E  EFC9  F033         	goto	l2626
  6026   006782                     u2480:
  6027   006782  0E00               	movlw	0
  6028   006784  6E13               	movwf	___flmul@a^0,c
  6029   006786  0E00               	movlw	0
  6030   006788  6E14               	movwf	(___flmul@a+1)^0,c
  6031   00678A  0E00               	movlw	0
  6032   00678C  6E15               	movwf	(___flmul@a+2)^0,c
  6033   00678E  0E00               	movlw	0
  6034   006790  6E16               	movwf	(___flmul@a+3)^0,c
  6035   006792                     l2626:
  6036   006792  8E15               	bsf	(___flmul@a+2)^0,7,c
  6037   006794  EFD4  F033         	goto	l914
  6038   006798                     l2628:
  6039   006798  0E00               	movlw	0
  6040   00679A  6E13               	movwf	___flmul@a^0,c
  6041   00679C  0E00               	movlw	0
  6042   00679E  6E14               	movwf	(___flmul@a+1)^0,c
  6043   0067A0  0E00               	movlw	0
  6044   0067A2  6E15               	movwf	(___flmul@a+2)^0,c
  6045   0067A4  0E00               	movlw	0
  6046   0067A6  6E16               	movwf	(___flmul@a+3)^0,c
  6047   0067A8                     l914:
  6048   0067A8  5020               	movf	___flmul@aexp^0,w,c
  6049   0067AA  B4D8               	btfsc	status,2,c
  6050   0067AC  EFDA  F033         	goto	u2491
  6051   0067B0  EFDC  F033         	goto	u2490
  6052   0067B4                     u2491:
  6053   0067B4  EFE4  F033         	goto	l2632
  6054   0067B8                     u2490:
  6055   0067B8  5021               	movf	___flmul@bexp^0,w,c
  6056   0067BA  A4D8               	btfss	status,2,c
  6057   0067BC  EFE2  F033         	goto	u2501
  6058   0067C0  EFE4  F033         	goto	u2500
  6059   0067C4                     u2501:
  6060   0067C4  EFEE  F033         	goto	l2636
  6061   0067C8                     u2500:
  6062   0067C8                     l2632:
  6063   0067C8  0E00               	movlw	0
  6064   0067CA  6E0F               	movwf	?___flmul^0,c
  6065   0067CC  0E00               	movlw	0
  6066   0067CE  6E10               	movwf	(?___flmul+1)^0,c
  6067   0067D0  0E00               	movlw	0
  6068   0067D2  6E11               	movwf	(?___flmul+2)^0,c
  6069   0067D4  0E00               	movlw	0
  6070   0067D6  6E12               	movwf	(?___flmul+3)^0,c
  6071   0067D8  EF84  F035         	goto	l918
  6072   0067DC                     l2636:
  6073   0067DC  5015               	movf	(___flmul@a+2)^0,w,c
  6074   0067DE  020F               	mulwf	___flmul@b^0,c
  6075   0067E0  CFF3 F026          	movff	prodl,___flmul@temp
  6076   0067E4  CFF4 F027          	movff	prodh,___flmul@temp+1
  6077   0067E8  5026               	movf	___flmul@temp^0,w,c
  6078   0067EA  6E1C               	movwf	___flmul@grs^0,c
  6079   0067EC  6A1D               	clrf	(___flmul@grs+1)^0,c
  6080   0067EE  6A1E               	clrf	(___flmul@grs+2)^0,c
  6081   0067F0  6A1F               	clrf	(___flmul@grs+3)^0,c
  6082   0067F2  5027               	movf	(___flmul@temp+1)^0,w,c
  6083   0067F4  6E22               	movwf	___flmul@prod^0,c
  6084   0067F6  6A23               	clrf	(___flmul@prod+1)^0,c
  6085   0067F8  6A24               	clrf	(___flmul@prod+2)^0,c
  6086   0067FA  6A25               	clrf	(___flmul@prod+3)^0,c
  6087   0067FC  5014               	movf	(___flmul@a+1)^0,w,c
  6088   0067FE  0210               	mulwf	(___flmul@b+1)^0,c
  6089   006800  CFF3 F026          	movff	prodl,___flmul@temp
  6090   006804  CFF4 F027          	movff	prodh,___flmul@temp+1
  6091   006808  5026               	movf	___flmul@temp^0,w,c
  6092   00680A  261C               	addwf	___flmul@grs^0,f,c
  6093   00680C  0E00               	movlw	0
  6094   00680E  221D               	addwfc	(___flmul@grs+1)^0,f,c
  6095   006810  221E               	addwfc	(___flmul@grs+2)^0,f,c
  6096   006812  221F               	addwfc	(___flmul@grs+3)^0,f,c
  6097   006814  5027               	movf	(___flmul@temp+1)^0,w,c
  6098   006816  2622               	addwf	___flmul@prod^0,f,c
  6099   006818  0E00               	movlw	0
  6100   00681A  2223               	addwfc	(___flmul@prod+1)^0,f,c
  6101   00681C  2224               	addwfc	(___flmul@prod+2)^0,f,c
  6102   00681E  2225               	addwfc	(___flmul@prod+3)^0,f,c
  6103   006820  5013               	movf	___flmul@a^0,w,c
  6104   006822  0211               	mulwf	(___flmul@b+2)^0,c
  6105   006824  CFF3 F026          	movff	prodl,___flmul@temp
  6106   006828  CFF4 F027          	movff	prodh,___flmul@temp+1
  6107   00682C  5026               	movf	___flmul@temp^0,w,c
  6108   00682E  261C               	addwf	___flmul@grs^0,f,c
  6109   006830  0E00               	movlw	0
  6110   006832  221D               	addwfc	(___flmul@grs+1)^0,f,c
  6111   006834  221E               	addwfc	(___flmul@grs+2)^0,f,c
  6112   006836  221F               	addwfc	(___flmul@grs+3)^0,f,c
  6113   006838  5027               	movf	(___flmul@temp+1)^0,w,c
  6114   00683A  2622               	addwf	___flmul@prod^0,f,c
  6115   00683C  0E00               	movlw	0
  6116   00683E  2223               	addwfc	(___flmul@prod+1)^0,f,c
  6117   006840  2224               	addwfc	(___flmul@prod+2)^0,f,c
  6118   006842  2225               	addwfc	(___flmul@prod+3)^0,f,c
  6119   006844  C01E  F01F         	movff	___flmul@grs+2,___flmul@grs+3
  6120   006848  C01D  F01E         	movff	___flmul@grs+1,___flmul@grs+2
  6121   00684C  C01C  F01D         	movff	___flmul@grs,___flmul@grs+1
  6122   006850  6A1C               	clrf	___flmul@grs^0,c
  6123   006852  5013               	movf	___flmul@a^0,w,c
  6124   006854  0210               	mulwf	(___flmul@b+1)^0,c
  6125   006856  CFF3 F026          	movff	prodl,___flmul@temp
  6126   00685A  CFF4 F027          	movff	prodh,___flmul@temp+1
  6127   00685E  5026               	movf	___flmul@temp^0,w,c
  6128   006860  261C               	addwf	___flmul@grs^0,f,c
  6129   006862  5027               	movf	(___flmul@temp+1)^0,w,c
  6130   006864  221D               	addwfc	(___flmul@grs+1)^0,f,c
  6131   006866  0E00               	movlw	0
  6132   006868  221E               	addwfc	(___flmul@grs+2)^0,f,c
  6133   00686A  0E00               	movlw	0
  6134   00686C  221F               	addwfc	(___flmul@grs+3)^0,f,c
  6135   00686E  5014               	movf	(___flmul@a+1)^0,w,c
  6136   006870  020F               	mulwf	___flmul@b^0,c
  6137   006872  CFF3 F026          	movff	prodl,___flmul@temp
  6138   006876  CFF4 F027          	movff	prodh,___flmul@temp+1
  6139   00687A  5026               	movf	___flmul@temp^0,w,c
  6140   00687C  261C               	addwf	___flmul@grs^0,f,c
  6141   00687E  5027               	movf	(___flmul@temp+1)^0,w,c
  6142   006880  221D               	addwfc	(___flmul@grs+1)^0,f,c
  6143   006882  0E00               	movlw	0
  6144   006884  221E               	addwfc	(___flmul@grs+2)^0,f,c
  6145   006886  0E00               	movlw	0
  6146   006888  221F               	addwfc	(___flmul@grs+3)^0,f,c
  6147   00688A  C01E  F01F         	movff	___flmul@grs+2,___flmul@grs+3
  6148   00688E  C01D  F01E         	movff	___flmul@grs+1,___flmul@grs+2
  6149   006892  C01C  F01D         	movff	___flmul@grs,___flmul@grs+1
  6150   006896  6A1C               	clrf	___flmul@grs^0,c
  6151   006898  5013               	movf	___flmul@a^0,w,c
  6152   00689A  020F               	mulwf	___flmul@b^0,c
  6153   00689C  CFF3 F026          	movff	prodl,___flmul@temp
  6154   0068A0  CFF4 F027          	movff	prodh,___flmul@temp+1
  6155   0068A4  5026               	movf	___flmul@temp^0,w,c
  6156   0068A6  261C               	addwf	___flmul@grs^0,f,c
  6157   0068A8  5027               	movf	(___flmul@temp+1)^0,w,c
  6158   0068AA  221D               	addwfc	(___flmul@grs+1)^0,f,c
  6159   0068AC  0E00               	movlw	0
  6160   0068AE  221E               	addwfc	(___flmul@grs+2)^0,f,c
  6161   0068B0  0E00               	movlw	0
  6162   0068B2  221F               	addwfc	(___flmul@grs+3)^0,f,c
  6163   0068B4  5015               	movf	(___flmul@a+2)^0,w,c
  6164   0068B6  0210               	mulwf	(___flmul@b+1)^0,c
  6165   0068B8  CFF3 F026          	movff	prodl,___flmul@temp
  6166   0068BC  CFF4 F027          	movff	prodh,___flmul@temp+1
  6167   0068C0  5026               	movf	___flmul@temp^0,w,c
  6168   0068C2  2622               	addwf	___flmul@prod^0,f,c
  6169   0068C4  5027               	movf	(___flmul@temp+1)^0,w,c
  6170   0068C6  2223               	addwfc	(___flmul@prod+1)^0,f,c
  6171   0068C8  0E00               	movlw	0
  6172   0068CA  2224               	addwfc	(___flmul@prod+2)^0,f,c
  6173   0068CC  0E00               	movlw	0
  6174   0068CE  2225               	addwfc	(___flmul@prod+3)^0,f,c
  6175   0068D0  5014               	movf	(___flmul@a+1)^0,w,c
  6176   0068D2  0211               	mulwf	(___flmul@b+2)^0,c
  6177   0068D4  CFF3 F026          	movff	prodl,___flmul@temp
  6178   0068D8  CFF4 F027          	movff	prodh,___flmul@temp+1
  6179   0068DC  5026               	movf	___flmul@temp^0,w,c
  6180   0068DE  2622               	addwf	___flmul@prod^0,f,c
  6181   0068E0  5027               	movf	(___flmul@temp+1)^0,w,c
  6182   0068E2  2223               	addwfc	(___flmul@prod+1)^0,f,c
  6183   0068E4  0E00               	movlw	0
  6184   0068E6  2224               	addwfc	(___flmul@prod+2)^0,f,c
  6185   0068E8  0E00               	movlw	0
  6186   0068EA  2225               	addwfc	(___flmul@prod+3)^0,f,c
  6187   0068EC  5015               	movf	(___flmul@a+2)^0,w,c
  6188   0068EE  0211               	mulwf	(___flmul@b+2)^0,c
  6189   0068F0  CFF3 F026          	movff	prodl,___flmul@temp
  6190   0068F4  CFF4 F027          	movff	prodh,___flmul@temp+1
  6191   0068F8  5026               	movf	___flmul@temp^0,w,c
  6192   0068FA  6E17               	movwf	??___flmul^0,c
  6193   0068FC  5027               	movf	(___flmul@temp+1)^0,w,c
  6194   0068FE  6E18               	movwf	(??___flmul+1)^0,c
  6195   006900  6A19               	clrf	(??___flmul+2)^0,c
  6196   006902  6A1A               	clrf	(??___flmul+3)^0,c
  6197   006904  C019  F01A         	movff	??___flmul+2,??___flmul+3
  6198   006908  C018  F019         	movff	??___flmul+1,??___flmul+2
  6199   00690C  C017  F018         	movff	??___flmul,??___flmul+1
  6200   006910  6A17               	clrf	??___flmul^0,c
  6201   006912  5017               	movf	??___flmul^0,w,c
  6202   006914  2622               	addwf	___flmul@prod^0,f,c
  6203   006916  5018               	movf	(??___flmul+1)^0,w,c
  6204   006918  2223               	addwfc	(___flmul@prod+1)^0,f,c
  6205   00691A  5019               	movf	(??___flmul+2)^0,w,c
  6206   00691C  2224               	addwfc	(___flmul@prod+2)^0,f,c
  6207   00691E  501A               	movf	(??___flmul+3)^0,w,c
  6208   006920  2225               	addwfc	(___flmul@prod+3)^0,f,c
  6209   006922  C01C  F017         	movff	___flmul@grs,??___flmul
  6210   006926  C01D  F018         	movff	___flmul@grs+1,??___flmul+1
  6211   00692A  C01E  F019         	movff	___flmul@grs+2,??___flmul+2
  6212   00692E  C01F  F01A         	movff	___flmul@grs+3,??___flmul+3
  6213   006932  0E19               	movlw	25
  6214   006934  EFA1  F034         	goto	u2510
  6215   006938                     u2515:
  6216   006938  90D8               	bcf	status,0,c
  6217   00693A  321A               	rrcf	(??___flmul+3)^0,f,c
  6218   00693C  3219               	rrcf	(??___flmul+2)^0,f,c
  6219   00693E  3218               	rrcf	(??___flmul+1)^0,f,c
  6220   006940  3217               	rrcf	??___flmul^0,f,c
  6221   006942                     u2510:
  6222   006942  2EE8               	decfsz	wreg,f,c
  6223   006944  EF9C  F034         	goto	u2515
  6224   006948  5017               	movf	??___flmul^0,w,c
  6225   00694A  2622               	addwf	___flmul@prod^0,f,c
  6226   00694C  5018               	movf	(??___flmul+1)^0,w,c
  6227   00694E  2223               	addwfc	(___flmul@prod+1)^0,f,c
  6228   006950  5019               	movf	(??___flmul+2)^0,w,c
  6229   006952  2224               	addwfc	(___flmul@prod+2)^0,f,c
  6230   006954  501A               	movf	(??___flmul+3)^0,w,c
  6231   006956  2225               	addwfc	(___flmul@prod+3)^0,f,c
  6232   006958  C01E  F01F         	movff	___flmul@grs+2,___flmul@grs+3
  6233   00695C  C01D  F01E         	movff	___flmul@grs+1,___flmul@grs+2
  6234   006960  C01C  F01D         	movff	___flmul@grs,___flmul@grs+1
  6235   006964  6A1C               	clrf	___flmul@grs^0,c
  6236   006966  5020               	movf	___flmul@aexp^0,w,c
  6237   006968  C021  F017         	movff	___flmul@bexp,??___flmul
  6238   00696C  6A18               	clrf	(??___flmul+1)^0,c
  6239   00696E  2617               	addwf	??___flmul^0,f,c
  6240   006970  0E00               	movlw	0
  6241   006972  2218               	addwfc	(??___flmul+1)^0,f,c
  6242   006974  0E82               	movlw	130
  6243   006976  2417               	addwf	??___flmul^0,w,c
  6244   006978  6E26               	movwf	___flmul@temp^0,c
  6245   00697A  0EFF               	movlw	255
  6246   00697C  2018               	addwfc	(??___flmul+1)^0,w,c
  6247   00697E  6E27               	movwf	(___flmul@temp+1)^0,c
  6248   006980  EFD7  F034         	goto	l2684
  6249   006984                     l2678:
  6250   006984  90D8               	bcf	status,0,c
  6251   006986  3622               	rlcf	___flmul@prod^0,f,c
  6252   006988  3623               	rlcf	(___flmul@prod+1)^0,f,c
  6253   00698A  3624               	rlcf	(___flmul@prod+2)^0,f,c
  6254   00698C  3625               	rlcf	(___flmul@prod+3)^0,f,c
  6255   00698E  AE1F               	btfss	(___flmul@grs+3)^0,7,c
  6256   006990  EFCC  F034         	goto	u2521
  6257   006994  EFCE  F034         	goto	u2520
  6258   006998                     u2521:
  6259   006998  EFCF  F034         	goto	l921
  6260   00699C                     u2520:
  6261   00699C  8022               	bsf	___flmul@prod^0,0,c
  6262   00699E                     l921:
  6263   00699E  90D8               	bcf	status,0,c
  6264   0069A0  361C               	rlcf	___flmul@grs^0,f,c
  6265   0069A2  361D               	rlcf	(___flmul@grs+1)^0,f,c
  6266   0069A4  361E               	rlcf	(___flmul@grs+2)^0,f,c
  6267   0069A6  361F               	rlcf	(___flmul@grs+3)^0,f,c
  6268   0069A8  0626               	decf	___flmul@temp^0,f,c
  6269   0069AA  A0D8               	btfss	status,0,c
  6270   0069AC  0627               	decf	(___flmul@temp+1)^0,f,c
  6271   0069AE                     l2684:
  6272   0069AE  AE24               	btfss	(___flmul@prod+2)^0,7,c
  6273   0069B0  EFDC  F034         	goto	u2531
  6274   0069B4  EFDE  F034         	goto	u2530
  6275   0069B8                     u2531:
  6276   0069B8  EFC2  F034         	goto	l2678
  6277   0069BC                     u2530:
  6278   0069BC  6A20               	clrf	___flmul@aexp^0,c
  6279   0069BE  AE1F               	btfss	(___flmul@grs+3)^0,7,c
  6280   0069C0  EFE4  F034         	goto	u2541
  6281   0069C4  EFE6  F034         	goto	u2540
  6282   0069C8                     u2541:
  6283   0069C8  EF0A  F035         	goto	l923
  6284   0069CC                     u2540:
  6285   0069CC  0EFF               	movlw	255
  6286   0069CE  141C               	andwf	___flmul@grs^0,w,c
  6287   0069D0  6E17               	movwf	??___flmul^0,c
  6288   0069D2  0EFF               	movlw	255
  6289   0069D4  141D               	andwf	(___flmul@grs+1)^0,w,c
  6290   0069D6  6E18               	movwf	(??___flmul+1)^0,c
  6291   0069D8  0EFF               	movlw	255
  6292   0069DA  141E               	andwf	(___flmul@grs+2)^0,w,c
  6293   0069DC  6E19               	movwf	(??___flmul+2)^0,c
  6294   0069DE  0E7F               	movlw	127
  6295   0069E0  141F               	andwf	(___flmul@grs+3)^0,w,c
  6296   0069E2  6E1A               	movwf	(??___flmul+3)^0,c
  6297   0069E4  5017               	movf	??___flmul^0,w,c
  6298   0069E6  1018               	iorwf	(??___flmul+1)^0,w,c
  6299   0069E8  1019               	iorwf	(??___flmul+2)^0,w,c
  6300   0069EA  101A               	iorwf	(??___flmul+3)^0,w,c
  6301   0069EC  B4D8               	btfsc	status,2,c
  6302   0069EE  EFFB  F034         	goto	u2551
  6303   0069F2  EFFD  F034         	goto	u2550
  6304   0069F6                     u2551:
  6305   0069F6  EF01  F035         	goto	l924
  6306   0069FA                     u2550:
  6307   0069FA                     l2688:
  6308   0069FA  0E01               	movlw	1
  6309   0069FC  6E20               	movwf	___flmul@aexp^0,c
  6310   0069FE  EF0A  F035         	goto	l923
  6311   006A02                     l924:
  6312   006A02  A022               	btfss	___flmul@prod^0,0,c
  6313   006A04  EF06  F035         	goto	u2561
  6314   006A08  EF08  F035         	goto	u2560
  6315   006A0C                     u2561:
  6316   006A0C  EF0A  F035         	goto	l923
  6317   006A10                     u2560:
  6318   006A10  EFFD  F034         	goto	l2688
  6319   006A14                     l923:
  6320   006A14  5020               	movf	___flmul@aexp^0,w,c
  6321   006A16  B4D8               	btfsc	status,2,c
  6322   006A18  EF10  F035         	goto	u2571
  6323   006A1C  EF12  F035         	goto	u2570
  6324   006A20                     u2571:
  6325   006A20  EF36  F035         	goto	l2700
  6326   006A24                     u2570:
  6327   006A24  0E01               	movlw	1
  6328   006A26  2622               	addwf	___flmul@prod^0,f,c
  6329   006A28  0E00               	movlw	0
  6330   006A2A  2223               	addwfc	(___flmul@prod+1)^0,f,c
  6331   006A2C  2224               	addwfc	(___flmul@prod+2)^0,f,c
  6332   006A2E  2225               	addwfc	(___flmul@prod+3)^0,f,c
  6333   006A30  A025               	btfss	(___flmul@prod+3)^0,0,c
  6334   006A32  EF1D  F035         	goto	u2581
  6335   006A36  EF1F  F035         	goto	u2580
  6336   006A3A                     u2581:
  6337   006A3A  EF36  F035         	goto	l2700
  6338   006A3E                     u2580:
  6339   006A3E  C022  F017         	movff	___flmul@prod,??___flmul
  6340   006A42  C023  F018         	movff	___flmul@prod+1,??___flmul+1
  6341   006A46  C024  F019         	movff	___flmul@prod+2,??___flmul+2
  6342   006A4A  C025  F01A         	movff	___flmul@prod+3,??___flmul+3
  6343   006A4E  341A               	rlcf	(??___flmul+3)^0,w,c
  6344   006A50  321A               	rrcf	(??___flmul+3)^0,f,c
  6345   006A52  3219               	rrcf	(??___flmul+2)^0,f,c
  6346   006A54  3218               	rrcf	(??___flmul+1)^0,f,c
  6347   006A56  3217               	rrcf	??___flmul^0,f,c
  6348   006A58  C017  F022         	movff	??___flmul,___flmul@prod
  6349   006A5C  C018  F023         	movff	??___flmul+1,___flmul@prod+1
  6350   006A60  C019  F024         	movff	??___flmul+2,___flmul@prod+2
  6351   006A64  C01A  F025         	movff	??___flmul+3,___flmul@prod+3
  6352   006A68  4A26               	infsnz	___flmul@temp^0,f,c
  6353   006A6A  2A27               	incf	(___flmul@temp+1)^0,f,c
  6354   006A6C                     l2700:
  6355   006A6C  BE27               	btfsc	(___flmul@temp+1)^0,7,c
  6356   006A6E  EF41  F035         	goto	u2591
  6357   006A72  5027               	movf	(___flmul@temp+1)^0,w,c
  6358   006A74  E108               	bnz	u2590
  6359   006A76  2826               	incf	___flmul@temp^0,w,c
  6360   006A78  A0D8               	btfss	status,0,c
  6361   006A7A  EF41  F035         	goto	u2591
  6362   006A7E  EF43  F035         	goto	u2590
  6363   006A82                     u2591:
  6364   006A82  EF4D  F035         	goto	l2704
  6365   006A86                     u2590:
  6366   006A86  0E00               	movlw	0
  6367   006A88  6E22               	movwf	___flmul@prod^0,c
  6368   006A8A  0E00               	movlw	0
  6369   006A8C  6E23               	movwf	(___flmul@prod+1)^0,c
  6370   006A8E  0E80               	movlw	128
  6371   006A90  6E24               	movwf	(___flmul@prod+2)^0,c
  6372   006A92  0E7F               	movlw	127
  6373   006A94  6E25               	movwf	(___flmul@prod+3)^0,c
  6374   006A96  EF7A  F035         	goto	l2718
  6375   006A9A                     l2704:
  6376   006A9A  BE27               	btfsc	(___flmul@temp+1)^0,7,c
  6377   006A9C  EF5A  F035         	goto	u2600
  6378   006AA0  5027               	movf	(___flmul@temp+1)^0,w,c
  6379   006AA2  E106               	bnz	u2601
  6380   006AA4  0426               	decf	___flmul@temp^0,w,c
  6381   006AA6  B0D8               	btfsc	status,0,c
  6382   006AA8  EF58  F035         	goto	u2601
  6383   006AAC  EF5A  F035         	goto	u2600
  6384   006AB0                     u2601:
  6385   006AB0  EF65  F035         	goto	l931
  6386   006AB4                     u2600:
  6387   006AB4  0E00               	movlw	0
  6388   006AB6  6E22               	movwf	___flmul@prod^0,c
  6389   006AB8  0E00               	movlw	0
  6390   006ABA  6E23               	movwf	(___flmul@prod+1)^0,c
  6391   006ABC  0E00               	movlw	0
  6392   006ABE  6E24               	movwf	(___flmul@prod+2)^0,c
  6393   006AC0  0E00               	movlw	0
  6394   006AC2  6E25               	movwf	(___flmul@prod+3)^0,c
  6395   006AC4  6A1B               	clrf	___flmul@sign^0,c
  6396   006AC6  EF7A  F035         	goto	l2718
  6397   006ACA                     l931:
  6398   006ACA  C026  F021         	movff	___flmul@temp,___flmul@bexp
  6399   006ACE  0EFF               	movlw	255
  6400   006AD0  1622               	andwf	___flmul@prod^0,f,c
  6401   006AD2  0EFF               	movlw	255
  6402   006AD4  1623               	andwf	(___flmul@prod+1)^0,f,c
  6403   006AD6  0E7F               	movlw	127
  6404   006AD8  1624               	andwf	(___flmul@prod+2)^0,f,c
  6405   006ADA  0E00               	movlw	0
  6406   006ADC  1625               	andwf	(___flmul@prod+3)^0,f,c
  6407   006ADE  A021               	btfss	___flmul@bexp^0,0,c
  6408   006AE0  EF74  F035         	goto	u2611
  6409   006AE4  EF76  F035         	goto	u2610
  6410   006AE8                     u2611:
  6411   006AE8  EF77  F035         	goto	l2716
  6412   006AEC                     u2610:
  6413   006AEC  8E24               	bsf	(___flmul@prod+2)^0,7,c
  6414   006AEE                     l2716:
  6415   006AEE  90D8               	bcf	status,0,c
  6416   006AF0  3021               	rrcf	___flmul@bexp^0,w,c
  6417   006AF2  6E25               	movwf	(___flmul@prod+3)^0,c
  6418   006AF4                     l2718:
  6419   006AF4  501B               	movf	___flmul@sign^0,w,c
  6420   006AF6  1225               	iorwf	(___flmul@prod+3)^0,f,c
  6421   006AF8  C022  F00F         	movff	___flmul@prod,?___flmul
  6422   006AFC  C023  F010         	movff	___flmul@prod+1,?___flmul+1
  6423   006B00  C024  F011         	movff	___flmul@prod+2,?___flmul+2
  6424   006B04  C025  F012         	movff	___flmul@prod+3,?___flmul+3
  6425   006B08                     l918:
  6426   006B08  0012               	return		;funcret
  6427   006B0A                     __end_of___flmul:
  6428                           	callstack 0
  6429                           
  6430 ;; *************** function ___fldiv *****************
  6431 ;; Defined at:
  6432 ;;		line 11 in file "C:\Program Files\Microchip\xc8\v2.50\pic\sources\c99\common\sprcdiv.c"
  6433 ;; Parameters:    Size  Location     Type
  6434 ;;  b               4   92[COMRAM] unsigned char 
  6435 ;;  a               4   96[COMRAM] unsigned char 
  6436 ;; Auto vars:     Size  Location     Type
  6437 ;;  grs             4  111[COMRAM] unsigned long 
  6438 ;;  rem             4  104[COMRAM] unsigned long 
  6439 ;;  new_exp         2  109[COMRAM] short 
  6440 ;;  aexp            1  116[COMRAM] unsigned char 
  6441 ;;  bexp            1  115[COMRAM] unsigned char 
  6442 ;;  sign            1  108[COMRAM] unsigned char 
  6443 ;; Return value:  Size  Location     Type
  6444 ;;                  4   92[COMRAM] unsigned char 
  6445 ;; Registers used:
  6446 ;;		wreg, status,2, status,0
  6447 ;; Tracked objects:
  6448 ;;		On entry : 0/0
  6449 ;;		On exit  : 0/0
  6450 ;;		Unchanged: 0/0
  6451 ;; Data sizes:     COMRAM   BANK0   BANK1   BANK2   BANK3   BANK4   BANK5
  6452 ;;      Params:         8       0       0       0       0       0       0
  6453 ;;      Locals:        13       0       0       0       0       0       0
  6454 ;;      Temps:          4       0       0       0       0       0       0
  6455 ;;      Totals:        25       0       0       0       0       0       0
  6456 ;;Total ram usage:       25 bytes
  6457 ;; Hardware stack levels used: 1
  6458 ;; This function calls:
  6459 ;;		Nothing
  6460 ;; This function is called by:
  6461 ;;		_calculate_angle
  6462 ;;		_atan2f
  6463 ;;		_atanf
  6464 ;; This function uses a non-reentrant model
  6465 ;;
  6466                           
  6467                           	psect	text19
  6468   005F76                     __ptext19:
  6469                           	callstack 0
  6470   005F76                     ___fldiv:
  6471                           	callstack 24
  6472   005F76  5060               	movf	(___fldiv@b+3)^0,w,c
  6473   005F78  0B80               	andlw	128
  6474   005F7A  6E6D               	movwf	___fldiv@sign^0,c
  6475   005F7C  5060               	movf	(___fldiv@b+3)^0,w,c
  6476   005F7E  2460               	addwf	(___fldiv@b+3)^0,w,c
  6477   005F80  6E74               	movwf	___fldiv@bexp^0,c
  6478   005F82  AE5F               	btfss	(___fldiv@b+2)^0,7,c
  6479   005F84  EFC6  F02F         	goto	u2201
  6480   005F88  EFC8  F02F         	goto	u2200
  6481   005F8C                     u2201:
  6482   005F8C  EFC9  F02F         	goto	l2466
  6483   005F90                     u2200:
  6484   005F90  8074               	bsf	___fldiv@bexp^0,0,c
  6485   005F92                     l2466:
  6486   005F92  5074               	movf	___fldiv@bexp^0,w,c
  6487   005F94  B4D8               	btfsc	status,2,c
  6488   005F96  EFCF  F02F         	goto	u2211
  6489   005F9A  EFD1  F02F         	goto	u2210
  6490   005F9E                     u2211:
  6491   005F9E  EFE5  F02F         	goto	l2476
  6492   005FA2                     u2210:
  6493   005FA2  2874               	incf	___fldiv@bexp^0,w,c
  6494   005FA4  A4D8               	btfss	status,2,c
  6495   005FA6  EFD7  F02F         	goto	u2221
  6496   005FAA  EFD9  F02F         	goto	u2220
  6497   005FAE                     u2221:
  6498   005FAE  EFE1  F02F         	goto	l2472
  6499   005FB2                     u2220:
  6500   005FB2  0E00               	movlw	0
  6501   005FB4  6E5D               	movwf	___fldiv@b^0,c
  6502   005FB6  0E00               	movlw	0
  6503   005FB8  6E5E               	movwf	(___fldiv@b+1)^0,c
  6504   005FBA  0E00               	movlw	0
  6505   005FBC  6E5F               	movwf	(___fldiv@b+2)^0,c
  6506   005FBE  0E00               	movlw	0
  6507   005FC0  6E60               	movwf	(___fldiv@b+3)^0,c
  6508   005FC2                     l2472:
  6509   005FC2  8E5F               	bsf	(___fldiv@b+2)^0,7,c
  6510   005FC4  6A60               	clrf	(___fldiv@b+3)^0,c
  6511   005FC6  EFED  F02F         	goto	l2478
  6512   005FCA                     l2476:
  6513   005FCA  0E00               	movlw	0
  6514   005FCC  6E5D               	movwf	___fldiv@b^0,c
  6515   005FCE  0E00               	movlw	0
  6516   005FD0  6E5E               	movwf	(___fldiv@b+1)^0,c
  6517   005FD2  0E00               	movlw	0
  6518   005FD4  6E5F               	movwf	(___fldiv@b+2)^0,c
  6519   005FD6  0E00               	movlw	0
  6520   005FD8  6E60               	movwf	(___fldiv@b+3)^0,c
  6521   005FDA                     l2478:
  6522   005FDA  5064               	movf	(___fldiv@a+3)^0,w,c
  6523   005FDC  0B80               	andlw	128
  6524   005FDE  1A6D               	xorwf	___fldiv@sign^0,f,c
  6525   005FE0  5064               	movf	(___fldiv@a+3)^0,w,c
  6526   005FE2  2464               	addwf	(___fldiv@a+3)^0,w,c
  6527   005FE4  6E75               	movwf	___fldiv@aexp^0,c
  6528   005FE6  AE63               	btfss	(___fldiv@a+2)^0,7,c
  6529   005FE8  EFF8  F02F         	goto	u2231
  6530   005FEC  EFFA  F02F         	goto	u2230
  6531   005FF0                     u2231:
  6532   005FF0  EFFB  F02F         	goto	l2486
  6533   005FF4                     u2230:
  6534   005FF4  8075               	bsf	___fldiv@aexp^0,0,c
  6535   005FF6                     l2486:
  6536   005FF6  5075               	movf	___fldiv@aexp^0,w,c
  6537   005FF8  B4D8               	btfsc	status,2,c
  6538   005FFA  EF01  F030         	goto	u2241
  6539   005FFE  EF03  F030         	goto	u2240
  6540   006002                     u2241:
  6541   006002  EF17  F030         	goto	l2496
  6542   006006                     u2240:
  6543   006006  2875               	incf	___fldiv@aexp^0,w,c
  6544   006008  A4D8               	btfss	status,2,c
  6545   00600A  EF09  F030         	goto	u2251
  6546   00600E  EF0B  F030         	goto	u2250
  6547   006012                     u2251:
  6548   006012  EF13  F030         	goto	l2492
  6549   006016                     u2250:
  6550   006016  0E00               	movlw	0
  6551   006018  6E61               	movwf	___fldiv@a^0,c
  6552   00601A  0E00               	movlw	0
  6553   00601C  6E62               	movwf	(___fldiv@a+1)^0,c
  6554   00601E  0E00               	movlw	0
  6555   006020  6E63               	movwf	(___fldiv@a+2)^0,c
  6556   006022  0E00               	movlw	0
  6557   006024  6E64               	movwf	(___fldiv@a+3)^0,c
  6558   006026                     l2492:
  6559   006026  8E63               	bsf	(___fldiv@a+2)^0,7,c
  6560   006028  6A64               	clrf	(___fldiv@a+3)^0,c
  6561   00602A  EF1F  F030         	goto	l2498
  6562   00602E                     l2496:
  6563   00602E  0E00               	movlw	0
  6564   006030  6E61               	movwf	___fldiv@a^0,c
  6565   006032  0E00               	movlw	0
  6566   006034  6E62               	movwf	(___fldiv@a+1)^0,c
  6567   006036  0E00               	movlw	0
  6568   006038  6E63               	movwf	(___fldiv@a+2)^0,c
  6569   00603A  0E00               	movlw	0
  6570   00603C  6E64               	movwf	(___fldiv@a+3)^0,c
  6571   00603E                     l2498:
  6572   00603E  5061               	movf	___fldiv@a^0,w,c
  6573   006040  1062               	iorwf	(___fldiv@a+1)^0,w,c
  6574   006042  1063               	iorwf	(___fldiv@a+2)^0,w,c
  6575   006044  1064               	iorwf	(___fldiv@a+3)^0,w,c
  6576   006046  A4D8               	btfss	status,2,c
  6577   006048  EF28  F030         	goto	u2261
  6578   00604C  EF2A  F030         	goto	u2260
  6579   006050                     u2261:
  6580   006050  EF42  F030         	goto	l2510
  6581   006054                     u2260:
  6582   006054  0E00               	movlw	0
  6583   006056  6E5D               	movwf	___fldiv@b^0,c
  6584   006058  0E00               	movlw	0
  6585   00605A  6E5E               	movwf	(___fldiv@b+1)^0,c
  6586   00605C  0E00               	movlw	0
  6587   00605E  6E5F               	movwf	(___fldiv@b+2)^0,c
  6588   006060  0E00               	movlw	0
  6589   006062  6E60               	movwf	(___fldiv@b+3)^0,c
  6590   006064  0E80               	movlw	128
  6591   006066  125F               	iorwf	(___fldiv@b+2)^0,f,c
  6592   006068  0E7F               	movlw	127
  6593   00606A  1260               	iorwf	(___fldiv@b+3)^0,f,c
  6594   00606C                     l2504:
  6595   00606C  506D               	movf	___fldiv@sign^0,w,c
  6596   00606E  1260               	iorwf	(___fldiv@b+3)^0,f,c
  6597   006070  C05D  F05D         	movff	___fldiv@b,?___fldiv
  6598   006074  C05E  F05E         	movff	___fldiv@b+1,?___fldiv+1
  6599   006078  C05F  F05F         	movff	___fldiv@b+2,?___fldiv+2
  6600   00607C  C060  F060         	movff	___fldiv@b+3,?___fldiv+3
  6601   006080  EF82  F031         	goto	l882
  6602   006084                     l2510:
  6603   006084  5074               	movf	___fldiv@bexp^0,w,c
  6604   006086  A4D8               	btfss	status,2,c
  6605   006088  EF48  F030         	goto	u2271
  6606   00608C  EF4A  F030         	goto	u2270
  6607   006090                     u2271:
  6608   006090  EF54  F030         	goto	l2518
  6609   006094                     u2270:
  6610   006094  0E00               	movlw	0
  6611   006096  6E5D               	movwf	?___fldiv^0,c
  6612   006098  0E00               	movlw	0
  6613   00609A  6E5E               	movwf	(?___fldiv+1)^0,c
  6614   00609C  0E00               	movlw	0
  6615   00609E  6E5F               	movwf	(?___fldiv+2)^0,c
  6616   0060A0  0E00               	movlw	0
  6617   0060A2  6E60               	movwf	(?___fldiv+3)^0,c
  6618   0060A4  EF82  F031         	goto	l882
  6619   0060A8                     l2518:
  6620   0060A8  5075               	movf	___fldiv@aexp^0,w,c
  6621   0060AA  C074  F065         	movff	___fldiv@bexp,??___fldiv
  6622   0060AE  6A66               	clrf	(??___fldiv+1)^0,c
  6623   0060B0  5E65               	subwf	??___fldiv^0,f,c
  6624   0060B2  0E00               	movlw	0
  6625   0060B4  5A66               	subwfb	(??___fldiv+1)^0,f,c
  6626   0060B6  0E7F               	movlw	127
  6627   0060B8  2465               	addwf	??___fldiv^0,w,c
  6628   0060BA  6E6E               	movwf	___fldiv@new_exp^0,c
  6629   0060BC  0E00               	movlw	0
  6630   0060BE  2066               	addwfc	(??___fldiv+1)^0,w,c
  6631   0060C0  6E6F               	movwf	(___fldiv@new_exp+1)^0,c
  6632   0060C2  C05D  F069         	movff	___fldiv@b,___fldiv@rem
  6633   0060C6  C05E  F06A         	movff	___fldiv@b+1,___fldiv@rem+1
  6634   0060CA  C05F  F06B         	movff	___fldiv@b+2,___fldiv@rem+2
  6635   0060CE  C060  F06C         	movff	___fldiv@b+3,___fldiv@rem+3
  6636   0060D2  0E00               	movlw	0
  6637   0060D4  6E5D               	movwf	___fldiv@b^0,c
  6638   0060D6  0E00               	movlw	0
  6639   0060D8  6E5E               	movwf	(___fldiv@b+1)^0,c
  6640   0060DA  0E00               	movlw	0
  6641   0060DC  6E5F               	movwf	(___fldiv@b+2)^0,c
  6642   0060DE  0E00               	movlw	0
  6643   0060E0  6E60               	movwf	(___fldiv@b+3)^0,c
  6644   0060E2  0E00               	movlw	0
  6645   0060E4  6E70               	movwf	___fldiv@grs^0,c
  6646   0060E6  0E00               	movlw	0
  6647   0060E8  6E71               	movwf	(___fldiv@grs+1)^0,c
  6648   0060EA  0E00               	movlw	0
  6649   0060EC  6E72               	movwf	(___fldiv@grs+2)^0,c
  6650   0060EE  0E00               	movlw	0
  6651   0060F0  6E73               	movwf	(___fldiv@grs+3)^0,c
  6652   0060F2  6A75               	clrf	___fldiv@aexp^0,c
  6653   0060F4  EFB4  F030         	goto	l884
  6654   0060F8                     l2528:
  6655   0060F8  5075               	movf	___fldiv@aexp^0,w,c
  6656   0060FA  B4D8               	btfsc	status,2,c
  6657   0060FC  EF82  F030         	goto	u2281
  6658   006100  EF84  F030         	goto	u2280
  6659   006104                     u2281:
  6660   006104  EF9B  F030         	goto	l2536
  6661   006108                     u2280:
  6662   006108  90D8               	bcf	status,0,c
  6663   00610A  3669               	rlcf	___fldiv@rem^0,f,c
  6664   00610C  366A               	rlcf	(___fldiv@rem+1)^0,f,c
  6665   00610E  366B               	rlcf	(___fldiv@rem+2)^0,f,c
  6666   006110  366C               	rlcf	(___fldiv@rem+3)^0,f,c
  6667   006112  90D8               	bcf	status,0,c
  6668   006114  365D               	rlcf	___fldiv@b^0,f,c
  6669   006116  365E               	rlcf	(___fldiv@b+1)^0,f,c
  6670   006118  365F               	rlcf	(___fldiv@b+2)^0,f,c
  6671   00611A  3660               	rlcf	(___fldiv@b+3)^0,f,c
  6672   00611C  AE73               	btfss	(___fldiv@grs+3)^0,7,c
  6673   00611E  EF93  F030         	goto	u2291
  6674   006122  EF95  F030         	goto	u2290
  6675   006126                     u2291:
  6676   006126  EF96  F030         	goto	l887
  6677   00612A                     u2290:
  6678   00612A  805D               	bsf	___fldiv@b^0,0,c
  6679   00612C                     l887:
  6680   00612C  90D8               	bcf	status,0,c
  6681   00612E  3670               	rlcf	___fldiv@grs^0,f,c
  6682   006130  3671               	rlcf	(___fldiv@grs+1)^0,f,c
  6683   006132  3672               	rlcf	(___fldiv@grs+2)^0,f,c
  6684   006134  3673               	rlcf	(___fldiv@grs+3)^0,f,c
  6685   006136                     l2536:
  6686   006136  5061               	movf	___fldiv@a^0,w,c
  6687   006138  5C69               	subwf	___fldiv@rem^0,w,c
  6688   00613A  5062               	movf	(___fldiv@a+1)^0,w,c
  6689   00613C  586A               	subwfb	(___fldiv@rem+1)^0,w,c
  6690   00613E  5063               	movf	(___fldiv@a+2)^0,w,c
  6691   006140  586B               	subwfb	(___fldiv@rem+2)^0,w,c
  6692   006142  5064               	movf	(___fldiv@a+3)^0,w,c
  6693   006144  586C               	subwfb	(___fldiv@rem+3)^0,w,c
  6694   006146  A0D8               	btfss	status,0,c
  6695   006148  EFA8  F030         	goto	u2301
  6696   00614C  EFAA  F030         	goto	u2300
  6697   006150                     u2301:
  6698   006150  EFB3  F030         	goto	l2542
  6699   006154                     u2300:
  6700   006154  8C73               	bsf	(___fldiv@grs+3)^0,6,c
  6701   006156  5061               	movf	___fldiv@a^0,w,c
  6702   006158  5E69               	subwf	___fldiv@rem^0,f,c
  6703   00615A  5062               	movf	(___fldiv@a+1)^0,w,c
  6704   00615C  5A6A               	subwfb	(___fldiv@rem+1)^0,f,c
  6705   00615E  5063               	movf	(___fldiv@a+2)^0,w,c
  6706   006160  5A6B               	subwfb	(___fldiv@rem+2)^0,f,c
  6707   006162  5064               	movf	(___fldiv@a+3)^0,w,c
  6708   006164  5A6C               	subwfb	(___fldiv@rem+3)^0,f,c
  6709   006166                     l2542:
  6710   006166  2A75               	incf	___fldiv@aexp^0,f,c
  6711   006168                     l884:
  6712   006168  0E19               	movlw	25
  6713   00616A  6475               	cpfsgt	___fldiv@aexp^0,c
  6714   00616C  EFBA  F030         	goto	u2311
  6715   006170  EFBC  F030         	goto	u2310
  6716   006174                     u2311:
  6717   006174  EF7C  F030         	goto	l2528
  6718   006178                     u2310:
  6719   006178  5069               	movf	___fldiv@rem^0,w,c
  6720   00617A  106A               	iorwf	(___fldiv@rem+1)^0,w,c
  6721   00617C  106B               	iorwf	(___fldiv@rem+2)^0,w,c
  6722   00617E  106C               	iorwf	(___fldiv@rem+3)^0,w,c
  6723   006180  B4D8               	btfsc	status,2,c
  6724   006182  EFC5  F030         	goto	u2321
  6725   006186  EFC7  F030         	goto	u2320
  6726   00618A                     u2321:
  6727   00618A  EFDF  F030         	goto	l2554
  6728   00618E                     u2320:
  6729   00618E  8070               	bsf	___fldiv@grs^0,0,c
  6730   006190  EFDF  F030         	goto	l2554
  6731   006194                     l2548:
  6732   006194  90D8               	bcf	status,0,c
  6733   006196  365D               	rlcf	___fldiv@b^0,f,c
  6734   006198  365E               	rlcf	(___fldiv@b+1)^0,f,c
  6735   00619A  365F               	rlcf	(___fldiv@b+2)^0,f,c
  6736   00619C  3660               	rlcf	(___fldiv@b+3)^0,f,c
  6737   00619E  AE73               	btfss	(___fldiv@grs+3)^0,7,c
  6738   0061A0  EFD4  F030         	goto	u2331
  6739   0061A4  EFD6  F030         	goto	u2330
  6740   0061A8                     u2331:
  6741   0061A8  EFD7  F030         	goto	l893
  6742   0061AC                     u2330:
  6743   0061AC  805D               	bsf	___fldiv@b^0,0,c
  6744   0061AE                     l893:
  6745   0061AE  90D8               	bcf	status,0,c
  6746   0061B0  3670               	rlcf	___fldiv@grs^0,f,c
  6747   0061B2  3671               	rlcf	(___fldiv@grs+1)^0,f,c
  6748   0061B4  3672               	rlcf	(___fldiv@grs+2)^0,f,c
  6749   0061B6  3673               	rlcf	(___fldiv@grs+3)^0,f,c
  6750   0061B8  066E               	decf	___fldiv@new_exp^0,f,c
  6751   0061BA  A0D8               	btfss	status,0,c
  6752   0061BC  066F               	decf	(___fldiv@new_exp+1)^0,f,c
  6753   0061BE                     l2554:
  6754   0061BE  AE5F               	btfss	(___fldiv@b+2)^0,7,c
  6755   0061C0  EFE4  F030         	goto	u2341
  6756   0061C4  EFE6  F030         	goto	u2340
  6757   0061C8                     u2341:
  6758   0061C8  EFCA  F030         	goto	l2548
  6759   0061CC                     u2340:
  6760   0061CC  6A75               	clrf	___fldiv@aexp^0,c
  6761   0061CE  AE73               	btfss	(___fldiv@grs+3)^0,7,c
  6762   0061D0  EFEC  F030         	goto	u2351
  6763   0061D4  EFEE  F030         	goto	u2350
  6764   0061D8                     u2351:
  6765   0061D8  EF12  F031         	goto	l895
  6766   0061DC                     u2350:
  6767   0061DC  0EFF               	movlw	255
  6768   0061DE  1470               	andwf	___fldiv@grs^0,w,c
  6769   0061E0  6E65               	movwf	??___fldiv^0,c
  6770   0061E2  0EFF               	movlw	255
  6771   0061E4  1471               	andwf	(___fldiv@grs+1)^0,w,c
  6772   0061E6  6E66               	movwf	(??___fldiv+1)^0,c
  6773   0061E8  0EFF               	movlw	255
  6774   0061EA  1472               	andwf	(___fldiv@grs+2)^0,w,c
  6775   0061EC  6E67               	movwf	(??___fldiv+2)^0,c
  6776   0061EE  0E7F               	movlw	127
  6777   0061F0  1473               	andwf	(___fldiv@grs+3)^0,w,c
  6778   0061F2  6E68               	movwf	(??___fldiv+3)^0,c
  6779   0061F4  5065               	movf	??___fldiv^0,w,c
  6780   0061F6  1066               	iorwf	(??___fldiv+1)^0,w,c
  6781   0061F8  1067               	iorwf	(??___fldiv+2)^0,w,c
  6782   0061FA  1068               	iorwf	(??___fldiv+3)^0,w,c
  6783   0061FC  B4D8               	btfsc	status,2,c
  6784   0061FE  EF03  F031         	goto	u2361
  6785   006202  EF05  F031         	goto	u2360
  6786   006206                     u2361:
  6787   006206  EF09  F031         	goto	l896
  6788   00620A                     u2360:
  6789   00620A                     l2558:
  6790   00620A  0E01               	movlw	1
  6791   00620C  6E75               	movwf	___fldiv@aexp^0,c
  6792   00620E  EF12  F031         	goto	l895
  6793   006212                     l896:
  6794   006212  A05D               	btfss	___fldiv@b^0,0,c
  6795   006214  EF0E  F031         	goto	u2371
  6796   006218  EF10  F031         	goto	u2370
  6797   00621C                     u2371:
  6798   00621C  EF12  F031         	goto	l895
  6799   006220                     u2370:
  6800   006220  EF05  F031         	goto	l2558
  6801   006224                     l895:
  6802   006224  5075               	movf	___fldiv@aexp^0,w,c
  6803   006226  B4D8               	btfsc	status,2,c
  6804   006228  EF18  F031         	goto	u2381
  6805   00622C  EF1A  F031         	goto	u2380
  6806   006230                     u2381:
  6807   006230  EF3E  F031         	goto	l2570
  6808   006234                     u2380:
  6809   006234  0E01               	movlw	1
  6810   006236  265D               	addwf	___fldiv@b^0,f,c
  6811   006238  0E00               	movlw	0
  6812   00623A  225E               	addwfc	(___fldiv@b+1)^0,f,c
  6813   00623C  225F               	addwfc	(___fldiv@b+2)^0,f,c
  6814   00623E  2260               	addwfc	(___fldiv@b+3)^0,f,c
  6815   006240  A060               	btfss	(___fldiv@b+3)^0,0,c
  6816   006242  EF25  F031         	goto	u2391
  6817   006246  EF27  F031         	goto	u2390
  6818   00624A                     u2391:
  6819   00624A  EF3E  F031         	goto	l2570
  6820   00624E                     u2390:
  6821   00624E  C05D  F065         	movff	___fldiv@b,??___fldiv
  6822   006252  C05E  F066         	movff	___fldiv@b+1,??___fldiv+1
  6823   006256  C05F  F067         	movff	___fldiv@b+2,??___fldiv+2
  6824   00625A  C060  F068         	movff	___fldiv@b+3,??___fldiv+3
  6825   00625E  3468               	rlcf	(??___fldiv+3)^0,w,c
  6826   006260  3268               	rrcf	(??___fldiv+3)^0,f,c
  6827   006262  3267               	rrcf	(??___fldiv+2)^0,f,c
  6828   006264  3266               	rrcf	(??___fldiv+1)^0,f,c
  6829   006266  3265               	rrcf	??___fldiv^0,f,c
  6830   006268  C065  F05D         	movff	??___fldiv,___fldiv@b
  6831   00626C  C066  F05E         	movff	??___fldiv+1,___fldiv@b+1
  6832   006270  C067  F05F         	movff	??___fldiv+2,___fldiv@b+2
  6833   006274  C068  F060         	movff	??___fldiv+3,___fldiv@b+3
  6834   006278  4A6E               	infsnz	___fldiv@new_exp^0,f,c
  6835   00627A  2A6F               	incf	(___fldiv@new_exp+1)^0,f,c
  6836   00627C                     l2570:
  6837   00627C  BE6F               	btfsc	(___fldiv@new_exp+1)^0,7,c
  6838   00627E  EF49  F031         	goto	u2401
  6839   006282  506F               	movf	(___fldiv@new_exp+1)^0,w,c
  6840   006284  E108               	bnz	u2400
  6841   006286  286E               	incf	___fldiv@new_exp^0,w,c
  6842   006288  A0D8               	btfss	status,0,c
  6843   00628A  EF49  F031         	goto	u2401
  6844   00628E  EF4B  F031         	goto	u2400
  6845   006292                     u2401:
  6846   006292  EF56  F031         	goto	l2574
  6847   006296                     u2400:
  6848   006296  0E00               	movlw	0
  6849   006298  6E6F               	movwf	(___fldiv@new_exp+1)^0,c
  6850   00629A  686E               	setf	___fldiv@new_exp^0,c
  6851   00629C  0E00               	movlw	0
  6852   00629E  6E5D               	movwf	___fldiv@b^0,c
  6853   0062A0  0E00               	movlw	0
  6854   0062A2  6E5E               	movwf	(___fldiv@b+1)^0,c
  6855   0062A4  0E00               	movlw	0
  6856   0062A6  6E5F               	movwf	(___fldiv@b+2)^0,c
  6857   0062A8  0E00               	movlw	0
  6858   0062AA  6E60               	movwf	(___fldiv@b+3)^0,c
  6859   0062AC                     l2574:
  6860   0062AC  BE6F               	btfsc	(___fldiv@new_exp+1)^0,7,c
  6861   0062AE  EF63  F031         	goto	u2410
  6862   0062B2  506F               	movf	(___fldiv@new_exp+1)^0,w,c
  6863   0062B4  E106               	bnz	u2411
  6864   0062B6  046E               	decf	___fldiv@new_exp^0,w,c
  6865   0062B8  B0D8               	btfsc	status,0,c
  6866   0062BA  EF61  F031         	goto	u2411
  6867   0062BE  EF63  F031         	goto	u2410
  6868   0062C2                     u2411:
  6869   0062C2  EF70  F031         	goto	l2580
  6870   0062C6                     u2410:
  6871   0062C6  0E00               	movlw	0
  6872   0062C8  6E6F               	movwf	(___fldiv@new_exp+1)^0,c
  6873   0062CA  0E00               	movlw	0
  6874   0062CC  6E6E               	movwf	___fldiv@new_exp^0,c
  6875   0062CE  0E00               	movlw	0
  6876   0062D0  6E5D               	movwf	___fldiv@b^0,c
  6877   0062D2  0E00               	movlw	0
  6878   0062D4  6E5E               	movwf	(___fldiv@b+1)^0,c
  6879   0062D6  0E00               	movlw	0
  6880   0062D8  6E5F               	movwf	(___fldiv@b+2)^0,c
  6881   0062DA  0E00               	movlw	0
  6882   0062DC  6E60               	movwf	(___fldiv@b+3)^0,c
  6883   0062DE  6A6D               	clrf	___fldiv@sign^0,c
  6884   0062E0                     l2580:
  6885   0062E0  C06E  F074         	movff	___fldiv@new_exp,___fldiv@bexp
  6886   0062E4  A074               	btfss	___fldiv@bexp^0,0,c
  6887   0062E6  EF77  F031         	goto	u2421
  6888   0062EA  EF79  F031         	goto	u2420
  6889   0062EE                     u2421:
  6890   0062EE  EF7C  F031         	goto	l2586
  6891   0062F2                     u2420:
  6892   0062F2  8E5F               	bsf	(___fldiv@b+2)^0,7,c
  6893   0062F4  EF7D  F031         	goto	l2588
  6894   0062F8                     l2586:
  6895   0062F8  9E5F               	bcf	(___fldiv@b+2)^0,7,c
  6896   0062FA                     l2588:
  6897   0062FA  90D8               	bcf	status,0,c
  6898   0062FC  3074               	rrcf	___fldiv@bexp^0,w,c
  6899   0062FE  6E60               	movwf	(___fldiv@b+3)^0,c
  6900   006300  EF36  F030         	goto	l2504
  6901   006304                     l882:
  6902   006304  0012               	return		;funcret
  6903   006306                     __end_of___fldiv:
  6904                           	callstack 0
  6905                           
  6906 ;; *************** function ___xxtofl *****************
  6907 ;; Defined at:
  6908 ;;		line 10 in file "C:\Program Files\Microchip\xc8\v2.50\pic\sources\c99\common\xxtofl.c"
  6909 ;; Parameters:    Size  Location     Type
  6910 ;;  sign            1    wreg     unsigned char 
  6911 ;;  val             4    0[COMRAM] long 
  6912 ;; Auto vars:     Size  Location     Type
  6913 ;;  sign            1    8[COMRAM] unsigned char 
  6914 ;;  arg             4   10[COMRAM] unsigned long 
  6915 ;;  exp             1    9[COMRAM] unsigned char 
  6916 ;; Return value:  Size  Location     Type
  6917 ;;                  4    0[COMRAM] unsigned char 
  6918 ;; Registers used:
  6919 ;;		wreg, status,2, status,0
  6920 ;; Tracked objects:
  6921 ;;		On entry : 0/0
  6922 ;;		On exit  : 0/0
  6923 ;;		Unchanged: 0/0
  6924 ;; Data sizes:     COMRAM   BANK0   BANK1   BANK2   BANK3   BANK4   BANK5
  6925 ;;      Params:         4       0       0       0       0       0       0
  6926 ;;      Locals:         6       0       0       0       0       0       0
  6927 ;;      Temps:          4       0       0       0       0       0       0
  6928 ;;      Totals:        14       0       0       0       0       0       0
  6929 ;;Total ram usage:       14 bytes
  6930 ;; Hardware stack levels used: 1
  6931 ;; This function calls:
  6932 ;;		Nothing
  6933 ;; This function is called by:
  6934 ;;		_calculate_angle
  6935 ;; This function uses a non-reentrant model
  6936 ;;
  6937                           
  6938                           	psect	text20
  6939   005B28                     __ptext20:
  6940                           	callstack 0
  6941   005B28                     ___xxtofl:
  6942                           	callstack 26
  6943                           
  6944                           ;incstack = 0
  6945                           ;___xxtofl@sign stored from wreg
  6946   005B28  6E09               	movwf	___xxtofl@sign^0,c
  6947   005B2A  5009               	movf	___xxtofl@sign^0,w,c
  6948   005B2C  B4D8               	btfsc	status,2,c
  6949   005B2E  EF9B  F02D         	goto	u3111
  6950   005B32  EF9D  F02D         	goto	u3110
  6951   005B36                     u3111:
  6952   005B36  EFBF  F02D         	goto	l955
  6953   005B3A                     u3110:
  6954   005B3A  BE04               	btfsc	(___xxtofl@val+3)^0,7,c
  6955   005B3C  EFA4  F02D         	goto	u3120
  6956   005B40  EFA2  F02D         	goto	u3121
  6957   005B44                     u3121:
  6958   005B44  EFBF  F02D         	goto	l955
  6959   005B48                     u3120:
  6960   005B48  C001  F005         	movff	___xxtofl@val,??___xxtofl
  6961   005B4C  C002  F006         	movff	___xxtofl@val+1,??___xxtofl+1
  6962   005B50  C003  F007         	movff	___xxtofl@val+2,??___xxtofl+2
  6963   005B54  C004  F008         	movff	___xxtofl@val+3,??___xxtofl+3
  6964   005B58  1E05               	comf	??___xxtofl^0,f,c
  6965   005B5A  1E06               	comf	(??___xxtofl+1)^0,f,c
  6966   005B5C  1E07               	comf	(??___xxtofl+2)^0,f,c
  6967   005B5E  1E08               	comf	(??___xxtofl+3)^0,f,c
  6968   005B60  2A05               	incf	??___xxtofl^0,f,c
  6969   005B62  0E00               	movlw	0
  6970   005B64  2206               	addwfc	(??___xxtofl+1)^0,f,c
  6971   005B66  2207               	addwfc	(??___xxtofl+2)^0,f,c
  6972   005B68  2208               	addwfc	(??___xxtofl+3)^0,f,c
  6973   005B6A  C005  F00B         	movff	??___xxtofl,___xxtofl@arg
  6974   005B6E  C006  F00C         	movff	??___xxtofl+1,___xxtofl@arg+1
  6975   005B72  C007  F00D         	movff	??___xxtofl+2,___xxtofl@arg+2
  6976   005B76  C008  F00E         	movff	??___xxtofl+3,___xxtofl@arg+3
  6977   005B7A  EFC7  F02D         	goto	l3054
  6978   005B7E                     l955:
  6979   005B7E  C001  F00B         	movff	___xxtofl@val,___xxtofl@arg
  6980   005B82  C002  F00C         	movff	___xxtofl@val+1,___xxtofl@arg+1
  6981   005B86  C003  F00D         	movff	___xxtofl@val+2,___xxtofl@arg+2
  6982   005B8A  C004  F00E         	movff	___xxtofl@val+3,___xxtofl@arg+3
  6983   005B8E                     l3054:
  6984   005B8E  5001               	movf	___xxtofl@val^0,w,c
  6985   005B90  1002               	iorwf	(___xxtofl@val+1)^0,w,c
  6986   005B92  1003               	iorwf	(___xxtofl@val+2)^0,w,c
  6987   005B94  1004               	iorwf	(___xxtofl@val+3)^0,w,c
  6988   005B96  A4D8               	btfss	status,2,c
  6989   005B98  EFD0  F02D         	goto	u3131
  6990   005B9C  EFD2  F02D         	goto	u3130
  6991   005BA0                     u3131:
  6992   005BA0  EFDC  F02D         	goto	l3060
  6993   005BA4                     u3130:
  6994   005BA4  0E00               	movlw	0
  6995   005BA6  6E01               	movwf	?___xxtofl^0,c
  6996   005BA8  0E00               	movlw	0
  6997   005BAA  6E02               	movwf	(?___xxtofl+1)^0,c
  6998   005BAC  0E00               	movlw	0
  6999   005BAE  6E03               	movwf	(?___xxtofl+2)^0,c
  7000   005BB0  0E00               	movlw	0
  7001   005BB2  6E04               	movwf	(?___xxtofl+3)^0,c
  7002   005BB4  EF6D  F02E         	goto	l958
  7003   005BB8                     l3060:
  7004   005BB8  0E96               	movlw	150
  7005   005BBA  6E0A               	movwf	___xxtofl@exp^0,c
  7006   005BBC  EFE6  F02D         	goto	l3064
  7007   005BC0                     l3062:
  7008   005BC0  2A0A               	incf	___xxtofl@exp^0,f,c
  7009   005BC2  90D8               	bcf	status,0,c
  7010   005BC4  320E               	rrcf	(___xxtofl@arg+3)^0,f,c
  7011   005BC6  320D               	rrcf	(___xxtofl@arg+2)^0,f,c
  7012   005BC8  320C               	rrcf	(___xxtofl@arg+1)^0,f,c
  7013   005BCA  320B               	rrcf	___xxtofl@arg^0,f,c
  7014   005BCC                     l3064:
  7015   005BCC  0E00               	movlw	0
  7016   005BCE  140B               	andwf	___xxtofl@arg^0,w,c
  7017   005BD0  6E05               	movwf	??___xxtofl^0,c
  7018   005BD2  0E00               	movlw	0
  7019   005BD4  140C               	andwf	(___xxtofl@arg+1)^0,w,c
  7020   005BD6  6E06               	movwf	(??___xxtofl+1)^0,c
  7021   005BD8  0E00               	movlw	0
  7022   005BDA  140D               	andwf	(___xxtofl@arg+2)^0,w,c
  7023   005BDC  6E07               	movwf	(??___xxtofl+2)^0,c
  7024   005BDE  0EFE               	movlw	254
  7025   005BE0  140E               	andwf	(___xxtofl@arg+3)^0,w,c
  7026   005BE2  6E08               	movwf	(??___xxtofl+3)^0,c
  7027   005BE4  5005               	movf	??___xxtofl^0,w,c
  7028   005BE6  1006               	iorwf	(??___xxtofl+1)^0,w,c
  7029   005BE8  1007               	iorwf	(??___xxtofl+2)^0,w,c
  7030   005BEA  1008               	iorwf	(??___xxtofl+3)^0,w,c
  7031   005BEC  A4D8               	btfss	status,2,c
  7032   005BEE  EFFB  F02D         	goto	u3141
  7033   005BF2  EFFD  F02D         	goto	u3140
  7034   005BF6                     u3141:
  7035   005BF6  EFE0  F02D         	goto	l3062
  7036   005BFA                     u3140:
  7037   005BFA  EF0B  F02E         	goto	l962
  7038   005BFE                     l3066:
  7039   005BFE  2A0A               	incf	___xxtofl@exp^0,f,c
  7040   005C00  0E01               	movlw	1
  7041   005C02  260B               	addwf	___xxtofl@arg^0,f,c
  7042   005C04  0E00               	movlw	0
  7043   005C06  220C               	addwfc	(___xxtofl@arg+1)^0,f,c
  7044   005C08  220D               	addwfc	(___xxtofl@arg+2)^0,f,c
  7045   005C0A  220E               	addwfc	(___xxtofl@arg+3)^0,f,c
  7046   005C0C  90D8               	bcf	status,0,c
  7047   005C0E  320E               	rrcf	(___xxtofl@arg+3)^0,f,c
  7048   005C10  320D               	rrcf	(___xxtofl@arg+2)^0,f,c
  7049   005C12  320C               	rrcf	(___xxtofl@arg+1)^0,f,c
  7050   005C14  320B               	rrcf	___xxtofl@arg^0,f,c
  7051   005C16                     l962:
  7052   005C16  0E00               	movlw	0
  7053   005C18  140B               	andwf	___xxtofl@arg^0,w,c
  7054   005C1A  6E05               	movwf	??___xxtofl^0,c
  7055   005C1C  0E00               	movlw	0
  7056   005C1E  140C               	andwf	(___xxtofl@arg+1)^0,w,c
  7057   005C20  6E06               	movwf	(??___xxtofl+1)^0,c
  7058   005C22  0E00               	movlw	0
  7059   005C24  140D               	andwf	(___xxtofl@arg+2)^0,w,c
  7060   005C26  6E07               	movwf	(??___xxtofl+2)^0,c
  7061   005C28  0EFF               	movlw	255
  7062   005C2A  140E               	andwf	(___xxtofl@arg+3)^0,w,c
  7063   005C2C  6E08               	movwf	(??___xxtofl+3)^0,c
  7064   005C2E  5005               	movf	??___xxtofl^0,w,c
  7065   005C30  1006               	iorwf	(??___xxtofl+1)^0,w,c
  7066   005C32  1007               	iorwf	(??___xxtofl+2)^0,w,c
  7067   005C34  1008               	iorwf	(??___xxtofl+3)^0,w,c
  7068   005C36  A4D8               	btfss	status,2,c
  7069   005C38  EF20  F02E         	goto	u3151
  7070   005C3C  EF22  F02E         	goto	u3150
  7071   005C40                     u3151:
  7072   005C40  EFFF  F02D         	goto	l3066
  7073   005C44                     u3150:
  7074   005C44  EF2A  F02E         	goto	l3074
  7075   005C48                     l3072:
  7076   005C48  060A               	decf	___xxtofl@exp^0,f,c
  7077   005C4A  90D8               	bcf	status,0,c
  7078   005C4C  360B               	rlcf	___xxtofl@arg^0,f,c
  7079   005C4E  360C               	rlcf	(___xxtofl@arg+1)^0,f,c
  7080   005C50  360D               	rlcf	(___xxtofl@arg+2)^0,f,c
  7081   005C52  360E               	rlcf	(___xxtofl@arg+3)^0,f,c
  7082   005C54                     l3074:
  7083   005C54  BE0D               	btfsc	(___xxtofl@arg+2)^0,7,c
  7084   005C56  EF2F  F02E         	goto	u3161
  7085   005C5A  EF31  F02E         	goto	u3160
  7086   005C5E                     u3161:
  7087   005C5E  EF39  F02E         	goto	l969
  7088   005C62                     u3160:
  7089   005C62  0E02               	movlw	2
  7090   005C64  600A               	cpfslt	___xxtofl@exp^0,c
  7091   005C66  EF37  F02E         	goto	u3171
  7092   005C6A  EF39  F02E         	goto	u3170
  7093   005C6E                     u3171:
  7094   005C6E  EF24  F02E         	goto	l3072
  7095   005C72                     u3170:
  7096   005C72                     l969:
  7097   005C72  B00A               	btfsc	___xxtofl@exp^0,0,c
  7098   005C74  EF3E  F02E         	goto	u3181
  7099   005C78  EF40  F02E         	goto	u3180
  7100   005C7C                     u3181:
  7101   005C7C  EF41  F02E         	goto	l3080
  7102   005C80                     u3180:
  7103   005C80  9E0D               	bcf	(___xxtofl@arg+2)^0,7,c
  7104   005C82                     l3080:
  7105   005C82  90D8               	bcf	status,0,c
  7106   005C84  320A               	rrcf	___xxtofl@exp^0,f,c
  7107   005C86  C00A  F005         	movff	___xxtofl@exp,??___xxtofl
  7108   005C8A  6A06               	clrf	(??___xxtofl+1)^0,c
  7109   005C8C  6A07               	clrf	(??___xxtofl+2)^0,c
  7110   005C8E  6A08               	clrf	(??___xxtofl+3)^0,c
  7111   005C90  C005  F008         	movff	??___xxtofl,??___xxtofl+3
  7112   005C94  6A07               	clrf	(??___xxtofl+2)^0,c
  7113   005C96  6A06               	clrf	(??___xxtofl+1)^0,c
  7114   005C98  6A05               	clrf	??___xxtofl^0,c
  7115   005C9A  5005               	movf	??___xxtofl^0,w,c
  7116   005C9C  120B               	iorwf	___xxtofl@arg^0,f,c
  7117   005C9E  5006               	movf	(??___xxtofl+1)^0,w,c
  7118   005CA0  120C               	iorwf	(___xxtofl@arg+1)^0,f,c
  7119   005CA2  5007               	movf	(??___xxtofl+2)^0,w,c
  7120   005CA4  120D               	iorwf	(___xxtofl@arg+2)^0,f,c
  7121   005CA6  5008               	movf	(??___xxtofl+3)^0,w,c
  7122   005CA8  120E               	iorwf	(___xxtofl@arg+3)^0,f,c
  7123   005CAA  5009               	movf	___xxtofl@sign^0,w,c
  7124   005CAC  B4D8               	btfsc	status,2,c
  7125   005CAE  EF5B  F02E         	goto	u3191
  7126   005CB2  EF5D  F02E         	goto	u3190
  7127   005CB6                     u3191:
  7128   005CB6  EF65  F02E         	goto	l3090
  7129   005CBA                     u3190:
  7130   005CBA  BE04               	btfsc	(___xxtofl@val+3)^0,7,c
  7131   005CBC  EF64  F02E         	goto	u3200
  7132   005CC0  EF62  F02E         	goto	u3201
  7133   005CC4                     u3201:
  7134   005CC4  EF65  F02E         	goto	l3090
  7135   005CC8                     u3200:
  7136   005CC8  8E0E               	bsf	(___xxtofl@arg+3)^0,7,c
  7137   005CCA                     l3090:
  7138   005CCA  C00B  F001         	movff	___xxtofl@arg,?___xxtofl
  7139   005CCE  C00C  F002         	movff	___xxtofl@arg+1,?___xxtofl+1
  7140   005CD2  C00D  F003         	movff	___xxtofl@arg+2,?___xxtofl+2
  7141   005CD6  C00E  F004         	movff	___xxtofl@arg+3,?___xxtofl+3
  7142   005CDA                     l958:
  7143   005CDA  0012               	return		;funcret
  7144   005CDC                     __end_of___xxtofl:
  7145                           	callstack 0
  7146                           
  7147 ;; *************** function ___flge *****************
  7148 ;; Defined at:
  7149 ;;		line 4 in file "C:\Program Files\Microchip\xc8\v2.50\pic\sources\c99\common\flge.c"
  7150 ;; Parameters:    Size  Location     Type
  7151 ;;  ff1             4    0[COMRAM] unsigned char 
  7152 ;;  ff2             4    4[COMRAM] unsigned char 
  7153 ;; Auto vars:     Size  Location     Type
  7154 ;;		None
  7155 ;; Return value:  Size  Location     Type
  7156 ;;		None               void
  7157 ;; Registers used:
  7158 ;;		wreg, status,2, status,0
  7159 ;; Tracked objects:
  7160 ;;		On entry : 0/0
  7161 ;;		On exit  : 0/0
  7162 ;;		Unchanged: 0/0
  7163 ;; Data sizes:     COMRAM   BANK0   BANK1   BANK2   BANK3   BANK4   BANK5
  7164 ;;      Params:         8       0       0       0       0       0       0
  7165 ;;      Locals:         0       0       0       0       0       0       0
  7166 ;;      Temps:          4       0       0       0       0       0       0
  7167 ;;      Totals:        12       0       0       0       0       0       0
  7168 ;;Total ram usage:       12 bytes
  7169 ;; Hardware stack levels used: 1
  7170 ;; This function calls:
  7171 ;;		Nothing
  7172 ;; This function is called by:
  7173 ;;		_Check_Gyroscope
  7174 ;; This function uses a non-reentrant model
  7175 ;;
  7176                           
  7177                           	psect	text21
  7178   00588E                     __ptext21:
  7179                           	callstack 0
  7180   00588E                     ___flge:
  7181                           	callstack 29
  7182   00588E  0E00               	movlw	0
  7183   005890  1401               	andwf	___flge@ff1^0,w,c
  7184   005892  6E09               	movwf	??___flge^0,c
  7185   005894  0E00               	movlw	0
  7186   005896  1402               	andwf	(___flge@ff1+1)^0,w,c
  7187   005898  6E0A               	movwf	(??___flge+1)^0,c
  7188   00589A  0E80               	movlw	128
  7189   00589C  1403               	andwf	(___flge@ff1+2)^0,w,c
  7190   00589E  6E0B               	movwf	(??___flge+2)^0,c
  7191   0058A0  0E7F               	movlw	127
  7192   0058A2  1404               	andwf	(___flge@ff1+3)^0,w,c
  7193   0058A4  6E0C               	movwf	(??___flge+3)^0,c
  7194   0058A6  5009               	movf	??___flge^0,w,c
  7195   0058A8  100A               	iorwf	(??___flge+1)^0,w,c
  7196   0058AA  100B               	iorwf	(??___flge+2)^0,w,c
  7197   0058AC  100C               	iorwf	(??___flge+3)^0,w,c
  7198   0058AE  A4D8               	btfss	status,2,c
  7199   0058B0  EF5C  F02C         	goto	u3321
  7200   0058B4  EF5E  F02C         	goto	u3320
  7201   0058B8                     u3321:
  7202   0058B8  EF66  F02C         	goto	l3218
  7203   0058BC                     u3320:
  7204   0058BC  0E00               	movlw	0
  7205   0058BE  6E01               	movwf	___flge@ff1^0,c
  7206   0058C0  0E00               	movlw	0
  7207   0058C2  6E02               	movwf	(___flge@ff1+1)^0,c
  7208   0058C4  0E00               	movlw	0
  7209   0058C6  6E03               	movwf	(___flge@ff1+2)^0,c
  7210   0058C8  0E00               	movlw	0
  7211   0058CA  6E04               	movwf	(___flge@ff1+3)^0,c
  7212   0058CC                     l3218:
  7213   0058CC  0E00               	movlw	0
  7214   0058CE  1405               	andwf	___flge@ff2^0,w,c
  7215   0058D0  6E09               	movwf	??___flge^0,c
  7216   0058D2  0E00               	movlw	0
  7217   0058D4  1406               	andwf	(___flge@ff2+1)^0,w,c
  7218   0058D6  6E0A               	movwf	(??___flge+1)^0,c
  7219   0058D8  0E80               	movlw	128
  7220   0058DA  1407               	andwf	(___flge@ff2+2)^0,w,c
  7221   0058DC  6E0B               	movwf	(??___flge+2)^0,c
  7222   0058DE  0E7F               	movlw	127
  7223   0058E0  1408               	andwf	(___flge@ff2+3)^0,w,c
  7224   0058E2  6E0C               	movwf	(??___flge+3)^0,c
  7225   0058E4  5009               	movf	??___flge^0,w,c
  7226   0058E6  100A               	iorwf	(??___flge+1)^0,w,c
  7227   0058E8  100B               	iorwf	(??___flge+2)^0,w,c
  7228   0058EA  100C               	iorwf	(??___flge+3)^0,w,c
  7229   0058EC  A4D8               	btfss	status,2,c
  7230   0058EE  EF7B  F02C         	goto	u3331
  7231   0058F2  EF7D  F02C         	goto	u3330
  7232   0058F6                     u3331:
  7233   0058F6  EF85  F02C         	goto	l3222
  7234   0058FA                     u3330:
  7235   0058FA  0E00               	movlw	0
  7236   0058FC  6E05               	movwf	___flge@ff2^0,c
  7237   0058FE  0E00               	movlw	0
  7238   005900  6E06               	movwf	(___flge@ff2+1)^0,c
  7239   005902  0E00               	movlw	0
  7240   005904  6E07               	movwf	(___flge@ff2+2)^0,c
  7241   005906  0E00               	movlw	0
  7242   005908  6E08               	movwf	(___flge@ff2+3)^0,c
  7243   00590A                     l3222:
  7244   00590A  AE04               	btfss	(___flge@ff1+3)^0,7,c
  7245   00590C  EF8A  F02C         	goto	u3341
  7246   005910  EF8C  F02C         	goto	u3340
  7247   005914                     u3341:
  7248   005914  EF95  F02C         	goto	l3226
  7249   005918                     u3340:
  7250   005918  6C01               	negf	___flge@ff1^0,c
  7251   00591A  1E02               	comf	(___flge@ff1+1)^0,f,c
  7252   00591C  B0D8               	btfsc	status,0,c
  7253   00591E  2A02               	incf	(___flge@ff1+1)^0,f,c
  7254   005920  1E03               	comf	(___flge@ff1+2)^0,f,c
  7255   005922  B0D8               	btfsc	status,0,c
  7256   005924  2A03               	incf	(___flge@ff1+2)^0,f,c
  7257   005926  0E80               	movlw	128
  7258   005928  5604               	subfwb	(___flge@ff1+3)^0,f,c
  7259   00592A                     l3226:
  7260   00592A  AE08               	btfss	(___flge@ff2+3)^0,7,c
  7261   00592C  EF9A  F02C         	goto	u3351
  7262   005930  EF9C  F02C         	goto	u3350
  7263   005934                     u3351:
  7264   005934  EFA5  F02C         	goto	l565
  7265   005938                     u3350:
  7266   005938  6C05               	negf	___flge@ff2^0,c
  7267   00593A  1E06               	comf	(___flge@ff2+1)^0,f,c
  7268   00593C  B0D8               	btfsc	status,0,c
  7269   00593E  2A06               	incf	(___flge@ff2+1)^0,f,c
  7270   005940  1E07               	comf	(___flge@ff2+2)^0,f,c
  7271   005942  B0D8               	btfsc	status,0,c
  7272   005944  2A07               	incf	(___flge@ff2+2)^0,f,c
  7273   005946  0E80               	movlw	128
  7274   005948  5608               	subfwb	(___flge@ff2+3)^0,f,c
  7275   00594A                     l565:
  7276   00594A  0E00               	movlw	0
  7277   00594C  1A01               	xorwf	___flge@ff1^0,f,c
  7278   00594E  0E00               	movlw	0
  7279   005950  1A02               	xorwf	(___flge@ff1+1)^0,f,c
  7280   005952  0E00               	movlw	0
  7281   005954  1A03               	xorwf	(___flge@ff1+2)^0,f,c
  7282   005956  0E80               	movlw	128
  7283   005958  1A04               	xorwf	(___flge@ff1+3)^0,f,c
  7284   00595A  0E00               	movlw	0
  7285   00595C  1A05               	xorwf	___flge@ff2^0,f,c
  7286   00595E  0E00               	movlw	0
  7287   005960  1A06               	xorwf	(___flge@ff2+1)^0,f,c
  7288   005962  0E00               	movlw	0
  7289   005964  1A07               	xorwf	(___flge@ff2+2)^0,f,c
  7290   005966  0E80               	movlw	128
  7291   005968  1A08               	xorwf	(___flge@ff2+3)^0,f,c
  7292   00596A  5005               	movf	___flge@ff2^0,w,c
  7293   00596C  5C01               	subwf	___flge@ff1^0,w,c
  7294   00596E  5006               	movf	(___flge@ff2+1)^0,w,c
  7295   005970  5802               	subwfb	(___flge@ff1+1)^0,w,c
  7296   005972  5007               	movf	(___flge@ff2+2)^0,w,c
  7297   005974  5803               	subwfb	(___flge@ff1+2)^0,w,c
  7298   005976  5008               	movf	(___flge@ff2+3)^0,w,c
  7299   005978  5804               	subwfb	(___flge@ff1+3)^0,w,c
  7300   00597A  B0D8               	btfsc	status,0,c
  7301   00597C  EFC2  F02C         	goto	u3361
  7302   005980  EFC4  F02C         	goto	u3360
  7303   005984                     u3361:
  7304   005984  EFC7  F02C         	goto	l3232
  7305   005988                     u3360:
  7306   005988  90D8               	bcf	status,0,c
  7307   00598A  EFC8  F02C         	goto	l570
  7308   00598E                     l3232:
  7309   00598E  80D8               	bsf	status,0,c
  7310   005990                     l570:
  7311   005990  0012               	return		;funcret
  7312   005992                     __end_of___flge:
  7313                           	callstack 0
  7314                           
  7315 ;; *************** function _UART_Write_Text *****************
  7316 ;; Defined at:
  7317 ;;		line 51 in file "setting_hardaware/uart.c"
  7318 ;; Parameters:    Size  Location     Type
  7319 ;;  text            2    1[COMRAM] PTR unsigned char 
  7320 ;;		 -> STR_3(6), STR_2(5), STR_1(3), 
  7321 ;; Auto vars:     Size  Location     Type
  7322 ;;  i               2    5[COMRAM] int 
  7323 ;; Return value:  Size  Location     Type
  7324 ;;                  1    wreg      void 
  7325 ;; Registers used:
  7326 ;;		wreg, status,2, status,0, tblptrl, tblptrh, tblptru, cstack
  7327 ;; Tracked objects:
  7328 ;;		On entry : 0/0
  7329 ;;		On exit  : 0/0
  7330 ;;		Unchanged: 0/0
  7331 ;; Data sizes:     COMRAM   BANK0   BANK1   BANK2   BANK3   BANK4   BANK5
  7332 ;;      Params:         2       0       0       0       0       0       0
  7333 ;;      Locals:         2       0       0       0       0       0       0
  7334 ;;      Temps:          2       0       0       0       0       0       0
  7335 ;;      Totals:         6       0       0       0       0       0       0
  7336 ;;Total ram usage:        6 bytes
  7337 ;; Hardware stack levels used: 1
  7338 ;; Hardware stack levels required when called: 1
  7339 ;; This function calls:
  7340 ;;		_UART_Write
  7341 ;; This function is called by:
  7342 ;;		_Check_Gyroscope
  7343 ;;		_MyusartRead
  7344 ;; This function uses a non-reentrant model
  7345 ;;
  7346                           
  7347                           	psect	text22
  7348   0055BC                     __ptext22:
  7349                           	callstack 0
  7350   0055BC                     _UART_Write_Text:
  7351                           	callstack 28
  7352   0055BC                     
  7353                           ;setting_hardaware/uart.c: 52:     for(int i=0;text[i]!='\0';i++)
  7354   0055BC  0E00               	movlw	0
  7355   0055BE  6E07               	movwf	(UART_Write_Text@i+1)^0,c
  7356   0055C0  0E00               	movlw	0
  7357   0055C2  6E06               	movwf	UART_Write_Text@i^0,c
  7358   0055C4  EFF4  F02A         	goto	l3212
  7359   0055C8                     l3208:
  7360                           
  7361                           ;setting_hardaware/uart.c: 53:         UART_Write(text[i]);
  7362   0055C8  5006               	movf	UART_Write_Text@i^0,w,c
  7363   0055CA  2402               	addwf	UART_Write_Text@text^0,w,c
  7364   0055CC  6E04               	movwf	??_UART_Write_Text^0,c
  7365   0055CE  5007               	movf	(UART_Write_Text@i+1)^0,w,c
  7366   0055D0  2003               	addwfc	(UART_Write_Text@text+1)^0,w,c
  7367   0055D2  6E05               	movwf	(??_UART_Write_Text+1)^0,c
  7368   0055D4  C004  FFF6         	movff	??_UART_Write_Text,tblptrl
  7369   0055D8  C005  FFF7         	movff	??_UART_Write_Text+1,tblptrh
  7370   0055DC                     	if	0	;tblptru may be non-zero
  7371   0055DC                     	endif
  7372   0055DC                     	if	0	;tblptru may be non-zero
  7373   0055DC                     	endif
  7374   0055DC  0008               	tblrd		*
  7375   0055DE  50F5               	movf	tablat,w,c
  7376   0055E0  ECC7  F029         	call	_UART_Write
  7377   0055E4  4A06               	infsnz	UART_Write_Text@i^0,f,c
  7378   0055E6  2A07               	incf	(UART_Write_Text@i+1)^0,f,c
  7379   0055E8                     l3212:
  7380   0055E8  5006               	movf	UART_Write_Text@i^0,w,c
  7381   0055EA  2402               	addwf	UART_Write_Text@text^0,w,c
  7382   0055EC  6E04               	movwf	??_UART_Write_Text^0,c
  7383   0055EE  5007               	movf	(UART_Write_Text@i+1)^0,w,c
  7384   0055F0  2003               	addwfc	(UART_Write_Text@text+1)^0,w,c
  7385   0055F2  6E05               	movwf	(??_UART_Write_Text+1)^0,c
  7386   0055F4  C004  FFF6         	movff	??_UART_Write_Text,tblptrl
  7387   0055F8  C005  FFF7         	movff	??_UART_Write_Text+1,tblptrh
  7388   0055FC                     	if	0	;tblptru may be non-zero
  7389   0055FC                     	endif
  7390   0055FC                     	if	0	;tblptru may be non-zero
  7391   0055FC                     	endif
  7392   0055FC  0008               	tblrd		*
  7393   0055FE  50F5               	movf	tablat,w,c
  7394   005600  0900               	iorlw	0
  7395   005602  A4D8               	btfss	status,2,c
  7396   005604  EF06  F02B         	goto	u3311
  7397   005608  EF08  F02B         	goto	u3310
  7398   00560C                     u3311:
  7399   00560C  EFE4  F02A         	goto	l3208
  7400   005610                     u3310:
  7401   005610  0012               	return		;funcret
  7402   005612                     __end_of_UART_Write_Text:
  7403                           	callstack 0
  7404                           
  7405 ;; *************** function _UART_Write *****************
  7406 ;; Defined at:
  7407 ;;		line 44 in file "setting_hardaware/uart.c"
  7408 ;; Parameters:    Size  Location     Type
  7409 ;;  data            1    wreg     unsigned char 
  7410 ;; Auto vars:     Size  Location     Type
  7411 ;;  data            1    0[COMRAM] unsigned char 
  7412 ;; Return value:  Size  Location     Type
  7413 ;;                  1    wreg      void 
  7414 ;; Registers used:
  7415 ;;		wreg
  7416 ;; Tracked objects:
  7417 ;;		On entry : 0/0
  7418 ;;		On exit  : 0/0
  7419 ;;		Unchanged: 0/0
  7420 ;; Data sizes:     COMRAM   BANK0   BANK1   BANK2   BANK3   BANK4   BANK5
  7421 ;;      Params:         0       0       0       0       0       0       0
  7422 ;;      Locals:         1       0       0       0       0       0       0
  7423 ;;      Temps:          0       0       0       0       0       0       0
  7424 ;;      Totals:         1       0       0       0       0       0       0
  7425 ;;Total ram usage:        1 bytes
  7426 ;; Hardware stack levels used: 1
  7427 ;; This function calls:
  7428 ;;		Nothing
  7429 ;; This function is called by:
  7430 ;;		_UART_Write_Text
  7431 ;;		_MyusartRead
  7432 ;; This function uses a non-reentrant model
  7433 ;;
  7434                           
  7435                           	psect	text23
  7436   00538E                     __ptext23:
  7437                           	callstack 0
  7438   00538E                     _UART_Write:
  7439                           	callstack 28
  7440                           
  7441                           ;incstack = 0
  7442                           ;UART_Write@data stored from wreg
  7443   00538E  6E01               	movwf	UART_Write@data^0,c
  7444   005390                     l114:
  7445   005390  A2AC               	btfss	172,1,c	;volatile
  7446   005392  EFCD  F029         	goto	u3291
  7447   005396  EFCF  F029         	goto	u3290
  7448   00539A                     u3291:
  7449   00539A  EFC8  F029         	goto	l114
  7450   00539E                     u3290:
  7451   00539E                     
  7452                           ;setting_hardaware/uart.c: 47:     TXREG = data;
  7453   00539E  C001  FFAD         	movff	UART_Write@data,4013	;volatile
  7454   0053A2  0012               	return		;funcret
  7455   0053A4                     __end_of_UART_Write:
  7456                           	callstack 0
  7457                           
  7458 ;; *************** function _I2C_Write *****************
  7459 ;; Defined at:
  7460 ;;		line 126 in file "setting_hardaware/gyroscope.c"
  7461 ;; Parameters:    Size  Location     Type
  7462 ;;  data            1    wreg     unsigned char 
  7463 ;; Auto vars:     Size  Location     Type
  7464 ;;  data            1    0[COMRAM] unsigned char 
  7465 ;; Return value:  Size  Location     Type
  7466 ;;                  1    wreg      void 
  7467 ;; Registers used:
  7468 ;;		wreg
  7469 ;; Tracked objects:
  7470 ;;		On entry : 0/0
  7471 ;;		On exit  : 0/0
  7472 ;;		Unchanged: 0/0
  7473 ;; Data sizes:     COMRAM   BANK0   BANK1   BANK2   BANK3   BANK4   BANK5
  7474 ;;      Params:         0       0       0       0       0       0       0
  7475 ;;      Locals:         1       0       0       0       0       0       0
  7476 ;;      Temps:          0       0       0       0       0       0       0
  7477 ;;      Totals:         1       0       0       0       0       0       0
  7478 ;;Total ram usage:        1 bytes
  7479 ;; Hardware stack levels used: 1
  7480 ;; This function calls:
  7481 ;;		Nothing
  7482 ;; This function is called by:
  7483 ;;		_Gyroscope_Initialize
  7484 ;;		_Check_Gyroscope
  7485 ;;		_Calibration
  7486 ;; This function uses a non-reentrant model
  7487 ;;
  7488                           
  7489                           	psect	text24
  7490   0053FC                     __ptext24:
  7491                           	callstack 0
  7492   0053FC                     _I2C_Write:
  7493                           	callstack 28
  7494                           
  7495                           ;incstack = 0
  7496                           ;I2C_Write@data stored from wreg
  7497   0053FC  6E01               	movwf	I2C_Write@data^0,c
  7498   0053FE                     
  7499                           ;setting_hardaware/gyroscope.c: 127:     SSPBUF = data;
  7500   0053FE  C001  FFC9         	movff	I2C_Write@data,4041	;volatile
  7501   005402                     l279:
  7502   005402  B0C7               	btfsc	4039,0,c	;volatile
  7503   005404  EF06  F02A         	goto	u3221
  7504   005408  EF08  F02A         	goto	u3220
  7505   00540C                     u3221:
  7506   00540C  EF01  F02A         	goto	l279
  7507   005410                     u3220:
  7508   005410                     l282:
  7509   005410  BCC5               	btfsc	197,6,c	;volatile
  7510   005412  EF0D  F02A         	goto	u3231
  7511   005416  EF0F  F02A         	goto	u3230
  7512   00541A                     u3231:
  7513   00541A  EF08  F02A         	goto	l282
  7514   00541E                     u3230:
  7515   00541E  0012               	return		;funcret
  7516   005420                     __end_of_I2C_Write:
  7517                           	callstack 0
  7518                           
  7519 ;; *************** function _I2C_Stop *****************
  7520 ;; Defined at:
  7521 ;;		line 121 in file "setting_hardaware/gyroscope.c"
  7522 ;; Parameters:    Size  Location     Type
  7523 ;;		None
  7524 ;; Auto vars:     Size  Location     Type
  7525 ;;		None
  7526 ;; Return value:  Size  Location     Type
  7527 ;;                  1    wreg      void 
  7528 ;; Registers used:
  7529 ;;		None
  7530 ;; Tracked objects:
  7531 ;;		On entry : 0/0
  7532 ;;		On exit  : 0/0
  7533 ;;		Unchanged: 0/0
  7534 ;; Data sizes:     COMRAM   BANK0   BANK1   BANK2   BANK3   BANK4   BANK5
  7535 ;;      Params:         0       0       0       0       0       0       0
  7536 ;;      Locals:         0       0       0       0       0       0       0
  7537 ;;      Temps:          0       0       0       0       0       0       0
  7538 ;;      Totals:         0       0       0       0       0       0       0
  7539 ;;Total ram usage:        0 bytes
  7540 ;; Hardware stack levels used: 1
  7541 ;; This function calls:
  7542 ;;		Nothing
  7543 ;; This function is called by:
  7544 ;;		_Gyroscope_Initialize
  7545 ;;		_Check_Gyroscope
  7546 ;;		_Calibration
  7547 ;; This function uses a non-reentrant model
  7548 ;;
  7549                           
  7550                           	psect	text25
  7551   00536A                     __ptext25:
  7552                           	callstack 0
  7553   00536A                     _I2C_Stop:
  7554                           	callstack 28
  7555   00536A                     
  7556                           ;setting_hardaware/gyroscope.c: 122:     PEN = 1;
  7557   00536A  84C5               	bsf	4037,2,c	;volatile
  7558   00536C                     l273:
  7559   00536C  B4C5               	btfsc	4037,2,c	;volatile
  7560   00536E  EFBB  F029         	goto	u3241
  7561   005372  EFBD  F029         	goto	u3240
  7562   005376                     u3241:
  7563   005376  EFB6  F029         	goto	l273
  7564   00537A                     u3240:
  7565   00537A  0012               	return		;funcret
  7566   00537C                     __end_of_I2C_Stop:
  7567                           	callstack 0
  7568                           
  7569 ;; *************** function _I2C_Start *****************
  7570 ;; Defined at:
  7571 ;;		line 115 in file "setting_hardaware/gyroscope.c"
  7572 ;; Parameters:    Size  Location     Type
  7573 ;;		None
  7574 ;; Auto vars:     Size  Location     Type
  7575 ;;		None
  7576 ;; Return value:  Size  Location     Type
  7577 ;;                  1    wreg      void 
  7578 ;; Registers used:
  7579 ;;		None
  7580 ;; Tracked objects:
  7581 ;;		On entry : 0/0
  7582 ;;		On exit  : 0/0
  7583 ;;		Unchanged: 0/0
  7584 ;; Data sizes:     COMRAM   BANK0   BANK1   BANK2   BANK3   BANK4   BANK5
  7585 ;;      Params:         0       0       0       0       0       0       0
  7586 ;;      Locals:         0       0       0       0       0       0       0
  7587 ;;      Temps:          0       0       0       0       0       0       0
  7588 ;;      Totals:         0       0       0       0       0       0       0
  7589 ;;Total ram usage:        0 bytes
  7590 ;; Hardware stack levels used: 1
  7591 ;; This function calls:
  7592 ;;		Nothing
  7593 ;; This function is called by:
  7594 ;;		_Gyroscope_Initialize
  7595 ;;		_Check_Gyroscope
  7596 ;;		_Calibration
  7597 ;; This function uses a non-reentrant model
  7598 ;;
  7599                           
  7600                           	psect	text26
  7601   005358                     __ptext26:
  7602                           	callstack 0
  7603   005358                     _I2C_Start:
  7604                           	callstack 28
  7605   005358                     
  7606                           ;setting_hardaware/gyroscope.c: 116:     SEN = 1;
  7607   005358  80C5               	bsf	4037,0,c	;volatile
  7608   00535A                     l267:
  7609   00535A  B0C5               	btfsc	4037,0,c	;volatile
  7610   00535C  EFB2  F029         	goto	u3211
  7611   005360  EFB4  F029         	goto	u3210
  7612   005364                     u3211:
  7613   005364  EFAD  F029         	goto	l267
  7614   005368                     u3210:
  7615   005368  0012               	return		;funcret
  7616   00536A                     __end_of_I2C_Start:
  7617                           	callstack 0
  7618                           
  7619 ;; *************** function _I2C_Read *****************
  7620 ;; Defined at:
  7621 ;;		line 133 in file "setting_hardaware/gyroscope.c"
  7622 ;; Parameters:    Size  Location     Type
  7623 ;;  ack             1    wreg     unsigned char 
  7624 ;; Auto vars:     Size  Location     Type
  7625 ;;  ack             1    0[COMRAM] unsigned char 
  7626 ;;  data            1    1[COMRAM] unsigned char 
  7627 ;; Return value:  Size  Location     Type
  7628 ;;                  1    wreg      unsigned char 
  7629 ;; Registers used:
  7630 ;;		wreg, status,2
  7631 ;; Tracked objects:
  7632 ;;		On entry : 0/0
  7633 ;;		On exit  : 0/0
  7634 ;;		Unchanged: 0/0
  7635 ;; Data sizes:     COMRAM   BANK0   BANK1   BANK2   BANK3   BANK4   BANK5
  7636 ;;      Params:         0       0       0       0       0       0       0
  7637 ;;      Locals:         2       0       0       0       0       0       0
  7638 ;;      Temps:          0       0       0       0       0       0       0
  7639 ;;      Totals:         2       0       0       0       0       0       0
  7640 ;;Total ram usage:        2 bytes
  7641 ;; Hardware stack levels used: 1
  7642 ;; This function calls:
  7643 ;;		Nothing
  7644 ;; This function is called by:
  7645 ;;		_Check_Gyroscope
  7646 ;;		_Calibration
  7647 ;; This function uses a non-reentrant model
  7648 ;;
  7649                           
  7650                           	psect	text27
  7651   0054F8                     __ptext27:
  7652                           	callstack 0
  7653   0054F8                     _I2C_Read:
  7654                           	callstack 27
  7655                           
  7656                           ;incstack = 0
  7657                           ;I2C_Read@ack stored from wreg
  7658   0054F8  6E01               	movwf	I2C_Read@ack^0,c
  7659   0054FA                     
  7660                           ;setting_hardaware/gyroscope.c: 134:     uint8_t data;;setting_hardaware/gyroscope.c: 13
      +                          5:     RCEN = 1;
  7661   0054FA  86C5               	bsf	4037,3,c	;volatile
  7662   0054FC                     l288:
  7663   0054FC  A0C7               	btfss	4039,0,c	;volatile
  7664   0054FE  EF83  F02A         	goto	u3251
  7665   005502  EF85  F02A         	goto	u3250
  7666   005506                     u3251:
  7667   005506  EF7E  F02A         	goto	l288
  7668   00550A                     u3250:
  7669   00550A                     
  7670                           ;setting_hardaware/gyroscope.c: 137:     data = SSPBUF;
  7671   00550A  CFC9 F002          	movff	4041,I2C_Read@data	;volatile
  7672   00550E                     
  7673                           ;setting_hardaware/gyroscope.c: 140:     ACKDT = ack ? 0 : 1;
  7674   00550E  5001               	movf	I2C_Read@ack^0,w,c
  7675   005510  B4D8               	btfsc	status,2,c
  7676   005512  EF8D  F02A         	goto	u3261
  7677   005516  EF90  F02A         	goto	u3260
  7678   00551A                     u3261:
  7679   00551A  8AC5               	bsf	4037,5,c	;volatile
  7680   00551C  EF91  F02A         	goto	u3275
  7681   005520                     u3260:
  7682   005520  9AC5               	bcf	4037,5,c	;volatile
  7683   005522                     u3275:
  7684   005522                     
  7685                           ;setting_hardaware/gyroscope.c: 141:     ACKEN = 1;
  7686   005522  88C5               	bsf	4037,4,c	;volatile
  7687   005524                     l291:
  7688   005524  B8C5               	btfsc	4037,4,c	;volatile
  7689   005526  EF97  F02A         	goto	u3281
  7690   00552A  EF99  F02A         	goto	u3280
  7691   00552E                     u3281:
  7692   00552E  EF92  F02A         	goto	l291
  7693   005532                     u3280:
  7694   005532                     
  7695                           ;setting_hardaware/gyroscope.c: 143:     return data;
  7696   005532  5002               	movf	I2C_Read@data^0,w,c
  7697   005534  0012               	return		;funcret
  7698   005536                     __end_of_I2C_Read:
  7699                           	callstack 0
  7700                           
  7701 ;; *************** function _Check_ADC *****************
  7702 ;; Defined at:
  7703 ;;		line 36 in file "setting_hardaware/adc.c"
  7704 ;; Parameters:    Size  Location     Type
  7705 ;;  prev_sensor_    2    6[COMRAM] int 
  7706 ;; Auto vars:     Size  Location     Type
  7707 ;;  bend_sensor_    2   11[COMRAM] int 
  7708 ;; Return value:  Size  Location     Type
  7709 ;;                  1    wreg      void 
  7710 ;; Registers used:
  7711 ;;		wreg, status,2, status,0, cstack
  7712 ;; Tracked objects:
  7713 ;;		On entry : 0/0
  7714 ;;		On exit  : 0/0
  7715 ;;		Unchanged: 0/0
  7716 ;; Data sizes:     COMRAM   BANK0   BANK1   BANK2   BANK3   BANK4   BANK5
  7717 ;;      Params:         2       0       0       0       0       0       0
  7718 ;;      Locals:         2       0       0       0       0       0       0
  7719 ;;      Temps:          3       0       0       0       0       0       0
  7720 ;;      Totals:         7       0       0       0       0       0       0
  7721 ;;Total ram usage:        7 bytes
  7722 ;; Hardware stack levels used: 1
  7723 ;; Hardware stack levels required when called: 1
  7724 ;; This function calls:
  7725 ;;		_ADC_Read
  7726 ;; This function is called by:
  7727 ;;		_main
  7728 ;; This function uses a non-reentrant model
  7729 ;;
  7730                           
  7731                           	psect	text28
  7732   005612                     __ptext28:
  7733                           	callstack 0
  7734   005612                     _Check_ADC:
  7735                           	callstack 29
  7736   005612                     
  7737                           ;setting_hardaware/adc.c: 38:     int bend_sensor_val=ADC_Read(bend_sensor_val);
  7738   005612  C00C  F001         	movff	Check_ADC@bend_sensor_val,ADC_Read@channel
  7739   005616  C00D  F002         	movff	Check_ADC@bend_sensor_val+1,ADC_Read@channel+1
  7740   00561A  EC10  F02A         	call	_ADC_Read	;wreg free
  7741   00561E  C001  F00C         	movff	?_ADC_Read,Check_ADC@bend_sensor_val
  7742   005622  C002  F00D         	movff	?_ADC_Read+1,Check_ADC@bend_sensor_val+1
  7743   005626                     
  7744                           ;setting_hardaware/adc.c: 40:     if(prev_sensor_val<bend_sensor_val-5 || prev_sensor_va
      +                          l>bend_sensor_val+5)
  7745   005626  0EFB               	movlw	251
  7746   005628  240C               	addwf	Check_ADC@bend_sensor_val^0,w,c
  7747   00562A  6E09               	movwf	??_Check_ADC^0,c
  7748   00562C  0EFF               	movlw	255
  7749   00562E  200D               	addwfc	(Check_ADC@bend_sensor_val+1)^0,w,c
  7750   005630  6E0A               	movwf	(??_Check_ADC+1)^0,c
  7751   005632  5009               	movf	??_Check_ADC^0,w,c
  7752   005634  5C07               	subwf	Check_ADC@prev_sensor_val^0,w,c
  7753   005636  5008               	movf	(Check_ADC@prev_sensor_val+1)^0,w,c
  7754   005638  0A80               	xorlw	128
  7755   00563A  6E0B               	movwf	(??_Check_ADC+2)^0,c
  7756   00563C  500A               	movf	(??_Check_ADC+1)^0,w,c
  7757   00563E  0A80               	xorlw	128
  7758   005640  580B               	subwfb	(??_Check_ADC+2)^0,w,c
  7759   005642  A0D8               	btfss	status,0,c
  7760   005644  EF26  F02B         	goto	u3371
  7761   005648  EF28  F02B         	goto	u3370
  7762   00564C                     u3371:
  7763   00564C  EF3D  F02B         	goto	l30
  7764   005650                     u3370:
  7765   005650  0E05               	movlw	5
  7766   005652  240C               	addwf	Check_ADC@bend_sensor_val^0,w,c
  7767   005654  6E09               	movwf	??_Check_ADC^0,c
  7768   005656  0E00               	movlw	0
  7769   005658  200D               	addwfc	(Check_ADC@bend_sensor_val+1)^0,w,c
  7770   00565A  6E0A               	movwf	(??_Check_ADC+1)^0,c
  7771   00565C  5007               	movf	Check_ADC@prev_sensor_val^0,w,c
  7772   00565E  5C09               	subwf	??_Check_ADC^0,w,c
  7773   005660  500A               	movf	(??_Check_ADC+1)^0,w,c
  7774   005662  0A80               	xorlw	128
  7775   005664  6E0B               	movwf	(??_Check_ADC+2)^0,c
  7776   005666  5008               	movf	(Check_ADC@prev_sensor_val+1)^0,w,c
  7777   005668  0A80               	xorlw	128
  7778   00566A  580B               	subwfb	(??_Check_ADC+2)^0,w,c
  7779   00566C  B0D8               	btfsc	status,0,c
  7780   00566E  EF3B  F02B         	goto	u3381
  7781   005672  EF3D  F02B         	goto	u3380
  7782   005676                     u3381:
  7783   005676  EF41  F02B         	goto	l3242
  7784   00567A                     u3380:
  7785   00567A                     l30:
  7786                           
  7787                           ;setting_hardaware/adc.c: 41:     {;setting_hardaware/adc.c: 42:         prev_sensor_val
      +                          =bend_sensor_val;
  7788   00567A  C00C  F007         	movff	Check_ADC@bend_sensor_val,Check_ADC@prev_sensor_val
  7789   00567E  C00D  F008         	movff	Check_ADC@bend_sensor_val+1,Check_ADC@prev_sensor_val+1
  7790   005682                     l3242:
  7791                           
  7792                           ;setting_hardaware/adc.c: 45:     if(prev_sensor_val<=0x0130)
  7793   005682  BE08               	btfsc	(Check_ADC@prev_sensor_val+1)^0,7,c
  7794   005684  EF4F  F02B         	goto	u3390
  7795   005688  0E31               	movlw	49
  7796   00568A  5C07               	subwf	Check_ADC@prev_sensor_val^0,w,c
  7797   00568C  0E01               	movlw	1
  7798   00568E  5808               	subwfb	(Check_ADC@prev_sensor_val+1)^0,w,c
  7799   005690  B0D8               	btfsc	status,0,c
  7800   005692  EF4D  F02B         	goto	u3391
  7801   005696  EF4F  F02B         	goto	u3390
  7802   00569A                     u3391:
  7803   00569A  EF52  F02B         	goto	l3246
  7804   00569E                     u3390:
  7805   00569E                     
  7806                           ;setting_hardaware/adc.c: 46:     {;setting_hardaware/adc.c: 47:         LATAbits.LATA7 
      +                          = 1;;
  7807   00569E  8E89               	bsf	137,7,c	;volatile
  7808                           
  7809                           ;setting_hardaware/adc.c: 48:     }
  7810   0056A0  EF61  F02B         	goto	l34
  7811   0056A4                     l3246:
  7812   0056A4  BE08               	btfsc	(Check_ADC@prev_sensor_val+1)^0,7,c
  7813   0056A6  EF5E  F02B         	goto	u3401
  7814   0056AA  0E70               	movlw	112
  7815   0056AC  5C07               	subwf	Check_ADC@prev_sensor_val^0,w,c
  7816   0056AE  0E01               	movlw	1
  7817   0056B0  5808               	subwfb	(Check_ADC@prev_sensor_val+1)^0,w,c
  7818   0056B2  A0D8               	btfss	status,0,c
  7819   0056B4  EF5E  F02B         	goto	u3401
  7820   0056B8  EF60  F02B         	goto	u3400
  7821   0056BC                     u3401:
  7822   0056BC  EF61  F02B         	goto	l34
  7823   0056C0                     u3400:
  7824   0056C0                     
  7825                           ;setting_hardaware/adc.c: 50:     {;setting_hardaware/adc.c: 51:         LATAbits.LATA7 
      +                          = 0;;
  7826   0056C0  9E89               	bcf	137,7,c	;volatile
  7827   0056C2                     l34:
  7828   0056C2  0012               	return		;funcret
  7829   0056C4                     __end_of_Check_ADC:
  7830                           	callstack 0
  7831                           
  7832 ;; *************** function _ADC_Read *****************
  7833 ;; Defined at:
  7834 ;;		line 22 in file "setting_hardaware/adc.c"
  7835 ;; Parameters:    Size  Location     Type
  7836 ;;  channel         2    0[COMRAM] int 
  7837 ;; Auto vars:     Size  Location     Type
  7838 ;;  digital         2    4[COMRAM] int 
  7839 ;; Return value:  Size  Location     Type
  7840 ;;                  2    0[COMRAM] int 
  7841 ;; Registers used:
  7842 ;;		wreg, status,2, status,0
  7843 ;; Tracked objects:
  7844 ;;		On entry : 0/0
  7845 ;;		On exit  : 0/0
  7846 ;;		Unchanged: 0/0
  7847 ;; Data sizes:     COMRAM   BANK0   BANK1   BANK2   BANK3   BANK4   BANK5
  7848 ;;      Params:         2       0       0       0       0       0       0
  7849 ;;      Locals:         2       0       0       0       0       0       0
  7850 ;;      Temps:          2       0       0       0       0       0       0
  7851 ;;      Totals:         6       0       0       0       0       0       0
  7852 ;;Total ram usage:        6 bytes
  7853 ;; Hardware stack levels used: 1
  7854 ;; This function calls:
  7855 ;;		Nothing
  7856 ;; This function is called by:
  7857 ;;		_Check_ADC
  7858 ;; This function uses a non-reentrant model
  7859 ;;
  7860                           
  7861                           	psect	text29
  7862   005420                     __ptext29:
  7863                           	callstack 0
  7864   005420                     _ADC_Read:
  7865                           	callstack 29
  7866   005420                     
  7867                           ;setting_hardaware/adc.c: 22: int ADC_Read(int channel);setting_hardaware/adc.c: 23: {;s
      +                          etting_hardaware/adc.c: 24:     int digital;;setting_hardaware/adc.c: 26:     ADCON0bits
      +                          .ADON = 1;
  7868   005420  80C2               	bsf	194,0,c	;volatile
  7869                           
  7870                           ;setting_hardaware/adc.c: 27:     ADCON0bits.GO = 1;
  7871   005422  82C2               	bsf	194,1,c	;volatile
  7872   005424                     l22:
  7873   005424  B2C2               	btfsc	194,1,c	;volatile
  7874   005426  EF17  F02A         	goto	u3301
  7875   00542A  EF19  F02A         	goto	u3300
  7876   00542E                     u3301:
  7877   00542E  EF12  F02A         	goto	l22
  7878   005432                     u3300:
  7879   005432                     
  7880                           ;setting_hardaware/adc.c: 31:     digital = (ADRESH*256) | (ADRESL);
  7881   005432  50C3               	movf	195,w,c	;volatile
  7882   005434  CFC4 F003          	movff	4036,??_ADC_Read	;volatile
  7883   005438  6A04               	clrf	(??_ADC_Read+1)^0,c
  7884   00543A  C003  F004         	movff	??_ADC_Read,??_ADC_Read+1
  7885   00543E  6A03               	clrf	??_ADC_Read^0,c
  7886   005440  1003               	iorwf	??_ADC_Read^0,w,c
  7887   005442  6E05               	movwf	ADC_Read@digital^0,c
  7888   005444  5004               	movf	(??_ADC_Read+1)^0,w,c
  7889   005446  6E06               	movwf	(ADC_Read@digital+1)^0,c
  7890   005448                     
  7891                           ;setting_hardaware/adc.c: 33:     return(digital);
  7892   005448  C005  F001         	movff	ADC_Read@digital,?_ADC_Read
  7893   00544C  C006  F002         	movff	ADC_Read@digital+1,?_ADC_Read+1
  7894   005450  0012               	return		;funcret
  7895   005452                     __end_of_ADC_Read:
  7896                           	callstack 0
  7897                           
  7898                           	psect	rparam
  7899   000001                     ___rparam_used  equ	1
  7900   000000                     ___param_bank   equ	0
  7901   000000                     __Lparam        equ	__Lrparam
  7902   000000                     __Hparam        equ	__Hrparam
  7903                           
  7904                           	psect	idloc
  7905                           
  7906                           ;Config register IDLOC0 @ 0x200000
  7907                           ;	unspecified, using default values
  7908   200000                     	org	2097152
  7909   200000  FF                 	db	255
  7910                           
  7911                           ;Config register IDLOC1 @ 0x200001
  7912                           ;	unspecified, using default values
  7913   200001                     	org	2097153
  7914   200001  FF                 	db	255
  7915                           
  7916                           ;Config register IDLOC2 @ 0x200002
  7917                           ;	unspecified, using default values
  7918   200002                     	org	2097154
  7919   200002  FF                 	db	255
  7920                           
  7921                           ;Config register IDLOC3 @ 0x200003
  7922                           ;	unspecified, using default values
  7923   200003                     	org	2097155
  7924   200003  FF                 	db	255
  7925                           
  7926                           ;Config register IDLOC4 @ 0x200004
  7927                           ;	unspecified, using default values
  7928   200004                     	org	2097156
  7929   200004  FF                 	db	255
  7930                           
  7931                           ;Config register IDLOC5 @ 0x200005
  7932                           ;	unspecified, using default values
  7933   200005                     	org	2097157
  7934   200005  FF                 	db	255
  7935                           
  7936                           ;Config register IDLOC6 @ 0x200006
  7937                           ;	unspecified, using default values
  7938   200006                     	org	2097158
  7939   200006  FF                 	db	255
  7940                           
  7941                           ;Config register IDLOC7 @ 0x200007
  7942                           ;	unspecified, using default values
  7943   200007                     	org	2097159
  7944   200007  FF                 	db	255
  7945                           
  7946                           	psect	config
  7947                           
  7948                           ; Padding undefined space
  7949   300000                     	org	3145728
  7950   300000  FF                 	db	255
  7951                           
  7952                           ;Config register CONFIG1H @ 0x300001
  7953                           ;	Oscillator Selection bits
  7954                           ;	OSC = INTIO67, Internal oscillator block, port function on RA6 and RA7
  7955                           ;	Fail-Safe Clock Monitor Enable bit
  7956                           ;	FCMEN = OFF, Fail-Safe Clock Monitor disabled
  7957                           ;	Internal/External Oscillator Switchover bit
  7958                           ;	IESO = ON, Oscillator Switchover mode enabled
  7959   300001                     	org	3145729
  7960   300001  88                 	db	136
  7961                           
  7962                           ;Config register CONFIG2L @ 0x300002
  7963                           ;	Power-up Timer Enable bit
  7964                           ;	PWRT = OFF, PWRT disabled
  7965                           ;	Brown-out Reset Enable bits
  7966                           ;	BOREN = SBORDIS, Brown-out Reset enabled in hardware only (SBOREN is disabled)
  7967                           ;	Brown Out Reset Voltage bits
  7968                           ;	BORV = 3, Minimum setting
  7969   300002                     	org	3145730
  7970   300002  1F                 	db	31
  7971                           
  7972                           ;Config register CONFIG2H @ 0x300003
  7973                           ;	Watchdog Timer Enable bit
  7974                           ;	WDT = OFF, WDT disabled (control is placed on the SWDTEN bit)
  7975                           ;	Watchdog Timer Postscale Select bits
  7976                           ;	WDTPS = 1, 1:1
  7977   300003                     	org	3145731
  7978   300003  00                 	db	0
  7979                           
  7980                           ; Padding undefined space
  7981   300004                     	org	3145732
  7982   300004  FF                 	db	255
  7983                           
  7984                           ;Config register CONFIG3H @ 0x300005
  7985                           ;	CCP2 MUX bit
  7986                           ;	CCP2MX = PORTC, CCP2 input/output is multiplexed with RC1
  7987                           ;	PORTB A/D Enable bit
  7988                           ;	PBADEN = ON, PORTB<4:0> pins are configured as analog input channels on Reset
  7989                           ;	Low-Power Timer1 Oscillator Enable bit
  7990                           ;	LPT1OSC = OFF, Timer1 configured for higher power operation
  7991                           ;	MCLR Pin Enable bit
  7992                           ;	MCLRE = ON, MCLR pin enabled; RE3 input pin disabled
  7993   300005                     	org	3145733
  7994   300005  83                 	db	131
  7995                           
  7996                           ;Config register CONFIG4L @ 0x300006
  7997                           ;	Stack Full/Underflow Reset Enable bit
  7998                           ;	STVREN = ON, Stack full/underflow will cause Reset
  7999                           ;	Single-Supply ICSP Enable bit
  8000                           ;	LVP = OFF, Single-Supply ICSP disabled
  8001                           ;	Extended Instruction Set Enable bit
  8002                           ;	XINST = OFF, Instruction set extension and Indexed Addressing mode disabled (Legacy mo
      +                          de)
  8003                           ;	Background Debugger Enable bit
  8004                           ;	DEBUG = 0x1, unprogrammed default
  8005   300006                     	org	3145734
  8006   300006  81                 	db	129
  8007                           
  8008                           ; Padding undefined space
  8009   300007                     	org	3145735
  8010   300007  FF                 	db	255
  8011                           
  8012                           ;Config register CONFIG5L @ 0x300008
  8013                           ;	Code Protection bit
  8014                           ;	CP0 = OFF, Block 0 (000800-001FFFh) not code-protected
  8015                           ;	Code Protection bit
  8016                           ;	CP1 = OFF, Block 1 (002000-003FFFh) not code-protected
  8017                           ;	Code Protection bit
  8018                           ;	CP2 = OFF, Block 2 (004000-005FFFh) not code-protected
  8019                           ;	Code Protection bit
  8020                           ;	CP3 = OFF, Block 3 (006000-007FFFh) not code-protected
  8021   300008                     	org	3145736
  8022   300008  0F                 	db	15
  8023                           
  8024                           ;Config register CONFIG5H @ 0x300009
  8025                           ;	Boot Block Code Protection bit
  8026                           ;	CPB = OFF, Boot block (000000-0007FFh) not code-protected
  8027                           ;	Data EEPROM Code Protection bit
  8028                           ;	CPD = OFF, Data EEPROM not code-protected
  8029   300009                     	org	3145737
  8030   300009  C0                 	db	192
  8031                           
  8032                           ;Config register CONFIG6L @ 0x30000A
  8033                           ;	Write Protection bit
  8034                           ;	WRT0 = OFF, Block 0 (000800-001FFFh) not write-protected
  8035                           ;	Write Protection bit
  8036                           ;	WRT1 = OFF, Block 1 (002000-003FFFh) not write-protected
  8037                           ;	Write Protection bit
  8038                           ;	WRT2 = OFF, Block 2 (004000-005FFFh) not write-protected
  8039                           ;	Write Protection bit
  8040                           ;	WRT3 = OFF, Block 3 (006000-007FFFh) not write-protected
  8041   30000A                     	org	3145738
  8042   30000A  0F                 	db	15
  8043                           
  8044                           ;Config register CONFIG6H @ 0x30000B
  8045                           ;	Configuration Register Write Protection bit
  8046                           ;	WRTC = OFF, Configuration registers (300000-3000FFh) not write-protected
  8047                           ;	Boot Block Write Protection bit
  8048                           ;	WRTB = OFF, Boot block (000000-0007FFh) not write-protected
  8049                           ;	Data EEPROM Write Protection bit
  8050                           ;	WRTD = OFF, Data EEPROM not write-protected
  8051   30000B                     	org	3145739
  8052   30000B  E0                 	db	224
  8053                           
  8054                           ;Config register CONFIG7L @ 0x30000C
  8055                           ;	Table Read Protection bit
  8056                           ;	EBTR0 = OFF, Block 0 (000800-001FFFh) not protected from table reads executed in other
      +                           blocks
  8057                           ;	Table Read Protection bit
  8058                           ;	EBTR1 = OFF, Block 1 (002000-003FFFh) not protected from table reads executed in other
      +                           blocks
  8059                           ;	Table Read Protection bit
  8060                           ;	EBTR2 = OFF, Block 2 (004000-005FFFh) not protected from table reads executed in other
      +                           blocks
  8061                           ;	Table Read Protection bit
  8062                           ;	EBTR3 = OFF, Block 3 (006000-007FFFh) not protected from table reads executed in other
      +                           blocks
  8063   30000C                     	org	3145740
  8064   30000C  0F                 	db	15
  8065                           
  8066                           ;Config register CONFIG7H @ 0x30000D
  8067                           ;	Boot Block Table Read Protection bit
  8068                           ;	EBTRB = OFF, Boot block (000000-0007FFh) not protected from table reads executed in ot
      +                          her blocks
  8069   30000D                     	org	3145741
  8070   30000D  40                 	db	64
  8071                           tosu	equ	0xFFF
  8072                           tosh	equ	0xFFE
  8073                           tosl	equ	0xFFD
  8074                           stkptr	equ	0xFFC
  8075                           pclatu	equ	0xFFB
  8076                           pclath	equ	0xFFA
  8077                           pcl	equ	0xFF9
  8078                           tblptru	equ	0xFF8
  8079                           tblptrh	equ	0xFF7
  8080                           tblptrl	equ	0xFF6
  8081                           tablat	equ	0xFF5
  8082                           prodh	equ	0xFF4
  8083                           prodl	equ	0xFF3
  8084                           indf0	equ	0xFEF
  8085                           postinc0	equ	0xFEE
  8086                           postdec0	equ	0xFED
  8087                           preinc0	equ	0xFEC
  8088                           plusw0	equ	0xFEB
  8089                           fsr0h	equ	0xFEA
  8090                           fsr0l	equ	0xFE9
  8091                           wreg	equ	0xFE8
  8092                           indf1	equ	0xFE7
  8093                           postinc1	equ	0xFE6
  8094                           postdec1	equ	0xFE5
  8095                           preinc1	equ	0xFE4
  8096                           plusw1	equ	0xFE3
  8097                           fsr1h	equ	0xFE2
  8098                           fsr1l	equ	0xFE1
  8099                           bsr	equ	0xFE0
  8100                           indf2	equ	0xFDF
  8101                           postinc2	equ	0xFDE
  8102                           postdec2	equ	0xFDD
  8103                           preinc2	equ	0xFDC
  8104                           plusw2	equ	0xFDB
  8105                           fsr2h	equ	0xFDA
  8106                           fsr2l	equ	0xFD9
  8107                           status	equ	0xFD8

Data Sizes:
    Strings     11
    Constant    60
    Data        0
    BSS         84
    Persistent  0
    Stack       0

Auto Spaces:
    Space          Size  Autos    Used
    COMRAM          127    127     127
    BANK0           128    115     127
    BANK1           256      0      72
    BANK2           256      0       0
    BANK3           256      0       0
    BANK4           256      0       0
    BANK5           239      0       0

Pointer List with Targets:

    sp__GetString	PTR unsigned char  size(2) Largest target is 20
		 -> mystring(BANK1[20]), 

    UART_Write_Text@text	PTR unsigned char  size(2) Largest target is 6
		 -> STR_1(CODE[3]), STR_2(CODE[5]), STR_3(CODE[6]), 


Critical Paths under _main in COMRAM

    _main->_Check_Gyroscope
    _Gyroscope_Initialize->_Calibration
    _sqrtf->___fladd
    _atan2f->_fabsf
    _atanf->_fabsf
    _fabsf->___fldiv
    ___flsub->___fladd
    ___fladd->___flmul
    ___flmul->___xxtofl
    ___fldiv->_sqrtf
    _UART_Write_Text->_UART_Write
    _Check_ADC->_ADC_Read

Critical Paths under _main in BANK0

    _SYSTEM_Initialize->_Gyroscope_Initialize
    _Gyroscope_Initialize->_Calibration
    _Calibration->_calculate_angle
    _Check_Gyroscope->_calculate_angle
    _calculate_angle->_atan2f
    _atan2f->_atanf

Critical Paths under _main in BANK1

    None.

Critical Paths under _main in BANK2

    None.

Critical Paths under _main in BANK3

    None.

Critical Paths under _main in BANK4

    None.

Critical Paths under _main in BANK5

    None.

Call Graph Tables:

 ---------------------------------------------------------------------------------
 (Depth) Function   	        Calls       Base Space   Used Autos Params    Refs
 ---------------------------------------------------------------------------------
 (0) _main                                                 5     5      0   43590
                                            110 BANK0      5     5      0
                          _Check_ADC
                    _Check_Gyroscope
                  _SYSTEM_Initialize
 ---------------------------------------------------------------------------------
 (1) _SYSTEM_Initialize                                    0     0      0   20550
                     _ADC_Initialize
               _Gyroscope_Initialize
               _INTERRUPT_Initialize
              _OSCILLATOR_Initialize
 ---------------------------------------------------------------------------------
 (2) _OSCILLATOR_Initialize                                0     0      0       0
 ---------------------------------------------------------------------------------
 (2) _INTERRUPT_Initialize                                 0     0      0       0
 ---------------------------------------------------------------------------------
 (2) _Gyroscope_Initialize                                 1     1      0   20550
                                            109 BANK0      1     1      0
                        _Calibration
                           _I2C_Init
                          _I2C_Start
                           _I2C_Stop
                          _I2C_Write
 ---------------------------------------------------------------------------------
 (3) _I2C_Init                                             0     0      0       0
 ---------------------------------------------------------------------------------
 (3) _Calibration                                         10    10      0   20521
                                            125 COMRAM     2     2      0
                                            101 BANK0      8     8      0
                           _I2C_Read
                          _I2C_Start
                           _I2C_Stop
                          _I2C_Write
                    _calculate_angle
 ---------------------------------------------------------------------------------
 (2) _ADC_Initialize                                       0     0      0       0
 ---------------------------------------------------------------------------------
 (1) _Check_Gyroscope                                      8     6      2   22792
                                            125 COMRAM     2     0      2
                                            101 BANK0      6     6      0
                           _I2C_Read
                          _I2C_Start
                           _I2C_Stop
                          _I2C_Write
                    _UART_Write_Text
                             ___flge
                            ___flsub
                    _calculate_angle
 ---------------------------------------------------------------------------------
 (4) _calculate_angle                                     14     8      6   20302
                                             87 BANK0     14     8      6
                            ___fladd
                            ___fldiv
                            ___flmul
                           ___xxtofl
                             _atan2f
                              _sqrtf
 ---------------------------------------------------------------------------------
 (5) _sqrtf                                               41    37      4     730
                                             55 COMRAM    37    33      4
                            ___fladd (ARG)
                            ___flmul (ARG)
                           ___xxtofl (ARG)
 ---------------------------------------------------------------------------------
 (5) _atan2f                                              41    33      8   14422
                                             46 BANK0     41    33      8
                            ___fladd
                            ___fldiv
                            ___flneg
                            ___flsub
                      ___fpclassifyf
                           ___xxtofl (ARG)
                              _atanf
                              _fabsf
                              _sqrtf (ARG)
 ---------------------------------------------------------------------------------
 (6) _atanf                                               46    42      4    8153
                                              0 BANK0     46    42      4
                            ___fladd
                            ___fldiv
                            ___flmul
                            ___flneg
                            ___flsub
                      ___fpclassifyf
                              _fabsf
 ---------------------------------------------------------------------------------
 (6) _fabsf                                                8     4      4      49
                                            117 COMRAM     8     4      4
                            ___fldiv (ARG)
 ---------------------------------------------------------------------------------
 (7) ___fpclassifyf                                       14    10      4     138
                                              0 COMRAM    14    10      4
 ---------------------------------------------------------------------------------
 (7) ___flsub                                              8     0      8    2077
                                             55 COMRAM     8     0      8
                            ___fladd
                            ___flmul (ARG)
 ---------------------------------------------------------------------------------
 (8) ___fladd                                             16     8      8    2020
                                             39 COMRAM    16     8      8
                            ___flmul (ARG)
                           ___xxtofl (ARG)
 ---------------------------------------------------------------------------------
 (7) ___flneg                                              4     0      4      48
                                              0 COMRAM     4     0      4
 ---------------------------------------------------------------------------------
 (7) ___flmul                                             25    17      8    1494
                                             14 COMRAM    25    17      8
                           ___xxtofl (ARG)
 ---------------------------------------------------------------------------------
 (7) ___fldiv                                             25    17      8    1133
                                             92 COMRAM    25    17      8
                            ___fladd (ARG)
                            ___flmul (ARG)
                           ___xxtofl (ARG)
                              _sqrtf (ARG)
 ---------------------------------------------------------------------------------
 (5) ___xxtofl                                            14    10      4     341
                                              0 COMRAM    14    10      4
 ---------------------------------------------------------------------------------
 (2) ___flge                                              12     4      8     186
                                              0 COMRAM    12     4      8
 ---------------------------------------------------------------------------------
 (2) _UART_Write_Text                                      6     4      2     122
                                              1 COMRAM     6     4      2
                         _UART_Write
 ---------------------------------------------------------------------------------
 (3) _UART_Write                                           1     1      0      29
                                              0 COMRAM     1     1      0
 ---------------------------------------------------------------------------------
 (3) _I2C_Write                                            1     1      0      29
                                              0 COMRAM     1     1      0
 ---------------------------------------------------------------------------------
 (3) _I2C_Stop                                             0     0      0       0
 ---------------------------------------------------------------------------------
 (3) _I2C_Start                                            0     0      0       0
 ---------------------------------------------------------------------------------
 (4) _I2C_Read                                             2     2      0      52
                                              0 COMRAM     2     2      0
 ---------------------------------------------------------------------------------
 (1) _Check_ADC                                            7     5      2     203
                                              6 COMRAM     7     5      2
                           _ADC_Read
 ---------------------------------------------------------------------------------
 (2) _ADC_Read                                             6     4      2      24
                                              0 COMRAM     6     4      2
 ---------------------------------------------------------------------------------
 Estimated maximum stack depth 8
 ---------------------------------------------------------------------------------

 Call Graph Graphs:

 _main (ROOT)
   _Check_ADC
     _ADC_Read
   _Check_Gyroscope
     _I2C_Read
     _I2C_Start
     _I2C_Stop
     _I2C_Write
     _UART_Write_Text
       _UART_Write
     ___flge
     ___flsub
       ___fladd
         ___flmul (ARG)
           ___xxtofl (ARG)
         ___xxtofl (ARG)
       ___flmul (ARG)
     _calculate_angle
       ___fladd
       ___fldiv
         ___fladd (ARG)
         ___flmul (ARG)
         ___xxtofl (ARG)
         _sqrtf (ARG)
           ___fladd (ARG)
           ___flmul (ARG)
           ___xxtofl (ARG)
       ___flmul
       ___xxtofl
       _atan2f
         ___fladd
         ___fldiv
         ___flneg
         ___flsub
         ___fpclassifyf
         ___xxtofl (ARG)
         _atanf (ARG)
           ___fladd
           ___fldiv
           ___flmul
           ___flneg
           ___flsub
           ___fpclassifyf
           _fabsf
             ___fldiv (ARG)
         _fabsf (ARG)
         _sqrtf (ARG)
       _sqrtf
   _SYSTEM_Initialize
     _ADC_Initialize
     _Gyroscope_Initialize
       _Calibration
         _I2C_Read
         _I2C_Start
         _I2C_Stop
         _I2C_Write
         _calculate_angle
       _I2C_Init
       _I2C_Start
       _I2C_Stop
       _I2C_Write
     _INTERRUPT_Initialize
     _OSCILLATOR_Initialize

Address spaces:
Name               Size   Autos  Total    Usage
BIGRAM            1518      0       0      0.0%
BITBANK4           256      0       0      0.0%
BANK4              256      0       0      0.0%
BITBANK3           256      0       0      0.0%
BANK3              256      0       0      0.0%
BITBANK2           256      0       0      0.0%
BANK2              256      0       0      0.0%
BITBANK1           256      0       0      0.0%
BANK1              256      0      72     28.1%
BITBANK5           239      0       0      0.0%
BANK5              239      0       0      0.0%
BITBANK0           128      0       0      0.0%
BANK0              128    115     127     99.2%
BITCOMRAM          127      0       0      0.0%
COMRAM             127    127     127    100.0%
BITBIGSFR_1h        38      0       0      0.0%
BITBIGSFRh          18      0       0      0.0%
BITBIGSFR_1llh      12      0       0      0.0%
BITBIGSFR_5h         9      0       0      0.0%
BITBIGSFRl           9      0       0      0.0%
BITBIGSFR_2          6      0       0      0.0%
BITBIGSFR_4          3      0       0      0.0%
BITBIGSFR_3          3      0       0      0.0%
BITBIGSFR_5l         2      0       0      0.0%
BITBIGSFR_1lh        1      0       0      0.0%
STACK                0      0       0      0.0%
DATA                 0      0     326      0.0%


Microchip Technology PIC18 Macro Assembler V2.50 build 20240725155939 
Symbol Table                                                                                   Wed Jan 15 00:31:58 2025

                 ___fldiv@aexp 0075                   ___fldiv@bexp 0074                   ___fldiv@sign 006D  
                           l22 5424                             l30 567A                             _BF 7E38  
                           l25 5450                             l34 56C2                             l19 53BC  
                           l64 53D8                             l81 538C                             l84 5348  
                           _pi 7D1F                            l114 5390                            l123 5610  
                          l117 53A2                            l261 5B26                            l245 54F6  
                          l270 5368                            l264 5356                            l273 536C  
                          l290 550A                            l282 5410                            l258 5F74  
                          l291 5524                            l267 535A                            l276 537A  
                          l293 5532                            l285 541E                            l294 5534  
                          l279 5402                            l288 54FC                            l297 578E  
                          l570 5990                            l565 594A                            l574 54BC  
                          l830 6CA6                            l921 699E                            l922 69BC  
                          l914 67A8                            l842 6E9A                            l931 6ACA  
                          l923 6A14                            l924 6A02                            l828 6CF2  
                          l861 6F82                            l845 6E0C                            l837 6FBE  
                          l829 6CE0                            l918 6B08                            l854 6EDA  
                          l870 55BA                            l855 6EC8                            l962 5C16  
                          l882 6304                            l955 5B7E                            l884 6168  
                          l893 61AE                            l958 5CDA                            l894 61CC  
                          l895 6224                            l887 612C                            l896 6212  
                          l992 7120                            l984 7044                            l969 5C72  
                          l987 757A                            _PEN 7E2A                            _SEN 7E28  
                          _aT0 7D17                            _aT1 7D13                            _aT2 7D0F  
                          _aT3 7D0B                            _aT4 7D07                            _dir 00F5  
        ?_Gyroscope_Initialize 0001                            _str 0100                            wreg 0FE8  
                 ___flmul@aexp 0020       Check_ADC@prev_sensor_val 0007                   ___flmul@bexp 0021  
                 ___flmul@sign 001B                   ___flmul@temp 0026                   ___flmul@prod 0022  
                         l1101 64EA                           l1110 667A                           l1040 588C  
                         l1016 737E                           l1105 6548                           l1026 7446  
                         l1018 7348                           l1108 660C                           l1070 76B6  
                         l1064 7CE4                           l3002 72A8                           l3100 54FA  
                         l2300 6BBE                           l3020 736A                           l3012 72D0  
                         l3102 550E                           l2310 6BF8                           l2302 6BCE  
                         l3030 741E                           l3006 72BC                           l3014 72F6  
                         l3110 5ACE                           l3104 5522                           l2400 6E22  
                         l2320 6C16                           l2312 6C06                           l2304 6BD0  
                         l1088 5484                           l3040 74EE                           l3032 745A  
                         l3024 738C                           l3016 732C                           l3120 534E  
                         l3200 54E2                           l1097 66E2                           l3114 5390  
                         l3210 55E4                           l3050 5B3A                           l2410 6E5E  
                         l2402 6E32                           l2330 6C2A                           l2322 6C1A  
                         l2314 6C0A                           l2306 6BD6                           l3026 73C2  
                         l3018 7356                           l3106 5992                           l3130 56D8  
                         l3122 5354                           l3202 54E8                           l3116 539E  
                         l3212 55E8                           l3220 58FA                           l3060 5BB8  
                         l3052 5B48                           l2500 6054                           l2420 6E8A  
                         l2412 6E60                           l2340 6C3E                           l2332 6C2E  
                         l2324 6C1E                           l2316 6C0E                           l2308 6BE6  
                         l3036 7482                           l3028 73D6                           l3108 5A82  
                         l3300 5E54                           l3140 5706                           l3132 56DE  
                         l3124 56C4                           l3204 54F2                           l3206 55BC  
                         l3230 5988                           l3222 590A                           l3214 588E  
                         l3070 5C0C                           l3062 5BC0                           l3054 5B8E  
                         l2502 6064                           l2510 6084                           l2430 6EEA  
                         l2414 6E6E                           l2406 6E46                           l2422 6E8C  
                         l2350 6C9E                           l2342 6C42                           l2334 6C32  
                         l2326 6C22                           l2318 6C12                           l2270 6B24  
                         l3046 755A                           l3310 5E8E                           l3302 5E56  
                         l3150 574C                           l3142 5710                           l3134 56E8  
                         l3126 56C8                           l3118 534A                           l3240 5650  
                         l3208 55C8                           l3232 598E                           l3224 5918  
                         l3216 58BC                           l3080 5C82                           l3072 5C48  
                         l3064 5BCC                           l3056 5BA4                           l3048 5B2A  
                         l2520 60C2                           l2512 6094                           l2504 606C  
                         l2600 66FE                           l2440 6F50                           l2432 6EF6  
                         l2424 6EAA                           l2416 6E76                           l2408 6E50  
                         l2360 6CD4                           l2352 6CB4                           l2336 6C36  
                         l2328 6C26                           l2344 6C46                           l2280 6B58  
                         l2272 6B26                           l3320 5EF2                           l3312 5E96  
                         l3304 5E66                           l3160 53B8                           l3152 5762  
                         l3144 571A                           l3136 56F2                           l3128 56CE  
                         l3242 5682                           l3226 592A                           l3218 58CC  
                         l3090 5CCA                           l3082 5C86                           l3074 5C54  
                         l3066 5BFE                           l2530 6108                           l2522 60D2  
                         l2514 6094                           l2506 6070                           l2610 6736  
                         l2602 6700                           l2450 6F98                           l2442 6F60  
                         l2434 6F04                           l2426 6EC0                           l2418 6E7A  
                         l2370 6D24                           l2362 6CDE                           l2354 6CC0  
                         l2346 6C72                           l2338 6C3A                           l2290 6B88  
                         l2274 6B36                           l2282 6B5E                           l2266 6B0A  
                         l3322 5F06                           l3330 5F30                           l3314 5E98  
                         l3306 5E78                           l3162 53BA                           l3154 53A4  
                         l3146 571E                           l3138 56FC                           l3250 537C  
                         l3164 5420                           l3244 569E                           l3236 5612  
                         l3228 5938                           l3084 5CAA                           l3076 5C62  
                         l3068 5C00                           l2540 6156                           l2532 611C  
                         l2524 60E2                           l2460 5F76                           l2700 6A6C  
                         l2620 6762                           l2612 6746                           l2604 6710  
                         l2452 6F9E                           l2444 6F80                           l2436 6F3E  
                         l2380 6D60                           l2372 6D34                           l2364 6D00  
                         l2356 6CC4                           l2348 6C8E                           l2292 6B8E  
                         l2284 6B6E                           l2276 6B46                           l2268 6B16  
                         l3332 5F42                           l3324 5F18                           l3340 5F6A  
                         l3308 5E8A                           l3316 5EA4                           l3260 5CE0  
                         l3156 53A6                           l3148 5736                           l3180 53CC  
                         l3172 53BE                           l3252 5380                           l3166 5432  
                         l3246 56A4                           l3238 5626                           l3094 5358  
                         l3086 5CBA                           l3078 5C80                           l2550 619E  
                         l2542 6166                           l2534 612A                           l2526 60F2  
                         l2518 60A8                           l2470 5FB2                           l2462 5F82  
                         l2710 6ACE                           l2702 6A86                           l2630 67B8  
                         l2622 6772                           l2614 674C                           l2606 6720  
                         l2454 6FAC                           l2446 6F90                           l2438 6F40  
                         l2390 6DA6                           l2382 6D6E                           l2374 6D42  
                         l2366 6D10                           l2358 6CD2                           l2294 6B9C  
                         l2286 6B74                           l2278 6B56                           l3334 5F54  
                         l3326 5F28                           l3318 5EC0                           l3270 5D0A  
                         l3262 5CE6                           l3158 53AA                           l3190 54BE  
                         l3182 53D2                           l3174 53C4                           l3254 5384  
                         l3168 5448                           l3248 56C0                           l3096 53FE  
                         l3088 5CC8                           l2552 61AC                           l2544 6178  
                         l2536 6136                           l2528 60F8                           l2480 5FE0  
                         l2472 5FC2                           l2464 5F90                           l2720 6AF8  
                         l2712 6ADE                           l2704 6A9A                           l2640 67F2  
                         l2632 67C8                           l2624 6782                           l2616 6752  
                         l2608 6730                           l2456 6FAE                           l2448 6F96  
                         l2392 6DDA                           l2384 6D70                           l2376 6D50  
                         l2296 6B9E                           l2288 6B86                           l2800 76F8  
                         l3336 5F64                           l3328 5F2A                           l3280 5D36  
                         l3272 5D14                           l3264 5CF0                           l3192 54C2  
                         l3184 53D4                           l3176 53C8                           l3256 5388  
                         l3098 536A                           l2562 6234                           l2570 627C  
                         l2546 618E                           l2554 61BE                           l2538 6154  
                         l2490 6016                           l2482 5FE6                           l2474 5FC4  
                         l2466 5F92                           l2714 6AEC                           l2706 6AB4  
                         l2650 6844                           l2642 6808                           l2626 6792  
                         l2618 6760                           l2730 5486                           l2394 6DDC  
                         l2386 6D7A                           l2378 6D5C                           l2298 6BAE  
                         l2802 770E                           l2810 7838                           l3290 5DE8  
                         l3282 5D54                           l3274 5D1E                           l3266 5CF6  
                         l3258 5CDC                           l3194 54C6                           l3186 53D6  
                         l3178 53CA                           l2580 62E0                           l2572 6296  
                         l2564 6240                           l2556 61DC                           l2548 6194  
                         l2492 6026                           l2484 5FF4                           l2468 5FA2  
                         l2476 5FCA                           l2716 6AEE                           l2708 6AC4  
                         l2660 688A                           l2652 6852                           l2644 6814  
                         l2636 67DC                           l2628 6798                           l2732 549C  
                         l2396 6DEC                           l2388 6D80                           l2724 5576  
                         l2740 57B0                           l2812 784E                           l2804 7710  
                         l2820 792E                           l2900 652A                           l3292 5E1A  
                         l3284 5D6C                           l3276 5D28                           l3268 5D00  
                         l3196 54D8                           l3188 5342                           l3380 555C  
                         l3372 5536                           l2582 62E4                           l2574 62AC  
                         l2566 624E                           l2558 620A                           l2494 6028  
                         l2486 5FF6                           l2478 5FDA                           l2718 6AF4  
                         l2670 68F8                           l2662 68A4                           l2654 685E  
                         l2646 682C                           l2638 67E8                           l2734 54AC  
                         l2398 6DFC                           l2726 5586                           l2742 57EE  
                         l2750 582E                           l2830 7A7A                           l2822 7962  
                         l2814 7852                           l2806 77B4                           l2910 65D4  
                         l2902 6538                           l3294 5E30                           l3286 5D88  
                         l3278 5D32                           l3198 54DC                           l3374 553A  
                         l2584 62F2                           l2576 62C6                           l2568 6278  
                         l2488 6006                           l2496 602E                           l2680 698E  
                         l2672 6922                           l2664 68B4                           l2656 686E  
                         l2648 6838                           l2752 5840                           l2744 5816  
                         l2760 5452                           l2832 7AD2                           l2824 7996  
                         l2816 78F6                           l2808 77B8                           l2912 661C  
                         l2904 6562                           l3296 5E42                           l3288 5DB4  
                         l3376 5544                           l2586 62F8                           l2578 62DE  
                         l2498 603E                           l2682 699C                           l2674 6958  
                         l2666 68D0                           l2658 687A                           l2746 5822  
                         l2738 5790                           l2762 5472                           l2850 7CCE  
                         l2842 7BA6                           l2834 7B06                           l2826 79EE  
                         l2818 78FA                           l2770 758C                           l2914 6626  
                         l2906 6582                           l3298 5E52                           l3378 5550  
                         l2588 62FA                           l2692 6A24                           l2684 69AE  
                         l2676 6966                           l2668 68DC                           l2596 66E4  
                         l2756 5884                           l2764 5474                           l2844 7BFE  
                         l2836 7B16                           l2828 7A46                           l2780 75F4  
                         l2772 75A2                           l2940 7102                           l2932 7064  
                         l2924 6FC0                           l2916 663C                           l2908 6596  
                         l2860 6316                           l2694 6A30                           l2686 69CC  
                         l2678 6984                           l2598 66F0                           l2846 7C4C  
                         l2838 7B6E                           l2782 7638                           l2790 7686  
                         l2774 75A4                           l2950 7148                           l2942 7104  
                         l2934 7082                           l2926 6FE6                           l2918 6652  
                         l2862 634A                           l2696 6A3E                           l2688 69FA  
                         l2848 7C80                           l2792 769C                           l2784 764A  
                         l2776 75BA                           l2768 757C                           l2960 7198  
                         l2928 700C                           l2880 640A                           l2864 6378  
                         l2872 63AA                           l2698 6A68                           l2786 765E  
                         l2778 75E0                           l2970 71EA                           l2962 71A6  
                         l2946 7134                           l2938 70AA                           l2890 648A  
                         l2882 6418                           l2874 63C8                           l2866 6386  
                         l2858 6306                           l2796 76BC                           l2964 71BA  
                         l2956 715C                           l2892 649E                           l2876 63F6  
                         l2868 6396                           l2798 76E0                           l2982 7232  
                         l2974 720A                           l2958 7182                           l2894 64A8  
                         l2992 725A                           l2968 71CE                           l2896 64B4  
                         l2888 6436                           l2994 7280                           l2986 7246  
                         l2978 721E                           l2898 64C2                           l2998 7294  
                         _ADFM 7E07                           STR_2 7D29                           STR_3 7D23  
                         u2000 6D6E                           u2001 6D6A                           u2010 6DA6  
                         u2011 6DA2                           u2100 6EC0                           u2020 6DEC  
                         u2101 6EBC                           u2021 6DE8                           u2110 6ED6  
                         u2030 6E22                           u2111 6ED2                           u2031 6E1E  
                         u2200 5F90                           u2120 6EEA                           u2040 6E32  
                         u3000 70F4                           u2201 5F8C                           u2121 6EE6  
                         u2041 6E2E                           u2210 5FA2                           u2130 6F04  
                         u2050 6E5E                           u3010 711C                           u2211 5F9E  
                         u2131 6F00                           u2051 6E5A                           u3011 7118  
                         u2300 6154                           u2220 5FB2                           u2140 6F3E  
                         u2060 6E6E                           u3100 73C2                           u3020 7198  
                         u2301 6150                           u2221 5FAE                           u2141 6F3A  
                         u2061 6E6A                           u3101 73BE                           u3021 7194  
                         u3005 70EA                           _LATA 0F89                           u3110 5B3A  
                         u2310 6178                           u2230 5FF4                           u2150 6F50  
                         u2070 6E8A                           u3030 71A6                           u3111 5B36  
                         u2311 6174                           u2231 5FF0                           u2151 6F4C  
                         u2071 6E86                           u3031 71A2                           u3200 5CC8  
                         u3120 5B48                           u2400 6296                           u2320 618E  
                         u2240 6006                           u2160 6F60                           u2080 6E9A  
                         u3040 71EA                           u3201 5CC4                           u3121 5B44  
                         u2401 6292                           u2321 618A                           u2241 6002  
                         u2161 6F5C                           u2081 6E96                           u3041 71E6  
                         u3210 5368                           u3130 5BA4                           u2410 62C6  
                         u2330 61AC                           u2250 6016                           u2170 6F80  
                         u2090 6EAA                           u3050 7206                           u3211 5364  
                         u3131 5BA0                           u2411 62C2                           u2331 61A8  
                         u2251 6012                           u2171 6F7C                           u2091 6EA6  
                         u3051 7202                           u3300 5432                           u3220 5410  
                         u3140 5BFA                           u2420 62F2                           u2340 61CC  
                         u2260 6054                           u2500 67C8                           u2180 6F90  
                         u3060 732C                           u3301 542E                           u3221 540C  
                         u3141 5BF6                           u2421 62EE                           u2341 61C8  
                         u2261 6050                           u2501 67C4                           u2181 6F8C  
                         u3061 7328                           u3230 541E                           u3310 5610  
                         u3150 5C44                           u2350 61DC                           u2270 6094  
                         u2510 6942                           u2430 66FE                           u2190 6FAC  
                         u3070 7348                           u3231 541A                           u3311 560C  
                         u3151 5C40                           u2351 61D8                           u2271 6090  
                         u2431 66FA                           u2191 6FA8                           u3071 7344  
                         u3400 56C0                           u3240 537A                           u3320 58BC  
                         u3160 5C62                           u2360 620A                           u2280 6108  
                         u2600 6AB4                           u2520 699C                           u2440 6710  
                         u3080 7356                           u3401 56BC                           u3241 5376  
                         u3321 58B8                           u3161 5C5E                           u2361 6206  
                         u2281 6104                           u2601 6AB0                           u2521 6998  
                         u2441 670C                           u3081 7352                           u3250 550A  
                         u3330 58FA                           u3170 5C72                           u2370 6220  
                         u2290 612A                           u2610 6AEC                           u2530 69BC  
                         u2450 6720                           u1810 6B24                           u3090 738C  
                         u3410 5E1A                           u3251 5506                           u3331 58F6  
                         u3171 5C6E                           u2371 621C                           u2291 6126  
                         u2611 6AE8                           u2531 69B8                           u2515 6938  
                         u2451 671C                           u1811 6B20                           u3091 7388  
                         u3411 5E16                           u3260 5520                           u3340 5918  
                         u3180 5C80                           u2380 6234                           u2540 69CC  
                         u2460 6760                           u2620 549C                           u1900 6C72  
                         u1820 6B36                           u2700 759E                           u3500 5F54  
                         u3420 5E30                           u3261 551A                           u3341 5914  
                         u3181 5C7C                           u2381 6230                           u2541 69C8  
                         u2461 675C                           u2621 5498                           u1901 6C6E  
                         u1821 6B32                           u2701 7598                           u3501 5F50  
                         u3421 5E2C                           u3350 5938                           u3190 5CBA  
                         u2390 624E                           u2550 69FA                           u2470 6772  
                         u1910 6C8A                           u1830 6B46                           u2630 57D0  
                         u2710 75A0                           u3430 5E42                           u3351 5934  
                         u3191 5CB6                           u2391 624A                           u2551 69F6  
                         u2471 676E                           u1911 6C84                           u1831 6B42  
                         u3431 5E3E                           u3280 5532                           u3360 5988  
                         u2560 6A10                           u2480 6782                           u1920 6C8C  
                         u1840 6B86                           u2640 57EE                           u2800 7B16  
                         u2720 75BA                           u3440 5E78                           u3281 552E  
                         u3361 5984                           u2561 6A0C                           u2481 677E  
                         u1841 6B82                           u2641 57EA                           u2801 7B12  
                         u2721 75B6                           u3441 5E74                           u3370 5650  
                         u3290 539E                           u2570 6A24                           u2490 67B8  
                         u1930 6CB4                           u1850 6B9C                           u2650 5816  
                         u2810 7CE0                           u2730 75E0                           u3450 5E8A  
                         u3371 564C                           u3275 5522                           u3291 539A  
                         u2571 6A20                           u2491 67B4                           u1931 6CB0  
                         u1851 6B98                           u2651 5812                           u2635 57C6  
                         u2811 7CDC                           u2731 75DC                           u3451 5E86  
            ??_Check_Gyroscope 00E5                           u3380 567A                           u2580 6A3E  
                         u1940 6CD2                           u1860 6BAE                           u2660 5840  
                         u2740 764A                           u2900 64C2                           u2820 634A  
                         u3460 5EF2                           u3381 5676                           u2581 6A3A  
                         u1941 6CCE                           u1861 6BAA                           u2661 583C  
                         u2741 7646                           u2901 64BE                           u2821 6346  
                         u3461 5EEE                           u3390 569E                           u2590 6A86  
                         u1950 6CF2                           u1870 6BBE                           u2750 769C  
                         u2910 6538                           u2830 6378                           u3470 5F06  
                         u3391 569A                           u2591 6A82                           u1951 6CEE  
                         u1871 6BBA                           u2751 7698                           u2911 6534  
                         u2831 6374                           u3471 5F02                           u1960 6D00  
                         u1880 6BF8                           u2680 587A                           u2760 76B2  
                         u2920 65D4                           u2840 6386                           u3480 5F18  
                         u1961 6CFC                           u1881 6BF4                           u2681 5874  
                         u2761 76AE                           u2921 65D0                           u2841 6382  
                         u3481 5F14                           u3537 5564                           u1970 6D10  
                         u1890 6C06                           u2690 587C                           u2770 76F8  
                         u2930 663C                           u2850 63C8                           u3490 5F42  
                         u1971 6D0C                           u1891 6C02                           u2675 5852  
                         u2771 76F4                           u2931 6638                           u2851 63C4  
                         u3491 5F3E                           u3547 54CE                           u1980 6D42  
                         u2780 770E                           u2940 6652                           u2860 63F6  
                         u1981 6D3E                           u2781 770A                           u2941 664E  
                         u2861 63F2                           u3557 5EB0                           u1990 6D50  
                         u2790 784E                           u2870 6418                           u1991 6D4C  
                         u2791 784A                           u2871 6414                           u2960 6FE6  
                         u2961 6FE2                           u2970 700C                           u2890 648A  
                         u2971 7008                           u2955 66BE                           u2891 6486  
                         u2980 7082                           _RCEN 7E2B                           u2981 707E  
                         u2885 644A                           u2990 70CA                           u2886 6454  
                         u2887 6464                           u2995 70C0                           _accX 012A  
                         _accY 00F7                           _accZ 0128                           _main 5536  
             __end_of_I2C_Init 5358               __end_of_I2C_Read 5536               __end_of_I2C_Stop 537C  
             __end_of_ADC_Read 5452                  ___fpclassifyf 5790                           prodh 0FF4  
                         prodl 0FF3                           start 0000                ___fldiv@new_exp 006E  
                 ___param_bank 0000                    _Calibration 56C4        __end_of_UART_Write_Text 5612  
__end_of_OSCILLATOR_Initialize 534A                __end_of___fladd 6FC0                          ?_main 0001  
                        _ACKEN 7E2C                          _ACKDT 7E2D                __end_of___fldiv 6306  
             ?_calculate_angle 00D7                __end_of___flneg 54BE                __end_of___flmul 6B0A  
              __end_of___flsub 55BC                          _IRCF0 7E9C                          _IRCF1 7E9D  
                        _IRCF2 7E9E                          _RCREG 0FAE                          _SPBRG 0FAF  
                        _TRISA 0F92                          _TRISB 0F93                          _TXREG 0FAD  
                  ?_UART_Write 0001                          _fabsf 5452                          _angle 011C  
                        _atanf 757C                          _count 0130                          _errno 0124  
                        _pi_lo 7D1B                          _sqrtf 6306              __end_of_I2C_Start 536A  
            __end_of_I2C_Write 5420                          tablat 0FF5                          status 0FD8  
               ?___fpclassifyf 0001                __initialization 53DA                   __end_of_main 5576  
                       ??_main 00EE         ??_Gyroscope_Initialize 00ED                  __activetblptr 0002  
               _postpostscaler 0126                         ?_fabsf 0076                         ?_atanf 0080  
                       _ADCON1 0FC1                         _ADRESH 0FC4                         _ADRESL 0FC3  
                       ?_sqrtf 0038                         _OSCCON 0FD3                         _SSPADD 0FC8  
                       _SSPBUF 0FC9               __end_of___xxtofl 5CDC                         ___flge 588E  
                    ??___fladd 0030                      ??___fldiv 0065                      ??___flneg 0005  
                    ??___flmul 0017               ?_UART_Write_Text 0002                         _atan2f 6FC0  
                    ??___flsub 0040                         _atanhi 7CF7                         _atanlo 7CE7  
              ADC_Read@channel 0001                         _lenStr 0132                         fabsf@u 007A  
                       fabsf@x 0076                ADC_Read@digital 0005                         clear_0 53E0  
                       clear_1 53EC                         atanf@w 00A1                         atanf@x 0080  
                       atanf@z 00A6                         isa$std 0001                      ?_I2C_Init 0001  
                    ?_I2C_Read 0001                      ?_I2C_Stop 0001                ___fpclassifyf@e 0009  
              ___fpclassifyf@u 000B                      ?_ADC_Read 0001                ___fpclassifyf@x 0001  
         _Check_Gyroscope$1836 00E7                   __mediumconst 7CE6                         tblptrh 0FF7  
                       tblptrl 0FF6                         tblptru 0FF8              __end_of_Check_ADC 56C4  
                       sqrtf@i 0045                         sqrtf@m 0051                         sqrtf@q 0049  
                       sqrtf@r 0055                         sqrtf@s 0041                         sqrtf@t 004D  
                       sqrtf@x 0038                     ___flge@ff1 0001                ??___fpclassifyf 0005  
                   ___flge@ff2 0005                   ___xxtofl@arg 000B                   ___xxtofl@exp 000A  
            _SYSTEM_Initialize 537C                   ___xxtofl@val 0001                     __accesstop 0080  
      __end_of__initialization 53F2                     ___flneg@f1 0001             ?_SYSTEM_Initialize 0001  
                ___rparam_used 0001                 __pcstackCOMRAM 0001            ??_SYSTEM_Initialize 0080  
                __end_of_fabsf 5486                  __end_of_atanf 7CE6                  __end_of_pi_lo 7D1F  
                __end_of_sqrtf 66E4                     __end_of_pi 7D23                _Check_Gyroscope 5CDC  
                   ??_I2C_Init 0001                     ??_I2C_Read 0001                     ??_I2C_Stop 0001  
                   ??_ADC_Read 0003                Calibration@accX 00E5                Calibration@accZ 00E7  
                      ??_fabsf 007A                        ??_atanf 007E      __end_of_SYSTEM_Initialize 538E  
                      ??_sqrtf 003C                     __pbssBANK0 00F3                     __pbssBANK1 0100  
                   _atanf$1842 0098                     _atanf$1843 0084                     _atanf$1844 009C  
                   _atanf$1845 0088                     _atanf$1846 008C                   I2C_Read@data 0002  
                 ?_Calibration 0001                        ?___flge 0001                        ?_atan2f 00AE  
                      _CCP1CON 0FBD                      ?___xxtofl 0001                   ??_UART_Write 0001  
                      _SSPCON1 0FC6                        _SSPCON2 0FC5                        _SSPSTAT 0FC7  
                    _I2C_Start 5358                      _I2C_Write 53FC                        __Hparam 0000  
                      __Lparam 0000                        ___fladd 6B0A        __end_of_Check_Gyroscope 5F76  
                      ___fldiv 5F76                        ___flneg 5486                        ___flmul 66E4  
                      ___flsub 5576             __end_of_UART_Write 53A4                        __pcinit 53DA  
                      __ramtop 0600                        __ptext0 5536                        __ptext1 537C  
                      __ptext2 5342                        __ptext3 53BE                        __ptext4 54BE  
                      __ptext5 534A                        __ptext6 56C4                        __ptext7 53A4  
                      __ptext8 5CDC                        __ptext9 5992          _OSCILLATOR_Initialize 5342  
                      atan2f@m 00D6                        atan2f@x 00B2                        atan2f@y 00AE  
                      atan2f@z 00CA                     ??___xxtofl 0005                        atanf@s1 0090  
                      atanf@s2 0094                        atanf@id 00A5                        atanf@ix 00AA  
         end_of_initialization 53F2                  __Lmediumconst 7CE6                     ?_I2C_Start 0001  
                   ?_I2C_Write 0001                      _RCSTAbits 0FAB                        postinc0 0FEE  
                      sqrtf@ix 0059       Check_ADC@bend_sensor_val 000C                 UART_Write@data 0001  
                  ___fladd@grs 0037                  ___xxtofl@sign 0009                      _TRISAbits 0F92  
                    _TRISCbits 0F94                    ___fldiv@grs 0070                    ___fldiv@rem 0069  
                  ___flmul@grs 001C                      _Check_ADC 5612                      _TXSTAbits 0FAC  
 __end_of_INTERRUPT_Initialize 53DA               ?_Check_Gyroscope 007E                 __end_of___flge 5992  
               __end_of_atan2f 757C                    _BAUDCONbits 0FB8                 __end_of_atanhi 7D07  
               __end_of_atanlo 7CF7                 _ADC_Initialize 53A4         ?_OSCILLATOR_Initialize 0001  
          start_initialization 53DA                    __end_of_aT0 7D1B                    __end_of_aT1 7D17  
                  __end_of_aT2 7D13                    __end_of_aT3 7D0F                    __end_of_aT4 7D0B  
         Calibration@accX_high 00E9           Calibration@accZ_high 00EB                     ?_Check_ADC 0007  
        __end_of___fpclassifyf 588E                    ??_I2C_Start 0001              ??_calculate_angle 007E  
                  ??_I2C_Write 0001                       ??___flge 0009                       ??_atan2f 00B6  
       __end_of_ADC_Initialize 53BE                    _atan2f$1840 00C2                    _atan2f$1841 00C6  
                  _atan2f$1839 00BE                main@blinker_dir 00F1                      ___fladd@a 002C  
                    ___fladd@b 0028                      ___fldiv@a 0061                      ___fldiv@b 005D  
                    _accX_high 00FE                      _accY_high 00FC                      ___flmul@a 0013  
                    ___flmul@b 000F                      _accZ_high 00FA                      ___flsub@a 003C  
                    ___flsub@b 0038                  __pcstackBANK0 0080                    I2C_Read@ack 0001  
                __pmediumconst 7CE6                       ?___fladd 0028                       ?___fldiv 005D  
                     ?___flneg 0001                       ?___flmul 000F                       ?___flsub 0038  
              ?_ADC_Initialize 0001       main@prev_bend_sensor_val 00EF           _calculate_angle$1837 00DD  
         _calculate_angle$1838 00E1                      fabsf@F465 0114                       _I2C_Init 534A  
                     _I2C_Read 54F8                       _I2C_Stop 536A                       _ADC_Read 5420  
            ??_UART_Write_Text 0004           _INTERRUPT_Initialize 53BE                    _isConnected 012E  
                  ??_Check_ADC 0009                       _LATAbits 0F89                       _LATBbits 0F8A  
                     _IPR1bits 0F9F                       _PIE1bits 0F9D                       _PIR1bits 0F9E  
                    atanf@sign 00A0                       _RCONbits 0FD0                     _ADCON0bits 0FC2  
   Check_Gyroscope@blinker_dir 007E                     _ADCON2bits 0FC0                    _needSendMsg 012C  
        ?_INTERRUPT_Initialize 0001            Calibration@accX_low 00EA            Calibration@accZ_low 00EC  
 __end_of_Gyroscope_Initialize 54F8                       __Hrparam 0000                       __Lrparam 0000  
                I2C_Write@data 0001        ??_OSCILLATOR_Initialize 0001                       _accX_low 00FD  
                     _accY_low 00FB                       _accZ_low 00F9             ___fpclassifyf@F465 0118  
                     ___xxtofl 5B28                _calculate_angle 5992                   _pitch_offset 0120  
                     __ptext10 6306                       __ptext11 6FC0                       __ptext20 5B28  
                     __ptext12 757C                       __ptext21 588E                       __ptext13 5452  
                     __ptext22 55BC                       __ptext14 5790                       __ptext23 538E  
                     __ptext15 5576                       __ptext24 53FC                       __ptext16 6B0A  
                     __ptext25 536A                       __ptext17 5486                       __ptext26 5358  
                     __ptext18 66E4                       __ptext27 54F8                       __ptext19 5F76  
                     __ptext28 5612                       __ptext29 5420                       _from_mid 00F3  
          UART_Write_Text@text 0002                       atan2f@ix 00CE                       atan2f@iy 00D2  
                ??_Calibration 007E                       isa$xinst 0000                       _mystring 0134  
                   _INTCONbits 0FF2         ??_INTERRUPT_Initialize 0001               ??_ADC_Initialize 0001  
      __end_of_calculate_angle 5B28            __end_of_Calibration 5790                _UART_Write_Text 55BC  
         _Gyroscope_Initialize 54BE                     _UART_Write 538E                    _SSPCON2bits 0FC5  
                ___fladd@signs 0034               UART_Write_Text@i 0006                   ___fladd@aexp 0035  
                 ___fladd@bexp 0036            calculate_angle@accX 00D7            calculate_angle@accY 00D9  
          calculate_angle@accZ 00DB  
