

Microchip MPLAB XC8 Assembler V2.50 build 20240725155939 
                                                                                               Tue Jan 14 23:22:29 2025

Microchip MPLAB XC8 C Compiler v2.50 (Free license) build 20240725155939 Og1 
     1                           	processor	18F4520
     2                           	fnconf	rparam,??,?,0
     3                           	pagewidth 120
     4                           	opt	flic
     5                           	psect	mediumconst,global,reloc=2,class=MEDIUMCONST,space=0,delta=1,noexec
     6                           	psect	cinit,global,reloc=2,class=CODE,space=0,delta=1
     7                           	psect	bssBANK0,global,class=BANK0,space=1,delta=1,lowdata,noexec
     8                           	psect	bssBANK1,global,class=BANK1,space=1,delta=1,lowdata,noexec
     9                           	psect	cstackBANK0,global,class=BANK0,space=1,delta=1,lowdata,noexec
    10                           	psect	cstackCOMRAM,global,class=COMRAM,space=1,delta=1,lowdata,noexec
    11                           	psect	text0,global,reloc=2,class=CODE,space=0,delta=1
    12                           	psect	text1,global,reloc=2,class=CODE,space=0,delta=1
    13                           	psect	text2,global,reloc=2,class=CODE,space=0,delta=1
    14                           	psect	text3,global,reloc=2,class=CODE,space=0,delta=1
    15                           	psect	text4,global,reloc=2,class=CODE,space=0,delta=1
    16                           	psect	text5,global,reloc=2,class=CODE,space=0,delta=1
    17                           	psect	text6,global,reloc=2,class=CODE,space=0,delta=1
    18                           	psect	text7,global,reloc=2,class=CODE,space=0,delta=1
    19                           	psect	text8,global,reloc=2,class=CODE,space=0,delta=1
    20                           	psect	text9,global,reloc=2,class=CODE,space=0,delta=1
    21                           	psect	text10,global,reloc=2,class=CODE,space=0,delta=1,group=2
    22                           	psect	text11,global,reloc=2,class=CODE,space=0,delta=1,group=2
    23                           	psect	text12,global,reloc=2,class=CODE,space=0,delta=1,group=2
    24                           	psect	text13,global,reloc=2,class=CODE,space=0,delta=1,group=2
    25                           	psect	text14,global,reloc=2,class=CODE,space=0,delta=1,group=2
    26                           	psect	text15,global,reloc=2,class=CODE,space=0,delta=1,group=1
    27                           	psect	text16,global,reloc=2,class=CODE,space=0,delta=1,group=1
    28                           	psect	text17,global,reloc=2,class=CODE,space=0,delta=1,group=1
    29                           	psect	text18,global,reloc=2,class=CODE,space=0,delta=1,group=1
    30                           	psect	text19,global,reloc=2,class=CODE,space=0,delta=1,group=1
    31                           	psect	text20,global,reloc=2,class=CODE,space=0,delta=1,group=1
    32                           	psect	text21,global,reloc=2,class=CODE,space=0,delta=1,group=1
    33                           	psect	text22,global,reloc=2,class=CODE,space=0,delta=1
    34                           	psect	text23,global,reloc=2,class=CODE,space=0,delta=1
    35                           	psect	text24,global,reloc=2,class=CODE,space=0,delta=1
    36                           	psect	text25,global,reloc=2,class=CODE,space=0,delta=1
    37                           	psect	text26,global,reloc=2,class=CODE,space=0,delta=1
    38                           	psect	text27,global,reloc=2,class=CODE,space=0,delta=1
    39                           	psect	intsave_regs,global,class=BIGRAM,space=1,delta=1,noexec
    40                           	psect	rparam,global,class=COMRAM,space=1,delta=1,noexec
    41                           	psect	idloc,global,abs,ovrld,class=IDLOC,space=5,delta=1,noexec
    42                           	psect	config,global,abs,ovrld,class=CONFIG,space=4,delta=1,noexec
    43   000000                     
    44                           ; Generated 25/07/2024 GMT
    45                           ; 
    46                           ; Copyright © 2024, Microchip Technology Inc. and its subsidiaries ("Microchip")
    47                           ; All rights reserved.
    48                           ; 
    49                           ; This software is developed by Microchip Technology Inc. and its subsidiaries ("Microch
      +                          ip").
    50                           ; 
    51                           ; Redistribution and use in source and binary forms, with or without modification, are
    52                           ; permitted provided that the following conditions are met:
    53                           ; 
    54                           ;     1. Redistributions of source code must retain the above copyright notice, this lis
      +                          t of
    55                           ;        conditions and the following disclaimer.
    56                           ; 
    57                           ;     2. Redistributions in binary form must reproduce the above copyright notice, this 
      +                          list
    58                           ;        of conditions and the following disclaimer in the documentation and/or other
    59                           ;        materials provided with the distribution. Publication is not required when
    60                           ;        this file is used in an embedded application.
    61                           ; 
    62                           ;     3. Microchip's name may not be used to endorse or promote products derived from th
      +                          is
    63                           ;        software without specific prior written permission.
    64                           ; 
    65                           ; THIS SOFTWARE IS PROVIDED BY MICROCHIP "AS IS" AND ANY EXPRESS OR IMPLIED WARRANTIES,
    66                           ; INCLUDING, BUT NOT LIMITED TO, THE IMPLIED WARRANTIES OF MERCHANTABILITY AND FITNESS F
      +                          OR
    67                           ; PURPOSE ARE DISCLAIMED.  IN NO EVENT SHALL MICROCHIP BE LIABLE FOR ANY DIRECT, INDIREC
      +                          T,
    68                           ; INCIDENTAL, SPECIAL, EXEMPLARY, OR CONSEQUENTIAL DAMAGES (INCLUDING BUT NOT LIMITED TO
    69                           ; PROCUREMENT OF SUBSTITUTE GOODS OR SERVICES; LOSS OF USE, DATA OR PROFITS; OR BUSINESS
    70                           ; INTERRUPTION) HOWSOEVER CAUSED AND ON ANY THEORY OF LIABILITY, WHETHER IN CONTRACT, ST
      +                          RICT
    71                           ; LIABILITY, OR TORT (INCLUDING NEGLIGENCE OR OTHERWISE) ARISING IN ANY WAY OUT OF THE U
      +                          SE OF
    72                           ; THIS SOFTWARE, EVEN IF ADVISED OF THE POSSIBILITY OF SUCH DAMAGE.
    73                           ; 
    74                           ; 
    75                           ; Code-generator required, PIC18F4520 Definitions
    76                           ; 
    77                           ; SFR Addresses
    78   000FE0                     bsr             equ	4064
    79   000FE9                     fsr0            equ	4073
    80   000FEA                     fsr0h           equ	4074
    81   000FE9                     fsr0l           equ	4073
    82   000FE1                     fsr1            equ	4065
    83   000FE2                     fsr1h           equ	4066
    84   000FE1                     fsr1l           equ	4065
    85   000FD9                     fsr2            equ	4057
    86   000FDA                     fsr2h           equ	4058
    87   000FD9                     fsr2l           equ	4057
    88   000FEF                     indf0           equ	4079
    89   000FE7                     indf1           equ	4071
    90   000FDF                     indf2           equ	4063
    91   000FF2                     intcon          equ	4082
    92   000000                     nvmcon          equ	0
    93   000FF9                     pcl             equ	4089
    94   000FFA                     pclath          equ	4090
    95   000FFB                     pclatu          equ	4091
    96   000FEB                     plusw0          equ	4075
    97   000FE3                     plusw1          equ	4067
    98   000FDB                     plusw2          equ	4059
    99   000FED                     postdec0        equ	4077
   100   000FE5                     postdec1        equ	4069
   101   000FDD                     postdec2        equ	4061
   102   000FEE                     postinc0        equ	4078
   103   000FE6                     postinc1        equ	4070
   104   000FDE                     postinc2        equ	4062
   105   000FEC                     preinc0         equ	4076
   106   000FE4                     preinc1         equ	4068
   107   000FDC                     preinc2         equ	4060
   108   000FF3                     prod            equ	4083
   109   000FF4                     prodh           equ	4084
   110   000FF3                     prodl           equ	4083
   111   000FD8                     status          equ	4056
   112   000FF5                     tablat          equ	4085
   113   000FF6                     tblptr          equ	4086
   114   000FF7                     tblptrh         equ	4087
   115   000FF6                     tblptrl         equ	4086
   116   000FF8                     tblptru         equ	4088
   117   000FFD                     tosl            equ	4093
   118   000FE8                     wreg            equ	4072
   119   000F80                     PORTA           equ	3968	;# 
   120   000F81                     PORTB           equ	3969	;# 
   121   000F82                     PORTC           equ	3970	;# 
   122   000F83                     PORTD           equ	3971	;# 
   123   000F84                     PORTE           equ	3972	;# 
   124   000F89                     LATA            equ	3977	;# 
   125   000F8A                     LATB            equ	3978	;# 
   126   000F8B                     LATC            equ	3979	;# 
   127   000F8C                     LATD            equ	3980	;# 
   128   000F8D                     LATE            equ	3981	;# 
   129   000F92                     TRISA           equ	3986	;# 
   130   000F92                     DDRA            equ	3986	;# 
   131   000F93                     TRISB           equ	3987	;# 
   132   000F93                     DDRB            equ	3987	;# 
   133   000F94                     TRISC           equ	3988	;# 
   134   000F94                     DDRC            equ	3988	;# 
   135   000F95                     TRISD           equ	3989	;# 
   136   000F95                     DDRD            equ	3989	;# 
   137   000F96                     TRISE           equ	3990	;# 
   138   000F96                     DDRE            equ	3990	;# 
   139   000F9B                     OSCTUNE         equ	3995	;# 
   140   000F9D                     PIE1            equ	3997	;# 
   141   000F9E                     PIR1            equ	3998	;# 
   142   000F9F                     IPR1            equ	3999	;# 
   143   000FA0                     PIE2            equ	4000	;# 
   144   000FA1                     PIR2            equ	4001	;# 
   145   000FA2                     IPR2            equ	4002	;# 
   146   000FA6                     EECON1          equ	4006	;# 
   147   000FA7                     EECON2          equ	4007	;# 
   148   000FA8                     EEDATA          equ	4008	;# 
   149   000FA9                     EEADR           equ	4009	;# 
   150   000FAB                     RCSTA           equ	4011	;# 
   151   000FAB                     RCSTA1          equ	4011	;# 
   152   000FAC                     TXSTA           equ	4012	;# 
   153   000FAC                     TXSTA1          equ	4012	;# 
   154   000FAD                     TXREG           equ	4013	;# 
   155   000FAD                     TXREG1          equ	4013	;# 
   156   000FAE                     RCREG           equ	4014	;# 
   157   000FAE                     RCREG1          equ	4014	;# 
   158   000FAF                     SPBRG           equ	4015	;# 
   159   000FAF                     SPBRG1          equ	4015	;# 
   160   000FB0                     SPBRGH          equ	4016	;# 
   161   000FB1                     T3CON           equ	4017	;# 
   162   000FB2                     TMR3            equ	4018	;# 
   163   000FB2                     TMR3L           equ	4018	;# 
   164   000FB3                     TMR3H           equ	4019	;# 
   165   000FB4                     CMCON           equ	4020	;# 
   166   000FB5                     CVRCON          equ	4021	;# 
   167   000FB6                     ECCP1AS         equ	4022	;# 
   168   000FB6                     ECCPAS          equ	4022	;# 
   169   000FB7                     PWM1CON         equ	4023	;# 
   170   000FB7                     ECCP1DEL        equ	4023	;# 
   171   000FB8                     BAUDCON         equ	4024	;# 
   172   000FB8                     BAUDCTL         equ	4024	;# 
   173   000FBA                     CCP2CON         equ	4026	;# 
   174   000FBB                     CCPR2           equ	4027	;# 
   175   000FBB                     CCPR2L          equ	4027	;# 
   176   000FBC                     CCPR2H          equ	4028	;# 
   177   000FBD                     CCP1CON         equ	4029	;# 
   178   000FBE                     CCPR1           equ	4030	;# 
   179   000FBE                     CCPR1L          equ	4030	;# 
   180   000FBF                     CCPR1H          equ	4031	;# 
   181   000FC0                     ADCON2          equ	4032	;# 
   182   000FC1                     ADCON1          equ	4033	;# 
   183   000FC2                     ADCON0          equ	4034	;# 
   184   000FC3                     ADRES           equ	4035	;# 
   185   000FC3                     ADRESL          equ	4035	;# 
   186   000FC4                     ADRESH          equ	4036	;# 
   187   000FC5                     SSPCON2         equ	4037	;# 
   188   000FC6                     SSPCON1         equ	4038	;# 
   189   000FC7                     SSPSTAT         equ	4039	;# 
   190   000FC8                     SSPADD          equ	4040	;# 
   191   000FC9                     SSPBUF          equ	4041	;# 
   192   000FCA                     T2CON           equ	4042	;# 
   193   000FCB                     PR2             equ	4043	;# 
   194   000FCB                     MEMCON          equ	4043	;# 
   195   000FCC                     TMR2            equ	4044	;# 
   196   000FCD                     T1CON           equ	4045	;# 
   197   000FCE                     TMR1            equ	4046	;# 
   198   000FCE                     TMR1L           equ	4046	;# 
   199   000FCF                     TMR1H           equ	4047	;# 
   200   000FD0                     RCON            equ	4048	;# 
   201   000FD1                     WDTCON          equ	4049	;# 
   202   000FD2                     HLVDCON         equ	4050	;# 
   203   000FD2                     LVDCON          equ	4050	;# 
   204   000FD3                     OSCCON          equ	4051	;# 
   205   000FD5                     T0CON           equ	4053	;# 
   206   000FD6                     TMR0            equ	4054	;# 
   207   000FD6                     TMR0L           equ	4054	;# 
   208   000FD7                     TMR0H           equ	4055	;# 
   209   000FD8                     STATUS          equ	4056	;# 
   210   000FD9                     FSR2            equ	4057	;# 
   211   000FD9                     FSR2L           equ	4057	;# 
   212   000FDA                     FSR2H           equ	4058	;# 
   213   000FDB                     PLUSW2          equ	4059	;# 
   214   000FDC                     PREINC2         equ	4060	;# 
   215   000FDD                     POSTDEC2        equ	4061	;# 
   216   000FDE                     POSTINC2        equ	4062	;# 
   217   000FDF                     INDF2           equ	4063	;# 
   218   000FE0                     BSR             equ	4064	;# 
   219   000FE1                     FSR1            equ	4065	;# 
   220   000FE1                     FSR1L           equ	4065	;# 
   221   000FE2                     FSR1H           equ	4066	;# 
   222   000FE3                     PLUSW1          equ	4067	;# 
   223   000FE4                     PREINC1         equ	4068	;# 
   224   000FE5                     POSTDEC1        equ	4069	;# 
   225   000FE6                     POSTINC1        equ	4070	;# 
   226   000FE7                     INDF1           equ	4071	;# 
   227   000FE8                     WREG            equ	4072	;# 
   228   000FE9                     FSR0            equ	4073	;# 
   229   000FE9                     FSR0L           equ	4073	;# 
   230   000FEA                     FSR0H           equ	4074	;# 
   231   000FEB                     PLUSW0          equ	4075	;# 
   232   000FEC                     PREINC0         equ	4076	;# 
   233   000FED                     POSTDEC0        equ	4077	;# 
   234   000FEE                     POSTINC0        equ	4078	;# 
   235   000FEF                     INDF0           equ	4079	;# 
   236   000FF0                     INTCON3         equ	4080	;# 
   237   000FF1                     INTCON2         equ	4081	;# 
   238   000FF2                     INTCON          equ	4082	;# 
   239   000FF3                     PROD            equ	4083	;# 
   240   000FF3                     PRODL           equ	4083	;# 
   241   000FF4                     PRODH           equ	4084	;# 
   242   000FF5                     TABLAT          equ	4085	;# 
   243   000FF6                     TBLPTR          equ	4086	;# 
   244   000FF6                     TBLPTRL         equ	4086	;# 
   245   000FF7                     TBLPTRH         equ	4087	;# 
   246   000FF8                     TBLPTRU         equ	4088	;# 
   247   000FF9                     PCLAT           equ	4089	;# 
   248   000FF9                     PC              equ	4089	;# 
   249   000FF9                     PCL             equ	4089	;# 
   250   000FFA                     PCLATH          equ	4090	;# 
   251   000FFB                     PCLATU          equ	4091	;# 
   252   000FFC                     STKPTR          equ	4092	;# 
   253   000FFD                     TOS             equ	4093	;# 
   254   000FFD                     TOSL            equ	4093	;# 
   255   000FFE                     TOSH            equ	4094	;# 
   256   000FFF                     TOSU            equ	4095	;# 
   257   000F80                     PORTA           equ	3968	;# 
   258   000F81                     PORTB           equ	3969	;# 
   259   000F82                     PORTC           equ	3970	;# 
   260   000F83                     PORTD           equ	3971	;# 
   261   000F84                     PORTE           equ	3972	;# 
   262   000F89                     LATA            equ	3977	;# 
   263   000F8A                     LATB            equ	3978	;# 
   264   000F8B                     LATC            equ	3979	;# 
   265   000F8C                     LATD            equ	3980	;# 
   266   000F8D                     LATE            equ	3981	;# 
   267   000F92                     TRISA           equ	3986	;# 
   268   000F92                     DDRA            equ	3986	;# 
   269   000F93                     TRISB           equ	3987	;# 
   270   000F93                     DDRB            equ	3987	;# 
   271   000F94                     TRISC           equ	3988	;# 
   272   000F94                     DDRC            equ	3988	;# 
   273   000F95                     TRISD           equ	3989	;# 
   274   000F95                     DDRD            equ	3989	;# 
   275   000F96                     TRISE           equ	3990	;# 
   276   000F96                     DDRE            equ	3990	;# 
   277   000F9B                     OSCTUNE         equ	3995	;# 
   278   000F9D                     PIE1            equ	3997	;# 
   279   000F9E                     PIR1            equ	3998	;# 
   280   000F9F                     IPR1            equ	3999	;# 
   281   000FA0                     PIE2            equ	4000	;# 
   282   000FA1                     PIR2            equ	4001	;# 
   283   000FA2                     IPR2            equ	4002	;# 
   284   000FA6                     EECON1          equ	4006	;# 
   285   000FA7                     EECON2          equ	4007	;# 
   286   000FA8                     EEDATA          equ	4008	;# 
   287   000FA9                     EEADR           equ	4009	;# 
   288   000FAB                     RCSTA           equ	4011	;# 
   289   000FAB                     RCSTA1          equ	4011	;# 
   290   000FAC                     TXSTA           equ	4012	;# 
   291   000FAC                     TXSTA1          equ	4012	;# 
   292   000FAD                     TXREG           equ	4013	;# 
   293   000FAD                     TXREG1          equ	4013	;# 
   294   000FAE                     RCREG           equ	4014	;# 
   295   000FAE                     RCREG1          equ	4014	;# 
   296   000FAF                     SPBRG           equ	4015	;# 
   297   000FAF                     SPBRG1          equ	4015	;# 
   298   000FB0                     SPBRGH          equ	4016	;# 
   299   000FB1                     T3CON           equ	4017	;# 
   300   000FB2                     TMR3            equ	4018	;# 
   301   000FB2                     TMR3L           equ	4018	;# 
   302   000FB3                     TMR3H           equ	4019	;# 
   303   000FB4                     CMCON           equ	4020	;# 
   304   000FB5                     CVRCON          equ	4021	;# 
   305   000FB6                     ECCP1AS         equ	4022	;# 
   306   000FB6                     ECCPAS          equ	4022	;# 
   307   000FB7                     PWM1CON         equ	4023	;# 
   308   000FB7                     ECCP1DEL        equ	4023	;# 
   309   000FB8                     BAUDCON         equ	4024	;# 
   310   000FB8                     BAUDCTL         equ	4024	;# 
   311   000FBA                     CCP2CON         equ	4026	;# 
   312   000FBB                     CCPR2           equ	4027	;# 
   313   000FBB                     CCPR2L          equ	4027	;# 
   314   000FBC                     CCPR2H          equ	4028	;# 
   315   000FBD                     CCP1CON         equ	4029	;# 
   316   000FBE                     CCPR1           equ	4030	;# 
   317   000FBE                     CCPR1L          equ	4030	;# 
   318   000FBF                     CCPR1H          equ	4031	;# 
   319   000FC0                     ADCON2          equ	4032	;# 
   320   000FC1                     ADCON1          equ	4033	;# 
   321   000FC2                     ADCON0          equ	4034	;# 
   322   000FC3                     ADRES           equ	4035	;# 
   323   000FC3                     ADRESL          equ	4035	;# 
   324   000FC4                     ADRESH          equ	4036	;# 
   325   000FC5                     SSPCON2         equ	4037	;# 
   326   000FC6                     SSPCON1         equ	4038	;# 
   327   000FC7                     SSPSTAT         equ	4039	;# 
   328   000FC8                     SSPADD          equ	4040	;# 
   329   000FC9                     SSPBUF          equ	4041	;# 
   330   000FCA                     T2CON           equ	4042	;# 
   331   000FCB                     PR2             equ	4043	;# 
   332   000FCB                     MEMCON          equ	4043	;# 
   333   000FCC                     TMR2            equ	4044	;# 
   334   000FCD                     T1CON           equ	4045	;# 
   335   000FCE                     TMR1            equ	4046	;# 
   336   000FCE                     TMR1L           equ	4046	;# 
   337   000FCF                     TMR1H           equ	4047	;# 
   338   000FD0                     RCON            equ	4048	;# 
   339   000FD1                     WDTCON          equ	4049	;# 
   340   000FD2                     HLVDCON         equ	4050	;# 
   341   000FD2                     LVDCON          equ	4050	;# 
   342   000FD3                     OSCCON          equ	4051	;# 
   343   000FD5                     T0CON           equ	4053	;# 
   344   000FD6                     TMR0            equ	4054	;# 
   345   000FD6                     TMR0L           equ	4054	;# 
   346   000FD7                     TMR0H           equ	4055	;# 
   347   000FD8                     STATUS          equ	4056	;# 
   348   000FD9                     FSR2            equ	4057	;# 
   349   000FD9                     FSR2L           equ	4057	;# 
   350   000FDA                     FSR2H           equ	4058	;# 
   351   000FDB                     PLUSW2          equ	4059	;# 
   352   000FDC                     PREINC2         equ	4060	;# 
   353   000FDD                     POSTDEC2        equ	4061	;# 
   354   000FDE                     POSTINC2        equ	4062	;# 
   355   000FDF                     INDF2           equ	4063	;# 
   356   000FE0                     BSR             equ	4064	;# 
   357   000FE1                     FSR1            equ	4065	;# 
   358   000FE1                     FSR1L           equ	4065	;# 
   359   000FE2                     FSR1H           equ	4066	;# 
   360   000FE3                     PLUSW1          equ	4067	;# 
   361   000FE4                     PREINC1         equ	4068	;# 
   362   000FE5                     POSTDEC1        equ	4069	;# 
   363   000FE6                     POSTINC1        equ	4070	;# 
   364   000FE7                     INDF1           equ	4071	;# 
   365   000FE8                     WREG            equ	4072	;# 
   366   000FE9                     FSR0            equ	4073	;# 
   367   000FE9                     FSR0L           equ	4073	;# 
   368   000FEA                     FSR0H           equ	4074	;# 
   369   000FEB                     PLUSW0          equ	4075	;# 
   370   000FEC                     PREINC0         equ	4076	;# 
   371   000FED                     POSTDEC0        equ	4077	;# 
   372   000FEE                     POSTINC0        equ	4078	;# 
   373   000FEF                     INDF0           equ	4079	;# 
   374   000FF0                     INTCON3         equ	4080	;# 
   375   000FF1                     INTCON2         equ	4081	;# 
   376   000FF2                     INTCON          equ	4082	;# 
   377   000FF3                     PROD            equ	4083	;# 
   378   000FF3                     PRODL           equ	4083	;# 
   379   000FF4                     PRODH           equ	4084	;# 
   380   000FF5                     TABLAT          equ	4085	;# 
   381   000FF6                     TBLPTR          equ	4086	;# 
   382   000FF6                     TBLPTRL         equ	4086	;# 
   383   000FF7                     TBLPTRH         equ	4087	;# 
   384   000FF8                     TBLPTRU         equ	4088	;# 
   385   000FF9                     PCLAT           equ	4089	;# 
   386   000FF9                     PC              equ	4089	;# 
   387   000FF9                     PCL             equ	4089	;# 
   388   000FFA                     PCLATH          equ	4090	;# 
   389   000FFB                     PCLATU          equ	4091	;# 
   390   000FFC                     STKPTR          equ	4092	;# 
   391   000FFD                     TOS             equ	4093	;# 
   392   000FFD                     TOSL            equ	4093	;# 
   393   000FFE                     TOSH            equ	4094	;# 
   394   000FFF                     TOSU            equ	4095	;# 
   395   000F80                     PORTA           equ	3968	;# 
   396   000F81                     PORTB           equ	3969	;# 
   397   000F82                     PORTC           equ	3970	;# 
   398   000F83                     PORTD           equ	3971	;# 
   399   000F84                     PORTE           equ	3972	;# 
   400   000F89                     LATA            equ	3977	;# 
   401   000F8A                     LATB            equ	3978	;# 
   402   000F8B                     LATC            equ	3979	;# 
   403   000F8C                     LATD            equ	3980	;# 
   404   000F8D                     LATE            equ	3981	;# 
   405   000F92                     TRISA           equ	3986	;# 
   406   000F92                     DDRA            equ	3986	;# 
   407   000F93                     TRISB           equ	3987	;# 
   408   000F93                     DDRB            equ	3987	;# 
   409   000F94                     TRISC           equ	3988	;# 
   410   000F94                     DDRC            equ	3988	;# 
   411   000F95                     TRISD           equ	3989	;# 
   412   000F95                     DDRD            equ	3989	;# 
   413   000F96                     TRISE           equ	3990	;# 
   414   000F96                     DDRE            equ	3990	;# 
   415   000F9B                     OSCTUNE         equ	3995	;# 
   416   000F9D                     PIE1            equ	3997	;# 
   417   000F9E                     PIR1            equ	3998	;# 
   418   000F9F                     IPR1            equ	3999	;# 
   419   000FA0                     PIE2            equ	4000	;# 
   420   000FA1                     PIR2            equ	4001	;# 
   421   000FA2                     IPR2            equ	4002	;# 
   422   000FA6                     EECON1          equ	4006	;# 
   423   000FA7                     EECON2          equ	4007	;# 
   424   000FA8                     EEDATA          equ	4008	;# 
   425   000FA9                     EEADR           equ	4009	;# 
   426   000FAB                     RCSTA           equ	4011	;# 
   427   000FAB                     RCSTA1          equ	4011	;# 
   428   000FAC                     TXSTA           equ	4012	;# 
   429   000FAC                     TXSTA1          equ	4012	;# 
   430   000FAD                     TXREG           equ	4013	;# 
   431   000FAD                     TXREG1          equ	4013	;# 
   432   000FAE                     RCREG           equ	4014	;# 
   433   000FAE                     RCREG1          equ	4014	;# 
   434   000FAF                     SPBRG           equ	4015	;# 
   435   000FAF                     SPBRG1          equ	4015	;# 
   436   000FB0                     SPBRGH          equ	4016	;# 
   437   000FB1                     T3CON           equ	4017	;# 
   438   000FB2                     TMR3            equ	4018	;# 
   439   000FB2                     TMR3L           equ	4018	;# 
   440   000FB3                     TMR3H           equ	4019	;# 
   441   000FB4                     CMCON           equ	4020	;# 
   442   000FB5                     CVRCON          equ	4021	;# 
   443   000FB6                     ECCP1AS         equ	4022	;# 
   444   000FB6                     ECCPAS          equ	4022	;# 
   445   000FB7                     PWM1CON         equ	4023	;# 
   446   000FB7                     ECCP1DEL        equ	4023	;# 
   447   000FB8                     BAUDCON         equ	4024	;# 
   448   000FB8                     BAUDCTL         equ	4024	;# 
   449   000FBA                     CCP2CON         equ	4026	;# 
   450   000FBB                     CCPR2           equ	4027	;# 
   451   000FBB                     CCPR2L          equ	4027	;# 
   452   000FBC                     CCPR2H          equ	4028	;# 
   453   000FBD                     CCP1CON         equ	4029	;# 
   454   000FBE                     CCPR1           equ	4030	;# 
   455   000FBE                     CCPR1L          equ	4030	;# 
   456   000FBF                     CCPR1H          equ	4031	;# 
   457   000FC0                     ADCON2          equ	4032	;# 
   458   000FC1                     ADCON1          equ	4033	;# 
   459   000FC2                     ADCON0          equ	4034	;# 
   460   000FC3                     ADRES           equ	4035	;# 
   461   000FC3                     ADRESL          equ	4035	;# 
   462   000FC4                     ADRESH          equ	4036	;# 
   463   000FC5                     SSPCON2         equ	4037	;# 
   464   000FC6                     SSPCON1         equ	4038	;# 
   465   000FC7                     SSPSTAT         equ	4039	;# 
   466   000FC8                     SSPADD          equ	4040	;# 
   467   000FC9                     SSPBUF          equ	4041	;# 
   468   000FCA                     T2CON           equ	4042	;# 
   469   000FCB                     PR2             equ	4043	;# 
   470   000FCB                     MEMCON          equ	4043	;# 
   471   000FCC                     TMR2            equ	4044	;# 
   472   000FCD                     T1CON           equ	4045	;# 
   473   000FCE                     TMR1            equ	4046	;# 
   474   000FCE                     TMR1L           equ	4046	;# 
   475   000FCF                     TMR1H           equ	4047	;# 
   476   000FD0                     RCON            equ	4048	;# 
   477   000FD1                     WDTCON          equ	4049	;# 
   478   000FD2                     HLVDCON         equ	4050	;# 
   479   000FD2                     LVDCON          equ	4050	;# 
   480   000FD3                     OSCCON          equ	4051	;# 
   481   000FD5                     T0CON           equ	4053	;# 
   482   000FD6                     TMR0            equ	4054	;# 
   483   000FD6                     TMR0L           equ	4054	;# 
   484   000FD7                     TMR0H           equ	4055	;# 
   485   000FD8                     STATUS          equ	4056	;# 
   486   000FD9                     FSR2            equ	4057	;# 
   487   000FD9                     FSR2L           equ	4057	;# 
   488   000FDA                     FSR2H           equ	4058	;# 
   489   000FDB                     PLUSW2          equ	4059	;# 
   490   000FDC                     PREINC2         equ	4060	;# 
   491   000FDD                     POSTDEC2        equ	4061	;# 
   492   000FDE                     POSTINC2        equ	4062	;# 
   493   000FDF                     INDF2           equ	4063	;# 
   494   000FE0                     BSR             equ	4064	;# 
   495   000FE1                     FSR1            equ	4065	;# 
   496   000FE1                     FSR1L           equ	4065	;# 
   497   000FE2                     FSR1H           equ	4066	;# 
   498   000FE3                     PLUSW1          equ	4067	;# 
   499   000FE4                     PREINC1         equ	4068	;# 
   500   000FE5                     POSTDEC1        equ	4069	;# 
   501   000FE6                     POSTINC1        equ	4070	;# 
   502   000FE7                     INDF1           equ	4071	;# 
   503   000FE8                     WREG            equ	4072	;# 
   504   000FE9                     FSR0            equ	4073	;# 
   505   000FE9                     FSR0L           equ	4073	;# 
   506   000FEA                     FSR0H           equ	4074	;# 
   507   000FEB                     PLUSW0          equ	4075	;# 
   508   000FEC                     PREINC0         equ	4076	;# 
   509   000FED                     POSTDEC0        equ	4077	;# 
   510   000FEE                     POSTINC0        equ	4078	;# 
   511   000FEF                     INDF0           equ	4079	;# 
   512   000FF0                     INTCON3         equ	4080	;# 
   513   000FF1                     INTCON2         equ	4081	;# 
   514   000FF2                     INTCON          equ	4082	;# 
   515   000FF3                     PROD            equ	4083	;# 
   516   000FF3                     PRODL           equ	4083	;# 
   517   000FF4                     PRODH           equ	4084	;# 
   518   000FF5                     TABLAT          equ	4085	;# 
   519   000FF6                     TBLPTR          equ	4086	;# 
   520   000FF6                     TBLPTRL         equ	4086	;# 
   521   000FF7                     TBLPTRH         equ	4087	;# 
   522   000FF8                     TBLPTRU         equ	4088	;# 
   523   000FF9                     PCLAT           equ	4089	;# 
   524   000FF9                     PC              equ	4089	;# 
   525   000FF9                     PCL             equ	4089	;# 
   526   000FFA                     PCLATH          equ	4090	;# 
   527   000FFB                     PCLATU          equ	4091	;# 
   528   000FFC                     STKPTR          equ	4092	;# 
   529   000FFD                     TOS             equ	4093	;# 
   530   000FFD                     TOSL            equ	4093	;# 
   531   000FFE                     TOSH            equ	4094	;# 
   532   000FFF                     TOSU            equ	4095	;# 
   533   000F80                     PORTA           equ	3968	;# 
   534   000F81                     PORTB           equ	3969	;# 
   535   000F82                     PORTC           equ	3970	;# 
   536   000F83                     PORTD           equ	3971	;# 
   537   000F84                     PORTE           equ	3972	;# 
   538   000F89                     LATA            equ	3977	;# 
   539   000F8A                     LATB            equ	3978	;# 
   540   000F8B                     LATC            equ	3979	;# 
   541   000F8C                     LATD            equ	3980	;# 
   542   000F8D                     LATE            equ	3981	;# 
   543   000F92                     TRISA           equ	3986	;# 
   544   000F92                     DDRA            equ	3986	;# 
   545   000F93                     TRISB           equ	3987	;# 
   546   000F93                     DDRB            equ	3987	;# 
   547   000F94                     TRISC           equ	3988	;# 
   548   000F94                     DDRC            equ	3988	;# 
   549   000F95                     TRISD           equ	3989	;# 
   550   000F95                     DDRD            equ	3989	;# 
   551   000F96                     TRISE           equ	3990	;# 
   552   000F96                     DDRE            equ	3990	;# 
   553   000F9B                     OSCTUNE         equ	3995	;# 
   554   000F9D                     PIE1            equ	3997	;# 
   555   000F9E                     PIR1            equ	3998	;# 
   556   000F9F                     IPR1            equ	3999	;# 
   557   000FA0                     PIE2            equ	4000	;# 
   558   000FA1                     PIR2            equ	4001	;# 
   559   000FA2                     IPR2            equ	4002	;# 
   560   000FA6                     EECON1          equ	4006	;# 
   561   000FA7                     EECON2          equ	4007	;# 
   562   000FA8                     EEDATA          equ	4008	;# 
   563   000FA9                     EEADR           equ	4009	;# 
   564   000FAB                     RCSTA           equ	4011	;# 
   565   000FAB                     RCSTA1          equ	4011	;# 
   566   000FAC                     TXSTA           equ	4012	;# 
   567   000FAC                     TXSTA1          equ	4012	;# 
   568   000FAD                     TXREG           equ	4013	;# 
   569   000FAD                     TXREG1          equ	4013	;# 
   570   000FAE                     RCREG           equ	4014	;# 
   571   000FAE                     RCREG1          equ	4014	;# 
   572   000FAF                     SPBRG           equ	4015	;# 
   573   000FAF                     SPBRG1          equ	4015	;# 
   574   000FB0                     SPBRGH          equ	4016	;# 
   575   000FB1                     T3CON           equ	4017	;# 
   576   000FB2                     TMR3            equ	4018	;# 
   577   000FB2                     TMR3L           equ	4018	;# 
   578   000FB3                     TMR3H           equ	4019	;# 
   579   000FB4                     CMCON           equ	4020	;# 
   580   000FB5                     CVRCON          equ	4021	;# 
   581   000FB6                     ECCP1AS         equ	4022	;# 
   582   000FB6                     ECCPAS          equ	4022	;# 
   583   000FB7                     PWM1CON         equ	4023	;# 
   584   000FB7                     ECCP1DEL        equ	4023	;# 
   585   000FB8                     BAUDCON         equ	4024	;# 
   586   000FB8                     BAUDCTL         equ	4024	;# 
   587   000FBA                     CCP2CON         equ	4026	;# 
   588   000FBB                     CCPR2           equ	4027	;# 
   589   000FBB                     CCPR2L          equ	4027	;# 
   590   000FBC                     CCPR2H          equ	4028	;# 
   591   000FBD                     CCP1CON         equ	4029	;# 
   592   000FBE                     CCPR1           equ	4030	;# 
   593   000FBE                     CCPR1L          equ	4030	;# 
   594   000FBF                     CCPR1H          equ	4031	;# 
   595   000FC0                     ADCON2          equ	4032	;# 
   596   000FC1                     ADCON1          equ	4033	;# 
   597   000FC2                     ADCON0          equ	4034	;# 
   598   000FC3                     ADRES           equ	4035	;# 
   599   000FC3                     ADRESL          equ	4035	;# 
   600   000FC4                     ADRESH          equ	4036	;# 
   601   000FC5                     SSPCON2         equ	4037	;# 
   602   000FC6                     SSPCON1         equ	4038	;# 
   603   000FC7                     SSPSTAT         equ	4039	;# 
   604   000FC8                     SSPADD          equ	4040	;# 
   605   000FC9                     SSPBUF          equ	4041	;# 
   606   000FCA                     T2CON           equ	4042	;# 
   607   000FCB                     PR2             equ	4043	;# 
   608   000FCB                     MEMCON          equ	4043	;# 
   609   000FCC                     TMR2            equ	4044	;# 
   610   000FCD                     T1CON           equ	4045	;# 
   611   000FCE                     TMR1            equ	4046	;# 
   612   000FCE                     TMR1L           equ	4046	;# 
   613   000FCF                     TMR1H           equ	4047	;# 
   614   000FD0                     RCON            equ	4048	;# 
   615   000FD1                     WDTCON          equ	4049	;# 
   616   000FD2                     HLVDCON         equ	4050	;# 
   617   000FD2                     LVDCON          equ	4050	;# 
   618   000FD3                     OSCCON          equ	4051	;# 
   619   000FD5                     T0CON           equ	4053	;# 
   620   000FD6                     TMR0            equ	4054	;# 
   621   000FD6                     TMR0L           equ	4054	;# 
   622   000FD7                     TMR0H           equ	4055	;# 
   623   000FD8                     STATUS          equ	4056	;# 
   624   000FD9                     FSR2            equ	4057	;# 
   625   000FD9                     FSR2L           equ	4057	;# 
   626   000FDA                     FSR2H           equ	4058	;# 
   627   000FDB                     PLUSW2          equ	4059	;# 
   628   000FDC                     PREINC2         equ	4060	;# 
   629   000FDD                     POSTDEC2        equ	4061	;# 
   630   000FDE                     POSTINC2        equ	4062	;# 
   631   000FDF                     INDF2           equ	4063	;# 
   632   000FE0                     BSR             equ	4064	;# 
   633   000FE1                     FSR1            equ	4065	;# 
   634   000FE1                     FSR1L           equ	4065	;# 
   635   000FE2                     FSR1H           equ	4066	;# 
   636   000FE3                     PLUSW1          equ	4067	;# 
   637   000FE4                     PREINC1         equ	4068	;# 
   638   000FE5                     POSTDEC1        equ	4069	;# 
   639   000FE6                     POSTINC1        equ	4070	;# 
   640   000FE7                     INDF1           equ	4071	;# 
   641   000FE8                     WREG            equ	4072	;# 
   642   000FE9                     FSR0            equ	4073	;# 
   643   000FE9                     FSR0L           equ	4073	;# 
   644   000FEA                     FSR0H           equ	4074	;# 
   645   000FEB                     PLUSW0          equ	4075	;# 
   646   000FEC                     PREINC0         equ	4076	;# 
   647   000FED                     POSTDEC0        equ	4077	;# 
   648   000FEE                     POSTINC0        equ	4078	;# 
   649   000FEF                     INDF0           equ	4079	;# 
   650   000FF0                     INTCON3         equ	4080	;# 
   651   000FF1                     INTCON2         equ	4081	;# 
   652   000FF2                     INTCON          equ	4082	;# 
   653   000FF3                     PROD            equ	4083	;# 
   654   000FF3                     PRODL           equ	4083	;# 
   655   000FF4                     PRODH           equ	4084	;# 
   656   000FF5                     TABLAT          equ	4085	;# 
   657   000FF6                     TBLPTR          equ	4086	;# 
   658   000FF6                     TBLPTRL         equ	4086	;# 
   659   000FF7                     TBLPTRH         equ	4087	;# 
   660   000FF8                     TBLPTRU         equ	4088	;# 
   661   000FF9                     PCLAT           equ	4089	;# 
   662   000FF9                     PC              equ	4089	;# 
   663   000FF9                     PCL             equ	4089	;# 
   664   000FFA                     PCLATH          equ	4090	;# 
   665   000FFB                     PCLATU          equ	4091	;# 
   666   000FFC                     STKPTR          equ	4092	;# 
   667   000FFD                     TOS             equ	4093	;# 
   668   000FFD                     TOSL            equ	4093	;# 
   669   000FFE                     TOSH            equ	4094	;# 
   670   000FFF                     TOSU            equ	4095	;# 
   671   000F80                     PORTA           equ	3968	;# 
   672   000F81                     PORTB           equ	3969	;# 
   673   000F82                     PORTC           equ	3970	;# 
   674   000F83                     PORTD           equ	3971	;# 
   675   000F84                     PORTE           equ	3972	;# 
   676   000F89                     LATA            equ	3977	;# 
   677   000F8A                     LATB            equ	3978	;# 
   678   000F8B                     LATC            equ	3979	;# 
   679   000F8C                     LATD            equ	3980	;# 
   680   000F8D                     LATE            equ	3981	;# 
   681   000F92                     TRISA           equ	3986	;# 
   682   000F92                     DDRA            equ	3986	;# 
   683   000F93                     TRISB           equ	3987	;# 
   684   000F93                     DDRB            equ	3987	;# 
   685   000F94                     TRISC           equ	3988	;# 
   686   000F94                     DDRC            equ	3988	;# 
   687   000F95                     TRISD           equ	3989	;# 
   688   000F95                     DDRD            equ	3989	;# 
   689   000F96                     TRISE           equ	3990	;# 
   690   000F96                     DDRE            equ	3990	;# 
   691   000F9B                     OSCTUNE         equ	3995	;# 
   692   000F9D                     PIE1            equ	3997	;# 
   693   000F9E                     PIR1            equ	3998	;# 
   694   000F9F                     IPR1            equ	3999	;# 
   695   000FA0                     PIE2            equ	4000	;# 
   696   000FA1                     PIR2            equ	4001	;# 
   697   000FA2                     IPR2            equ	4002	;# 
   698   000FA6                     EECON1          equ	4006	;# 
   699   000FA7                     EECON2          equ	4007	;# 
   700   000FA8                     EEDATA          equ	4008	;# 
   701   000FA9                     EEADR           equ	4009	;# 
   702   000FAB                     RCSTA           equ	4011	;# 
   703   000FAB                     RCSTA1          equ	4011	;# 
   704   000FAC                     TXSTA           equ	4012	;# 
   705   000FAC                     TXSTA1          equ	4012	;# 
   706   000FAD                     TXREG           equ	4013	;# 
   707   000FAD                     TXREG1          equ	4013	;# 
   708   000FAE                     RCREG           equ	4014	;# 
   709   000FAE                     RCREG1          equ	4014	;# 
   710   000FAF                     SPBRG           equ	4015	;# 
   711   000FAF                     SPBRG1          equ	4015	;# 
   712   000FB0                     SPBRGH          equ	4016	;# 
   713   000FB1                     T3CON           equ	4017	;# 
   714   000FB2                     TMR3            equ	4018	;# 
   715   000FB2                     TMR3L           equ	4018	;# 
   716   000FB3                     TMR3H           equ	4019	;# 
   717   000FB4                     CMCON           equ	4020	;# 
   718   000FB5                     CVRCON          equ	4021	;# 
   719   000FB6                     ECCP1AS         equ	4022	;# 
   720   000FB6                     ECCPAS          equ	4022	;# 
   721   000FB7                     PWM1CON         equ	4023	;# 
   722   000FB7                     ECCP1DEL        equ	4023	;# 
   723   000FB8                     BAUDCON         equ	4024	;# 
   724   000FB8                     BAUDCTL         equ	4024	;# 
   725   000FBA                     CCP2CON         equ	4026	;# 
   726   000FBB                     CCPR2           equ	4027	;# 
   727   000FBB                     CCPR2L          equ	4027	;# 
   728   000FBC                     CCPR2H          equ	4028	;# 
   729   000FBD                     CCP1CON         equ	4029	;# 
   730   000FBE                     CCPR1           equ	4030	;# 
   731   000FBE                     CCPR1L          equ	4030	;# 
   732   000FBF                     CCPR1H          equ	4031	;# 
   733   000FC0                     ADCON2          equ	4032	;# 
   734   000FC1                     ADCON1          equ	4033	;# 
   735   000FC2                     ADCON0          equ	4034	;# 
   736   000FC3                     ADRES           equ	4035	;# 
   737   000FC3                     ADRESL          equ	4035	;# 
   738   000FC4                     ADRESH          equ	4036	;# 
   739   000FC5                     SSPCON2         equ	4037	;# 
   740   000FC6                     SSPCON1         equ	4038	;# 
   741   000FC7                     SSPSTAT         equ	4039	;# 
   742   000FC8                     SSPADD          equ	4040	;# 
   743   000FC9                     SSPBUF          equ	4041	;# 
   744   000FCA                     T2CON           equ	4042	;# 
   745   000FCB                     PR2             equ	4043	;# 
   746   000FCB                     MEMCON          equ	4043	;# 
   747   000FCC                     TMR2            equ	4044	;# 
   748   000FCD                     T1CON           equ	4045	;# 
   749   000FCE                     TMR1            equ	4046	;# 
   750   000FCE                     TMR1L           equ	4046	;# 
   751   000FCF                     TMR1H           equ	4047	;# 
   752   000FD0                     RCON            equ	4048	;# 
   753   000FD1                     WDTCON          equ	4049	;# 
   754   000FD2                     HLVDCON         equ	4050	;# 
   755   000FD2                     LVDCON          equ	4050	;# 
   756   000FD3                     OSCCON          equ	4051	;# 
   757   000FD5                     T0CON           equ	4053	;# 
   758   000FD6                     TMR0            equ	4054	;# 
   759   000FD6                     TMR0L           equ	4054	;# 
   760   000FD7                     TMR0H           equ	4055	;# 
   761   000FD8                     STATUS          equ	4056	;# 
   762   000FD9                     FSR2            equ	4057	;# 
   763   000FD9                     FSR2L           equ	4057	;# 
   764   000FDA                     FSR2H           equ	4058	;# 
   765   000FDB                     PLUSW2          equ	4059	;# 
   766   000FDC                     PREINC2         equ	4060	;# 
   767   000FDD                     POSTDEC2        equ	4061	;# 
   768   000FDE                     POSTINC2        equ	4062	;# 
   769   000FDF                     INDF2           equ	4063	;# 
   770   000FE0                     BSR             equ	4064	;# 
   771   000FE1                     FSR1            equ	4065	;# 
   772   000FE1                     FSR1L           equ	4065	;# 
   773   000FE2                     FSR1H           equ	4066	;# 
   774   000FE3                     PLUSW1          equ	4067	;# 
   775   000FE4                     PREINC1         equ	4068	;# 
   776   000FE5                     POSTDEC1        equ	4069	;# 
   777   000FE6                     POSTINC1        equ	4070	;# 
   778   000FE7                     INDF1           equ	4071	;# 
   779   000FE8                     WREG            equ	4072	;# 
   780   000FE9                     FSR0            equ	4073	;# 
   781   000FE9                     FSR0L           equ	4073	;# 
   782   000FEA                     FSR0H           equ	4074	;# 
   783   000FEB                     PLUSW0          equ	4075	;# 
   784   000FEC                     PREINC0         equ	4076	;# 
   785   000FED                     POSTDEC0        equ	4077	;# 
   786   000FEE                     POSTINC0        equ	4078	;# 
   787   000FEF                     INDF0           equ	4079	;# 
   788   000FF0                     INTCON3         equ	4080	;# 
   789   000FF1                     INTCON2         equ	4081	;# 
   790   000FF2                     INTCON          equ	4082	;# 
   791   000FF3                     PROD            equ	4083	;# 
   792   000FF3                     PRODL           equ	4083	;# 
   793   000FF4                     PRODH           equ	4084	;# 
   794   000FF5                     TABLAT          equ	4085	;# 
   795   000FF6                     TBLPTR          equ	4086	;# 
   796   000FF6                     TBLPTRL         equ	4086	;# 
   797   000FF7                     TBLPTRH         equ	4087	;# 
   798   000FF8                     TBLPTRU         equ	4088	;# 
   799   000FF9                     PCLAT           equ	4089	;# 
   800   000FF9                     PC              equ	4089	;# 
   801   000FF9                     PCL             equ	4089	;# 
   802   000FFA                     PCLATH          equ	4090	;# 
   803   000FFB                     PCLATU          equ	4091	;# 
   804   000FFC                     STKPTR          equ	4092	;# 
   805   000FFD                     TOS             equ	4093	;# 
   806   000FFD                     TOSL            equ	4093	;# 
   807   000FFE                     TOSH            equ	4094	;# 
   808   000FFF                     TOSU            equ	4095	;# 
   809   000F80                     PORTA           equ	3968	;# 
   810   000F81                     PORTB           equ	3969	;# 
   811   000F82                     PORTC           equ	3970	;# 
   812   000F83                     PORTD           equ	3971	;# 
   813   000F84                     PORTE           equ	3972	;# 
   814   000F89                     LATA            equ	3977	;# 
   815   000F8A                     LATB            equ	3978	;# 
   816   000F8B                     LATC            equ	3979	;# 
   817   000F8C                     LATD            equ	3980	;# 
   818   000F8D                     LATE            equ	3981	;# 
   819   000F92                     TRISA           equ	3986	;# 
   820   000F92                     DDRA            equ	3986	;# 
   821   000F93                     TRISB           equ	3987	;# 
   822   000F93                     DDRB            equ	3987	;# 
   823   000F94                     TRISC           equ	3988	;# 
   824   000F94                     DDRC            equ	3988	;# 
   825   000F95                     TRISD           equ	3989	;# 
   826   000F95                     DDRD            equ	3989	;# 
   827   000F96                     TRISE           equ	3990	;# 
   828   000F96                     DDRE            equ	3990	;# 
   829   000F9B                     OSCTUNE         equ	3995	;# 
   830   000F9D                     PIE1            equ	3997	;# 
   831   000F9E                     PIR1            equ	3998	;# 
   832   000F9F                     IPR1            equ	3999	;# 
   833   000FA0                     PIE2            equ	4000	;# 
   834   000FA1                     PIR2            equ	4001	;# 
   835   000FA2                     IPR2            equ	4002	;# 
   836   000FA6                     EECON1          equ	4006	;# 
   837   000FA7                     EECON2          equ	4007	;# 
   838   000FA8                     EEDATA          equ	4008	;# 
   839   000FA9                     EEADR           equ	4009	;# 
   840   000FAB                     RCSTA           equ	4011	;# 
   841   000FAB                     RCSTA1          equ	4011	;# 
   842   000FAC                     TXSTA           equ	4012	;# 
   843   000FAC                     TXSTA1          equ	4012	;# 
   844   000FAD                     TXREG           equ	4013	;# 
   845   000FAD                     TXREG1          equ	4013	;# 
   846   000FAE                     RCREG           equ	4014	;# 
   847   000FAE                     RCREG1          equ	4014	;# 
   848   000FAF                     SPBRG           equ	4015	;# 
   849   000FAF                     SPBRG1          equ	4015	;# 
   850   000FB0                     SPBRGH          equ	4016	;# 
   851   000FB1                     T3CON           equ	4017	;# 
   852   000FB2                     TMR3            equ	4018	;# 
   853   000FB2                     TMR3L           equ	4018	;# 
   854   000FB3                     TMR3H           equ	4019	;# 
   855   000FB4                     CMCON           equ	4020	;# 
   856   000FB5                     CVRCON          equ	4021	;# 
   857   000FB6                     ECCP1AS         equ	4022	;# 
   858   000FB6                     ECCPAS          equ	4022	;# 
   859   000FB7                     PWM1CON         equ	4023	;# 
   860   000FB7                     ECCP1DEL        equ	4023	;# 
   861   000FB8                     BAUDCON         equ	4024	;# 
   862   000FB8                     BAUDCTL         equ	4024	;# 
   863   000FBA                     CCP2CON         equ	4026	;# 
   864   000FBB                     CCPR2           equ	4027	;# 
   865   000FBB                     CCPR2L          equ	4027	;# 
   866   000FBC                     CCPR2H          equ	4028	;# 
   867   000FBD                     CCP1CON         equ	4029	;# 
   868   000FBE                     CCPR1           equ	4030	;# 
   869   000FBE                     CCPR1L          equ	4030	;# 
   870   000FBF                     CCPR1H          equ	4031	;# 
   871   000FC0                     ADCON2          equ	4032	;# 
   872   000FC1                     ADCON1          equ	4033	;# 
   873   000FC2                     ADCON0          equ	4034	;# 
   874   000FC3                     ADRES           equ	4035	;# 
   875   000FC3                     ADRESL          equ	4035	;# 
   876   000FC4                     ADRESH          equ	4036	;# 
   877   000FC5                     SSPCON2         equ	4037	;# 
   878   000FC6                     SSPCON1         equ	4038	;# 
   879   000FC7                     SSPSTAT         equ	4039	;# 
   880   000FC8                     SSPADD          equ	4040	;# 
   881   000FC9                     SSPBUF          equ	4041	;# 
   882   000FCA                     T2CON           equ	4042	;# 
   883   000FCB                     PR2             equ	4043	;# 
   884   000FCB                     MEMCON          equ	4043	;# 
   885   000FCC                     TMR2            equ	4044	;# 
   886   000FCD                     T1CON           equ	4045	;# 
   887   000FCE                     TMR1            equ	4046	;# 
   888   000FCE                     TMR1L           equ	4046	;# 
   889   000FCF                     TMR1H           equ	4047	;# 
   890   000FD0                     RCON            equ	4048	;# 
   891   000FD1                     WDTCON          equ	4049	;# 
   892   000FD2                     HLVDCON         equ	4050	;# 
   893   000FD2                     LVDCON          equ	4050	;# 
   894   000FD3                     OSCCON          equ	4051	;# 
   895   000FD5                     T0CON           equ	4053	;# 
   896   000FD6                     TMR0            equ	4054	;# 
   897   000FD6                     TMR0L           equ	4054	;# 
   898   000FD7                     TMR0H           equ	4055	;# 
   899   000FD8                     STATUS          equ	4056	;# 
   900   000FD9                     FSR2            equ	4057	;# 
   901   000FD9                     FSR2L           equ	4057	;# 
   902   000FDA                     FSR2H           equ	4058	;# 
   903   000FDB                     PLUSW2          equ	4059	;# 
   904   000FDC                     PREINC2         equ	4060	;# 
   905   000FDD                     POSTDEC2        equ	4061	;# 
   906   000FDE                     POSTINC2        equ	4062	;# 
   907   000FDF                     INDF2           equ	4063	;# 
   908   000FE0                     BSR             equ	4064	;# 
   909   000FE1                     FSR1            equ	4065	;# 
   910   000FE1                     FSR1L           equ	4065	;# 
   911   000FE2                     FSR1H           equ	4066	;# 
   912   000FE3                     PLUSW1          equ	4067	;# 
   913   000FE4                     PREINC1         equ	4068	;# 
   914   000FE5                     POSTDEC1        equ	4069	;# 
   915   000FE6                     POSTINC1        equ	4070	;# 
   916   000FE7                     INDF1           equ	4071	;# 
   917   000FE8                     WREG            equ	4072	;# 
   918   000FE9                     FSR0            equ	4073	;# 
   919   000FE9                     FSR0L           equ	4073	;# 
   920   000FEA                     FSR0H           equ	4074	;# 
   921   000FEB                     PLUSW0          equ	4075	;# 
   922   000FEC                     PREINC0         equ	4076	;# 
   923   000FED                     POSTDEC0        equ	4077	;# 
   924   000FEE                     POSTINC0        equ	4078	;# 
   925   000FEF                     INDF0           equ	4079	;# 
   926   000FF0                     INTCON3         equ	4080	;# 
   927   000FF1                     INTCON2         equ	4081	;# 
   928   000FF2                     INTCON          equ	4082	;# 
   929   000FF3                     PROD            equ	4083	;# 
   930   000FF3                     PRODL           equ	4083	;# 
   931   000FF4                     PRODH           equ	4084	;# 
   932   000FF5                     TABLAT          equ	4085	;# 
   933   000FF6                     TBLPTR          equ	4086	;# 
   934   000FF6                     TBLPTRL         equ	4086	;# 
   935   000FF7                     TBLPTRH         equ	4087	;# 
   936   000FF8                     TBLPTRU         equ	4088	;# 
   937   000FF9                     PCLAT           equ	4089	;# 
   938   000FF9                     PC              equ	4089	;# 
   939   000FF9                     PCL             equ	4089	;# 
   940   000FFA                     PCLATH          equ	4090	;# 
   941   000FFB                     PCLATU          equ	4091	;# 
   942   000FFC                     STKPTR          equ	4092	;# 
   943   000FFD                     TOS             equ	4093	;# 
   944   000FFD                     TOSL            equ	4093	;# 
   945   000FFE                     TOSH            equ	4094	;# 
   946   000FFF                     TOSU            equ	4095	;# 
   947   000F80                     PORTA           equ	3968	;# 
   948   000F81                     PORTB           equ	3969	;# 
   949   000F82                     PORTC           equ	3970	;# 
   950   000F83                     PORTD           equ	3971	;# 
   951   000F84                     PORTE           equ	3972	;# 
   952   000F89                     LATA            equ	3977	;# 
   953   000F8A                     LATB            equ	3978	;# 
   954   000F8B                     LATC            equ	3979	;# 
   955   000F8C                     LATD            equ	3980	;# 
   956   000F8D                     LATE            equ	3981	;# 
   957   000F92                     TRISA           equ	3986	;# 
   958   000F92                     DDRA            equ	3986	;# 
   959   000F93                     TRISB           equ	3987	;# 
   960   000F93                     DDRB            equ	3987	;# 
   961   000F94                     TRISC           equ	3988	;# 
   962   000F94                     DDRC            equ	3988	;# 
   963   000F95                     TRISD           equ	3989	;# 
   964   000F95                     DDRD            equ	3989	;# 
   965   000F96                     TRISE           equ	3990	;# 
   966   000F96                     DDRE            equ	3990	;# 
   967   000F9B                     OSCTUNE         equ	3995	;# 
   968   000F9D                     PIE1            equ	3997	;# 
   969   000F9E                     PIR1            equ	3998	;# 
   970   000F9F                     IPR1            equ	3999	;# 
   971   000FA0                     PIE2            equ	4000	;# 
   972   000FA1                     PIR2            equ	4001	;# 
   973   000FA2                     IPR2            equ	4002	;# 
   974   000FA6                     EECON1          equ	4006	;# 
   975   000FA7                     EECON2          equ	4007	;# 
   976   000FA8                     EEDATA          equ	4008	;# 
   977   000FA9                     EEADR           equ	4009	;# 
   978   000FAB                     RCSTA           equ	4011	;# 
   979   000FAB                     RCSTA1          equ	4011	;# 
   980   000FAC                     TXSTA           equ	4012	;# 
   981   000FAC                     TXSTA1          equ	4012	;# 
   982   000FAD                     TXREG           equ	4013	;# 
   983   000FAD                     TXREG1          equ	4013	;# 
   984   000FAE                     RCREG           equ	4014	;# 
   985   000FAE                     RCREG1          equ	4014	;# 
   986   000FAF                     SPBRG           equ	4015	;# 
   987   000FAF                     SPBRG1          equ	4015	;# 
   988   000FB0                     SPBRGH          equ	4016	;# 
   989   000FB1                     T3CON           equ	4017	;# 
   990   000FB2                     TMR3            equ	4018	;# 
   991   000FB2                     TMR3L           equ	4018	;# 
   992   000FB3                     TMR3H           equ	4019	;# 
   993   000FB4                     CMCON           equ	4020	;# 
   994   000FB5                     CVRCON          equ	4021	;# 
   995   000FB6                     ECCP1AS         equ	4022	;# 
   996   000FB6                     ECCPAS          equ	4022	;# 
   997   000FB7                     PWM1CON         equ	4023	;# 
   998   000FB7                     ECCP1DEL        equ	4023	;# 
   999   000FB8                     BAUDCON         equ	4024	;# 
  1000   000FB8                     BAUDCTL         equ	4024	;# 
  1001   000FBA                     CCP2CON         equ	4026	;# 
  1002   000FBB                     CCPR2           equ	4027	;# 
  1003   000FBB                     CCPR2L          equ	4027	;# 
  1004   000FBC                     CCPR2H          equ	4028	;# 
  1005   000FBD                     CCP1CON         equ	4029	;# 
  1006   000FBE                     CCPR1           equ	4030	;# 
  1007   000FBE                     CCPR1L          equ	4030	;# 
  1008   000FBF                     CCPR1H          equ	4031	;# 
  1009   000FC0                     ADCON2          equ	4032	;# 
  1010   000FC1                     ADCON1          equ	4033	;# 
  1011   000FC2                     ADCON0          equ	4034	;# 
  1012   000FC3                     ADRES           equ	4035	;# 
  1013   000FC3                     ADRESL          equ	4035	;# 
  1014   000FC4                     ADRESH          equ	4036	;# 
  1015   000FC5                     SSPCON2         equ	4037	;# 
  1016   000FC6                     SSPCON1         equ	4038	;# 
  1017   000FC7                     SSPSTAT         equ	4039	;# 
  1018   000FC8                     SSPADD          equ	4040	;# 
  1019   000FC9                     SSPBUF          equ	4041	;# 
  1020   000FCA                     T2CON           equ	4042	;# 
  1021   000FCB                     PR2             equ	4043	;# 
  1022   000FCB                     MEMCON          equ	4043	;# 
  1023   000FCC                     TMR2            equ	4044	;# 
  1024   000FCD                     T1CON           equ	4045	;# 
  1025   000FCE                     TMR1            equ	4046	;# 
  1026   000FCE                     TMR1L           equ	4046	;# 
  1027   000FCF                     TMR1H           equ	4047	;# 
  1028   000FD0                     RCON            equ	4048	;# 
  1029   000FD1                     WDTCON          equ	4049	;# 
  1030   000FD2                     HLVDCON         equ	4050	;# 
  1031   000FD2                     LVDCON          equ	4050	;# 
  1032   000FD3                     OSCCON          equ	4051	;# 
  1033   000FD5                     T0CON           equ	4053	;# 
  1034   000FD6                     TMR0            equ	4054	;# 
  1035   000FD6                     TMR0L           equ	4054	;# 
  1036   000FD7                     TMR0H           equ	4055	;# 
  1037   000FD8                     STATUS          equ	4056	;# 
  1038   000FD9                     FSR2            equ	4057	;# 
  1039   000FD9                     FSR2L           equ	4057	;# 
  1040   000FDA                     FSR2H           equ	4058	;# 
  1041   000FDB                     PLUSW2          equ	4059	;# 
  1042   000FDC                     PREINC2         equ	4060	;# 
  1043   000FDD                     POSTDEC2        equ	4061	;# 
  1044   000FDE                     POSTINC2        equ	4062	;# 
  1045   000FDF                     INDF2           equ	4063	;# 
  1046   000FE0                     BSR             equ	4064	;# 
  1047   000FE1                     FSR1            equ	4065	;# 
  1048   000FE1                     FSR1L           equ	4065	;# 
  1049   000FE2                     FSR1H           equ	4066	;# 
  1050   000FE3                     PLUSW1          equ	4067	;# 
  1051   000FE4                     PREINC1         equ	4068	;# 
  1052   000FE5                     POSTDEC1        equ	4069	;# 
  1053   000FE6                     POSTINC1        equ	4070	;# 
  1054   000FE7                     INDF1           equ	4071	;# 
  1055   000FE8                     WREG            equ	4072	;# 
  1056   000FE9                     FSR0            equ	4073	;# 
  1057   000FE9                     FSR0L           equ	4073	;# 
  1058   000FEA                     FSR0H           equ	4074	;# 
  1059   000FEB                     PLUSW0          equ	4075	;# 
  1060   000FEC                     PREINC0         equ	4076	;# 
  1061   000FED                     POSTDEC0        equ	4077	;# 
  1062   000FEE                     POSTINC0        equ	4078	;# 
  1063   000FEF                     INDF0           equ	4079	;# 
  1064   000FF0                     INTCON3         equ	4080	;# 
  1065   000FF1                     INTCON2         equ	4081	;# 
  1066   000FF2                     INTCON          equ	4082	;# 
  1067   000FF3                     PROD            equ	4083	;# 
  1068   000FF3                     PRODL           equ	4083	;# 
  1069   000FF4                     PRODH           equ	4084	;# 
  1070   000FF5                     TABLAT          equ	4085	;# 
  1071   000FF6                     TBLPTR          equ	4086	;# 
  1072   000FF6                     TBLPTRL         equ	4086	;# 
  1073   000FF7                     TBLPTRH         equ	4087	;# 
  1074   000FF8                     TBLPTRU         equ	4088	;# 
  1075   000FF9                     PCLAT           equ	4089	;# 
  1076   000FF9                     PC              equ	4089	;# 
  1077   000FF9                     PCL             equ	4089	;# 
  1078   000FFA                     PCLATH          equ	4090	;# 
  1079   000FFB                     PCLATU          equ	4091	;# 
  1080   000FFC                     STKPTR          equ	4092	;# 
  1081   000FFD                     TOS             equ	4093	;# 
  1082   000FFD                     TOSL            equ	4093	;# 
  1083   000FFE                     TOSH            equ	4094	;# 
  1084   000FFF                     TOSU            equ	4095	;# 
  1085                           
  1086                           	psect	mediumconst
  1087   007CEE                     __pmediumconst:
  1088                           	callstack 0
  1089   007CEE  00                 	db	0
  1090   007CEF                     _atanlo:
  1091                           	callstack 0
  1092   007CEF  3769               	dw	14185
  1093   007CF1  31AC               	dw	12716
  1094   007CF3  2168               	dw	8552
  1095   007CF5  3322               	dw	13090
  1096   007CF7  0FB4               	dw	4020
  1097   007CF9  3314               	dw	13076
  1098   007CFB  2168               	dw	8552
  1099   007CFD  33A2               	dw	13218
  1100   007CFF                     __end_of_atanlo:
  1101                           	callstack 0
  1102   007CFF                     _atanhi:
  1103                           	callstack 0
  1104   007CFF  6338               	dw	25400
  1105   007D01  3EED               	dw	16109
  1106   007D03  0FDA               	dw	4058
  1107   007D05  3F49               	dw	16201
  1108   007D07  985E               	dw	39006
  1109   007D09  3F7B               	dw	16251
  1110   007D0B  0FDA               	dw	4058
  1111   007D0D  3FC9               	dw	16329
  1112   007D0F                     __end_of_atanhi:
  1113                           	callstack 0
  1114   007D0F  AC25               	dw	44069
  1115   007D11  3D7C               	dw	15740
  1116   007D13                     __end_of_aT4:
  1117                           	callstack 0
  1118   007D13  1247               	dw	4679
  1119   007D15  BDDA               	dw	48602
  1120   007D17                     __end_of_aT3:
  1121                           	callstack 0
  1122   007D17  F50D               	dw	62733
  1123   007D19  3E11               	dw	15889
  1124   007D1B                     __end_of_aT2:
  1125                           	callstack 0
  1126   007D1B  CA98               	dw	51864
  1127   007D1D  BE4C               	dw	48716
  1128   007D1F                     __end_of_aT1:
  1129                           	callstack 0
  1130   007D1F  AAA9               	dw	43689
  1131   007D21  3EAA               	dw	16042
  1132   007D23                     __end_of_aT0:
  1133                           	callstack 0
  1134   007D23  BD2E               	dw	48430
  1135   007D25  B3BB               	dw	46011
  1136   007D27                     __end_of_pi_lo:
  1137                           	callstack 0
  1138   007D27  0FDB               	dw	4059
  1139   007D29  4049               	dw	16457
  1140   007D2B                     __end_of_pi:
  1141                           	callstack 0
  1142   007E2C                     _ACKEN          set	32300
  1143   007E2D                     _ACKDT          set	32301
  1144   007E2B                     _RCEN           set	32299
  1145   007E38                     _BF             set	32312
  1146   007E2A                     _PEN            set	32298
  1147   007E28                     _SEN            set	32296
  1148   007E9C                     _IRCF0          set	32412
  1149   007E9D                     _IRCF1          set	32413
  1150   007E9E                     _IRCF2          set	32414
  1151   007E07                     _ADFM           set	32263
  1152   000F8A                     _LATBbits       set	3978
  1153   000F93                     _TRISB          set	3987
  1154   000F92                     _TRISA          set	3986
  1155   000F89                     _LATA           set	3977
  1156   000F94                     _TRISCbits      set	3988
  1157   000F89                     _LATAbits       set	3977
  1158   000F92                     _TRISAbits      set	3986
  1159   000FC5                     _SSPCON2bits    set	4037
  1160   000FC9                     _SSPBUF         set	4041
  1161   000FC7                     _SSPSTAT        set	4039
  1162   000FC8                     _SSPADD         set	4040
  1163   000FC5                     _SSPCON2        set	4037
  1164   000FC6                     _SSPCON1        set	4038
  1165   000FD3                     _OSCCON         set	4051
  1166   000FAE                     _RCREG          set	4014
  1167   000FAD                     _TXREG          set	4013
  1168   000F9D                     _PIE1bits       set	3997
  1169   000FAB                     _RCSTAbits      set	4011
  1170   000FAF                     _SPBRG          set	4015
  1171   000FB8                     _BAUDCONbits    set	4024
  1172   000FAC                     _TXSTAbits      set	4012
  1173   000FD0                     _RCONbits       set	4048
  1174   000F9F                     _IPR1bits       set	3999
  1175   000F9E                     _PIR1bits       set	3998
  1176   000FBD                     _CCP1CON        set	4029
  1177   000FC2                     _ADCON0bits     set	4034
  1178   000FC3                     _ADRESL         set	4035
  1179   000FC4                     _ADRESH         set	4036
  1180   000FC0                     _ADCON2bits     set	4032
  1181   000FC1                     _ADCON1         set	4033
  1182   000FF2                     _INTCONbits     set	4082
  1183   007D2B  0D                 	db	13
  1184   007D2C  0A                 	db	10
  1185   007D2D  00                 	db	0
  1186   007D2E  00                 	db	0	; dummy byte at the end
  1187   000002                     __activetblptr  equ	2
  1188                           
  1189                           ; #config settings
  1190                           
  1191                           	psect	cinit
  1192   00546C                     __pcinit:
  1193                           	callstack 0
  1194   00546C                     start_initialization:
  1195                           	callstack 0
  1196   00546C                     __initialization:
  1197                           	callstack 0
  1198                           
  1199                           ; Clear objects allocated to BANK1 (72 bytes)
  1200   00546C  EE01  F000         	lfsr	0,__pbssBANK1
  1201   005470  0E48               	movlw	72
  1202   005472                     clear_0:
  1203   005472  6AEE               	clrf	postinc0,c
  1204   005474  06E8               	decf	wreg,f,c
  1205   005476  E1FD               	bnz	clear_0
  1206                           
  1207                           ; Clear objects allocated to BANK0 (12 bytes)
  1208   005478  EE00  F0F3         	lfsr	0,__pbssBANK0
  1209   00547C  0E0C               	movlw	12
  1210   00547E                     clear_1:
  1211   00547E  6AEE               	clrf	postinc0,c
  1212   005480  06E8               	decf	wreg,f,c
  1213   005482  E1FD               	bnz	clear_1
  1214   005484                     end_of_initialization:
  1215                           	callstack 0
  1216   005484                     __end_of__initialization:
  1217                           	callstack 0
  1218   005484  0E00               	movlw	low (__Lmediumconst shr (0+16))
  1219   005486  6EF8               	movwf	tblptru,c
  1220   005488  0100               	movlb	0
  1221   00548A  EFE4  F02A         	goto	_main	;jump to C main() function
  1222                           
  1223                           	psect	bssBANK0
  1224   0000F3                     __pbssBANK0:
  1225                           	callstack 0
  1226   0000F3                     _from_mid:
  1227                           	callstack 0
  1228   0000F3                     	ds	2
  1229   0000F5                     _dir:
  1230                           	callstack 0
  1231   0000F5                     	ds	2
  1232   0000F7                     _accY:
  1233                           	callstack 0
  1234   0000F7                     	ds	2
  1235   0000F9                     _accZ_low:
  1236                           	callstack 0
  1237   0000F9                     	ds	1
  1238   0000FA                     _accZ_high:
  1239                           	callstack 0
  1240   0000FA                     	ds	1
  1241   0000FB                     _accY_low:
  1242                           	callstack 0
  1243   0000FB                     	ds	1
  1244   0000FC                     _accY_high:
  1245                           	callstack 0
  1246   0000FC                     	ds	1
  1247   0000FD                     _accX_low:
  1248                           	callstack 0
  1249   0000FD                     	ds	1
  1250   0000FE                     _accX_high:
  1251                           	callstack 0
  1252   0000FE                     	ds	1
  1253                           
  1254                           	psect	bssBANK1
  1255   000100                     __pbssBANK1:
  1256                           	callstack 0
  1257   000100                     _str:
  1258                           	callstack 0
  1259   000100                     	ds	20
  1260   000114                     fabsf@F465:
  1261                           	callstack 0
  1262   000114                     	ds	4
  1263   000118                     ___fpclassifyf@F465:
  1264                           	callstack 0
  1265   000118                     	ds	4
  1266   00011C                     _angle:
  1267                           	callstack 0
  1268   00011C                     	ds	4
  1269   000120                     _pitch_offset:
  1270                           	callstack 0
  1271   000120                     	ds	4
  1272   000124                     _errno:
  1273                           	callstack 0
  1274   000124                     	ds	2
  1275   000126                     _postpostscaler:
  1276                           	callstack 0
  1277   000126                     	ds	2
  1278   000128                     _accZ:
  1279                           	callstack 0
  1280   000128                     	ds	2
  1281   00012A                     _accX:
  1282                           	callstack 0
  1283   00012A                     	ds	2
  1284   00012C                     _needSendMsg:
  1285                           	callstack 0
  1286   00012C                     	ds	2
  1287   00012E                     _isConnected:
  1288                           	callstack 0
  1289   00012E                     	ds	2
  1290   000130                     _count:
  1291                           	callstack 0
  1292   000130                     	ds	2
  1293   000132                     _lenStr:
  1294                           	callstack 0
  1295   000132                     	ds	2
  1296   000134                     _mystring:
  1297                           	callstack 0
  1298   000134                     	ds	20
  1299                           
  1300                           	psect	cstackBANK0
  1301   000080                     __pcstackBANK0:
  1302                           	callstack 0
  1303   000080                     ?_atanf:
  1304                           	callstack 0
  1305   000080                     atanf@x:
  1306                           	callstack 0
  1307                           
  1308                           ; 4 bytes @ 0x0
  1309   000080                     	ds	4
  1310   000084                     _atanf$1840:
  1311                           	callstack 0
  1312                           
  1313                           ; 4 bytes @ 0x4
  1314   000084                     	ds	4
  1315   000088                     _atanf$1842:
  1316                           	callstack 0
  1317                           
  1318                           ; 4 bytes @ 0x8
  1319   000088                     	ds	4
  1320   00008C                     _atanf$1843:
  1321                           	callstack 0
  1322                           
  1323                           ; 4 bytes @ 0xC
  1324   00008C                     	ds	4
  1325   000090                     atanf@s1:
  1326                           	callstack 0
  1327                           
  1328                           ; 4 bytes @ 0x10
  1329   000090                     	ds	4
  1330   000094                     atanf@s2:
  1331                           	callstack 0
  1332                           
  1333                           ; 4 bytes @ 0x14
  1334   000094                     	ds	4
  1335   000098                     _atanf$1839:
  1336                           	callstack 0
  1337                           
  1338                           ; 4 bytes @ 0x18
  1339   000098                     	ds	4
  1340   00009C                     _atanf$1841:
  1341                           	callstack 0
  1342                           
  1343                           ; 4 bytes @ 0x1C
  1344   00009C                     	ds	4
  1345   0000A0                     atanf@sign:
  1346                           	callstack 0
  1347                           
  1348                           ; 1 bytes @ 0x20
  1349   0000A0                     	ds	1
  1350   0000A1                     atanf@w:
  1351                           	callstack 0
  1352                           
  1353                           ; 4 bytes @ 0x21
  1354   0000A1                     	ds	4
  1355   0000A5                     atanf@id:
  1356                           	callstack 0
  1357                           
  1358                           ; 1 bytes @ 0x25
  1359   0000A5                     	ds	1
  1360   0000A6                     atanf@z:
  1361                           	callstack 0
  1362                           
  1363                           ; 4 bytes @ 0x26
  1364   0000A6                     	ds	4
  1365   0000AA                     atanf@ix:
  1366                           	callstack 0
  1367                           
  1368                           ; 4 bytes @ 0x2A
  1369   0000AA                     	ds	4
  1370   0000AE                     ?_atan2f:
  1371                           	callstack 0
  1372   0000AE                     atan2f@y:
  1373                           	callstack 0
  1374                           
  1375                           ; 4 bytes @ 0x2E
  1376   0000AE                     	ds	4
  1377   0000B2                     atan2f@x:
  1378                           	callstack 0
  1379                           
  1380                           ; 4 bytes @ 0x32
  1381   0000B2                     	ds	4
  1382   0000B6                     ??_atan2f:
  1383                           
  1384                           ; 1 bytes @ 0x36
  1385   0000B6                     	ds	8
  1386   0000BE                     _atan2f$1836:
  1387                           	callstack 0
  1388                           
  1389                           ; 4 bytes @ 0x3E
  1390   0000BE                     	ds	4
  1391   0000C2                     _atan2f$1837:
  1392                           	callstack 0
  1393                           
  1394                           ; 4 bytes @ 0x42
  1395   0000C2                     	ds	4
  1396   0000C6                     _atan2f$1838:
  1397                           	callstack 0
  1398                           
  1399                           ; 4 bytes @ 0x46
  1400   0000C6                     	ds	4
  1401   0000CA                     atan2f@z:
  1402                           	callstack 0
  1403                           
  1404                           ; 4 bytes @ 0x4A
  1405   0000CA                     	ds	4
  1406   0000CE                     atan2f@ix:
  1407                           	callstack 0
  1408                           
  1409                           ; 4 bytes @ 0x4E
  1410   0000CE                     	ds	4
  1411   0000D2                     atan2f@iy:
  1412                           	callstack 0
  1413                           
  1414                           ; 4 bytes @ 0x52
  1415   0000D2                     	ds	4
  1416   0000D6                     atan2f@m:
  1417                           	callstack 0
  1418                           
  1419                           ; 1 bytes @ 0x56
  1420   0000D6                     	ds	1
  1421   0000D7                     ?_calculate_angle:
  1422                           	callstack 0
  1423   0000D7                     calculate_angle@accX:
  1424                           	callstack 0
  1425                           
  1426                           ; 2 bytes @ 0x57
  1427   0000D7                     	ds	2
  1428   0000D9                     calculate_angle@accY:
  1429                           	callstack 0
  1430                           
  1431                           ; 2 bytes @ 0x59
  1432   0000D9                     	ds	2
  1433   0000DB                     calculate_angle@accZ:
  1434                           	callstack 0
  1435                           
  1436                           ; 2 bytes @ 0x5B
  1437   0000DB                     	ds	2
  1438   0000DD                     _calculate_angle$1834:
  1439                           	callstack 0
  1440                           
  1441                           ; 4 bytes @ 0x5D
  1442   0000DD                     	ds	4
  1443   0000E1                     _calculate_angle$1835:
  1444                           	callstack 0
  1445                           
  1446                           ; 4 bytes @ 0x61
  1447   0000E1                     	ds	4
  1448   0000E5                     Calibration@accX:
  1449                           	callstack 0
  1450   0000E5                     ??_Check_Gyroscope:
  1451                           
  1452                           ; 1 bytes @ 0x65
  1453   0000E5                     	ds	2
  1454   0000E7                     Calibration@accZ:
  1455                           	callstack 0
  1456   0000E7                     _Check_Gyroscope$1833:
  1457                           	callstack 0
  1458                           
  1459                           ; 4 bytes @ 0x67
  1460   0000E7                     	ds	2
  1461   0000E9                     Calibration@accX_high:
  1462                           	callstack 0
  1463                           
  1464                           ; 1 bytes @ 0x69
  1465   0000E9                     	ds	1
  1466   0000EA                     Calibration@accX_low:
  1467                           	callstack 0
  1468                           
  1469                           ; 1 bytes @ 0x6A
  1470   0000EA                     	ds	1
  1471   0000EB                     Calibration@accZ_high:
  1472                           	callstack 0
  1473                           
  1474                           ; 1 bytes @ 0x6B
  1475   0000EB                     	ds	1
  1476   0000EC                     Calibration@accZ_low:
  1477                           	callstack 0
  1478                           
  1479                           ; 1 bytes @ 0x6C
  1480   0000EC                     	ds	1
  1481   0000ED                     ??_Gyroscope_Initialize:
  1482                           
  1483                           ; 1 bytes @ 0x6D
  1484   0000ED                     	ds	1
  1485   0000EE                     ??_main:
  1486                           
  1487                           ; 1 bytes @ 0x6E
  1488   0000EE                     	ds	1
  1489   0000EF                     main@prev_bend_sensor_val:
  1490                           	callstack 0
  1491                           
  1492                           ; 2 bytes @ 0x6F
  1493   0000EF                     	ds	2
  1494   0000F1                     main@blinker_dir:
  1495                           	callstack 0
  1496                           
  1497                           ; 2 bytes @ 0x71
  1498   0000F1                     	ds	2
  1499                           
  1500                           	psect	cstackCOMRAM
  1501   000001                     __pcstackCOMRAM:
  1502                           	callstack 0
  1503   000001                     ?___fpclassifyf:
  1504                           	callstack 0
  1505   000001                     ?_ADC_Read:
  1506                           	callstack 0
  1507   000001                     ?___flneg:
  1508                           	callstack 0
  1509   000001                     ?___xxtofl:
  1510                           	callstack 0
  1511   000001                     I2C_Write@data:
  1512                           	callstack 0
  1513   000001                     I2C_Read@ack:
  1514                           	callstack 0
  1515   000001                     ADC_Read@channel:
  1516                           	callstack 0
  1517   000001                     ___flge@ff1:
  1518                           	callstack 0
  1519   000001                     ___flneg@f1:
  1520                           	callstack 0
  1521   000001                     ___xxtofl@val:
  1522                           	callstack 0
  1523   000001                     ___fpclassifyf@x:
  1524                           	callstack 0
  1525   000001                     
  1526                           ; 1 bytes @ 0x0
  1527   000001                     	ds	1
  1528   000002                     I2C_Read@data:
  1529                           	callstack 0
  1530                           
  1531                           ; 1 bytes @ 0x1
  1532   000002                     	ds	1
  1533   000003                     ??_ADC_Read:
  1534                           
  1535                           ; 1 bytes @ 0x2
  1536   000003                     	ds	2
  1537   000005                     ADC_Read@digital:
  1538                           	callstack 0
  1539   000005                     ___flge@ff2:
  1540                           	callstack 0
  1541   000005                     ??___fpclassifyf:
  1542   000005                     ??___xxtofl:
  1543                           
  1544                           ; 1 bytes @ 0x4
  1545   000005                     	ds	2
  1546   000007                     Check_ADC@prev_sensor_val:
  1547                           	callstack 0
  1548                           
  1549                           ; 2 bytes @ 0x6
  1550   000007                     	ds	2
  1551   000009                     ___xxtofl@sign:
  1552                           	callstack 0
  1553   000009                     ___fpclassifyf@e:
  1554                           	callstack 0
  1555   000009                     ??_Check_ADC:
  1556   000009                     ??___flge:
  1557                           
  1558                           ; 1 bytes @ 0x8
  1559   000009                     	ds	1
  1560   00000A                     ___xxtofl@exp:
  1561                           	callstack 0
  1562                           
  1563                           ; 1 bytes @ 0x9
  1564   00000A                     	ds	1
  1565   00000B                     ___xxtofl@arg:
  1566                           	callstack 0
  1567   00000B                     ___fpclassifyf@u:
  1568                           	callstack 0
  1569                           
  1570                           ; 4 bytes @ 0xA
  1571   00000B                     	ds	1
  1572   00000C                     Check_ADC@bend_sensor_val:
  1573                           	callstack 0
  1574                           
  1575                           ; 2 bytes @ 0xB
  1576   00000C                     	ds	3
  1577   00000F                     ?___flmul:
  1578                           	callstack 0
  1579   00000F                     ___flmul@b:
  1580                           	callstack 0
  1581                           
  1582                           ; 4 bytes @ 0xE
  1583   00000F                     	ds	4
  1584   000013                     ___flmul@a:
  1585                           	callstack 0
  1586                           
  1587                           ; 4 bytes @ 0x12
  1588   000013                     	ds	4
  1589   000017                     ??___flmul:
  1590                           
  1591                           ; 1 bytes @ 0x16
  1592   000017                     	ds	4
  1593   00001B                     ___flmul@sign:
  1594                           	callstack 0
  1595                           
  1596                           ; 1 bytes @ 0x1A
  1597   00001B                     	ds	1
  1598   00001C                     ___flmul@grs:
  1599                           	callstack 0
  1600                           
  1601                           ; 4 bytes @ 0x1B
  1602   00001C                     	ds	4
  1603   000020                     ___flmul@aexp:
  1604                           	callstack 0
  1605                           
  1606                           ; 1 bytes @ 0x1F
  1607   000020                     	ds	1
  1608   000021                     ___flmul@bexp:
  1609                           	callstack 0
  1610                           
  1611                           ; 1 bytes @ 0x20
  1612   000021                     	ds	1
  1613   000022                     ___flmul@prod:
  1614                           	callstack 0
  1615                           
  1616                           ; 4 bytes @ 0x21
  1617   000022                     	ds	4
  1618   000026                     ___flmul@temp:
  1619                           	callstack 0
  1620                           
  1621                           ; 2 bytes @ 0x25
  1622   000026                     	ds	2
  1623   000028                     ?___fladd:
  1624                           	callstack 0
  1625   000028                     ___fladd@b:
  1626                           	callstack 0
  1627                           
  1628                           ; 4 bytes @ 0x27
  1629   000028                     	ds	4
  1630   00002C                     ___fladd@a:
  1631                           	callstack 0
  1632                           
  1633                           ; 4 bytes @ 0x2B
  1634   00002C                     	ds	4
  1635   000030                     ??___fladd:
  1636                           
  1637                           ; 1 bytes @ 0x2F
  1638   000030                     	ds	4
  1639   000034                     ___fladd@signs:
  1640                           	callstack 0
  1641                           
  1642                           ; 1 bytes @ 0x33
  1643   000034                     	ds	1
  1644   000035                     ___fladd@aexp:
  1645                           	callstack 0
  1646                           
  1647                           ; 1 bytes @ 0x34
  1648   000035                     	ds	1
  1649   000036                     ___fladd@bexp:
  1650                           	callstack 0
  1651                           
  1652                           ; 1 bytes @ 0x35
  1653   000036                     	ds	1
  1654   000037                     ___fladd@grs:
  1655                           	callstack 0
  1656                           
  1657                           ; 1 bytes @ 0x36
  1658   000037                     	ds	1
  1659   000038                     ?_sqrtf:
  1660                           	callstack 0
  1661   000038                     ?___flsub:
  1662                           	callstack 0
  1663   000038                     ___flsub@b:
  1664                           	callstack 0
  1665   000038                     sqrtf@x:
  1666                           	callstack 0
  1667                           
  1668                           ; 4 bytes @ 0x37
  1669   000038                     	ds	4
  1670   00003C                     ___flsub@a:
  1671                           	callstack 0
  1672   00003C                     ??_sqrtf:
  1673                           
  1674                           ; 1 bytes @ 0x3B
  1675   00003C                     	ds	4
  1676   000040                     
  1677                           ; 1 bytes @ 0x3F
  1678   000040                     	ds	1
  1679   000041                     sqrtf@s:
  1680                           	callstack 0
  1681                           
  1682                           ; 4 bytes @ 0x40
  1683   000041                     	ds	4
  1684   000045                     sqrtf@i:
  1685                           	callstack 0
  1686                           
  1687                           ; 4 bytes @ 0x44
  1688   000045                     	ds	4
  1689   000049                     sqrtf@q:
  1690                           	callstack 0
  1691                           
  1692                           ; 4 bytes @ 0x48
  1693   000049                     	ds	4
  1694   00004D                     sqrtf@t:
  1695                           	callstack 0
  1696                           
  1697                           ; 4 bytes @ 0x4C
  1698   00004D                     	ds	4
  1699   000051                     sqrtf@m:
  1700                           	callstack 0
  1701                           
  1702                           ; 4 bytes @ 0x50
  1703   000051                     	ds	4
  1704   000055                     sqrtf@r:
  1705                           	callstack 0
  1706                           
  1707                           ; 4 bytes @ 0x54
  1708   000055                     	ds	4
  1709   000059                     sqrtf@ix:
  1710                           	callstack 0
  1711                           
  1712                           ; 4 bytes @ 0x58
  1713   000059                     	ds	4
  1714   00005D                     ?___fldiv:
  1715                           	callstack 0
  1716   00005D                     ___fldiv@b:
  1717                           	callstack 0
  1718                           
  1719                           ; 4 bytes @ 0x5C
  1720   00005D                     	ds	4
  1721   000061                     ___fldiv@a:
  1722                           	callstack 0
  1723                           
  1724                           ; 4 bytes @ 0x60
  1725   000061                     	ds	4
  1726   000065                     ??___fldiv:
  1727                           
  1728                           ; 1 bytes @ 0x64
  1729   000065                     	ds	4
  1730   000069                     ___fldiv@rem:
  1731                           	callstack 0
  1732                           
  1733                           ; 4 bytes @ 0x68
  1734   000069                     	ds	4
  1735   00006D                     ___fldiv@sign:
  1736                           	callstack 0
  1737                           
  1738                           ; 1 bytes @ 0x6C
  1739   00006D                     	ds	1
  1740   00006E                     ___fldiv@new_exp:
  1741                           	callstack 0
  1742                           
  1743                           ; 2 bytes @ 0x6D
  1744   00006E                     	ds	2
  1745   000070                     ___fldiv@grs:
  1746                           	callstack 0
  1747                           
  1748                           ; 4 bytes @ 0x6F
  1749   000070                     	ds	4
  1750   000074                     ___fldiv@bexp:
  1751                           	callstack 0
  1752                           
  1753                           ; 1 bytes @ 0x73
  1754   000074                     	ds	1
  1755   000075                     ___fldiv@aexp:
  1756                           	callstack 0
  1757                           
  1758                           ; 1 bytes @ 0x74
  1759   000075                     	ds	1
  1760   000076                     ?_fabsf:
  1761                           	callstack 0
  1762   000076                     fabsf@x:
  1763                           	callstack 0
  1764                           
  1765                           ; 4 bytes @ 0x75
  1766   000076                     	ds	4
  1767   00007A                     fabsf@u:
  1768                           	callstack 0
  1769   00007A                     
  1770                           ; 1 bytes @ 0x79
  1771   00007A                     	ds	4
  1772   00007E                     Check_Gyroscope@blinker_dir:
  1773                           	callstack 0
  1774   00007E                     ??_Calibration:
  1775   00007E                     
  1776                           ; 1 bytes @ 0x7D
  1777   00007E                     	ds	2
  1778   000080                     
  1779                           ; 1 bytes @ 0x7F
  1780 ;;
  1781 ;;Main: autosize = 0, tempsize = 1, incstack = 0, save=0
  1782 ;;
  1783 ;; *************** function _main *****************
  1784 ;; Defined at:
  1785 ;;		line 22 in file "main.c"
  1786 ;; Parameters:    Size  Location     Type
  1787 ;;		None
  1788 ;; Auto vars:     Size  Location     Type
  1789 ;;  blinker_dir     2  113[BANK0 ] int 
  1790 ;;  prev_bend_se    2  111[BANK0 ] int 
  1791 ;; Return value:  Size  Location     Type
  1792 ;;                  1    wreg      void 
  1793 ;; Registers used:
  1794 ;;		wreg, status,2, status,0, tblptrl, tblptrh, tblptru, prodl, prodh, cstack
  1795 ;; Tracked objects:
  1796 ;;		On entry : 0/0
  1797 ;;		On exit  : 0/0
  1798 ;;		Unchanged: 0/0
  1799 ;; Data sizes:     COMRAM   BANK0   BANK1   BANK2   BANK3   BANK4   BANK5
  1800 ;;      Params:         0       0       0       0       0       0       0
  1801 ;;      Locals:         0       4       0       0       0       0       0
  1802 ;;      Temps:          0       1       0       0       0       0       0
  1803 ;;      Totals:         0       5       0       0       0       0       0
  1804 ;;Total ram usage:        5 bytes
  1805 ;; Hardware stack levels required when called: 8
  1806 ;; This function calls:
  1807 ;;		_Check_ADC
  1808 ;;		_Check_Gyroscope
  1809 ;;		_SYSTEM_Initialize
  1810 ;; This function is called by:
  1811 ;;		Startup code after reset
  1812 ;; This function uses a non-reentrant model
  1813 ;;
  1814                           
  1815                           	psect	text0
  1816   0055C8                     __ptext0:
  1817                           	callstack 0
  1818   0055C8                     _main:
  1819                           	callstack 23
  1820   0055C8                     
  1821                           ;main.c: 25:     SYSTEM_Initialize() ;
  1822   0055C8  EC12  F02A         	call	_SYSTEM_Initialize	;wreg free
  1823   0055CC                     
  1824                           ;main.c: 27:     int blinker_dir = 0;
  1825   0055CC  0E00               	movlw	0
  1826   0055CE  0100               	movlb	0	; () banked
  1827   0055D0  6FF2               	movwf	(main@blinker_dir+1)& (0+255),b
  1828   0055D2  0E00               	movlw	0
  1829   0055D4  6FF1               	movwf	main@blinker_dir& (0+255),b
  1830   0055D6                     l3357:
  1831                           
  1832                           ;main.c: 37:         Check_ADC(prev_bend_sensor_val);
  1833   0055D6  C0EF  F007         	movff	main@prev_bend_sensor_val,Check_ADC@prev_sensor_val
  1834   0055DA  C0F0  F008         	movff	main@prev_bend_sensor_val+1,Check_ADC@prev_sensor_val+1
  1835   0055DE  EC27  F02B         	call	_Check_ADC	;wreg free
  1836   0055E2                     
  1837                           ;main.c: 39:         Check_Gyroscope(blinker_dir);
  1838   0055E2  C0F1  F07E         	movff	main@blinker_dir,Check_Gyroscope@blinker_dir
  1839   0055E6  C0F2  F07F         	movff	main@blinker_dir+1,Check_Gyroscope@blinker_dir+1
  1840   0055EA  EC7E  F02E         	call	_Check_Gyroscope	;wreg free
  1841   0055EE                     
  1842                           ;main.c: 40:         _delay((unsigned long)((20)*(4000000/4000.0)));
  1843   0055EE  0E1A               	movlw	26
  1844   0055F0  0100               	movlb	0	; () banked
  1845   0055F2  6FEE               	movwf	??_main& (0+255),b
  1846   0055F4  0EF8               	movlw	248
  1847   0055F6                     u3517:
  1848   0055F6  2EE8               	decfsz	wreg,f,c
  1849   0055F8  D7FE               	bra	u3517
  1850   0055FA  2FEE               	decfsz	??_main& (0+255),f,b
  1851   0055FC  D7FC               	bra	u3517
  1852   0055FE  0000               	nop	
  1853   005600  EFEB  F02A         	goto	l3357
  1854   005604  EF00  F000         	goto	start
  1855   005608                     __end_of_main:
  1856                           	callstack 0
  1857                           
  1858 ;; *************** function _SYSTEM_Initialize *****************
  1859 ;; Defined at:
  1860 ;;		line 60 in file "setting_hardaware/setting.c"
  1861 ;; Parameters:    Size  Location     Type
  1862 ;;		None
  1863 ;; Auto vars:     Size  Location     Type
  1864 ;;		None
  1865 ;; Return value:  Size  Location     Type
  1866 ;;                  1    wreg      void 
  1867 ;; Registers used:
  1868 ;;		wreg, status,2, status,0, tblptrl, tblptrh, tblptru, prodl, prodh, cstack
  1869 ;; Tracked objects:
  1870 ;;		On entry : 0/0
  1871 ;;		On exit  : 0/0
  1872 ;;		Unchanged: 0/0
  1873 ;; Data sizes:     COMRAM   BANK0   BANK1   BANK2   BANK3   BANK4   BANK5
  1874 ;;      Params:         0       0       0       0       0       0       0
  1875 ;;      Locals:         0       0       0       0       0       0       0
  1876 ;;      Temps:          0       0       0       0       0       0       0
  1877 ;;      Totals:         0       0       0       0       0       0       0
  1878 ;;Total ram usage:        0 bytes
  1879 ;; Hardware stack levels used: 1
  1880 ;; Hardware stack levels required when called: 7
  1881 ;; This function calls:
  1882 ;;		_ADC_Initialize
  1883 ;;		_Gyroscope_Initialize
  1884 ;;		_INTERRUPT_Initialize
  1885 ;;		_OSCILLATOR_Initialize
  1886 ;; This function is called by:
  1887 ;;		_main
  1888 ;; This function uses a non-reentrant model
  1889 ;;
  1890                           
  1891                           	psect	text1
  1892   005424                     __ptext1:
  1893                           	callstack 0
  1894   005424                     _SYSTEM_Initialize:
  1895                           	callstack 23
  1896   005424                     
  1897                           ;setting_hardaware/setting.c: 63:     OSCILLATOR_Initialize();
  1898   005424  ECF5  F029         	call	_OSCILLATOR_Initialize	;wreg free
  1899   005428                     
  1900                           ;setting_hardaware/setting.c: 67:     INTERRUPT_Initialize();
  1901   005428  EC28  F02A         	call	_INTERRUPT_Initialize	;wreg free
  1902   00542C                     
  1903                           ;setting_hardaware/setting.c: 70:     ADC_Initialize();
  1904   00542C  EC1B  F02A         	call	_ADC_Initialize	;wreg free
  1905   005430                     
  1906                           ;setting_hardaware/setting.c: 71:     Gyroscope_Initialize();
  1907   005430  ECA8  F02A         	call	_Gyroscope_Initialize	;wreg free
  1908   005434  0012               	return		;funcret
  1909   005436                     __end_of_SYSTEM_Initialize:
  1910                           	callstack 0
  1911                           
  1912 ;; *************** function _OSCILLATOR_Initialize *****************
  1913 ;; Defined at:
  1914 ;;		line 74 in file "setting_hardaware/setting.c"
  1915 ;; Parameters:    Size  Location     Type
  1916 ;;		None
  1917 ;; Auto vars:     Size  Location     Type
  1918 ;;		None
  1919 ;; Return value:  Size  Location     Type
  1920 ;;                  1    wreg      void 
  1921 ;; Registers used:
  1922 ;;		None
  1923 ;; Tracked objects:
  1924 ;;		On entry : 0/0
  1925 ;;		On exit  : 0/0
  1926 ;;		Unchanged: 0/0
  1927 ;; Data sizes:     COMRAM   BANK0   BANK1   BANK2   BANK3   BANK4   BANK5
  1928 ;;      Params:         0       0       0       0       0       0       0
  1929 ;;      Locals:         0       0       0       0       0       0       0
  1930 ;;      Temps:          0       0       0       0       0       0       0
  1931 ;;      Totals:         0       0       0       0       0       0       0
  1932 ;;Total ram usage:        0 bytes
  1933 ;; Hardware stack levels used: 1
  1934 ;; This function calls:
  1935 ;;		Nothing
  1936 ;; This function is called by:
  1937 ;;		_SYSTEM_Initialize
  1938 ;; This function uses a non-reentrant model
  1939 ;;
  1940                           
  1941                           	psect	text2
  1942   0053EA                     __ptext2:
  1943                           	callstack 0
  1944   0053EA                     _OSCILLATOR_Initialize:
  1945                           	callstack 29
  1946   0053EA                     
  1947                           ;setting_hardaware/setting.c: 76:     IRCF2 = 1;
  1948   0053EA  8CD3               	bsf	4051,6,c	;volatile
  1949                           
  1950                           ;setting_hardaware/setting.c: 77:     IRCF1 = 1;
  1951   0053EC  8AD3               	bsf	4051,5,c	;volatile
  1952                           
  1953                           ;setting_hardaware/setting.c: 78:     IRCF0 = 0;
  1954   0053EE  98D3               	bcf	4051,4,c	;volatile
  1955   0053F0  0012               	return		;funcret
  1956   0053F2                     __end_of_OSCILLATOR_Initialize:
  1957                           	callstack 0
  1958                           
  1959 ;; *************** function _INTERRUPT_Initialize *****************
  1960 ;; Defined at:
  1961 ;;		line 3 in file "setting_hardaware/interrupt_manager.c"
  1962 ;; Parameters:    Size  Location     Type
  1963 ;;		None
  1964 ;; Auto vars:     Size  Location     Type
  1965 ;;		None
  1966 ;; Return value:  Size  Location     Type
  1967 ;;                  1    wreg      void 
  1968 ;; Registers used:
  1969 ;;		wreg, status,2
  1970 ;; Tracked objects:
  1971 ;;		On entry : 0/0
  1972 ;;		On exit  : 0/0
  1973 ;;		Unchanged: 0/0
  1974 ;; Data sizes:     COMRAM   BANK0   BANK1   BANK2   BANK3   BANK4   BANK5
  1975 ;;      Params:         0       0       0       0       0       0       0
  1976 ;;      Locals:         0       0       0       0       0       0       0
  1977 ;;      Temps:          0       0       0       0       0       0       0
  1978 ;;      Totals:         0       0       0       0       0       0       0
  1979 ;;Total ram usage:        0 bytes
  1980 ;; Hardware stack levels used: 1
  1981 ;; This function calls:
  1982 ;;		Nothing
  1983 ;; This function is called by:
  1984 ;;		_SYSTEM_Initialize
  1985 ;; This function uses a non-reentrant model
  1986 ;;
  1987                           
  1988                           	psect	text3
  1989   005450                     __ptext3:
  1990                           	callstack 0
  1991   005450                     _INTERRUPT_Initialize:
  1992                           	callstack 29
  1993   005450                     
  1994                           ;setting_hardaware/interrupt_manager.c: 5:     RCONbits.IPEN = 1;
  1995   005450  8ED0               	bsf	208,7,c	;volatile
  1996                           
  1997                           ;setting_hardaware/interrupt_manager.c: 6:     INTCONbits.GIEH = 1;
  1998   005452  8EF2               	bsf	242,7,c	;volatile
  1999                           
  2000                           ;setting_hardaware/interrupt_manager.c: 7:     INTCONbits.GIEL = 1;
  2001   005454  8CF2               	bsf	242,6,c	;volatile
  2002   005456                     
  2003                           ;setting_hardaware/interrupt_manager.c: 10:     ADCON1 = 0x0f;
  2004   005456  0E0F               	movlw	15
  2005   005458  6EC1               	movwf	193,c	;volatile
  2006   00545A                     
  2007                           ;setting_hardaware/interrupt_manager.c: 11:     LATA = 0x00;
  2008   00545A  6A89               	clrf	137,c	;volatile
  2009   00545C                     
  2010                           ;setting_hardaware/interrupt_manager.c: 12:     TRISA = 0x00;
  2011   00545C  6A92               	clrf	146,c	;volatile
  2012   00545E                     
  2013                           ;setting_hardaware/interrupt_manager.c: 13:     TRISAbits.TRISA0 = 1;
  2014   00545E  8092               	bsf	146,0,c	;volatile
  2015                           
  2016                           ;setting_hardaware/interrupt_manager.c: 16:     TRISB = 0x01;
  2017   005460  0E01               	movlw	1
  2018   005462  6E93               	movwf	147,c	;volatile
  2019   005464                     
  2020                           ;setting_hardaware/interrupt_manager.c: 17:     LATBbits.LATB0 = 0;
  2021   005464  908A               	bcf	138,0,c	;volatile
  2022   005466                     
  2023                           ;setting_hardaware/interrupt_manager.c: 19:     INTCONbits.INT0IE = 0;
  2024   005466  98F2               	bcf	242,4,c	;volatile
  2025   005468                     
  2026                           ;setting_hardaware/interrupt_manager.c: 20:     INTCONbits.INT0IF = 0;
  2027   005468  92F2               	bcf	242,1,c	;volatile
  2028   00546A  0012               	return		;funcret
  2029   00546C                     __end_of_INTERRUPT_Initialize:
  2030                           	callstack 0
  2031                           
  2032 ;; *************** function _Gyroscope_Initialize *****************
  2033 ;; Defined at:
  2034 ;;		line 32 in file "setting_hardaware/gyroscope.c"
  2035 ;; Parameters:    Size  Location     Type
  2036 ;;		None
  2037 ;; Auto vars:     Size  Location     Type
  2038 ;;		None
  2039 ;; Return value:  Size  Location     Type
  2040 ;;                  1    wreg      void 
  2041 ;; Registers used:
  2042 ;;		wreg, status,2, status,0, tblptrl, tblptrh, tblptru, prodl, prodh, cstack
  2043 ;; Tracked objects:
  2044 ;;		On entry : 0/0
  2045 ;;		On exit  : 0/0
  2046 ;;		Unchanged: 0/0
  2047 ;; Data sizes:     COMRAM   BANK0   BANK1   BANK2   BANK3   BANK4   BANK5
  2048 ;;      Params:         0       0       0       0       0       0       0
  2049 ;;      Locals:         0       0       0       0       0       0       0
  2050 ;;      Temps:          0       1       0       0       0       0       0
  2051 ;;      Totals:         0       1       0       0       0       0       0
  2052 ;;Total ram usage:        1 bytes
  2053 ;; Hardware stack levels used: 1
  2054 ;; Hardware stack levels required when called: 6
  2055 ;; This function calls:
  2056 ;;		_Calibration
  2057 ;;		_I2C_Init
  2058 ;;		_I2C_Start
  2059 ;;		_I2C_Stop
  2060 ;;		_I2C_Write
  2061 ;; This function is called by:
  2062 ;;		_SYSTEM_Initialize
  2063 ;; This function uses a non-reentrant model
  2064 ;;
  2065                           
  2066                           	psect	text4
  2067   005550                     __ptext4:
  2068                           	callstack 0
  2069   005550                     _Gyroscope_Initialize:
  2070                           	callstack 23
  2071   005550                     
  2072                           ;setting_hardaware/gyroscope.c: 33:     OSCCON = 0x60;
  2073   005550  0E60               	movlw	96
  2074   005552  6ED3               	movwf	211,c	;volatile
  2075   005554                     
  2076                           ;setting_hardaware/gyroscope.c: 35:     I2C_Init();
  2077   005554  ECF9  F029         	call	_I2C_Init	;wreg free
  2078   005558                     
  2079                           ;setting_hardaware/gyroscope.c: 36:     _delay((unsigned long)((100)*(4000000/4000.0)));
  2080   005558  0E82               	movlw	130
  2081   00555A  0100               	movlb	0	; () banked
  2082   00555C  6FED               	movwf	??_Gyroscope_Initialize& (0+255),b
  2083   00555E  0EDD               	movlw	221
  2084   005560                     u3527:
  2085   005560  2EE8               	decfsz	wreg,f,c
  2086   005562  D7FE               	bra	u3527
  2087   005564  2FED               	decfsz	??_Gyroscope_Initialize& (0+255),f,b
  2088   005566  D7FC               	bra	u3527
  2089   005568  D000               	nop2	
  2090   00556A                     
  2091                           ;setting_hardaware/gyroscope.c: 39:     I2C_Start();
  2092   00556A  EC00  F02A         	call	_I2C_Start	;wreg free
  2093   00556E                     
  2094                           ;setting_hardaware/gyroscope.c: 40:     I2C_Write(0x68 << 1);
  2095   00556E  0ED0               	movlw	208
  2096   005570  EC47  F02A         	call	_I2C_Write
  2097   005574                     
  2098                           ;setting_hardaware/gyroscope.c: 41:     I2C_Write(0x6B);
  2099   005574  0E6B               	movlw	107
  2100   005576  EC47  F02A         	call	_I2C_Write
  2101   00557A                     
  2102                           ;setting_hardaware/gyroscope.c: 42:     I2C_Write(0x00);
  2103   00557A  0E00               	movlw	0
  2104   00557C  EC47  F02A         	call	_I2C_Write
  2105                           
  2106                           ;setting_hardaware/gyroscope.c: 43:     I2C_Stop();
  2107   005580  EC09  F02A         	call	_I2C_Stop	;wreg free
  2108   005584                     
  2109                           ;setting_hardaware/gyroscope.c: 45:     Calibration();
  2110   005584  EC72  F02B         	call	_Calibration	;wreg free
  2111   005588  0012               	return		;funcret
  2112   00558A                     __end_of_Gyroscope_Initialize:
  2113                           	callstack 0
  2114                           
  2115 ;; *************** function _I2C_Init *****************
  2116 ;; Defined at:
  2117 ;;		line 104 in file "setting_hardaware/gyroscope.c"
  2118 ;; Parameters:    Size  Location     Type
  2119 ;;		None
  2120 ;; Auto vars:     Size  Location     Type
  2121 ;;		None
  2122 ;; Return value:  Size  Location     Type
  2123 ;;                  1    wreg      void 
  2124 ;; Registers used:
  2125 ;;		wreg, status,2
  2126 ;; Tracked objects:
  2127 ;;		On entry : 0/0
  2128 ;;		On exit  : 0/0
  2129 ;;		Unchanged: 0/0
  2130 ;; Data sizes:     COMRAM   BANK0   BANK1   BANK2   BANK3   BANK4   BANK5
  2131 ;;      Params:         0       0       0       0       0       0       0
  2132 ;;      Locals:         0       0       0       0       0       0       0
  2133 ;;      Temps:          0       0       0       0       0       0       0
  2134 ;;      Totals:         0       0       0       0       0       0       0
  2135 ;;Total ram usage:        0 bytes
  2136 ;; Hardware stack levels used: 1
  2137 ;; This function calls:
  2138 ;;		Nothing
  2139 ;; This function is called by:
  2140 ;;		_Gyroscope_Initialize
  2141 ;; This function uses a non-reentrant model
  2142 ;;
  2143                           
  2144                           	psect	text5
  2145   0053F2                     __ptext5:
  2146                           	callstack 0
  2147   0053F2                     _I2C_Init:
  2148                           	callstack 28
  2149   0053F2                     
  2150                           ;setting_hardaware/gyroscope.c: 105:     SSPCON1 = 0x28;
  2151   0053F2  0E28               	movlw	40
  2152   0053F4  6EC6               	movwf	198,c	;volatile
  2153   0053F6                     
  2154                           ;setting_hardaware/gyroscope.c: 106:     SSPCON2 = 0x00;
  2155   0053F6  6AC5               	clrf	197,c	;volatile
  2156                           
  2157                           ;setting_hardaware/gyroscope.c: 108:     SSPADD = 9;
  2158   0053F8  0E09               	movlw	9
  2159   0053FA  6EC8               	movwf	200,c	;volatile
  2160   0053FC                     
  2161                           ;setting_hardaware/gyroscope.c: 109:     SSPSTAT = 0x00;
  2162   0053FC  6AC7               	clrf	199,c	;volatile
  2163   0053FE  0012               	return		;funcret
  2164   005400                     __end_of_I2C_Init:
  2165                           	callstack 0
  2166                           
  2167 ;; *************** function _Calibration *****************
  2168 ;; Defined at:
  2169 ;;		line 144 in file "setting_hardaware/gyroscope.c"
  2170 ;; Parameters:    Size  Location     Type
  2171 ;;		None
  2172 ;; Auto vars:     Size  Location     Type
  2173 ;;  accZ            2  103[BANK0 ] short 
  2174 ;;  accX            2  101[BANK0 ] short 
  2175 ;;  accZ_low        1  108[BANK0 ] unsigned char 
  2176 ;;  accZ_high       1  107[BANK0 ] unsigned char 
  2177 ;;  accX_low        1  106[BANK0 ] unsigned char 
  2178 ;;  accX_high       1  105[BANK0 ] unsigned char 
  2179 ;; Return value:  Size  Location     Type
  2180 ;;                  1    wreg      void 
  2181 ;; Registers used:
  2182 ;;		wreg, status,2, status,0, tblptrl, tblptrh, tblptru, prodl, prodh, cstack
  2183 ;; Tracked objects:
  2184 ;;		On entry : 0/0
  2185 ;;		On exit  : 0/0
  2186 ;;		Unchanged: 0/0
  2187 ;; Data sizes:     COMRAM   BANK0   BANK1   BANK2   BANK3   BANK4   BANK5
  2188 ;;      Params:         0       0       0       0       0       0       0
  2189 ;;      Locals:         0       8       0       0       0       0       0
  2190 ;;      Temps:          2       0       0       0       0       0       0
  2191 ;;      Totals:         2       8       0       0       0       0       0
  2192 ;;Total ram usage:       10 bytes
  2193 ;; Hardware stack levels used: 1
  2194 ;; Hardware stack levels required when called: 5
  2195 ;; This function calls:
  2196 ;;		_I2C_Read
  2197 ;;		_I2C_Start
  2198 ;;		_I2C_Stop
  2199 ;;		_I2C_Write
  2200 ;;		_calculate_angle
  2201 ;; This function is called by:
  2202 ;;		_Gyroscope_Initialize
  2203 ;; This function uses a non-reentrant model
  2204 ;;
  2205                           
  2206                           	psect	text6
  2207   0056E4                     __ptext6:
  2208                           	callstack 0
  2209   0056E4                     _Calibration:
  2210                           	callstack 23
  2211   0056E4                     
  2212                           ;setting_hardaware/gyroscope.c: 145:     int16_t accX, accZ;;setting_hardaware/gyroscope
      +                          .c: 146:     uint8_t accX_high, accX_low, accZ_high, accZ_low;;setting_hardaware/gyrosco
      +                          pe.c: 147:     I2C_Start();
  2213   0056E4  EC00  F02A         	call	_I2C_Start	;wreg free
  2214   0056E8                     
  2215                           ;setting_hardaware/gyroscope.c: 148:     I2C_Write(0x68 << 1);
  2216   0056E8  0ED0               	movlw	208
  2217   0056EA  EC47  F02A         	call	_I2C_Write
  2218   0056EE                     
  2219                           ;setting_hardaware/gyroscope.c: 149:     I2C_Write(0x3B);
  2220   0056EE  0E3B               	movlw	59
  2221   0056F0  EC47  F02A         	call	_I2C_Write
  2222                           
  2223                           ;setting_hardaware/gyroscope.c: 150:     I2C_Start();
  2224   0056F4  EC00  F02A         	call	_I2C_Start	;wreg free
  2225   0056F8                     
  2226                           ;setting_hardaware/gyroscope.c: 151:     I2C_Write((0x68 << 1) | 1);
  2227   0056F8  0ED1               	movlw	209
  2228   0056FA  EC47  F02A         	call	_I2C_Write
  2229   0056FE                     
  2230                           ;setting_hardaware/gyroscope.c: 152:     accX_high = I2C_Read(1);
  2231   0056FE  0E01               	movlw	1
  2232   005700  ECC5  F02A         	call	_I2C_Read
  2233   005704  0100               	movlb	0	; () banked
  2234   005706  6FE9               	movwf	Calibration@accX_high& (0+255),b
  2235   005708                     
  2236                           ; BSR set to: 0
  2237                           ;setting_hardaware/gyroscope.c: 153:     accX_low = I2C_Read(1);
  2238   005708  0E01               	movlw	1
  2239   00570A  ECC5  F02A         	call	_I2C_Read
  2240   00570E  0100               	movlb	0	; () banked
  2241   005710  6FEA               	movwf	Calibration@accX_low& (0+255),b
  2242   005712                     
  2243                           ; BSR set to: 0
  2244                           ;setting_hardaware/gyroscope.c: 154:     accY_high = I2C_Read(1);
  2245   005712  0E01               	movlw	1
  2246   005714  ECC5  F02A         	call	_I2C_Read
  2247   005718  0100               	movlb	0	; () banked
  2248   00571A  6FFC               	movwf	_accY_high& (0+255),b
  2249   00571C                     
  2250                           ; BSR set to: 0
  2251                           ;setting_hardaware/gyroscope.c: 155:     accY_low = I2C_Read(1);
  2252   00571C  0E01               	movlw	1
  2253   00571E  ECC5  F02A         	call	_I2C_Read
  2254   005722  0100               	movlb	0	; () banked
  2255   005724  6FFB               	movwf	_accY_low& (0+255),b
  2256   005726                     
  2257                           ; BSR set to: 0
  2258                           ;setting_hardaware/gyroscope.c: 156:     accZ_high = I2C_Read(1);
  2259   005726  0E01               	movlw	1
  2260   005728  ECC5  F02A         	call	_I2C_Read
  2261   00572C  0100               	movlb	0	; () banked
  2262   00572E  6FEB               	movwf	Calibration@accZ_high& (0+255),b
  2263   005730                     
  2264                           ; BSR set to: 0
  2265                           ;setting_hardaware/gyroscope.c: 157:     accZ_low = I2C_Read(0);
  2266   005730  0E00               	movlw	0
  2267   005732  ECC5  F02A         	call	_I2C_Read
  2268   005736  0100               	movlb	0	; () banked
  2269   005738  6FEC               	movwf	Calibration@accZ_low& (0+255),b
  2270   00573A                     
  2271                           ; BSR set to: 0
  2272                           ;setting_hardaware/gyroscope.c: 158:     I2C_Stop();
  2273   00573A  EC09  F02A         	call	_I2C_Stop	;wreg free
  2274   00573E                     
  2275                           ;setting_hardaware/gyroscope.c: 160:     accX = (accX_high << 8) | accX_low;
  2276   00573E  0100               	movlb	0	; () banked
  2277   005740  51EA               	movf	Calibration@accX_low& (0+255),w,b
  2278   005742  C0E9  F07E         	movff	Calibration@accX_high,??_Calibration
  2279   005746  6A7F               	clrf	(??_Calibration+1)^0,c
  2280   005748  C07E  F07F         	movff	??_Calibration,??_Calibration+1
  2281   00574C  6A7E               	clrf	??_Calibration^0,c
  2282   00574E  107E               	iorwf	??_Calibration^0,w,c
  2283   005750  6FE5               	movwf	Calibration@accX& (0+255),b
  2284   005752  507F               	movf	(??_Calibration+1)^0,w,c
  2285   005754  6FE6               	movwf	(Calibration@accX+1)& (0+255),b
  2286   005756                     
  2287                           ; BSR set to: 0
  2288                           ;setting_hardaware/gyroscope.c: 161:     accY = (accY_high << 8) | accY_low;
  2289   005756  51FB               	movf	_accY_low& (0+255),w,b
  2290   005758  C0FC  F07E         	movff	_accY_high,??_Calibration
  2291   00575C  6A7F               	clrf	(??_Calibration+1)^0,c
  2292   00575E  C07E  F07F         	movff	??_Calibration,??_Calibration+1
  2293   005762  6A7E               	clrf	??_Calibration^0,c
  2294   005764  107E               	iorwf	??_Calibration^0,w,c
  2295   005766  6FF7               	movwf	_accY& (0+255),b
  2296   005768  507F               	movf	(??_Calibration+1)^0,w,c
  2297   00576A  6FF8               	movwf	(_accY+1)& (0+255),b
  2298   00576C                     
  2299                           ; BSR set to: 0
  2300                           ;setting_hardaware/gyroscope.c: 162:     accZ = (accZ_high << 8) | accZ_low;
  2301   00576C  51EC               	movf	Calibration@accZ_low& (0+255),w,b
  2302   00576E  C0EB  F07E         	movff	Calibration@accZ_high,??_Calibration
  2303   005772  6A7F               	clrf	(??_Calibration+1)^0,c
  2304   005774  C07E  F07F         	movff	??_Calibration,??_Calibration+1
  2305   005778  6A7E               	clrf	??_Calibration^0,c
  2306   00577A  107E               	iorwf	??_Calibration^0,w,c
  2307   00577C  6FE7               	movwf	Calibration@accZ& (0+255),b
  2308   00577E  507F               	movf	(??_Calibration+1)^0,w,c
  2309   005780  6FE8               	movwf	(Calibration@accZ+1)& (0+255),b
  2310   005782                     
  2311                           ; BSR set to: 0
  2312                           ;setting_hardaware/gyroscope.c: 163:     pitch_offset = calculate_angle(accX, accY, accZ
      +                          );
  2313   005782  C0E5  F0D7         	movff	Calibration@accX,calculate_angle@accX
  2314   005786  C0E6  F0D8         	movff	Calibration@accX+1,calculate_angle@accX+1
  2315   00578A  C0F7  F0D9         	movff	_accY,calculate_angle@accY
  2316   00578E  C0F8  F0DA         	movff	_accY+1,calculate_angle@accY+1
  2317   005792  C0E7  F0DB         	movff	Calibration@accZ,calculate_angle@accZ
  2318   005796  C0E8  F0DC         	movff	Calibration@accZ+1,calculate_angle@accZ+1
  2319   00579A  ECD9  F02C         	call	_calculate_angle	;wreg free
  2320   00579E  C0D7  F120         	movff	?_calculate_angle,_pitch_offset
  2321   0057A2  C0D8  F121         	movff	?_calculate_angle+1,_pitch_offset+1
  2322   0057A6  C0D9  F122         	movff	?_calculate_angle+2,_pitch_offset+2
  2323   0057AA  C0DA  F123         	movff	?_calculate_angle+3,_pitch_offset+3
  2324   0057AE  0012               	return		;funcret
  2325   0057B0                     __end_of_Calibration:
  2326                           	callstack 0
  2327                           
  2328 ;; *************** function _ADC_Initialize *****************
  2329 ;; Defined at:
  2330 ;;		line 8 in file "setting_hardaware/adc.c"
  2331 ;; Parameters:    Size  Location     Type
  2332 ;;		None
  2333 ;; Auto vars:     Size  Location     Type
  2334 ;;		None
  2335 ;; Return value:  Size  Location     Type
  2336 ;;                  1    wreg      void 
  2337 ;; Registers used:
  2338 ;;		wreg, status,2
  2339 ;; Tracked objects:
  2340 ;;		On entry : 0/0
  2341 ;;		On exit  : 0/0
  2342 ;;		Unchanged: 0/0
  2343 ;; Data sizes:     COMRAM   BANK0   BANK1   BANK2   BANK3   BANK4   BANK5
  2344 ;;      Params:         0       0       0       0       0       0       0
  2345 ;;      Locals:         0       0       0       0       0       0       0
  2346 ;;      Temps:          0       0       0       0       0       0       0
  2347 ;;      Totals:         0       0       0       0       0       0       0
  2348 ;;Total ram usage:        0 bytes
  2349 ;; Hardware stack levels used: 1
  2350 ;; This function calls:
  2351 ;;		Nothing
  2352 ;; This function is called by:
  2353 ;;		_SYSTEM_Initialize
  2354 ;; This function uses a non-reentrant model
  2355 ;;
  2356                           
  2357                           	psect	text7
  2358   005436                     __ptext7:
  2359                           	callstack 0
  2360   005436                     _ADC_Initialize:
  2361                           	callstack 29
  2362   005436                     
  2363                           ;setting_hardaware/adc.c: 10:     TRISAbits.RA0 = 1;
  2364   005436  8092               	bsf	146,0,c	;volatile
  2365   005438                     
  2366                           ;setting_hardaware/adc.c: 12:     ADCON1 = 0x0e;
  2367   005438  0E0E               	movlw	14
  2368   00543A  6EC1               	movwf	193,c	;volatile
  2369   00543C                     
  2370                           ;setting_hardaware/adc.c: 14:     ADFM = 1 ;
  2371   00543C  8EC0               	bsf	4032,7,c	;volatile
  2372                           
  2373                           ;setting_hardaware/adc.c: 15:     ADCON2bits.ADCS = 7;
  2374   00543E  0E07               	movlw	7
  2375   005440  12C0               	iorwf	192,f,c	;volatile
  2376                           
  2377                           ;setting_hardaware/adc.c: 16:     ADCON2bits.ACQT = 0b001;
  2378   005442  50C0               	movf	192,w,c	;volatile
  2379   005444  0BC7               	andlw	-57
  2380   005446  0908               	iorlw	8
  2381   005448  6EC0               	movwf	192,c	;volatile
  2382   00544A                     
  2383                           ;setting_hardaware/adc.c: 18:     ADRESH=0;
  2384   00544A  6AC4               	clrf	196,c	;volatile
  2385   00544C                     
  2386                           ;setting_hardaware/adc.c: 19:     ADRESL=0;
  2387   00544C  6AC3               	clrf	195,c	;volatile
  2388   00544E  0012               	return		;funcret
  2389   005450                     __end_of_ADC_Initialize:
  2390                           	callstack 0
  2391                           
  2392 ;; *************** function _Check_Gyroscope *****************
  2393 ;; Defined at:
  2394 ;;		line 48 in file "setting_hardaware/gyroscope.c"
  2395 ;; Parameters:    Size  Location     Type
  2396 ;;  blinker_dir     2  125[COMRAM] int 
  2397 ;; Auto vars:     Size  Location     Type
  2398 ;;		None
  2399 ;; Return value:  Size  Location     Type
  2400 ;;                  1    wreg      void 
  2401 ;; Registers used:
  2402 ;;		wreg, status,2, status,0, tblptrl, tblptrh, tblptru, prodl, prodh, cstack
  2403 ;; Tracked objects:
  2404 ;;		On entry : 0/0
  2405 ;;		On exit  : 0/0
  2406 ;;		Unchanged: 0/0
  2407 ;; Data sizes:     COMRAM   BANK0   BANK1   BANK2   BANK3   BANK4   BANK5
  2408 ;;      Params:         2       0       0       0       0       0       0
  2409 ;;      Locals:         0       4       0       0       0       0       0
  2410 ;;      Temps:          0       2       0       0       0       0       0
  2411 ;;      Totals:         2       6       0       0       0       0       0
  2412 ;;Total ram usage:        8 bytes
  2413 ;; Hardware stack levels used: 1
  2414 ;; Hardware stack levels required when called: 5
  2415 ;; This function calls:
  2416 ;;		_I2C_Read
  2417 ;;		_I2C_Start
  2418 ;;		_I2C_Stop
  2419 ;;		_I2C_Write
  2420 ;;		___flge
  2421 ;;		___flsub
  2422 ;;		_calculate_angle
  2423 ;; This function is called by:
  2424 ;;		_main
  2425 ;; This function uses a non-reentrant model
  2426 ;;
  2427                           
  2428                           	psect	text8
  2429   005CFC                     __ptext8:
  2430                           	callstack 0
  2431   005CFC                     _Check_Gyroscope:
  2432                           	callstack 25
  2433   005CFC                     
  2434                           ;setting_hardaware/gyroscope.c: 49:     I2C_Start();
  2435   005CFC  EC00  F02A         	call	_I2C_Start	;wreg free
  2436   005D00                     
  2437                           ;setting_hardaware/gyroscope.c: 50:     I2C_Write(0x68 << 1);
  2438   005D00  0ED0               	movlw	208
  2439   005D02  EC47  F02A         	call	_I2C_Write
  2440   005D06                     
  2441                           ;setting_hardaware/gyroscope.c: 51:     I2C_Write(0x3B);
  2442   005D06  0E3B               	movlw	59
  2443   005D08  EC47  F02A         	call	_I2C_Write
  2444                           
  2445                           ;setting_hardaware/gyroscope.c: 52:     I2C_Start();
  2446   005D0C  EC00  F02A         	call	_I2C_Start	;wreg free
  2447   005D10                     
  2448                           ;setting_hardaware/gyroscope.c: 53:     I2C_Write((0x68 << 1) | 1);
  2449   005D10  0ED1               	movlw	209
  2450   005D12  EC47  F02A         	call	_I2C_Write
  2451   005D16                     
  2452                           ;setting_hardaware/gyroscope.c: 55:     accX_high = I2C_Read(1);
  2453   005D16  0E01               	movlw	1
  2454   005D18  ECC5  F02A         	call	_I2C_Read
  2455   005D1C  0100               	movlb	0	; () banked
  2456   005D1E  6FFE               	movwf	_accX_high& (0+255),b
  2457   005D20                     
  2458                           ; BSR set to: 0
  2459                           ;setting_hardaware/gyroscope.c: 56:     accX_low = I2C_Read(1);
  2460   005D20  0E01               	movlw	1
  2461   005D22  ECC5  F02A         	call	_I2C_Read
  2462   005D26  0100               	movlb	0	; () banked
  2463   005D28  6FFD               	movwf	_accX_low& (0+255),b
  2464   005D2A                     
  2465                           ; BSR set to: 0
  2466                           ;setting_hardaware/gyroscope.c: 57:     accY_high = I2C_Read(1);
  2467   005D2A  0E01               	movlw	1
  2468   005D2C  ECC5  F02A         	call	_I2C_Read
  2469   005D30  0100               	movlb	0	; () banked
  2470   005D32  6FFC               	movwf	_accY_high& (0+255),b
  2471   005D34                     
  2472                           ; BSR set to: 0
  2473                           ;setting_hardaware/gyroscope.c: 58:     accY_low = I2C_Read(1);
  2474   005D34  0E01               	movlw	1
  2475   005D36  ECC5  F02A         	call	_I2C_Read
  2476   005D3A  0100               	movlb	0	; () banked
  2477   005D3C  6FFB               	movwf	_accY_low& (0+255),b
  2478   005D3E                     
  2479                           ; BSR set to: 0
  2480                           ;setting_hardaware/gyroscope.c: 59:     accZ_high = I2C_Read(1);
  2481   005D3E  0E01               	movlw	1
  2482   005D40  ECC5  F02A         	call	_I2C_Read
  2483   005D44  0100               	movlb	0	; () banked
  2484   005D46  6FFA               	movwf	_accZ_high& (0+255),b
  2485   005D48                     
  2486                           ; BSR set to: 0
  2487                           ;setting_hardaware/gyroscope.c: 60:     accZ_low = I2C_Read(0);
  2488   005D48  0E00               	movlw	0
  2489   005D4A  ECC5  F02A         	call	_I2C_Read
  2490   005D4E  0100               	movlb	0	; () banked
  2491   005D50  6FF9               	movwf	_accZ_low& (0+255),b
  2492   005D52                     
  2493                           ; BSR set to: 0
  2494                           ;setting_hardaware/gyroscope.c: 61:     I2C_Stop();
  2495   005D52  EC09  F02A         	call	_I2C_Stop	;wreg free
  2496   005D56                     
  2497                           ;setting_hardaware/gyroscope.c: 64:     accX = (accX_high << 8) | accX_low;
  2498   005D56  0100               	movlb	0	; () banked
  2499   005D58  51FD               	movf	_accX_low& (0+255),w,b
  2500   005D5A  C0FE  F0E5         	movff	_accX_high,??_Check_Gyroscope
  2501   005D5E  6BE6               	clrf	(??_Check_Gyroscope+1)& (0+255),b
  2502   005D60  C0E5  F0E6         	movff	??_Check_Gyroscope,??_Check_Gyroscope+1
  2503   005D64  6BE5               	clrf	??_Check_Gyroscope& (0+255),b
  2504   005D66  11E5               	iorwf	??_Check_Gyroscope& (0+255),w,b
  2505   005D68  0101               	movlb	1	; () banked
  2506   005D6A  6F2A               	movwf	_accX& (0+255),b
  2507   005D6C  0100               	movlb	0	; () banked
  2508   005D6E  51E6               	movf	(??_Check_Gyroscope+1)& (0+255),w,b
  2509   005D70  0101               	movlb	1	; () banked
  2510   005D72  6F2B               	movwf	(_accX+1)& (0+255),b
  2511   005D74                     
  2512                           ; BSR set to: 1
  2513                           ;setting_hardaware/gyroscope.c: 65:     accY = (accY_high << 8) | accY_low;
  2514   005D74  0100               	movlb	0	; () banked
  2515   005D76  51FB               	movf	_accY_low& (0+255),w,b
  2516   005D78  C0FC  F0E5         	movff	_accY_high,??_Check_Gyroscope
  2517   005D7C  6BE6               	clrf	(??_Check_Gyroscope+1)& (0+255),b
  2518   005D7E  C0E5  F0E6         	movff	??_Check_Gyroscope,??_Check_Gyroscope+1
  2519   005D82  6BE5               	clrf	??_Check_Gyroscope& (0+255),b
  2520   005D84  11E5               	iorwf	??_Check_Gyroscope& (0+255),w,b
  2521   005D86  6FF7               	movwf	_accY& (0+255),b
  2522   005D88  51E6               	movf	(??_Check_Gyroscope+1)& (0+255),w,b
  2523   005D8A  6FF8               	movwf	(_accY+1)& (0+255),b
  2524   005D8C                     
  2525                           ; BSR set to: 0
  2526                           ;setting_hardaware/gyroscope.c: 66:     accZ = (accZ_high << 8) | accZ_low;
  2527   005D8C  51F9               	movf	_accZ_low& (0+255),w,b
  2528   005D8E  C0FA  F0E5         	movff	_accZ_high,??_Check_Gyroscope
  2529   005D92  6BE6               	clrf	(??_Check_Gyroscope+1)& (0+255),b
  2530   005D94  C0E5  F0E6         	movff	??_Check_Gyroscope,??_Check_Gyroscope+1
  2531   005D98  6BE5               	clrf	??_Check_Gyroscope& (0+255),b
  2532   005D9A  11E5               	iorwf	??_Check_Gyroscope& (0+255),w,b
  2533   005D9C  0101               	movlb	1	; () banked
  2534   005D9E  6F28               	movwf	_accZ& (0+255),b
  2535   005DA0  0100               	movlb	0	; () banked
  2536   005DA2  51E6               	movf	(??_Check_Gyroscope+1)& (0+255),w,b
  2537   005DA4  0101               	movlb	1	; () banked
  2538   005DA6  6F29               	movwf	(_accZ+1)& (0+255),b
  2539   005DA8                     
  2540                           ; BSR set to: 1
  2541                           ;setting_hardaware/gyroscope.c: 69:     angle = calculate_angle(accX, accY, accZ) - pitc
      +                          h_offset;
  2542   005DA8  C128  F0DB         	movff	_accZ,calculate_angle@accZ
  2543   005DAC  C129  F0DC         	movff	_accZ+1,calculate_angle@accZ+1
  2544   005DB0  C0F7  F0D9         	movff	_accY,calculate_angle@accY
  2545   005DB4  C0F8  F0DA         	movff	_accY+1,calculate_angle@accY+1
  2546   005DB8  C12A  F0D7         	movff	_accX,calculate_angle@accX
  2547   005DBC  C12B  F0D8         	movff	_accX+1,calculate_angle@accX+1
  2548   005DC0  ECD9  F02C         	call	_calculate_angle	;wreg free
  2549   005DC4  C0D7  F0E7         	movff	?_calculate_angle,_Check_Gyroscope$1833
  2550   005DC8  C0D8  F0E8         	movff	?_calculate_angle+1,_Check_Gyroscope$1833+1
  2551   005DCC  C0D9  F0E9         	movff	?_calculate_angle+2,_Check_Gyroscope$1833+2
  2552   005DD0  C0DA  F0EA         	movff	?_calculate_angle+3,_Check_Gyroscope$1833+3
  2553   005DD4                     
  2554                           ;setting_hardaware/gyroscope.c: 69:     angle = calculate_angle(accX, accY, accZ) - pitc
      +                          h_offset;
  2555   005DD4  C0E7  F038         	movff	_Check_Gyroscope$1833,___flsub@b
  2556   005DD8  C0E8  F039         	movff	_Check_Gyroscope$1833+1,___flsub@b+1
  2557   005DDC  C0E9  F03A         	movff	_Check_Gyroscope$1833+2,___flsub@b+2
  2558   005DE0  C0EA  F03B         	movff	_Check_Gyroscope$1833+3,___flsub@b+3
  2559   005DE4  C120  F03C         	movff	_pitch_offset,___flsub@a
  2560   005DE8  C121  F03D         	movff	_pitch_offset+1,___flsub@a+1
  2561   005DEC  C122  F03E         	movff	_pitch_offset+2,___flsub@a+2
  2562   005DF0  C123  F03F         	movff	_pitch_offset+3,___flsub@a+3
  2563   005DF4  EC04  F02B         	call	___flsub	;wreg free
  2564   005DF8  C038  F11C         	movff	?___flsub,_angle
  2565   005DFC  C039  F11D         	movff	?___flsub+1,_angle+1
  2566   005E00  C03A  F11E         	movff	?___flsub+2,_angle+2
  2567   005E04  C03B  F11F         	movff	?___flsub+3,_angle+3
  2568   005E08                     
  2569                           ;setting_hardaware/gyroscope.c: 72:     if (angle > 30.0) {
  2570   005E08  0E00               	movlw	0
  2571   005E0A  6E01               	movwf	___flge@ff1^0,c
  2572   005E0C  0E00               	movlw	0
  2573   005E0E  6E02               	movwf	(___flge@ff1+1)^0,c
  2574   005E10  0EF0               	movlw	240
  2575   005E12  6E03               	movwf	(___flge@ff1+2)^0,c
  2576   005E14  0E41               	movlw	65
  2577   005E16  6E04               	movwf	(___flge@ff1+3)^0,c
  2578   005E18  C11C  F005         	movff	_angle,___flge@ff2
  2579   005E1C  C11D  F006         	movff	_angle+1,___flge@ff2+1
  2580   005E20  C11E  F007         	movff	_angle+2,___flge@ff2+2
  2581   005E24  C11F  F008         	movff	_angle+3,___flge@ff2+3
  2582   005E28  EC57  F02C         	call	___flge	;wreg free
  2583   005E2C  B0D8               	btfsc	status,0,c
  2584   005E2E  EF1B  F02F         	goto	u3391
  2585   005E32  EF1D  F02F         	goto	u3390
  2586   005E36                     u3391:
  2587   005E36  EF64  F02F         	goto	l3299
  2588   005E3A                     u3390:
  2589   005E3A                     
  2590                           ;setting_hardaware/gyroscope.c: 73:         if (dir == -1 && from_mid) {
  2591   005E3A  0100               	movlb	0	; () banked
  2592   005E3C  29F5               	incf	_dir& (0+255),w,b
  2593   005E3E  E106               	bnz	u3401
  2594   005E40  29F6               	incf	(_dir+1)& (0+255),w,b
  2595   005E42  A4D8               	btfss	status,2,c
  2596   005E44  EF26  F02F         	goto	u3401
  2597   005E48  EF28  F02F         	goto	u3400
  2598   005E4C                     u3401:
  2599   005E4C  EF3D  F02F         	goto	l3287
  2600   005E50                     u3400:
  2601   005E50                     
  2602                           ; BSR set to: 0
  2603   005E50  51F3               	movf	_from_mid& (0+255),w,b
  2604   005E52  11F4               	iorwf	(_from_mid+1)& (0+255),w,b
  2605   005E54  B4D8               	btfsc	status,2,c
  2606   005E56  EF2F  F02F         	goto	u3411
  2607   005E5A  EF31  F02F         	goto	u3410
  2608   005E5E                     u3411:
  2609   005E5E  EF3D  F02F         	goto	l3287
  2610   005E62                     u3410:
  2611   005E62                     
  2612                           ; BSR set to: 0
  2613                           ;setting_hardaware/gyroscope.c: 74:             dir = 0;
  2614   005E62  0E00               	movlw	0
  2615   005E64  6FF6               	movwf	(_dir+1)& (0+255),b
  2616   005E66  0E00               	movlw	0
  2617   005E68  6FF5               	movwf	_dir& (0+255),b
  2618                           
  2619                           ;setting_hardaware/gyroscope.c: 75:             from_mid = 0;
  2620   005E6A  0E00               	movlw	0
  2621   005E6C  6FF4               	movwf	(_from_mid+1)& (0+255),b
  2622   005E6E  0E00               	movlw	0
  2623   005E70  6FF3               	movwf	_from_mid& (0+255),b
  2624   005E72                     
  2625                           ; BSR set to: 0
  2626                           ;setting_hardaware/gyroscope.c: 76:             LATAbits.LATA5 = 0; LATAbits.LATA6 = 0;;
  2627   005E72  9A89               	bcf	137,5,c	;volatile
  2628   005E74                     
  2629                           ; BSR set to: 0
  2630   005E74  9C89               	bcf	137,6,c	;volatile
  2631                           
  2632                           ;setting_hardaware/gyroscope.c: 77:         } else if (dir == 0 && from_mid) {
  2633   005E76  EF56  F02F         	goto	l3297
  2634   005E7A                     l3287:
  2635                           
  2636                           ; BSR set to: 0
  2637   005E7A  51F5               	movf	_dir& (0+255),w,b
  2638   005E7C  11F6               	iorwf	(_dir+1)& (0+255),w,b
  2639   005E7E  A4D8               	btfss	status,2,c
  2640   005E80  EF44  F02F         	goto	u3421
  2641   005E84  EF46  F02F         	goto	u3420
  2642   005E88                     u3421:
  2643   005E88  EF56  F02F         	goto	l3297
  2644   005E8C                     u3420:
  2645   005E8C                     
  2646                           ; BSR set to: 0
  2647   005E8C  51F3               	movf	_from_mid& (0+255),w,b
  2648   005E8E  11F4               	iorwf	(_from_mid+1)& (0+255),w,b
  2649   005E90  B4D8               	btfsc	status,2,c
  2650   005E92  EF4D  F02F         	goto	u3431
  2651   005E96  EF4F  F02F         	goto	u3430
  2652   005E9A                     u3431:
  2653   005E9A  EF56  F02F         	goto	l3297
  2654   005E9E                     u3430:
  2655   005E9E                     
  2656                           ; BSR set to: 0
  2657                           ;setting_hardaware/gyroscope.c: 78:             dir = -1;
  2658   005E9E  69F5               	setf	_dir& (0+255),b
  2659   005EA0  69F6               	setf	(_dir+1)& (0+255),b
  2660   005EA2                     
  2661                           ; BSR set to: 0
  2662                           ;setting_hardaware/gyroscope.c: 79:             from_mid = 0;
  2663   005EA2  0E00               	movlw	0
  2664   005EA4  6FF4               	movwf	(_from_mid+1)& (0+255),b
  2665   005EA6  0E00               	movlw	0
  2666   005EA8  6FF3               	movwf	_from_mid& (0+255),b
  2667   005EAA                     
  2668                           ; BSR set to: 0
  2669                           ;setting_hardaware/gyroscope.c: 80:             LATAbits.LATA6 = 1;;
  2670   005EAA  8C89               	bsf	137,6,c	;volatile
  2671   005EAC                     l3297:
  2672                           
  2673                           ; BSR set to: 0
  2674                           ;setting_hardaware/gyroscope.c: 82:         _delay((unsigned long)((300)*(4000000/4000.0
      +                          )));
  2675   005EAC  0E02               	movlw	2
  2676   005EAE  0100               	movlb	0	; () banked
  2677   005EB0  6FE6               	movwf	(??_Check_Gyroscope+1)& (0+255),b
  2678   005EB2  0E86               	movlw	134
  2679   005EB4  6FE5               	movwf	??_Check_Gyroscope& (0+255),b
  2680   005EB6  0E99               	movlw	153
  2681   005EB8                     u3537:
  2682   005EB8  2EE8               	decfsz	wreg,f,c
  2683   005EBA  D7FE               	bra	u3537
  2684   005EBC  2FE5               	decfsz	??_Check_Gyroscope& (0+255),f,b
  2685   005EBE  D7FC               	bra	u3537
  2686   005EC0  2FE6               	decfsz	(??_Check_Gyroscope+1)& (0+255),f,b
  2687   005EC2  D7FA               	bra	u3537
  2688                           
  2689                           ;setting_hardaware/gyroscope.c: 83:     } else if (angle < -30.0) {
  2690   005EC4  EFBE  F02F         	goto	l255
  2691   005EC8                     l3299:
  2692   005EC8  C11C  F001         	movff	_angle,___flge@ff1
  2693   005ECC  C11D  F002         	movff	_angle+1,___flge@ff1+1
  2694   005ED0  C11E  F003         	movff	_angle+2,___flge@ff1+2
  2695   005ED4  C11F  F004         	movff	_angle+3,___flge@ff1+3
  2696   005ED8  0E00               	movlw	0
  2697   005EDA  6E05               	movwf	___flge@ff2^0,c
  2698   005EDC  0E00               	movlw	0
  2699   005EDE  6E06               	movwf	(___flge@ff2+1)^0,c
  2700   005EE0  0EF0               	movlw	240
  2701   005EE2  6E07               	movwf	(___flge@ff2+2)^0,c
  2702   005EE4  0EC1               	movlw	193
  2703   005EE6  6E08               	movwf	(___flge@ff2+3)^0,c
  2704   005EE8  EC57  F02C         	call	___flge	;wreg free
  2705   005EEC  B0D8               	btfsc	status,0,c
  2706   005EEE  EF7B  F02F         	goto	u3441
  2707   005EF2  EF7D  F02F         	goto	u3440
  2708   005EF6                     u3441:
  2709   005EF6  EFB9  F02F         	goto	l3321
  2710   005EFA                     u3440:
  2711   005EFA                     
  2712                           ;setting_hardaware/gyroscope.c: 84:         if (dir == 1 && from_mid) {
  2713   005EFA  0100               	movlb	0	; () banked
  2714   005EFC  05F5               	decf	_dir& (0+255),w,b
  2715   005EFE  11F6               	iorwf	(_dir+1)& (0+255),w,b
  2716   005F00  A4D8               	btfss	status,2,c
  2717   005F02  EF85  F02F         	goto	u3451
  2718   005F06  EF87  F02F         	goto	u3450
  2719   005F0A                     u3451:
  2720   005F0A  EF9C  F02F         	goto	l3311
  2721   005F0E                     u3450:
  2722   005F0E                     
  2723                           ; BSR set to: 0
  2724   005F0E  51F3               	movf	_from_mid& (0+255),w,b
  2725   005F10  11F4               	iorwf	(_from_mid+1)& (0+255),w,b
  2726   005F12  B4D8               	btfsc	status,2,c
  2727   005F14  EF8E  F02F         	goto	u3461
  2728   005F18  EF90  F02F         	goto	u3460
  2729   005F1C                     u3461:
  2730   005F1C  EF9C  F02F         	goto	l3311
  2731   005F20                     u3460:
  2732   005F20                     
  2733                           ; BSR set to: 0
  2734                           ;setting_hardaware/gyroscope.c: 85:             dir = 0;
  2735   005F20  0E00               	movlw	0
  2736   005F22  6FF6               	movwf	(_dir+1)& (0+255),b
  2737   005F24  0E00               	movlw	0
  2738   005F26  6FF5               	movwf	_dir& (0+255),b
  2739                           
  2740                           ;setting_hardaware/gyroscope.c: 86:             from_mid = 0;
  2741   005F28  0E00               	movlw	0
  2742   005F2A  6FF4               	movwf	(_from_mid+1)& (0+255),b
  2743   005F2C  0E00               	movlw	0
  2744   005F2E  6FF3               	movwf	_from_mid& (0+255),b
  2745   005F30                     
  2746                           ; BSR set to: 0
  2747                           ;setting_hardaware/gyroscope.c: 87:             LATAbits.LATA5 = 0; LATAbits.LATA6 = 0;;
  2748   005F30  9A89               	bcf	137,5,c	;volatile
  2749   005F32                     
  2750                           ; BSR set to: 0
  2751   005F32  9C89               	bcf	137,6,c	;volatile
  2752                           
  2753                           ;setting_hardaware/gyroscope.c: 88:         } else if (dir == 0 && from_mid) {
  2754   005F34  EF56  F02F         	goto	l3297
  2755   005F38                     l3311:
  2756                           
  2757                           ; BSR set to: 0
  2758   005F38  51F5               	movf	_dir& (0+255),w,b
  2759   005F3A  11F6               	iorwf	(_dir+1)& (0+255),w,b
  2760   005F3C  A4D8               	btfss	status,2,c
  2761   005F3E  EFA3  F02F         	goto	u3471
  2762   005F42  EFA5  F02F         	goto	u3470
  2763   005F46                     u3471:
  2764   005F46  EF56  F02F         	goto	l3297
  2765   005F4A                     u3470:
  2766   005F4A                     
  2767                           ; BSR set to: 0
  2768   005F4A  51F3               	movf	_from_mid& (0+255),w,b
  2769   005F4C  11F4               	iorwf	(_from_mid+1)& (0+255),w,b
  2770   005F4E  B4D8               	btfsc	status,2,c
  2771   005F50  EFAC  F02F         	goto	u3481
  2772   005F54  EFAE  F02F         	goto	u3480
  2773   005F58                     u3481:
  2774   005F58  EF56  F02F         	goto	l3297
  2775   005F5C                     u3480:
  2776   005F5C                     
  2777                           ; BSR set to: 0
  2778                           ;setting_hardaware/gyroscope.c: 89:             dir = 1;
  2779   005F5C  0E00               	movlw	0
  2780   005F5E  6FF6               	movwf	(_dir+1)& (0+255),b
  2781   005F60  0E01               	movlw	1
  2782   005F62  6FF5               	movwf	_dir& (0+255),b
  2783                           
  2784                           ;setting_hardaware/gyroscope.c: 90:             from_mid = 0;
  2785   005F64  0E00               	movlw	0
  2786   005F66  6FF4               	movwf	(_from_mid+1)& (0+255),b
  2787   005F68  0E00               	movlw	0
  2788   005F6A  6FF3               	movwf	_from_mid& (0+255),b
  2789   005F6C                     
  2790                           ; BSR set to: 0
  2791                           ;setting_hardaware/gyroscope.c: 91:             LATAbits.LATA5 = 1;;
  2792   005F6C  8A89               	bsf	137,5,c	;volatile
  2793   005F6E  EF56  F02F         	goto	l3297
  2794   005F72                     l3321:
  2795                           
  2796                           ;setting_hardaware/gyroscope.c: 95:         from_mid = 1;
  2797   005F72  0E00               	movlw	0
  2798   005F74  0100               	movlb	0	; () banked
  2799   005F76  6FF4               	movwf	(_from_mid+1)& (0+255),b
  2800   005F78  0E01               	movlw	1
  2801   005F7A  6FF3               	movwf	_from_mid& (0+255),b
  2802   005F7C                     l255:
  2803   005F7C  0012               	return		;funcret
  2804   005F7E                     __end_of_Check_Gyroscope:
  2805                           	callstack 0
  2806                           
  2807 ;; *************** function _calculate_angle *****************
  2808 ;; Defined at:
  2809 ;;		line 99 in file "setting_hardaware/gyroscope.c"
  2810 ;; Parameters:    Size  Location     Type
  2811 ;;  accX            2   87[BANK0 ] short 
  2812 ;;  accY            2   89[BANK0 ] short 
  2813 ;;  accZ            2   91[BANK0 ] short 
  2814 ;; Auto vars:     Size  Location     Type
  2815 ;;		None
  2816 ;; Return value:  Size  Location     Type
  2817 ;;                  4   87[BANK0 ] float 
  2818 ;; Registers used:
  2819 ;;		wreg, status,2, status,0, tblptrl, tblptrh, tblptru, prodl, prodh, cstack
  2820 ;; Tracked objects:
  2821 ;;		On entry : 0/0
  2822 ;;		On exit  : 0/0
  2823 ;;		Unchanged: 0/0
  2824 ;; Data sizes:     COMRAM   BANK0   BANK1   BANK2   BANK3   BANK4   BANK5
  2825 ;;      Params:         0       6       0       0       0       0       0
  2826 ;;      Locals:         0       8       0       0       0       0       0
  2827 ;;      Temps:          0       0       0       0       0       0       0
  2828 ;;      Totals:         0      14       0       0       0       0       0
  2829 ;;Total ram usage:       14 bytes
  2830 ;; Hardware stack levels used: 1
  2831 ;; Hardware stack levels required when called: 4
  2832 ;; This function calls:
  2833 ;;		___fladd
  2834 ;;		___fldiv
  2835 ;;		___flmul
  2836 ;;		___xxtofl
  2837 ;;		_atan2f
  2838 ;;		_sqrtf
  2839 ;; This function is called by:
  2840 ;;		_Check_Gyroscope
  2841 ;;		_Calibration
  2842 ;; This function uses a non-reentrant model
  2843 ;;
  2844                           
  2845                           	psect	text9
  2846   0059B2                     __ptext9:
  2847                           	callstack 0
  2848   0059B2                     _calculate_angle:
  2849                           	callstack 23
  2850   0059B2                     
  2851                           ;setting_hardaware/gyroscope.c: 100:     return atan2f((float)accX,sqrtf((float)accY * a
      +                          ccY + (float)accZ * accZ)) * 180.0 / 3.14159265358979323846;
  2852   0059B2  C0DB  F001         	movff	calculate_angle@accZ,___xxtofl@val
  2853   0059B6  C0DC  F002         	movff	calculate_angle@accZ+1,___xxtofl@val+1
  2854   0059BA  0E00               	movlw	0
  2855   0059BC  BE02               	btfsc	(___xxtofl@val+1)^0,7,c
  2856   0059BE  0EFF               	movlw	-1
  2857   0059C0  6E03               	movwf	(___xxtofl@val+2)^0,c
  2858   0059C2  6E04               	movwf	(___xxtofl@val+3)^0,c
  2859   0059C4  0E01               	movlw	1
  2860   0059C6  ECA4  F02D         	call	___xxtofl
  2861   0059CA  C001  F013         	movff	?___xxtofl,___flmul@a
  2862   0059CE  C002  F014         	movff	?___xxtofl+1,___flmul@a+1
  2863   0059D2  C003  F015         	movff	?___xxtofl+2,___flmul@a+2
  2864   0059D6  C004  F016         	movff	?___xxtofl+3,___flmul@a+3
  2865   0059DA  C0DB  F001         	movff	calculate_angle@accZ,___xxtofl@val
  2866   0059DE  C0DC  F002         	movff	calculate_angle@accZ+1,___xxtofl@val+1
  2867   0059E2  0E00               	movlw	0
  2868   0059E4  BE02               	btfsc	(___xxtofl@val+1)^0,7,c
  2869   0059E6  0EFF               	movlw	-1
  2870   0059E8  6E03               	movwf	(___xxtofl@val+2)^0,c
  2871   0059EA  6E04               	movwf	(___xxtofl@val+3)^0,c
  2872   0059EC  0E01               	movlw	1
  2873   0059EE  ECA4  F02D         	call	___xxtofl
  2874   0059F2  C001  F00F         	movff	?___xxtofl,___flmul@b
  2875   0059F6  C002  F010         	movff	?___xxtofl+1,___flmul@b+1
  2876   0059FA  C003  F011         	movff	?___xxtofl+2,___flmul@b+2
  2877   0059FE  C004  F012         	movff	?___xxtofl+3,___flmul@b+3
  2878   005A02  EC76  F033         	call	___flmul	;wreg free
  2879   005A06  C00F  F02C         	movff	?___flmul,___fladd@a
  2880   005A0A  C010  F02D         	movff	?___flmul+1,___fladd@a+1
  2881   005A0E  C011  F02E         	movff	?___flmul+2,___fladd@a+2
  2882   005A12  C012  F02F         	movff	?___flmul+3,___fladd@a+3
  2883   005A16  C0D9  F001         	movff	calculate_angle@accY,___xxtofl@val
  2884   005A1A  C0DA  F002         	movff	calculate_angle@accY+1,___xxtofl@val+1
  2885   005A1E  0E00               	movlw	0
  2886   005A20  BE02               	btfsc	(___xxtofl@val+1)^0,7,c
  2887   005A22  0EFF               	movlw	-1
  2888   005A24  6E03               	movwf	(___xxtofl@val+2)^0,c
  2889   005A26  6E04               	movwf	(___xxtofl@val+3)^0,c
  2890   005A28  0E01               	movlw	1
  2891   005A2A  ECA4  F02D         	call	___xxtofl
  2892   005A2E  C001  F013         	movff	?___xxtofl,___flmul@a
  2893   005A32  C002  F014         	movff	?___xxtofl+1,___flmul@a+1
  2894   005A36  C003  F015         	movff	?___xxtofl+2,___flmul@a+2
  2895   005A3A  C004  F016         	movff	?___xxtofl+3,___flmul@a+3
  2896   005A3E  C0D9  F001         	movff	calculate_angle@accY,___xxtofl@val
  2897   005A42  C0DA  F002         	movff	calculate_angle@accY+1,___xxtofl@val+1
  2898   005A46  0E00               	movlw	0
  2899   005A48  BE02               	btfsc	(___xxtofl@val+1)^0,7,c
  2900   005A4A  0EFF               	movlw	-1
  2901   005A4C  6E03               	movwf	(___xxtofl@val+2)^0,c
  2902   005A4E  6E04               	movwf	(___xxtofl@val+3)^0,c
  2903   005A50  0E01               	movlw	1
  2904   005A52  ECA4  F02D         	call	___xxtofl
  2905   005A56  C001  F00F         	movff	?___xxtofl,___flmul@b
  2906   005A5A  C002  F010         	movff	?___xxtofl+1,___flmul@b+1
  2907   005A5E  C003  F011         	movff	?___xxtofl+2,___flmul@b+2
  2908   005A62  C004  F012         	movff	?___xxtofl+3,___flmul@b+3
  2909   005A66  EC76  F033         	call	___flmul	;wreg free
  2910   005A6A  C00F  F028         	movff	?___flmul,___fladd@b
  2911   005A6E  C010  F029         	movff	?___flmul+1,___fladd@b+1
  2912   005A72  C011  F02A         	movff	?___flmul+2,___fladd@b+2
  2913   005A76  C012  F02B         	movff	?___flmul+3,___fladd@b+3
  2914   005A7A  EC89  F035         	call	___fladd	;wreg free
  2915   005A7E  C028  F038         	movff	?___fladd,sqrtf@x
  2916   005A82  C029  F039         	movff	?___fladd+1,sqrtf@x+1
  2917   005A86  C02A  F03A         	movff	?___fladd+2,sqrtf@x+2
  2918   005A8A  C02B  F03B         	movff	?___fladd+3,sqrtf@x+3
  2919   005A8E  EC87  F031         	call	_sqrtf	;wreg free
  2920   005A92  C038  F0DD         	movff	?_sqrtf,_calculate_angle$1834
  2921   005A96  C039  F0DE         	movff	?_sqrtf+1,_calculate_angle$1834+1
  2922   005A9A  C03A  F0DF         	movff	?_sqrtf+2,_calculate_angle$1834+2
  2923   005A9E  C03B  F0E0         	movff	?_sqrtf+3,_calculate_angle$1834+3
  2924   005AA2                     
  2925                           ;setting_hardaware/gyroscope.c: 100:     return atan2f((float)accX,sqrtf((float)accY * a
      +                          ccY + (float)accZ * accZ)) * 180.0 / 3.14159265358979323846;
  2926   005AA2  C0DD  F0B2         	movff	_calculate_angle$1834,atan2f@x
  2927   005AA6  C0DE  F0B3         	movff	_calculate_angle$1834+1,atan2f@x+1
  2928   005AAA  C0DF  F0B4         	movff	_calculate_angle$1834+2,atan2f@x+2
  2929   005AAE  C0E0  F0B5         	movff	_calculate_angle$1834+3,atan2f@x+3
  2930   005AB2  C0D7  F001         	movff	calculate_angle@accX,___xxtofl@val
  2931   005AB6  C0D8  F002         	movff	calculate_angle@accX+1,___xxtofl@val+1
  2932   005ABA  0E00               	movlw	0
  2933   005ABC  BE02               	btfsc	(___xxtofl@val+1)^0,7,c
  2934   005ABE  0EFF               	movlw	-1
  2935   005AC0  6E03               	movwf	(___xxtofl@val+2)^0,c
  2936   005AC2  6E04               	movwf	(___xxtofl@val+3)^0,c
  2937   005AC4  0E01               	movlw	1
  2938   005AC6  ECA4  F02D         	call	___xxtofl
  2939   005ACA  C001  F0AE         	movff	?___xxtofl,atan2f@y
  2940   005ACE  C002  F0AF         	movff	?___xxtofl+1,atan2f@y+1
  2941   005AD2  C003  F0B0         	movff	?___xxtofl+2,atan2f@y+2
  2942   005AD6  C004  F0B1         	movff	?___xxtofl+3,atan2f@y+3
  2943   005ADA  ECE4  F037         	call	_atan2f	;wreg free
  2944   005ADE  C0AE  F0E1         	movff	?_atan2f,_calculate_angle$1835
  2945   005AE2  C0AF  F0E2         	movff	?_atan2f+1,_calculate_angle$1835+1
  2946   005AE6  C0B0  F0E3         	movff	?_atan2f+2,_calculate_angle$1835+2
  2947   005AEA  C0B1  F0E4         	movff	?_atan2f+3,_calculate_angle$1835+3
  2948   005AEE                     
  2949                           ;setting_hardaware/gyroscope.c: 100:     return atan2f((float)accX,sqrtf((float)accY * a
      +                          ccY + (float)accZ * accZ)) * 180.0 / 3.14159265358979323846;
  2950   005AEE  0E00               	movlw	0
  2951   005AF0  6E13               	movwf	___flmul@a^0,c
  2952   005AF2  0E00               	movlw	0
  2953   005AF4  6E14               	movwf	(___flmul@a+1)^0,c
  2954   005AF6  0E34               	movlw	52
  2955   005AF8  6E15               	movwf	(___flmul@a+2)^0,c
  2956   005AFA  0E43               	movlw	67
  2957   005AFC  6E16               	movwf	(___flmul@a+3)^0,c
  2958   005AFE  C0E1  F00F         	movff	_calculate_angle$1835,___flmul@b
  2959   005B02  C0E2  F010         	movff	_calculate_angle$1835+1,___flmul@b+1
  2960   005B06  C0E3  F011         	movff	_calculate_angle$1835+2,___flmul@b+2
  2961   005B0A  C0E4  F012         	movff	_calculate_angle$1835+3,___flmul@b+3
  2962   005B0E  EC76  F033         	call	___flmul	;wreg free
  2963   005B12  C00F  F05D         	movff	?___flmul,___fldiv@b
  2964   005B16  C010  F05E         	movff	?___flmul+1,___fldiv@b+1
  2965   005B1A  C011  F05F         	movff	?___flmul+2,___fldiv@b+2
  2966   005B1E  C012  F060         	movff	?___flmul+3,___fldiv@b+3
  2967   005B22  0EDB               	movlw	219
  2968   005B24  6E61               	movwf	___fldiv@a^0,c
  2969   005B26  0E0F               	movlw	15
  2970   005B28  6E62               	movwf	(___fldiv@a+1)^0,c
  2971   005B2A  0E49               	movlw	73
  2972   005B2C  6E63               	movwf	(___fldiv@a+2)^0,c
  2973   005B2E  0E40               	movlw	64
  2974   005B30  6E64               	movwf	(___fldiv@a+3)^0,c
  2975   005B32  ECBF  F02F         	call	___fldiv	;wreg free
  2976   005B36  C05D  F0D7         	movff	?___fldiv,?_calculate_angle
  2977   005B3A  C05E  F0D8         	movff	?___fldiv+1,?_calculate_angle+1
  2978   005B3E  C05F  F0D9         	movff	?___fldiv+2,?_calculate_angle+2
  2979   005B42  C060  F0DA         	movff	?___fldiv+3,?_calculate_angle+3
  2980   005B46  0012               	return		;funcret
  2981   005B48                     __end_of_calculate_angle:
  2982                           	callstack 0
  2983                           
  2984 ;; *************** function _sqrtf *****************
  2985 ;; Defined at:
  2986 ;;		line 24 in file "C:\Program Files\Microchip\xc8\v2.50\pic\sources\c99\common\sqrtf.c"
  2987 ;; Parameters:    Size  Location     Type
  2988 ;;  x               4   55[COMRAM] float 
  2989 ;; Auto vars:     Size  Location     Type
  2990 ;;  ix              4   88[COMRAM] struct .
  2991 ;;  r               4   84[COMRAM] unsigned long 
  2992 ;;  m               4   80[COMRAM] long 
  2993 ;;  t               4   76[COMRAM] long 
  2994 ;;  q               4   72[COMRAM] long 
  2995 ;;  i               4   68[COMRAM] long 
  2996 ;;  s               4   64[COMRAM] long 
  2997 ;;  z               4    0        float 
  2998 ;; Return value:  Size  Location     Type
  2999 ;;                  4   55[COMRAM] float 
  3000 ;; Registers used:
  3001 ;;		wreg, status,2, status,0
  3002 ;; Tracked objects:
  3003 ;;		On entry : 0/0
  3004 ;;		On exit  : 0/0
  3005 ;;		Unchanged: 0/0
  3006 ;; Data sizes:     COMRAM   BANK0   BANK1   BANK2   BANK3   BANK4   BANK5
  3007 ;;      Params:         4       0       0       0       0       0       0
  3008 ;;      Locals:        28       0       0       0       0       0       0
  3009 ;;      Temps:          5       0       0       0       0       0       0
  3010 ;;      Totals:        37       0       0       0       0       0       0
  3011 ;;Total ram usage:       37 bytes
  3012 ;; Hardware stack levels used: 1
  3013 ;; This function calls:
  3014 ;;		Nothing
  3015 ;; This function is called by:
  3016 ;;		_calculate_angle
  3017 ;; This function uses a non-reentrant model
  3018 ;;
  3019                           
  3020                           	psect	text10
  3021   00630E                     __ptext10:
  3022                           	callstack 0
  3023   00630E                     _sqrtf:
  3024                           	callstack 26
  3025   00630E  C038  F059         	movff	sqrtf@x,sqrtf@ix
  3026   006312  C039  F05A         	movff	sqrtf@x+1,sqrtf@ix+1
  3027   006316  C03A  F05B         	movff	sqrtf@x+2,sqrtf@ix+2
  3028   00631A  C03B  F05C         	movff	sqrtf@x+3,sqrtf@ix+3
  3029   00631E  0E00               	movlw	0
  3030   006320  1459               	andwf	sqrtf@ix^0,w,c
  3031   006322  6E3C               	movwf	??_sqrtf^0,c
  3032   006324  0E00               	movlw	0
  3033   006326  145A               	andwf	(sqrtf@ix+1)^0,w,c
  3034   006328  6E3D               	movwf	(??_sqrtf+1)^0,c
  3035   00632A  0E80               	movlw	128
  3036   00632C  145B               	andwf	(sqrtf@ix+2)^0,w,c
  3037   00632E  6E3E               	movwf	(??_sqrtf+2)^0,c
  3038   006330  0E7F               	movlw	127
  3039   006332  145C               	andwf	(sqrtf@ix+3)^0,w,c
  3040   006334  6E3F               	movwf	(??_sqrtf+3)^0,c
  3041   006336  0E80               	movlw	128
  3042   006338  183E               	xorwf	(??_sqrtf+2)^0,w,c
  3043   00633A  E109               	bnz	u2811
  3044   00633C  0E7F               	movlw	127
  3045   00633E  183F               	xorwf	(??_sqrtf+3)^0,w,c
  3046   006340  103C               	iorwf	??_sqrtf^0,w,c
  3047   006342  103D               	iorwf	(??_sqrtf+1)^0,w,c
  3048   006344  A4D8               	btfss	status,2,c
  3049   006346  EFA7  F031         	goto	u2811
  3050   00634A  EFA9  F031         	goto	u2810
  3051   00634E                     u2811:
  3052   00634E  EFD9  F031         	goto	l2861
  3053   006352                     u2810:
  3054   006352  0EFF               	movlw	255
  3055   006354  1459               	andwf	sqrtf@ix^0,w,c
  3056   006356  6E3C               	movwf	??_sqrtf^0,c
  3057   006358  0EFF               	movlw	255
  3058   00635A  145A               	andwf	(sqrtf@ix+1)^0,w,c
  3059   00635C  6E3D               	movwf	(??_sqrtf+1)^0,c
  3060   00635E  0E7F               	movlw	127
  3061   006360  145B               	andwf	(sqrtf@ix+2)^0,w,c
  3062   006362  6E3E               	movwf	(??_sqrtf+2)^0,c
  3063   006364  0E00               	movlw	0
  3064   006366  145C               	andwf	(sqrtf@ix+3)^0,w,c
  3065   006368  6E3F               	movwf	(??_sqrtf+3)^0,c
  3066   00636A  503C               	movf	??_sqrtf^0,w,c
  3067   00636C  103D               	iorwf	(??_sqrtf+1)^0,w,c
  3068   00636E  103E               	iorwf	(??_sqrtf+2)^0,w,c
  3069   006370  103F               	iorwf	(??_sqrtf+3)^0,w,c
  3070   006372  A4D8               	btfss	status,2,c
  3071   006374  EFBE  F031         	goto	u2821
  3072   006378  EFC0  F031         	goto	u2820
  3073   00637C                     u2821:
  3074   00637C  EFC7  F031         	goto	l2855
  3075   006380                     u2820:
  3076   006380  BE5C               	btfsc	(sqrtf@ix+3)^0,7,c
  3077   006382  EFC7  F031         	goto	u2830
  3078   006386  EFC5  F031         	goto	u2831
  3079   00638A                     u2831:
  3080   00638A  EFCF  F031         	goto	l2857
  3081   00638E                     u2830:
  3082   00638E                     l2855:
  3083   00638E  0EFF               	movlw	255
  3084   006390  1259               	iorwf	sqrtf@ix^0,f,c
  3085   006392  0EFF               	movlw	255
  3086   006394  125A               	iorwf	(sqrtf@ix+1)^0,f,c
  3087   006396  0E7F               	movlw	127
  3088   006398  125B               	iorwf	(sqrtf@ix+2)^0,f,c
  3089   00639A  0E00               	movlw	0
  3090   00639C  125C               	iorwf	(sqrtf@ix+3)^0,f,c
  3091   00639E                     l2857:
  3092   00639E  C059  F038         	movff	sqrtf@ix,?_sqrtf
  3093   0063A2  C05A  F039         	movff	sqrtf@ix+1,?_sqrtf+1
  3094   0063A6  C05B  F03A         	movff	sqrtf@ix+2,?_sqrtf+2
  3095   0063AA  C05C  F03B         	movff	sqrtf@ix+3,?_sqrtf+3
  3096   0063AE  EF75  F033         	goto	l1094
  3097   0063B2                     l2861:
  3098   0063B2  BE5C               	btfsc	(sqrtf@ix+3)^0,7,c
  3099   0063B4  EFE8  F031         	goto	u2840
  3100   0063B8  505C               	movf	(sqrtf@ix+3)^0,w,c
  3101   0063BA  105B               	iorwf	(sqrtf@ix+2)^0,w,c
  3102   0063BC  105A               	iorwf	(sqrtf@ix+1)^0,w,c
  3103   0063BE  E106               	bnz	u2841
  3104   0063C0  0459               	decf	sqrtf@ix^0,w,c
  3105   0063C2  B0D8               	btfsc	status,0,c
  3106   0063C4  EFE6  F031         	goto	u2841
  3107   0063C8  EFE8  F031         	goto	u2840
  3108   0063CC                     u2841:
  3109   0063CC  EF1F  F032         	goto	l2877
  3110   0063D0                     u2840:
  3111   0063D0  0EFF               	movlw	255
  3112   0063D2  1459               	andwf	sqrtf@ix^0,w,c
  3113   0063D4  6E3C               	movwf	??_sqrtf^0,c
  3114   0063D6  0EFF               	movlw	255
  3115   0063D8  145A               	andwf	(sqrtf@ix+1)^0,w,c
  3116   0063DA  6E3D               	movwf	(??_sqrtf+1)^0,c
  3117   0063DC  0EFF               	movlw	255
  3118   0063DE  145B               	andwf	(sqrtf@ix+2)^0,w,c
  3119   0063E0  6E3E               	movwf	(??_sqrtf+2)^0,c
  3120   0063E2  0E7F               	movlw	127
  3121   0063E4  145C               	andwf	(sqrtf@ix+3)^0,w,c
  3122   0063E6  6E3F               	movwf	(??_sqrtf+3)^0,c
  3123   0063E8  503C               	movf	??_sqrtf^0,w,c
  3124   0063EA  103D               	iorwf	(??_sqrtf+1)^0,w,c
  3125   0063EC  103E               	iorwf	(??_sqrtf+2)^0,w,c
  3126   0063EE  103F               	iorwf	(??_sqrtf+3)^0,w,c
  3127   0063F0  A4D8               	btfss	status,2,c
  3128   0063F2  EFFD  F031         	goto	u2851
  3129   0063F6  EFFF  F031         	goto	u2850
  3130   0063FA                     u2851:
  3131   0063FA  EF09  F032         	goto	l2869
  3132   0063FE                     u2850:
  3133   0063FE  0E00               	movlw	0
  3134   006400  6E38               	movwf	?_sqrtf^0,c
  3135   006402  0E00               	movlw	0
  3136   006404  6E39               	movwf	(?_sqrtf+1)^0,c
  3137   006406  0E00               	movlw	0
  3138   006408  6E3A               	movwf	(?_sqrtf+2)^0,c
  3139   00640A  0E00               	movlw	0
  3140   00640C  6E3B               	movwf	(?_sqrtf+3)^0,c
  3141   00640E  EF75  F033         	goto	l1094
  3142   006412                     l2869:
  3143   006412  BE5C               	btfsc	(sqrtf@ix+3)^0,7,c
  3144   006414  EF10  F032         	goto	u2860
  3145   006418  EF0E  F032         	goto	u2861
  3146   00641C                     u2861:
  3147   00641C  EF1F  F032         	goto	l2877
  3148   006420                     u2860:
  3149   006420  0E00               	movlw	0
  3150   006422  0101               	movlb	1	; () banked
  3151   006424  6F25               	movwf	(_errno+1)& (0+255),b
  3152   006426  0E21               	movlw	33
  3153   006428  6F24               	movwf	_errno& (0+255),b
  3154   00642A  0EFF               	movlw	255
  3155   00642C  6E59               	movwf	sqrtf@ix^0,c
  3156   00642E  0EFF               	movlw	255
  3157   006430  6E5A               	movwf	(sqrtf@ix+1)^0,c
  3158   006432  0EFF               	movlw	255
  3159   006434  6E5B               	movwf	(sqrtf@ix+2)^0,c
  3160   006436  0E7F               	movlw	127
  3161   006438  6E5C               	movwf	(sqrtf@ix+3)^0,c
  3162   00643A  EFCF  F031         	goto	l2857
  3163   00643E                     l2877:
  3164   00643E  0E17               	movlw	23
  3165   006440  6E3C               	movwf	??_sqrtf^0,c
  3166   006442  C059  F03D         	movff	sqrtf@ix,??_sqrtf+1
  3167   006446  C05A  F03E         	movff	sqrtf@ix+1,??_sqrtf+2
  3168   00644A  C05B  F03F         	movff	sqrtf@ix+2,??_sqrtf+3
  3169   00644E  C05C  F040         	movff	sqrtf@ix+3,??_sqrtf+4
  3170   006452                     u2875:
  3171   006452  663C               	tstfsz	??_sqrtf^0,c
  3172   006454  EF2E  F032         	goto	u2876
  3173   006458  EF36  F032         	goto	u2877
  3174   00645C                     u2876:
  3175   00645C  3440               	rlcf	(??_sqrtf+4)^0,w,c
  3176   00645E  3240               	rrcf	(??_sqrtf+4)^0,f,c
  3177   006460  323F               	rrcf	(??_sqrtf+3)^0,f,c
  3178   006462  323E               	rrcf	(??_sqrtf+2)^0,f,c
  3179   006464  323D               	rrcf	(??_sqrtf+1)^0,f,c
  3180   006466  2E3C               	decfsz	??_sqrtf^0,f,c
  3181   006468  EF29  F032         	goto	u2875
  3182   00646C                     u2877:
  3183   00646C  C03D  F051         	movff	??_sqrtf+1,sqrtf@m
  3184   006470  C03E  F052         	movff	??_sqrtf+2,sqrtf@m+1
  3185   006474  C03F  F053         	movff	??_sqrtf+3,sqrtf@m+2
  3186   006478  C040  F054         	movff	??_sqrtf+4,sqrtf@m+3
  3187   00647C  5051               	movf	sqrtf@m^0,w,c
  3188   00647E  1052               	iorwf	(sqrtf@m+1)^0,w,c
  3189   006480  1053               	iorwf	(sqrtf@m+2)^0,w,c
  3190   006482  1054               	iorwf	(sqrtf@m+3)^0,w,c
  3191   006484  A4D8               	btfss	status,2,c
  3192   006486  EF47  F032         	goto	u2881
  3193   00648A  EF49  F032         	goto	u2880
  3194   00648E                     u2881:
  3195   00648E  EF79  F032         	goto	l1098
  3196   006492                     u2880:
  3197   006492  0E00               	movlw	0
  3198   006494  6E45               	movwf	sqrtf@i^0,c
  3199   006496  0E00               	movlw	0
  3200   006498  6E46               	movwf	(sqrtf@i+1)^0,c
  3201   00649A  0E00               	movlw	0
  3202   00649C  6E47               	movwf	(sqrtf@i+2)^0,c
  3203   00649E  0E00               	movlw	0
  3204   0064A0  6E48               	movwf	(sqrtf@i+3)^0,c
  3205   0064A2  EF5E  F032         	goto	l2885
  3206   0064A6                     l2881:
  3207   0064A6  90D8               	bcf	status,0,c
  3208   0064A8  3659               	rlcf	sqrtf@ix^0,f,c
  3209   0064AA  365A               	rlcf	(sqrtf@ix+1)^0,f,c
  3210   0064AC  365B               	rlcf	(sqrtf@ix+2)^0,f,c
  3211   0064AE  365C               	rlcf	(sqrtf@ix+3)^0,f,c
  3212   0064B0  0E01               	movlw	1
  3213   0064B2  2645               	addwf	sqrtf@i^0,f,c
  3214   0064B4  0E00               	movlw	0
  3215   0064B6  2246               	addwfc	(sqrtf@i+1)^0,f,c
  3216   0064B8  2247               	addwfc	(sqrtf@i+2)^0,f,c
  3217   0064BA  2248               	addwfc	(sqrtf@i+3)^0,f,c
  3218   0064BC                     l2885:
  3219   0064BC  AE5B               	btfss	(sqrtf@ix+2)^0,7,c
  3220   0064BE  EF63  F032         	goto	u2891
  3221   0064C2  EF65  F032         	goto	u2890
  3222   0064C6                     u2891:
  3223   0064C6  EF53  F032         	goto	l2881
  3224   0064CA                     u2890:
  3225   0064CA  0EFF               	movlw	255
  3226   0064CC  2445               	addwf	sqrtf@i^0,w,c
  3227   0064CE  6E3C               	movwf	??_sqrtf^0,c
  3228   0064D0  0EFF               	movlw	255
  3229   0064D2  2046               	addwfc	(sqrtf@i+1)^0,w,c
  3230   0064D4  6E3D               	movwf	(??_sqrtf+1)^0,c
  3231   0064D6  0EFF               	movlw	255
  3232   0064D8  2047               	addwfc	(sqrtf@i+2)^0,w,c
  3233   0064DA  6E3E               	movwf	(??_sqrtf+2)^0,c
  3234   0064DC  0EFF               	movlw	255
  3235   0064DE  2048               	addwfc	(sqrtf@i+3)^0,w,c
  3236   0064E0  6E3F               	movwf	(??_sqrtf+3)^0,c
  3237   0064E2  503C               	movf	??_sqrtf^0,w,c
  3238   0064E4  5E51               	subwf	sqrtf@m^0,f,c
  3239   0064E6  503D               	movf	(??_sqrtf+1)^0,w,c
  3240   0064E8  5A52               	subwfb	(sqrtf@m+1)^0,f,c
  3241   0064EA  503E               	movf	(??_sqrtf+2)^0,w,c
  3242   0064EC  5A53               	subwfb	(sqrtf@m+2)^0,f,c
  3243   0064EE  503F               	movf	(??_sqrtf+3)^0,w,c
  3244   0064F0  5A54               	subwfb	(sqrtf@m+3)^0,f,c
  3245   0064F2                     l1098:
  3246   0064F2  0E81               	movlw	129
  3247   0064F4  2651               	addwf	sqrtf@m^0,f,c
  3248   0064F6  0EFF               	movlw	255
  3249   0064F8  2252               	addwfc	(sqrtf@m+1)^0,f,c
  3250   0064FA  0EFF               	movlw	255
  3251   0064FC  2253               	addwfc	(sqrtf@m+2)^0,f,c
  3252   0064FE  0EFF               	movlw	255
  3253   006500  2254               	addwfc	(sqrtf@m+3)^0,f,c
  3254   006502  0EFF               	movlw	255
  3255   006504  1459               	andwf	sqrtf@ix^0,w,c
  3256   006506  6E3C               	movwf	??_sqrtf^0,c
  3257   006508  0EFF               	movlw	255
  3258   00650A  145A               	andwf	(sqrtf@ix+1)^0,w,c
  3259   00650C  6E3D               	movwf	(??_sqrtf+1)^0,c
  3260   00650E  0E7F               	movlw	127
  3261   006510  145B               	andwf	(sqrtf@ix+2)^0,w,c
  3262   006512  6E3E               	movwf	(??_sqrtf+2)^0,c
  3263   006514  0E00               	movlw	0
  3264   006516  145C               	andwf	(sqrtf@ix+3)^0,w,c
  3265   006518  6E3F               	movwf	(??_sqrtf+3)^0,c
  3266   00651A  0E00               	movlw	0
  3267   00651C  103C               	iorwf	??_sqrtf^0,w,c
  3268   00651E  6E59               	movwf	sqrtf@ix^0,c
  3269   006520  0E00               	movlw	0
  3270   006522  103D               	iorwf	(??_sqrtf+1)^0,w,c
  3271   006524  6E5A               	movwf	(sqrtf@ix+1)^0,c
  3272   006526  0E80               	movlw	128
  3273   006528  103E               	iorwf	(??_sqrtf+2)^0,w,c
  3274   00652A  6E5B               	movwf	(sqrtf@ix+2)^0,c
  3275   00652C  0E00               	movlw	0
  3276   00652E  103F               	iorwf	(??_sqrtf+3)^0,w,c
  3277   006530  6E5C               	movwf	(sqrtf@ix+3)^0,c
  3278   006532  A051               	btfss	sqrtf@m^0,0,c
  3279   006534  EF9E  F032         	goto	u2901
  3280   006538  EFA0  F032         	goto	u2900
  3281   00653C                     u2901:
  3282   00653C  EFA8  F032         	goto	l1102
  3283   006540                     u2900:
  3284   006540  5059               	movf	sqrtf@ix^0,w,c
  3285   006542  2659               	addwf	sqrtf@ix^0,f,c
  3286   006544  505A               	movf	(sqrtf@ix+1)^0,w,c
  3287   006546  225A               	addwfc	(sqrtf@ix+1)^0,f,c
  3288   006548  505B               	movf	(sqrtf@ix+2)^0,w,c
  3289   00654A  225B               	addwfc	(sqrtf@ix+2)^0,f,c
  3290   00654C  505C               	movf	(sqrtf@ix+3)^0,w,c
  3291   00654E  225C               	addwfc	(sqrtf@ix+3)^0,f,c
  3292   006550                     l1102:
  3293   006550  3454               	rlcf	(sqrtf@m+3)^0,w,c
  3294   006552  3254               	rrcf	(sqrtf@m+3)^0,f,c
  3295   006554  3253               	rrcf	(sqrtf@m+2)^0,f,c
  3296   006556  3252               	rrcf	(sqrtf@m+1)^0,f,c
  3297   006558  3251               	rrcf	sqrtf@m^0,f,c
  3298   00655A  5059               	movf	sqrtf@ix^0,w,c
  3299   00655C  2659               	addwf	sqrtf@ix^0,f,c
  3300   00655E  505A               	movf	(sqrtf@ix+1)^0,w,c
  3301   006560  225A               	addwfc	(sqrtf@ix+1)^0,f,c
  3302   006562  505B               	movf	(sqrtf@ix+2)^0,w,c
  3303   006564  225B               	addwfc	(sqrtf@ix+2)^0,f,c
  3304   006566  505C               	movf	(sqrtf@ix+3)^0,w,c
  3305   006568  225C               	addwfc	(sqrtf@ix+3)^0,f,c
  3306   00656A  0E00               	movlw	0
  3307   00656C  6E41               	movwf	sqrtf@s^0,c
  3308   00656E  0E00               	movlw	0
  3309   006570  6E42               	movwf	(sqrtf@s+1)^0,c
  3310   006572  0E00               	movlw	0
  3311   006574  6E43               	movwf	(sqrtf@s+2)^0,c
  3312   006576  0E00               	movlw	0
  3313   006578  6E44               	movwf	(sqrtf@s+3)^0,c
  3314   00657A  C041  F049         	movff	sqrtf@s,sqrtf@q
  3315   00657E  C042  F04A         	movff	sqrtf@s+1,sqrtf@q+1
  3316   006582  C043  F04B         	movff	sqrtf@s+2,sqrtf@q+2
  3317   006586  C044  F04C         	movff	sqrtf@s+3,sqrtf@q+3
  3318   00658A  0E00               	movlw	0
  3319   00658C  6E55               	movwf	sqrtf@r^0,c
  3320   00658E  0E00               	movlw	0
  3321   006590  6E56               	movwf	(sqrtf@r+1)^0,c
  3322   006592  0E00               	movlw	0
  3323   006594  6E57               	movwf	(sqrtf@r+2)^0,c
  3324   006596  0E01               	movlw	1
  3325   006598  6E58               	movwf	(sqrtf@r+3)^0,c
  3326   00659A  EF17  F033         	goto	l2903
  3327   00659E                     l2897:
  3328   00659E  5041               	movf	sqrtf@s^0,w,c
  3329   0065A0  2455               	addwf	sqrtf@r^0,w,c
  3330   0065A2  6E4D               	movwf	sqrtf@t^0,c
  3331   0065A4  5042               	movf	(sqrtf@s+1)^0,w,c
  3332   0065A6  2056               	addwfc	(sqrtf@r+1)^0,w,c
  3333   0065A8  6E4E               	movwf	(sqrtf@t+1)^0,c
  3334   0065AA  5043               	movf	(sqrtf@s+2)^0,w,c
  3335   0065AC  2057               	addwfc	(sqrtf@r+2)^0,w,c
  3336   0065AE  6E4F               	movwf	(sqrtf@t+2)^0,c
  3337   0065B0  5044               	movf	(sqrtf@s+3)^0,w,c
  3338   0065B2  2058               	addwfc	(sqrtf@r+3)^0,w,c
  3339   0065B4  6E50               	movwf	(sqrtf@t+3)^0,c
  3340   0065B6  504D               	movf	sqrtf@t^0,w,c
  3341   0065B8  5C59               	subwf	sqrtf@ix^0,w,c
  3342   0065BA  504E               	movf	(sqrtf@t+1)^0,w,c
  3343   0065BC  585A               	subwfb	(sqrtf@ix+1)^0,w,c
  3344   0065BE  504F               	movf	(sqrtf@t+2)^0,w,c
  3345   0065C0  585B               	subwfb	(sqrtf@ix+2)^0,w,c
  3346   0065C2  505C               	movf	(sqrtf@ix+3)^0,w,c
  3347   0065C4  0A80               	xorlw	128
  3348   0065C6  6E3C               	movwf	??_sqrtf^0,c
  3349   0065C8  5050               	movf	(sqrtf@t+3)^0,w,c
  3350   0065CA  0A80               	xorlw	128
  3351   0065CC  583C               	subwfb	??_sqrtf^0,w,c
  3352   0065CE  A0D8               	btfss	status,0,c
  3353   0065D0  EFEC  F032         	goto	u2911
  3354   0065D4  EFEE  F032         	goto	u2910
  3355   0065D8                     u2911:
  3356   0065D8  EF0A  F033         	goto	l1105
  3357   0065DC                     u2910:
  3358   0065DC  504D               	movf	sqrtf@t^0,w,c
  3359   0065DE  2455               	addwf	sqrtf@r^0,w,c
  3360   0065E0  6E41               	movwf	sqrtf@s^0,c
  3361   0065E2  504E               	movf	(sqrtf@t+1)^0,w,c
  3362   0065E4  2056               	addwfc	(sqrtf@r+1)^0,w,c
  3363   0065E6  6E42               	movwf	(sqrtf@s+1)^0,c
  3364   0065E8  504F               	movf	(sqrtf@t+2)^0,w,c
  3365   0065EA  2057               	addwfc	(sqrtf@r+2)^0,w,c
  3366   0065EC  6E43               	movwf	(sqrtf@s+2)^0,c
  3367   0065EE  5050               	movf	(sqrtf@t+3)^0,w,c
  3368   0065F0  2058               	addwfc	(sqrtf@r+3)^0,w,c
  3369   0065F2  6E44               	movwf	(sqrtf@s+3)^0,c
  3370   0065F4  504D               	movf	sqrtf@t^0,w,c
  3371   0065F6  5E59               	subwf	sqrtf@ix^0,f,c
  3372   0065F8  504E               	movf	(sqrtf@t+1)^0,w,c
  3373   0065FA  5A5A               	subwfb	(sqrtf@ix+1)^0,f,c
  3374   0065FC  504F               	movf	(sqrtf@t+2)^0,w,c
  3375   0065FE  5A5B               	subwfb	(sqrtf@ix+2)^0,f,c
  3376   006600  5050               	movf	(sqrtf@t+3)^0,w,c
  3377   006602  5A5C               	subwfb	(sqrtf@ix+3)^0,f,c
  3378   006604  5055               	movf	sqrtf@r^0,w,c
  3379   006606  2649               	addwf	sqrtf@q^0,f,c
  3380   006608  5056               	movf	(sqrtf@r+1)^0,w,c
  3381   00660A  224A               	addwfc	(sqrtf@q+1)^0,f,c
  3382   00660C  5057               	movf	(sqrtf@r+2)^0,w,c
  3383   00660E  224B               	addwfc	(sqrtf@q+2)^0,f,c
  3384   006610  5058               	movf	(sqrtf@r+3)^0,w,c
  3385   006612  224C               	addwfc	(sqrtf@q+3)^0,f,c
  3386   006614                     l1105:
  3387   006614  5059               	movf	sqrtf@ix^0,w,c
  3388   006616  2659               	addwf	sqrtf@ix^0,f,c
  3389   006618  505A               	movf	(sqrtf@ix+1)^0,w,c
  3390   00661A  225A               	addwfc	(sqrtf@ix+1)^0,f,c
  3391   00661C  505B               	movf	(sqrtf@ix+2)^0,w,c
  3392   00661E  225B               	addwfc	(sqrtf@ix+2)^0,f,c
  3393   006620  505C               	movf	(sqrtf@ix+3)^0,w,c
  3394   006622  225C               	addwfc	(sqrtf@ix+3)^0,f,c
  3395   006624  90D8               	bcf	status,0,c
  3396   006626  3258               	rrcf	(sqrtf@r+3)^0,f,c
  3397   006628  3257               	rrcf	(sqrtf@r+2)^0,f,c
  3398   00662A  3256               	rrcf	(sqrtf@r+1)^0,f,c
  3399   00662C  3255               	rrcf	sqrtf@r^0,f,c
  3400   00662E                     l2903:
  3401   00662E  5055               	movf	sqrtf@r^0,w,c
  3402   006630  1056               	iorwf	(sqrtf@r+1)^0,w,c
  3403   006632  1057               	iorwf	(sqrtf@r+2)^0,w,c
  3404   006634  1058               	iorwf	(sqrtf@r+3)^0,w,c
  3405   006636  A4D8               	btfss	status,2,c
  3406   006638  EF20  F033         	goto	u2921
  3407   00663C  EF22  F033         	goto	u2920
  3408   006640                     u2921:
  3409   006640  EFCF  F032         	goto	l2897
  3410   006644                     u2920:
  3411   006644  5059               	movf	sqrtf@ix^0,w,c
  3412   006646  105A               	iorwf	(sqrtf@ix+1)^0,w,c
  3413   006648  105B               	iorwf	(sqrtf@ix+2)^0,w,c
  3414   00664A  105C               	iorwf	(sqrtf@ix+3)^0,w,c
  3415   00664C  B4D8               	btfsc	status,2,c
  3416   00664E  EF2B  F033         	goto	u2931
  3417   006652  EF2D  F033         	goto	u2930
  3418   006656                     u2931:
  3419   006656  EF41  F033         	goto	l1107
  3420   00665A                     u2930:
  3421   00665A  0E01               	movlw	1
  3422   00665C  1449               	andwf	sqrtf@q^0,w,c
  3423   00665E  6E3C               	movwf	??_sqrtf^0,c
  3424   006660  0E00               	movlw	0
  3425   006662  144A               	andwf	(sqrtf@q+1)^0,w,c
  3426   006664  6E3D               	movwf	(??_sqrtf+1)^0,c
  3427   006666  0E00               	movlw	0
  3428   006668  144B               	andwf	(sqrtf@q+2)^0,w,c
  3429   00666A  6E3E               	movwf	(??_sqrtf+2)^0,c
  3430   00666C  0E00               	movlw	0
  3431   00666E  144C               	andwf	(sqrtf@q+3)^0,w,c
  3432   006670  6E3F               	movwf	(??_sqrtf+3)^0,c
  3433   006672  503C               	movf	??_sqrtf^0,w,c
  3434   006674  2649               	addwf	sqrtf@q^0,f,c
  3435   006676  503D               	movf	(??_sqrtf+1)^0,w,c
  3436   006678  224A               	addwfc	(sqrtf@q+1)^0,f,c
  3437   00667A  503E               	movf	(??_sqrtf+2)^0,w,c
  3438   00667C  224B               	addwfc	(sqrtf@q+2)^0,f,c
  3439   00667E  503F               	movf	(??_sqrtf+3)^0,w,c
  3440   006680  224C               	addwfc	(sqrtf@q+3)^0,f,c
  3441   006682                     l1107:
  3442   006682  C049  F03C         	movff	sqrtf@q,??_sqrtf
  3443   006686  C04A  F03D         	movff	sqrtf@q+1,??_sqrtf+1
  3444   00668A  C04B  F03E         	movff	sqrtf@q+2,??_sqrtf+2
  3445   00668E  C04C  F03F         	movff	sqrtf@q+3,??_sqrtf+3
  3446   006692  343F               	rlcf	(??_sqrtf+3)^0,w,c
  3447   006694  323F               	rrcf	(??_sqrtf+3)^0,f,c
  3448   006696  323E               	rrcf	(??_sqrtf+2)^0,f,c
  3449   006698  323D               	rrcf	(??_sqrtf+1)^0,f,c
  3450   00669A  323C               	rrcf	??_sqrtf^0,f,c
  3451   00669C  0E00               	movlw	0
  3452   00669E  243C               	addwf	??_sqrtf^0,w,c
  3453   0066A0  6E59               	movwf	sqrtf@ix^0,c
  3454   0066A2  0E00               	movlw	0
  3455   0066A4  203D               	addwfc	(??_sqrtf+1)^0,w,c
  3456   0066A6  6E5A               	movwf	(sqrtf@ix+1)^0,c
  3457   0066A8  0E00               	movlw	0
  3458   0066AA  203E               	addwfc	(??_sqrtf+2)^0,w,c
  3459   0066AC  6E5B               	movwf	(sqrtf@ix+2)^0,c
  3460   0066AE  0E3F               	movlw	63
  3461   0066B0  203F               	addwfc	(??_sqrtf+3)^0,w,c
  3462   0066B2  6E5C               	movwf	(sqrtf@ix+3)^0,c
  3463   0066B4  C051  F03C         	movff	sqrtf@m,??_sqrtf
  3464   0066B8  C052  F03D         	movff	sqrtf@m+1,??_sqrtf+1
  3465   0066BC  C053  F03E         	movff	sqrtf@m+2,??_sqrtf+2
  3466   0066C0  C054  F03F         	movff	sqrtf@m+3,??_sqrtf+3
  3467   0066C4  0E17               	movlw	23
  3468   0066C6                     u2945:
  3469   0066C6  90D8               	bcf	status,0,c
  3470   0066C8  363C               	rlcf	??_sqrtf^0,f,c
  3471   0066CA  363D               	rlcf	(??_sqrtf+1)^0,f,c
  3472   0066CC  363E               	rlcf	(??_sqrtf+2)^0,f,c
  3473   0066CE  363F               	rlcf	(??_sqrtf+3)^0,f,c
  3474   0066D0  2EE8               	decfsz	wreg,f,c
  3475   0066D2  EF63  F033         	goto	u2945
  3476   0066D6  503C               	movf	??_sqrtf^0,w,c
  3477   0066D8  2659               	addwf	sqrtf@ix^0,f,c
  3478   0066DA  503D               	movf	(??_sqrtf+1)^0,w,c
  3479   0066DC  225A               	addwfc	(sqrtf@ix+1)^0,f,c
  3480   0066DE  503E               	movf	(??_sqrtf+2)^0,w,c
  3481   0066E0  225B               	addwfc	(sqrtf@ix+2)^0,f,c
  3482   0066E2  503F               	movf	(??_sqrtf+3)^0,w,c
  3483   0066E4  225C               	addwfc	(sqrtf@ix+3)^0,f,c
  3484   0066E6  EFCF  F031         	goto	l2857
  3485   0066EA                     l1094:
  3486   0066EA  0012               	return		;funcret
  3487   0066EC                     __end_of_sqrtf:
  3488                           	callstack 0
  3489                           
  3490 ;; *************** function _atan2f *****************
  3491 ;; Defined at:
  3492 ;;		line 22 in file "C:\Program Files\Microchip\xc8\v2.50\pic\sources\c99\common\atan2f.c"
  3493 ;; Parameters:    Size  Location     Type
  3494 ;;  y               4   46[BANK0 ] float 
  3495 ;;  x               4   50[BANK0 ] float 
  3496 ;; Auto vars:     Size  Location     Type
  3497 ;;  iy              4   82[BANK0 ] struct .
  3498 ;;  ix              4   78[BANK0 ] struct .
  3499 ;;  z               4   74[BANK0 ] float 
  3500 ;;  m               1   86[BANK0 ] unsigned char 
  3501 ;; Return value:  Size  Location     Type
  3502 ;;                  4   46[BANK0 ] float 
  3503 ;; Registers used:
  3504 ;;		wreg, status,2, status,0, tblptrl, tblptrh, tblptru, prodl, prodh, cstack
  3505 ;; Tracked objects:
  3506 ;;		On entry : 0/0
  3507 ;;		On exit  : 0/0
  3508 ;;		Unchanged: 0/0
  3509 ;; Data sizes:     COMRAM   BANK0   BANK1   BANK2   BANK3   BANK4   BANK5
  3510 ;;      Params:         0       8       0       0       0       0       0
  3511 ;;      Locals:         0      25       0       0       0       0       0
  3512 ;;      Temps:          0       8       0       0       0       0       0
  3513 ;;      Totals:         0      41       0       0       0       0       0
  3514 ;;Total ram usage:       41 bytes
  3515 ;; Hardware stack levels used: 1
  3516 ;; Hardware stack levels required when called: 3
  3517 ;; This function calls:
  3518 ;;		___fladd
  3519 ;;		___fldiv
  3520 ;;		___flneg
  3521 ;;		___flsub
  3522 ;;		___fpclassifyf
  3523 ;;		_atanf
  3524 ;;		_fabsf
  3525 ;; This function is called by:
  3526 ;;		_calculate_angle
  3527 ;; This function uses a non-reentrant model
  3528 ;;
  3529                           
  3530                           	psect	text11
  3531   006FC8                     __ptext11:
  3532                           	callstack 0
  3533   006FC8                     _atan2f:
  3534                           	callstack 23
  3535   006FC8  C0B2  F001         	movff	atan2f@x,___fpclassifyf@x
  3536   006FCC  C0B3  F002         	movff	atan2f@x+1,___fpclassifyf@x+1
  3537   006FD0  C0B4  F003         	movff	atan2f@x+2,___fpclassifyf@x+2
  3538   006FD4  C0B5  F004         	movff	atan2f@x+3,___fpclassifyf@x+3
  3539   006FD8  ECD8  F02B         	call	___fpclassifyf	;wreg free
  3540   006FDC  5001               	movf	?___fpclassifyf^0,w,c
  3541   006FDE  1002               	iorwf	(?___fpclassifyf+1)^0,w,c
  3542   006FE0  B4D8               	btfsc	status,2,c
  3543   006FE2  EFF5  F037         	goto	u2951
  3544   006FE6  EFF7  F037         	goto	u2950
  3545   006FEA                     u2951:
  3546   006FEA  EF0A  F038         	goto	l2917
  3547   006FEE                     u2950:
  3548   006FEE  C0AE  F001         	movff	atan2f@y,___fpclassifyf@x
  3549   006FF2  C0AF  F002         	movff	atan2f@y+1,___fpclassifyf@x+1
  3550   006FF6  C0B0  F003         	movff	atan2f@y+2,___fpclassifyf@x+2
  3551   006FFA  C0B1  F004         	movff	atan2f@y+3,___fpclassifyf@x+3
  3552   006FFE  ECD8  F02B         	call	___fpclassifyf	;wreg free
  3553   007002  5001               	movf	?___fpclassifyf^0,w,c
  3554   007004  1002               	iorwf	(?___fpclassifyf+1)^0,w,c
  3555   007006  A4D8               	btfss	status,2,c
  3556   007008  EF08  F038         	goto	u2961
  3557   00700C  EF0A  F038         	goto	u2960
  3558   007010                     u2961:
  3559   007010  EF26  F038         	goto	l981
  3560   007014                     u2960:
  3561   007014                     l2917:
  3562   007014  C0B2  F028         	movff	atan2f@x,___fladd@b
  3563   007018  C0B3  F029         	movff	atan2f@x+1,___fladd@b+1
  3564   00701C  C0B4  F02A         	movff	atan2f@x+2,___fladd@b+2
  3565   007020  C0B5  F02B         	movff	atan2f@x+3,___fladd@b+3
  3566   007024  C0AE  F02C         	movff	atan2f@y,___fladd@a
  3567   007028  C0AF  F02D         	movff	atan2f@y+1,___fladd@a+1
  3568   00702C  C0B0  F02E         	movff	atan2f@y+2,___fladd@a+2
  3569   007030  C0B1  F02F         	movff	atan2f@y+3,___fladd@a+3
  3570   007034  EC89  F035         	call	___fladd	;wreg free
  3571   007038  C028  F0AE         	movff	?___fladd,?_atan2f
  3572   00703C  C029  F0AF         	movff	?___fladd+1,?_atan2f+1
  3573   007040  C02A  F0B0         	movff	?___fladd+2,?_atan2f+2
  3574   007044  C02B  F0B1         	movff	?___fladd+3,?_atan2f+3
  3575   007048  EFC1  F03A         	goto	l984
  3576   00704C                     l981:
  3577   00704C  C0B2  F0CE         	movff	atan2f@x,atan2f@ix
  3578   007050  C0B3  F0CF         	movff	atan2f@x+1,atan2f@ix+1
  3579   007054  C0B4  F0D0         	movff	atan2f@x+2,atan2f@ix+2
  3580   007058  C0B5  F0D1         	movff	atan2f@x+3,atan2f@ix+3
  3581   00705C  C0AE  F0D2         	movff	atan2f@y,atan2f@iy
  3582   007060  C0AF  F0D3         	movff	atan2f@y+1,atan2f@iy+1
  3583   007064  C0B0  F0D4         	movff	atan2f@y+2,atan2f@iy+2
  3584   007068  C0B1  F0D5         	movff	atan2f@y+3,atan2f@iy+3
  3585   00706C  0E80               	movlw	128
  3586   00706E  0100               	movlb	0	; () banked
  3587   007070  19D0               	xorwf	(atan2f@ix+2)& (0+255),w,b
  3588   007072  E109               	bnz	u2971
  3589   007074  0E3F               	movlw	63
  3590   007076  19D1               	xorwf	(atan2f@ix+3)& (0+255),w,b
  3591   007078  11CE               	iorwf	atan2f@ix& (0+255),w,b
  3592   00707A  11CF               	iorwf	(atan2f@ix+1)& (0+255),w,b
  3593   00707C  A4D8               	btfss	status,2,c
  3594   00707E  EF43  F038         	goto	u2971
  3595   007082  EF45  F038         	goto	u2970
  3596   007086                     u2971:
  3597   007086  EF59  F038         	goto	l2927
  3598   00708A                     u2970:
  3599   00708A                     
  3600                           ; BSR set to: 0
  3601   00708A  C0AE  F080         	movff	atan2f@y,atanf@x
  3602   00708E  C0AF  F081         	movff	atan2f@y+1,atanf@x+1
  3603   007092  C0B0  F082         	movff	atan2f@y+2,atanf@x+2
  3604   007096  C0B1  F083         	movff	atan2f@y+3,atanf@x+3
  3605   00709A  ECC2  F03A         	call	_atanf	;wreg free
  3606   00709E  C080  F0AE         	movff	?_atanf,?_atan2f
  3607   0070A2  C081  F0AF         	movff	?_atanf+1,?_atan2f+1
  3608   0070A6  C082  F0B0         	movff	?_atanf+2,?_atan2f+2
  3609   0070AA  C083  F0B1         	movff	?_atanf+3,?_atan2f+3
  3610   0070AE  EFC1  F03A         	goto	l984
  3611   0070B2                     l2927:
  3612                           
  3613                           ; BSR set to: 0
  3614   0070B2  C0CE  F0B6         	movff	atan2f@ix,??_atan2f
  3615   0070B6  C0CF  F0B7         	movff	atan2f@ix+1,??_atan2f+1
  3616   0070BA  C0D0  F0B8         	movff	atan2f@ix+2,??_atan2f+2
  3617   0070BE  C0D1  F0B9         	movff	atan2f@ix+3,??_atan2f+3
  3618   0070C2  0E1F               	movlw	31
  3619   0070C4  EF69  F038         	goto	u2980
  3620   0070C8                     u2985:
  3621   0070C8  90D8               	bcf	status,0,c
  3622   0070CA  33B9               	rrcf	(??_atan2f+3)& (0+255),f,b
  3623   0070CC  33B8               	rrcf	(??_atan2f+2)& (0+255),f,b
  3624   0070CE  33B7               	rrcf	(??_atan2f+1)& (0+255),f,b
  3625   0070D0  33B6               	rrcf	??_atan2f& (0+255),f,b
  3626   0070D2                     u2980:
  3627   0070D2  2EE8               	decfsz	wreg,f,c
  3628   0070D4  EF64  F038         	goto	u2985
  3629   0070D8  0E02               	movlw	2
  3630   0070DA  17B6               	andwf	??_atan2f& (0+255),f,b
  3631   0070DC  C0D2  F0BA         	movff	atan2f@iy,??_atan2f+4
  3632   0070E0  C0D3  F0BB         	movff	atan2f@iy+1,??_atan2f+5
  3633   0070E4  C0D4  F0BC         	movff	atan2f@iy+2,??_atan2f+6
  3634   0070E8  C0D5  F0BD         	movff	atan2f@iy+3,??_atan2f+7
  3635   0070EC  0E20               	movlw	32
  3636   0070EE  EF7E  F038         	goto	u2990
  3637   0070F2                     u2995:
  3638   0070F2  90D8               	bcf	status,0,c
  3639   0070F4  33BD               	rrcf	(??_atan2f+7)& (0+255),f,b
  3640   0070F6  33BC               	rrcf	(??_atan2f+6)& (0+255),f,b
  3641   0070F8  33BB               	rrcf	(??_atan2f+5)& (0+255),f,b
  3642   0070FA  33BA               	rrcf	(??_atan2f+4)& (0+255),f,b
  3643   0070FC                     u2990:
  3644   0070FC  2EE8               	decfsz	wreg,f,c
  3645   0070FE  EF79  F038         	goto	u2995
  3646   007102  51BA               	movf	(??_atan2f+4)& (0+255),w,b
  3647   007104  0B01               	andlw	1
  3648   007106  11B6               	iorwf	??_atan2f& (0+255),w,b
  3649   007108  6FD6               	movwf	atan2f@m& (0+255),b
  3650   00710A                     
  3651                           ; BSR set to: 0
  3652   00710A  9FD1               	bcf	(atan2f@ix+3)& (0+255),7,b
  3653   00710C                     
  3654                           ; BSR set to: 0
  3655   00710C  9FD5               	bcf	(atan2f@iy+3)& (0+255),7,b
  3656   00710E  51D2               	movf	atan2f@iy& (0+255),w,b
  3657   007110  11D3               	iorwf	(atan2f@iy+1)& (0+255),w,b
  3658   007112  11D4               	iorwf	(atan2f@iy+2)& (0+255),w,b
  3659   007114  11D5               	iorwf	(atan2f@iy+3)& (0+255),w,b
  3660   007116  A4D8               	btfss	status,2,c
  3661   007118  EF90  F038         	goto	u3001
  3662   00711C  EF92  F038         	goto	u3000
  3663   007120                     u3001:
  3664   007120  EFC5  F038         	goto	l2947
  3665   007124                     u3000:
  3666   007124  EFB2  F038         	goto	l2945
  3667   007128                     l989:
  3668                           
  3669                           ; BSR set to: 0
  3670   007128  C0AE  F0AE         	movff	atan2f@y,?_atan2f
  3671   00712C  C0AF  F0AF         	movff	atan2f@y+1,?_atan2f+1
  3672   007130  C0B0  F0B0         	movff	atan2f@y+2,?_atan2f+2
  3673   007134  C0B1  F0B1         	movff	atan2f@y+3,?_atan2f+3
  3674   007138  EFC1  F03A         	goto	l984
  3675   00713C                     l2935:
  3676                           
  3677                           ; BSR set to: 0
  3678   00713C  0EDB               	movlw	219
  3679   00713E  6FAE               	movwf	?_atan2f& (0+255),b
  3680   007140  0E0F               	movlw	15
  3681   007142  6FAF               	movwf	(?_atan2f+1)& (0+255),b
  3682   007144  0E49               	movlw	73
  3683   007146  6FB0               	movwf	(?_atan2f+2)& (0+255),b
  3684   007148  0E40               	movlw	64
  3685   00714A  6FB1               	movwf	(?_atan2f+3)& (0+255),b
  3686   00714C  EFC1  F03A         	goto	l984
  3687   007150                     l2939:
  3688                           
  3689                           ; BSR set to: 0
  3690   007150  0EDB               	movlw	219
  3691   007152  6FAE               	movwf	?_atan2f& (0+255),b
  3692   007154  0E0F               	movlw	15
  3693   007156  6FAF               	movwf	(?_atan2f+1)& (0+255),b
  3694   007158  0E49               	movlw	73
  3695   00715A  6FB0               	movwf	(?_atan2f+2)& (0+255),b
  3696   00715C  0EC0               	movlw	192
  3697   00715E  6FB1               	movwf	(?_atan2f+3)& (0+255),b
  3698   007160  EFC1  F03A         	goto	l984
  3699   007164                     l2945:
  3700                           
  3701                           ; BSR set to: 0
  3702   007164  51D6               	movf	atan2f@m& (0+255),w,b
  3703                           
  3704                           ; Switch size 1, requested type "simple"
  3705                           ; Number of cases is 4, Range of values is 0 to 3
  3706                           ; switch strategies available:
  3707                           ; Name         Instructions Cycles
  3708                           ; simple_byte           13     7 (average)
  3709                           ;	Chosen strategy is simple_byte
  3710   007166  0A00               	xorlw	0	; case 0
  3711   007168  B4D8               	btfsc	status,2,c
  3712   00716A  EF94  F038         	goto	l989
  3713   00716E  0A01               	xorlw	1	; case 1
  3714   007170  B4D8               	btfsc	status,2,c
  3715   007172  EF94  F038         	goto	l989
  3716   007176  0A03               	xorlw	3	; case 2
  3717   007178  B4D8               	btfsc	status,2,c
  3718   00717A  EF9E  F038         	goto	l2935
  3719   00717E  0A01               	xorlw	1	; case 3
  3720   007180  B4D8               	btfsc	status,2,c
  3721   007182  EFA8  F038         	goto	l2939
  3722   007186  EFC5  F038         	goto	l2947
  3723   00718A                     l2947:
  3724                           
  3725                           ; BSR set to: 0
  3726   00718A  51CE               	movf	atan2f@ix& (0+255),w,b
  3727   00718C  11CF               	iorwf	(atan2f@ix+1)& (0+255),w,b
  3728   00718E  11D0               	iorwf	(atan2f@ix+2)& (0+255),w,b
  3729   007190  11D1               	iorwf	(atan2f@ix+3)& (0+255),w,b
  3730   007192  A4D8               	btfss	status,2,c
  3731   007194  EFCE  F038         	goto	u3011
  3732   007198  EFD0  F038         	goto	u3010
  3733   00719C                     u3011:
  3734   00719C  EFEB  F038         	goto	l2957
  3735   0071A0                     u3010:
  3736   0071A0                     
  3737                           ; BSR set to: 0
  3738   0071A0  B1D6               	btfsc	atan2f@m& (0+255),0,b
  3739   0071A2  EFD5  F038         	goto	u3021
  3740   0071A6  EFD7  F038         	goto	u3020
  3741   0071AA                     u3021:
  3742   0071AA  EFE1  F038         	goto	l2953
  3743   0071AE                     u3020:
  3744   0071AE                     
  3745                           ; BSR set to: 0
  3746   0071AE  0EDB               	movlw	219
  3747   0071B0  6FAE               	movwf	?_atan2f& (0+255),b
  3748   0071B2  0E0F               	movlw	15
  3749   0071B4  6FAF               	movwf	(?_atan2f+1)& (0+255),b
  3750   0071B6  0EC9               	movlw	201
  3751   0071B8  6FB0               	movwf	(?_atan2f+2)& (0+255),b
  3752   0071BA  0E3F               	movlw	63
  3753   0071BC  6FB1               	movwf	(?_atan2f+3)& (0+255),b
  3754   0071BE  EFC1  F03A         	goto	l984
  3755   0071C2                     l2953:
  3756                           
  3757                           ; BSR set to: 0
  3758   0071C2  0EDB               	movlw	219
  3759   0071C4  6FAE               	movwf	?_atan2f& (0+255),b
  3760   0071C6  0E0F               	movlw	15
  3761   0071C8  6FAF               	movwf	(?_atan2f+1)& (0+255),b
  3762   0071CA  0EC9               	movlw	201
  3763   0071CC  6FB0               	movwf	(?_atan2f+2)& (0+255),b
  3764   0071CE  0EBF               	movlw	191
  3765   0071D0  6FB1               	movwf	(?_atan2f+3)& (0+255),b
  3766   0071D2  EFC1  F03A         	goto	l984
  3767   0071D6                     l2957:
  3768                           
  3769                           ; BSR set to: 0
  3770   0071D6  0E80               	movlw	128
  3771   0071D8  19D0               	xorwf	(atan2f@ix+2)& (0+255),w,b
  3772   0071DA  E109               	bnz	u3031
  3773   0071DC  0E7F               	movlw	127
  3774   0071DE  19D1               	xorwf	(atan2f@ix+3)& (0+255),w,b
  3775   0071E0  11CE               	iorwf	atan2f@ix& (0+255),w,b
  3776   0071E2  11CF               	iorwf	(atan2f@ix+1)& (0+255),w,b
  3777   0071E4  A4D8               	btfss	status,2,c
  3778   0071E6  EFF7  F038         	goto	u3031
  3779   0071EA  EFF9  F038         	goto	u3030
  3780   0071EE                     u3031:
  3781   0071EE  EF7F  F039         	goto	l3003
  3782   0071F2                     u3030:
  3783   0071F2                     
  3784                           ; BSR set to: 0
  3785   0071F2  0E80               	movlw	128
  3786   0071F4  19D4               	xorwf	(atan2f@iy+2)& (0+255),w,b
  3787   0071F6  E109               	bnz	u3041
  3788   0071F8  0E7F               	movlw	127
  3789   0071FA  19D5               	xorwf	(atan2f@iy+3)& (0+255),w,b
  3790   0071FC  11D2               	iorwf	atan2f@iy& (0+255),w,b
  3791   0071FE  11D3               	iorwf	(atan2f@iy+1)& (0+255),w,b
  3792   007200  A4D8               	btfss	status,2,c
  3793   007202  EF05  F039         	goto	u3041
  3794   007206  EF07  F039         	goto	u3040
  3795   00720A                     u3041:
  3796   00720A  EF6C  F039         	goto	l3001
  3797   00720E                     u3040:
  3798   00720E  EF31  F039         	goto	l2981
  3799   007212                     l2963:
  3800                           
  3801                           ; BSR set to: 0
  3802   007212  0EDB               	movlw	219
  3803   007214  6FAE               	movwf	?_atan2f& (0+255),b
  3804   007216  0E0F               	movlw	15
  3805   007218  6FAF               	movwf	(?_atan2f+1)& (0+255),b
  3806   00721A  0E49               	movlw	73
  3807   00721C  6FB0               	movwf	(?_atan2f+2)& (0+255),b
  3808   00721E  0E3F               	movlw	63
  3809   007220  6FB1               	movwf	(?_atan2f+3)& (0+255),b
  3810   007222  EFC1  F03A         	goto	l984
  3811   007226                     l2967:
  3812                           
  3813                           ; BSR set to: 0
  3814   007226  0EDB               	movlw	219
  3815   007228  6FAE               	movwf	?_atan2f& (0+255),b
  3816   00722A  0E0F               	movlw	15
  3817   00722C  6FAF               	movwf	(?_atan2f+1)& (0+255),b
  3818   00722E  0E49               	movlw	73
  3819   007230  6FB0               	movwf	(?_atan2f+2)& (0+255),b
  3820   007232  0EBF               	movlw	191
  3821   007234  6FB1               	movwf	(?_atan2f+3)& (0+255),b
  3822   007236  EFC1  F03A         	goto	l984
  3823   00723A                     l2971:
  3824                           
  3825                           ; BSR set to: 0
  3826   00723A  0EE4               	movlw	228
  3827   00723C  6FAE               	movwf	?_atan2f& (0+255),b
  3828   00723E  0ECB               	movlw	203
  3829   007240  6FAF               	movwf	(?_atan2f+1)& (0+255),b
  3830   007242  0E16               	movlw	22
  3831   007244  6FB0               	movwf	(?_atan2f+2)& (0+255),b
  3832   007246  0E40               	movlw	64
  3833   007248  6FB1               	movwf	(?_atan2f+3)& (0+255),b
  3834   00724A  EFC1  F03A         	goto	l984
  3835   00724E                     l2975:
  3836                           
  3837                           ; BSR set to: 0
  3838   00724E  0EE4               	movlw	228
  3839   007250  6FAE               	movwf	?_atan2f& (0+255),b
  3840   007252  0ECB               	movlw	203
  3841   007254  6FAF               	movwf	(?_atan2f+1)& (0+255),b
  3842   007256  0E16               	movlw	22
  3843   007258  6FB0               	movwf	(?_atan2f+2)& (0+255),b
  3844   00725A  0EC0               	movlw	192
  3845   00725C  6FB1               	movwf	(?_atan2f+3)& (0+255),b
  3846   00725E  EFC1  F03A         	goto	l984
  3847   007262                     l2981:
  3848                           
  3849                           ; BSR set to: 0
  3850   007262  51D6               	movf	atan2f@m& (0+255),w,b
  3851                           
  3852                           ; Switch size 1, requested type "simple"
  3853                           ; Number of cases is 4, Range of values is 0 to 3
  3854                           ; switch strategies available:
  3855                           ; Name         Instructions Cycles
  3856                           ; simple_byte           13     7 (average)
  3857                           ;	Chosen strategy is simple_byte
  3858   007264  0A00               	xorlw	0	; case 0
  3859   007266  B4D8               	btfsc	status,2,c
  3860   007268  EF09  F039         	goto	l2963
  3861   00726C  0A01               	xorlw	1	; case 1
  3862   00726E  B4D8               	btfsc	status,2,c
  3863   007270  EF13  F039         	goto	l2967
  3864   007274  0A03               	xorlw	3	; case 2
  3865   007276  B4D8               	btfsc	status,2,c
  3866   007278  EF1D  F039         	goto	l2971
  3867   00727C  0A01               	xorlw	1	; case 3
  3868   00727E  B4D8               	btfsc	status,2,c
  3869   007280  EF27  F039         	goto	l2975
  3870   007284  EF7F  F039         	goto	l3003
  3871   007288                     l2983:
  3872                           
  3873                           ; BSR set to: 0
  3874   007288  0E00               	movlw	0
  3875   00728A  6FAE               	movwf	?_atan2f& (0+255),b
  3876   00728C  0E00               	movlw	0
  3877   00728E  6FAF               	movwf	(?_atan2f+1)& (0+255),b
  3878   007290  0E00               	movlw	0
  3879   007292  6FB0               	movwf	(?_atan2f+2)& (0+255),b
  3880   007294  0E00               	movlw	0
  3881   007296  6FB1               	movwf	(?_atan2f+3)& (0+255),b
  3882   007298  EFC1  F03A         	goto	l984
  3883   00729C                     l2987:
  3884                           
  3885                           ; BSR set to: 0
  3886   00729C  0E00               	movlw	0
  3887   00729E  6FAE               	movwf	?_atan2f& (0+255),b
  3888   0072A0  0E00               	movlw	0
  3889   0072A2  6FAF               	movwf	(?_atan2f+1)& (0+255),b
  3890   0072A4  0E00               	movlw	0
  3891   0072A6  6FB0               	movwf	(?_atan2f+2)& (0+255),b
  3892   0072A8  0E80               	movlw	128
  3893   0072AA  6FB1               	movwf	(?_atan2f+3)& (0+255),b
  3894   0072AC  EFC1  F03A         	goto	l984
  3895   0072B0                     l2991:
  3896                           
  3897                           ; BSR set to: 0
  3898   0072B0  0EDB               	movlw	219
  3899   0072B2  6FAE               	movwf	?_atan2f& (0+255),b
  3900   0072B4  0E0F               	movlw	15
  3901   0072B6  6FAF               	movwf	(?_atan2f+1)& (0+255),b
  3902   0072B8  0E49               	movlw	73
  3903   0072BA  6FB0               	movwf	(?_atan2f+2)& (0+255),b
  3904   0072BC  0E40               	movlw	64
  3905   0072BE  6FB1               	movwf	(?_atan2f+3)& (0+255),b
  3906   0072C0  EFC1  F03A         	goto	l984
  3907   0072C4                     l2995:
  3908                           
  3909                           ; BSR set to: 0
  3910   0072C4  0EDB               	movlw	219
  3911   0072C6  6FAE               	movwf	?_atan2f& (0+255),b
  3912   0072C8  0E0F               	movlw	15
  3913   0072CA  6FAF               	movwf	(?_atan2f+1)& (0+255),b
  3914   0072CC  0E49               	movlw	73
  3915   0072CE  6FB0               	movwf	(?_atan2f+2)& (0+255),b
  3916   0072D0  0EC0               	movlw	192
  3917   0072D2  6FB1               	movwf	(?_atan2f+3)& (0+255),b
  3918   0072D4  EFC1  F03A         	goto	l984
  3919   0072D8                     l3001:
  3920                           
  3921                           ; BSR set to: 0
  3922   0072D8  51D6               	movf	atan2f@m& (0+255),w,b
  3923                           
  3924                           ; Switch size 1, requested type "simple"
  3925                           ; Number of cases is 4, Range of values is 0 to 3
  3926                           ; switch strategies available:
  3927                           ; Name         Instructions Cycles
  3928                           ; simple_byte           13     7 (average)
  3929                           ;	Chosen strategy is simple_byte
  3930   0072DA  0A00               	xorlw	0	; case 0
  3931   0072DC  B4D8               	btfsc	status,2,c
  3932   0072DE  EF44  F039         	goto	l2983
  3933   0072E2  0A01               	xorlw	1	; case 1
  3934   0072E4  B4D8               	btfsc	status,2,c
  3935   0072E6  EF4E  F039         	goto	l2987
  3936   0072EA  0A03               	xorlw	3	; case 2
  3937   0072EC  B4D8               	btfsc	status,2,c
  3938   0072EE  EF58  F039         	goto	l2991
  3939   0072F2  0A01               	xorlw	1	; case 3
  3940   0072F4  B4D8               	btfsc	status,2,c
  3941   0072F6  EF62  F039         	goto	l2995
  3942   0072FA  EF7F  F039         	goto	l3003
  3943   0072FE                     l3003:
  3944                           
  3945                           ; BSR set to: 0
  3946   0072FE  0E00               	movlw	0
  3947   007300  25CE               	addwf	atan2f@ix& (0+255),w,b
  3948   007302  6FB6               	movwf	??_atan2f& (0+255),b
  3949   007304  0E00               	movlw	0
  3950   007306  21CF               	addwfc	(atan2f@ix+1)& (0+255),w,b
  3951   007308  6FB7               	movwf	(??_atan2f+1)& (0+255),b
  3952   00730A  0E00               	movlw	0
  3953   00730C  21D0               	addwfc	(atan2f@ix+2)& (0+255),w,b
  3954   00730E  6FB8               	movwf	(??_atan2f+2)& (0+255),b
  3955   007310  0E0D               	movlw	13
  3956   007312  21D1               	addwfc	(atan2f@ix+3)& (0+255),w,b
  3957   007314  6FB9               	movwf	(??_atan2f+3)& (0+255),b
  3958   007316  51D2               	movf	atan2f@iy& (0+255),w,b
  3959   007318  5DB6               	subwf	??_atan2f& (0+255),w,b
  3960   00731A  51D3               	movf	(atan2f@iy+1)& (0+255),w,b
  3961   00731C  59B7               	subwfb	(??_atan2f+1)& (0+255),w,b
  3962   00731E  51D4               	movf	(atan2f@iy+2)& (0+255),w,b
  3963   007320  59B8               	subwfb	(??_atan2f+2)& (0+255),w,b
  3964   007322  51D5               	movf	(atan2f@iy+3)& (0+255),w,b
  3965   007324  59B9               	subwfb	(??_atan2f+3)& (0+255),w,b
  3966   007326  A0D8               	btfss	status,0,c
  3967   007328  EF98  F039         	goto	u3051
  3968   00732C  EF9A  F039         	goto	u3050
  3969   007330                     u3051:
  3970   007330  EFA8  F039         	goto	l1015
  3971   007334                     u3050:
  3972   007334                     
  3973                           ; BSR set to: 0
  3974   007334  0E80               	movlw	128
  3975   007336  19D4               	xorwf	(atan2f@iy+2)& (0+255),w,b
  3976   007338  E109               	bnz	u3061
  3977   00733A  0E7F               	movlw	127
  3978   00733C  19D5               	xorwf	(atan2f@iy+3)& (0+255),w,b
  3979   00733E  11D2               	iorwf	atan2f@iy& (0+255),w,b
  3980   007340  11D3               	iorwf	(atan2f@iy+1)& (0+255),w,b
  3981   007342  A4D8               	btfss	status,2,c
  3982   007344  EFA6  F039         	goto	u3061
  3983   007348  EFA8  F039         	goto	u3060
  3984   00734C                     u3061:
  3985   00734C  EFC3  F039         	goto	l1013
  3986   007350                     u3060:
  3987   007350                     l1015:
  3988                           
  3989                           ; BSR set to: 0
  3990   007350  B1D6               	btfsc	atan2f@m& (0+255),0,b
  3991   007352  EFAD  F039         	goto	u3071
  3992   007356  EFAF  F039         	goto	u3070
  3993   00735A                     u3071:
  3994   00735A  EFB9  F039         	goto	l3009
  3995   00735E                     u3070:
  3996   00735E                     
  3997                           ; BSR set to: 0
  3998   00735E  0EDB               	movlw	219
  3999   007360  6FAE               	movwf	?_atan2f& (0+255),b
  4000   007362  0E0F               	movlw	15
  4001   007364  6FAF               	movwf	(?_atan2f+1)& (0+255),b
  4002   007366  0EC9               	movlw	201
  4003   007368  6FB0               	movwf	(?_atan2f+2)& (0+255),b
  4004   00736A  0E3F               	movlw	63
  4005   00736C  6FB1               	movwf	(?_atan2f+3)& (0+255),b
  4006   00736E  EFC1  F03A         	goto	l984
  4007   007372                     l3009:
  4008                           
  4009                           ; BSR set to: 0
  4010   007372  0EDB               	movlw	219
  4011   007374  6FAE               	movwf	?_atan2f& (0+255),b
  4012   007376  0E0F               	movlw	15
  4013   007378  6FAF               	movwf	(?_atan2f+1)& (0+255),b
  4014   00737A  0EC9               	movlw	201
  4015   00737C  6FB0               	movwf	(?_atan2f+2)& (0+255),b
  4016   00737E  0EBF               	movlw	191
  4017   007380  6FB1               	movwf	(?_atan2f+3)& (0+255),b
  4018   007382  EFC1  F03A         	goto	l984
  4019   007386                     l1013:
  4020                           
  4021                           ; BSR set to: 0
  4022   007386  A3D6               	btfss	atan2f@m& (0+255),1,b
  4023   007388  EFC8  F039         	goto	u3081
  4024   00738C  EFCA  F039         	goto	u3080
  4025   007390                     u3081:
  4026   007390  EFEF  F039         	goto	l3017
  4027   007394                     u3080:
  4028   007394                     
  4029                           ; BSR set to: 0
  4030   007394  0E00               	movlw	0
  4031   007396  25D2               	addwf	atan2f@iy& (0+255),w,b
  4032   007398  6FB6               	movwf	??_atan2f& (0+255),b
  4033   00739A  0E00               	movlw	0
  4034   00739C  21D3               	addwfc	(atan2f@iy+1)& (0+255),w,b
  4035   00739E  6FB7               	movwf	(??_atan2f+1)& (0+255),b
  4036   0073A0  0E00               	movlw	0
  4037   0073A2  21D4               	addwfc	(atan2f@iy+2)& (0+255),w,b
  4038   0073A4  6FB8               	movwf	(??_atan2f+2)& (0+255),b
  4039   0073A6  0E0D               	movlw	13
  4040   0073A8  21D5               	addwfc	(atan2f@iy+3)& (0+255),w,b
  4041   0073AA  6FB9               	movwf	(??_atan2f+3)& (0+255),b
  4042   0073AC  51CE               	movf	atan2f@ix& (0+255),w,b
  4043   0073AE  5DB6               	subwf	??_atan2f& (0+255),w,b
  4044   0073B0  51CF               	movf	(atan2f@ix+1)& (0+255),w,b
  4045   0073B2  59B7               	subwfb	(??_atan2f+1)& (0+255),w,b
  4046   0073B4  51D0               	movf	(atan2f@ix+2)& (0+255),w,b
  4047   0073B6  59B8               	subwfb	(??_atan2f+2)& (0+255),w,b
  4048   0073B8  51D1               	movf	(atan2f@ix+3)& (0+255),w,b
  4049   0073BA  59B9               	subwfb	(??_atan2f+3)& (0+255),w,b
  4050   0073BC  B0D8               	btfsc	status,0,c
  4051   0073BE  EFE3  F039         	goto	u3091
  4052   0073C2  EFE5  F039         	goto	u3090
  4053   0073C6                     u3091:
  4054   0073C6  EFEF  F039         	goto	l3017
  4055   0073CA                     u3090:
  4056   0073CA                     
  4057                           ; BSR set to: 0
  4058   0073CA  0E00               	movlw	0
  4059   0073CC  6FCA               	movwf	atan2f@z& (0+255),b
  4060   0073CE  0E00               	movlw	0
  4061   0073D0  6FCB               	movwf	(atan2f@z+1)& (0+255),b
  4062   0073D2  0E00               	movlw	0
  4063   0073D4  6FCC               	movwf	(atan2f@z+2)& (0+255),b
  4064   0073D6  0E00               	movlw	0
  4065   0073D8  6FCD               	movwf	(atan2f@z+3)& (0+255),b
  4066   0073DA  EFB1  F03A         	goto	l3035
  4067   0073DE                     l3017:
  4068                           
  4069                           ; BSR set to: 0
  4070   0073DE  C0AE  F05D         	movff	atan2f@y,___fldiv@b
  4071   0073E2  C0AF  F05E         	movff	atan2f@y+1,___fldiv@b+1
  4072   0073E6  C0B0  F05F         	movff	atan2f@y+2,___fldiv@b+2
  4073   0073EA  C0B1  F060         	movff	atan2f@y+3,___fldiv@b+3
  4074   0073EE  C0B2  F061         	movff	atan2f@x,___fldiv@a
  4075   0073F2  C0B3  F062         	movff	atan2f@x+1,___fldiv@a+1
  4076   0073F6  C0B4  F063         	movff	atan2f@x+2,___fldiv@a+2
  4077   0073FA  C0B5  F064         	movff	atan2f@x+3,___fldiv@a+3
  4078   0073FE  ECBF  F02F         	call	___fldiv	;wreg free
  4079   007402  C05D  F076         	movff	?___fldiv,fabsf@x
  4080   007406  C05E  F077         	movff	?___fldiv+1,fabsf@x+1
  4081   00740A  C05F  F078         	movff	?___fldiv+2,fabsf@x+2
  4082   00740E  C060  F079         	movff	?___fldiv+3,fabsf@x+3
  4083   007412  EC72  F02A         	call	_fabsf	;wreg free
  4084   007416  C076  F0BE         	movff	?_fabsf,_atan2f$1836
  4085   00741A  C077  F0BF         	movff	?_fabsf+1,_atan2f$1836+1
  4086   00741E  C078  F0C0         	movff	?_fabsf+2,_atan2f$1836+2
  4087   007422  C079  F0C1         	movff	?_fabsf+3,_atan2f$1836+3
  4088   007426  C0BE  F080         	movff	_atan2f$1836,atanf@x
  4089   00742A  C0BF  F081         	movff	_atan2f$1836+1,atanf@x+1
  4090   00742E  C0C0  F082         	movff	_atan2f$1836+2,atanf@x+2
  4091   007432  C0C1  F083         	movff	_atan2f$1836+3,atanf@x+3
  4092   007436  ECC2  F03A         	call	_atanf	;wreg free
  4093   00743A  C080  F0CA         	movff	?_atanf,atan2f@z
  4094   00743E  C081  F0CB         	movff	?_atanf+1,atan2f@z+1
  4095   007442  C082  F0CC         	movff	?_atanf+2,atan2f@z+2
  4096   007446  C083  F0CD         	movff	?_atanf+3,atan2f@z+3
  4097   00744A  EFB1  F03A         	goto	l3035
  4098   00744E                     l1023:
  4099                           
  4100                           ; BSR set to: 0
  4101   00744E  C0CA  F0AE         	movff	atan2f@z,?_atan2f
  4102   007452  C0CB  F0AF         	movff	atan2f@z+1,?_atan2f+1
  4103   007456  C0CC  F0B0         	movff	atan2f@z+2,?_atan2f+2
  4104   00745A  C0CD  F0B1         	movff	atan2f@z+3,?_atan2f+3
  4105   00745E  EFC1  F03A         	goto	l984
  4106   007462                     l3021:
  4107                           
  4108                           ; BSR set to: 0
  4109   007462  C0CA  F001         	movff	atan2f@z,___flneg@f1
  4110   007466  C0CB  F002         	movff	atan2f@z+1,___flneg@f1+1
  4111   00746A  C0CC  F003         	movff	atan2f@z+2,___flneg@f1+2
  4112   00746E  C0CD  F004         	movff	atan2f@z+3,___flneg@f1+3
  4113   007472  EC8C  F02A         	call	___flneg	;wreg free
  4114   007476  C001  F0AE         	movff	?___flneg,?_atan2f
  4115   00747A  C002  F0AF         	movff	?___flneg+1,?_atan2f+1
  4116   00747E  C003  F0B0         	movff	?___flneg+2,?_atan2f+2
  4117   007482  C004  F0B1         	movff	?___flneg+3,?_atan2f+3
  4118   007486  EFC1  F03A         	goto	l984
  4119   00748A                     l3025:
  4120                           
  4121                           ; BSR set to: 0
  4122   00748A  0E2E               	movlw	46
  4123   00748C  6E2C               	movwf	___fladd@a^0,c
  4124   00748E  0EBD               	movlw	189
  4125   007490  6E2D               	movwf	(___fladd@a+1)^0,c
  4126   007492  0EBB               	movlw	187
  4127   007494  6E2E               	movwf	(___fladd@a+2)^0,c
  4128   007496  0E33               	movlw	51
  4129   007498  6E2F               	movwf	(___fladd@a+3)^0,c
  4130   00749A  C0CA  F028         	movff	atan2f@z,___fladd@b
  4131   00749E  C0CB  F029         	movff	atan2f@z+1,___fladd@b+1
  4132   0074A2  C0CC  F02A         	movff	atan2f@z+2,___fladd@b+2
  4133   0074A6  C0CD  F02B         	movff	atan2f@z+3,___fladd@b+3
  4134   0074AA  EC89  F035         	call	___fladd	;wreg free
  4135   0074AE  C028  F0C2         	movff	?___fladd,_atan2f$1837
  4136   0074B2  C029  F0C3         	movff	?___fladd+1,_atan2f$1837+1
  4137   0074B6  C02A  F0C4         	movff	?___fladd+2,_atan2f$1837+2
  4138   0074BA  C02B  F0C5         	movff	?___fladd+3,_atan2f$1837+3
  4139   0074BE  0EDB               	movlw	219
  4140   0074C0  6E38               	movwf	___flsub@b^0,c
  4141   0074C2  0E0F               	movlw	15
  4142   0074C4  6E39               	movwf	(___flsub@b+1)^0,c
  4143   0074C6  0E49               	movlw	73
  4144   0074C8  6E3A               	movwf	(___flsub@b+2)^0,c
  4145   0074CA  0E40               	movlw	64
  4146   0074CC  6E3B               	movwf	(___flsub@b+3)^0,c
  4147   0074CE  C0C2  F03C         	movff	_atan2f$1837,___flsub@a
  4148   0074D2  C0C3  F03D         	movff	_atan2f$1837+1,___flsub@a+1
  4149   0074D6  C0C4  F03E         	movff	_atan2f$1837+2,___flsub@a+2
  4150   0074DA  C0C5  F03F         	movff	_atan2f$1837+3,___flsub@a+3
  4151   0074DE  EC04  F02B         	call	___flsub	;wreg free
  4152   0074E2  C038  F0AE         	movff	?___flsub,?_atan2f
  4153   0074E6  C039  F0AF         	movff	?___flsub+1,?_atan2f+1
  4154   0074EA  C03A  F0B0         	movff	?___flsub+2,?_atan2f+2
  4155   0074EE  C03B  F0B1         	movff	?___flsub+3,?_atan2f+3
  4156   0074F2  EFC1  F03A         	goto	l984
  4157   0074F6                     l3029:
  4158                           
  4159                           ; BSR set to: 0
  4160   0074F6  0E2E               	movlw	46
  4161   0074F8  6E2C               	movwf	___fladd@a^0,c
  4162   0074FA  0EBD               	movlw	189
  4163   0074FC  6E2D               	movwf	(___fladd@a+1)^0,c
  4164   0074FE  0EBB               	movlw	187
  4165   007500  6E2E               	movwf	(___fladd@a+2)^0,c
  4166   007502  0E33               	movlw	51
  4167   007504  6E2F               	movwf	(___fladd@a+3)^0,c
  4168   007506  C0CA  F028         	movff	atan2f@z,___fladd@b
  4169   00750A  C0CB  F029         	movff	atan2f@z+1,___fladd@b+1
  4170   00750E  C0CC  F02A         	movff	atan2f@z+2,___fladd@b+2
  4171   007512  C0CD  F02B         	movff	atan2f@z+3,___fladd@b+3
  4172   007516  EC89  F035         	call	___fladd	;wreg free
  4173   00751A  C028  F0C6         	movff	?___fladd,_atan2f$1838
  4174   00751E  C029  F0C7         	movff	?___fladd+1,_atan2f$1838+1
  4175   007522  C02A  F0C8         	movff	?___fladd+2,_atan2f$1838+2
  4176   007526  C02B  F0C9         	movff	?___fladd+3,_atan2f$1838+3
  4177   00752A  C0C6  F028         	movff	_atan2f$1838,___fladd@b
  4178   00752E  C0C7  F029         	movff	_atan2f$1838+1,___fladd@b+1
  4179   007532  C0C8  F02A         	movff	_atan2f$1838+2,___fladd@b+2
  4180   007536  C0C9  F02B         	movff	_atan2f$1838+3,___fladd@b+3
  4181   00753A  0EDB               	movlw	219
  4182   00753C  6E2C               	movwf	___fladd@a^0,c
  4183   00753E  0E0F               	movlw	15
  4184   007540  6E2D               	movwf	(___fladd@a+1)^0,c
  4185   007542  0E49               	movlw	73
  4186   007544  6E2E               	movwf	(___fladd@a+2)^0,c
  4187   007546  0EC0               	movlw	192
  4188   007548  6E2F               	movwf	(___fladd@a+3)^0,c
  4189   00754A  EC89  F035         	call	___fladd	;wreg free
  4190   00754E  C028  F0AE         	movff	?___fladd,?_atan2f
  4191   007552  C029  F0AF         	movff	?___fladd+1,?_atan2f+1
  4192   007556  C02A  F0B0         	movff	?___fladd+2,?_atan2f+2
  4193   00755A  C02B  F0B1         	movff	?___fladd+3,?_atan2f+3
  4194   00755E  EFC1  F03A         	goto	l984
  4195   007562                     l3035:
  4196   007562  0100               	movlb	0	; () banked
  4197   007564  51D6               	movf	atan2f@m& (0+255),w,b
  4198                           
  4199                           ; Switch size 1, requested type "simple"
  4200                           ; Number of cases is 3, Range of values is 0 to 2
  4201                           ; switch strategies available:
  4202                           ; Name         Instructions Cycles
  4203                           ; simple_byte           10     6 (average)
  4204                           ;	Chosen strategy is simple_byte
  4205   007566  0A00               	xorlw	0	; case 0
  4206   007568  B4D8               	btfsc	status,2,c
  4207   00756A  EF27  F03A         	goto	l1023
  4208   00756E  0A01               	xorlw	1	; case 1
  4209   007570  B4D8               	btfsc	status,2,c
  4210   007572  EF31  F03A         	goto	l3021
  4211   007576  0A03               	xorlw	3	; case 2
  4212   007578  B4D8               	btfsc	status,2,c
  4213   00757A  EF45  F03A         	goto	l3025
  4214   00757E  EF7B  F03A         	goto	l3029
  4215   007582                     l984:
  4216   007582  0012               	return		;funcret
  4217   007584                     __end_of_atan2f:
  4218                           	callstack 0
  4219                           
  4220 ;; *************** function _atanf *****************
  4221 ;; Defined at:
  4222 ;;		line 40 in file "C:\Program Files\Microchip\xc8\v2.50\pic\sources\c99\common\atanf.c"
  4223 ;; Parameters:    Size  Location     Type
  4224 ;;  x               4    0[BANK0 ] float 
  4225 ;; Auto vars:     Size  Location     Type
  4226 ;;  ix              4   42[BANK0 ] struct .
  4227 ;;  z               4   38[BANK0 ] float 
  4228 ;;  w               4   33[BANK0 ] float 
  4229 ;;  s2              4   20[BANK0 ] float 
  4230 ;;  s1              4   16[BANK0 ] float 
  4231 ;;  id              1   37[BANK0 ] char 
  4232 ;;  sign            1   32[BANK0 ] _Bool 
  4233 ;; Return value:  Size  Location     Type
  4234 ;;                  4    0[BANK0 ] float 
  4235 ;; Registers used:
  4236 ;;		wreg, status,2, status,0, tblptrl, tblptrh, tblptru, prodl, prodh, cstack
  4237 ;; Tracked objects:
  4238 ;;		On entry : 0/0
  4239 ;;		On exit  : 0/0
  4240 ;;		Unchanged: 0/0
  4241 ;; Data sizes:     COMRAM   BANK0   BANK1   BANK2   BANK3   BANK4   BANK5
  4242 ;;      Params:         0       4       0       0       0       0       0
  4243 ;;      Locals:         0      42       0       0       0       0       0
  4244 ;;      Temps:          0       0       0       0       0       0       0
  4245 ;;      Totals:         0      46       0       0       0       0       0
  4246 ;;Total ram usage:       46 bytes
  4247 ;; Hardware stack levels used: 1
  4248 ;; Hardware stack levels required when called: 2
  4249 ;; This function calls:
  4250 ;;		___fladd
  4251 ;;		___fldiv
  4252 ;;		___flmul
  4253 ;;		___flneg
  4254 ;;		___flsub
  4255 ;;		___fpclassifyf
  4256 ;;		_fabsf
  4257 ;; This function is called by:
  4258 ;;		_atan2f
  4259 ;; This function uses a non-reentrant model
  4260 ;;
  4261                           
  4262                           	psect	text12
  4263   007584                     __ptext12:
  4264                           	callstack 0
  4265   007584                     _atanf:
  4266                           	callstack 23
  4267   007584  C080  F0AA         	movff	atanf@x,atanf@ix
  4268   007588  C081  F0AB         	movff	atanf@x+1,atanf@ix+1
  4269   00758C  C082  F0AC         	movff	atanf@x+2,atanf@ix+2
  4270   007590  C083  F0AD         	movff	atanf@x+3,atanf@ix+3
  4271   007594  0100               	movlb	0	; () banked
  4272   007596  BFAD               	btfsc	(atanf@ix+3)& (0+255),7,b
  4273   007598  EFD0  F03A         	goto	u2691
  4274   00759C  EFD3  F03A         	goto	u2690
  4275   0075A0                     u2691:
  4276   0075A0  0E01               	movlw	1
  4277   0075A2  EFD4  F03A         	goto	u2700
  4278   0075A6                     u2690:
  4279   0075A6  0E00               	movlw	0
  4280   0075A8                     u2700:
  4281   0075A8  6FA0               	movwf	atanf@sign& (0+255),b
  4282   0075AA                     
  4283                           ; BSR set to: 0
  4284   0075AA  9FAD               	bcf	(atanf@ix+3)& (0+255),7,b
  4285   0075AC                     
  4286                           ; BSR set to: 0
  4287   0075AC  0E80               	movlw	128
  4288   0075AE  5DAC               	subwf	(atanf@ix+2)& (0+255),w,b
  4289   0075B0  0E4C               	movlw	76
  4290   0075B2  59AD               	subwfb	(atanf@ix+3)& (0+255),w,b
  4291   0075B4  A0D8               	btfss	status,0,c
  4292   0075B6  EFDF  F03A         	goto	u2711
  4293   0075BA  EFE1  F03A         	goto	u2710
  4294   0075BE                     u2711:
  4295   0075BE  EF47  F03B         	goto	l2779
  4296   0075C2                     u2710:
  4297   0075C2                     
  4298                           ; BSR set to: 0
  4299   0075C2  C080  F001         	movff	atanf@x,___fpclassifyf@x
  4300   0075C6  C081  F002         	movff	atanf@x+1,___fpclassifyf@x+1
  4301   0075CA  C082  F003         	movff	atanf@x+2,___fpclassifyf@x+2
  4302   0075CE  C083  F004         	movff	atanf@x+3,___fpclassifyf@x+3
  4303   0075D2  ECD8  F02B         	call	___fpclassifyf	;wreg free
  4304   0075D6  5001               	movf	?___fpclassifyf^0,w,c
  4305   0075D8  1002               	iorwf	(?___fpclassifyf+1)^0,w,c
  4306   0075DA  A4D8               	btfss	status,2,c
  4307   0075DC  EFF2  F03A         	goto	u2721
  4308   0075E0  EFF4  F03A         	goto	u2720
  4309   0075E4                     u2721:
  4310   0075E4  EFFE  F03A         	goto	l2769
  4311   0075E8                     u2720:
  4312   0075E8                     l2767:
  4313   0075E8  C080  F080         	movff	atanf@x,?_atanf
  4314   0075EC  C081  F081         	movff	atanf@x+1,?_atanf+1
  4315   0075F0  C082  F082         	movff	atanf@x+2,?_atanf+2
  4316   0075F4  C083  F083         	movff	atanf@x+3,?_atanf+3
  4317   0075F8  EF76  F03E         	goto	l1061
  4318   0075FC                     l2769:
  4319   0075FC  0E0B               	movlw	low (_atanhi+12)
  4320   0075FE  6EF6               	movwf	tblptrl,c
  4321   007600  0E7D               	movlw	high (_atanhi+12)
  4322   007602  6EF7               	movwf	tblptrh,c
  4323   007604                     	if	0	;tblptru may be non-zero
  4324   007604                     	endif
  4325   007604                     	if	0	;tblptru may be non-zero
  4326   007604                     	endif
  4327   007604  0009               	tblrd		*+
  4328   007606  CFF5 F028          	movff	tablat,___fladd@b
  4329   00760A  0009               	tblrd		*+
  4330   00760C  CFF5 F029          	movff	tablat,___fladd@b+1
  4331   007610  0009               	tblrd		*+
  4332   007612  CFF5 F02A          	movff	tablat,___fladd@b+2
  4333   007616  000A               	tblrd		*-
  4334   007618  CFF5 F02B          	movff	tablat,___fladd@b+3
  4335   00761C  0E00               	movlw	0
  4336   00761E  6E2C               	movwf	___fladd@a^0,c
  4337   007620  0E00               	movlw	0
  4338   007622  6E2D               	movwf	(___fladd@a+1)^0,c
  4339   007624  0E80               	movlw	128
  4340   007626  6E2E               	movwf	(___fladd@a+2)^0,c
  4341   007628  0E03               	movlw	3
  4342   00762A  6E2F               	movwf	(___fladd@a+3)^0,c
  4343   00762C  EC89  F035         	call	___fladd	;wreg free
  4344   007630  C028  F0A6         	movff	?___fladd,atanf@z
  4345   007634  C029  F0A7         	movff	?___fladd+1,atanf@z+1
  4346   007638  C02A  F0A8         	movff	?___fladd+2,atanf@z+2
  4347   00763C  C02B  F0A9         	movff	?___fladd+3,atanf@z+3
  4348   007640  0100               	movlb	0	; () banked
  4349   007642  51A0               	movf	atanf@sign& (0+255),w,b
  4350   007644  A4D8               	btfss	status,2,c
  4351   007646  EF27  F03B         	goto	u2731
  4352   00764A  EF29  F03B         	goto	u2730
  4353   00764E                     u2731:
  4354   00764E  EF33  F03B         	goto	l2775
  4355   007652                     u2730:
  4356   007652                     l2773:
  4357                           
  4358                           ; BSR set to: 0
  4359   007652  C0A6  F080         	movff	atanf@z,?_atanf
  4360   007656  C0A7  F081         	movff	atanf@z+1,?_atanf+1
  4361   00765A  C0A8  F082         	movff	atanf@z+2,?_atanf+2
  4362   00765E  C0A9  F083         	movff	atanf@z+3,?_atanf+3
  4363   007662  EF76  F03E         	goto	l1061
  4364   007666                     l2775:
  4365                           
  4366                           ; BSR set to: 0
  4367   007666  C0A6  F001         	movff	atanf@z,___flneg@f1
  4368   00766A  C0A7  F002         	movff	atanf@z+1,___flneg@f1+1
  4369   00766E  C0A8  F003         	movff	atanf@z+2,___flneg@f1+2
  4370   007672  C0A9  F004         	movff	atanf@z+3,___flneg@f1+3
  4371   007676  EC8C  F02A         	call	___flneg	;wreg free
  4372   00767A  C001  F080         	movff	?___flneg,?_atanf
  4373   00767E  C002  F081         	movff	?___flneg+1,?_atanf+1
  4374   007682  C003  F082         	movff	?___flneg+2,?_atanf+2
  4375   007686  C004  F083         	movff	?___flneg+3,?_atanf+3
  4376   00768A  EF76  F03E         	goto	l1061
  4377   00768E                     l2779:
  4378                           
  4379                           ; BSR set to: 0
  4380   00768E  0EE0               	movlw	224
  4381   007690  5DAC               	subwf	(atanf@ix+2)& (0+255),w,b
  4382   007692  0E3E               	movlw	62
  4383   007694  59AD               	subwfb	(atanf@ix+3)& (0+255),w,b
  4384   007696  B0D8               	btfsc	status,0,c
  4385   007698  EF50  F03B         	goto	u2741
  4386   00769C  EF52  F03B         	goto	u2740
  4387   0076A0                     u2741:
  4388   0076A0  EF62  F03B         	goto	l2785
  4389   0076A4                     u2740:
  4390   0076A4                     
  4391                           ; BSR set to: 0
  4392   0076A4  0E80               	movlw	128
  4393   0076A6  5DAC               	subwf	(atanf@ix+2)& (0+255),w,b
  4394   0076A8  0E39               	movlw	57
  4395   0076AA  59AD               	subwfb	(atanf@ix+3)& (0+255),w,b
  4396   0076AC  B0D8               	btfsc	status,0,c
  4397   0076AE  EF5B  F03B         	goto	u2751
  4398   0076B2  EF5D  F03B         	goto	u2750
  4399   0076B6                     u2751:
  4400   0076B6  EF5F  F03B         	goto	l1067
  4401   0076BA                     u2750:
  4402   0076BA  EFF4  F03A         	goto	l2767
  4403   0076BE                     l1067:
  4404                           
  4405                           ; BSR set to: 0
  4406   0076BE  69A5               	setf	atanf@id& (0+255),b
  4407   0076C0  EF9B  F03C         	goto	l2809
  4408   0076C4                     l2785:
  4409                           
  4410                           ; BSR set to: 0
  4411   0076C4  C080  F076         	movff	atanf@x,fabsf@x
  4412   0076C8  C081  F077         	movff	atanf@x+1,fabsf@x+1
  4413   0076CC  C082  F078         	movff	atanf@x+2,fabsf@x+2
  4414   0076D0  C083  F079         	movff	atanf@x+3,fabsf@x+3
  4415   0076D4  EC72  F02A         	call	_fabsf	;wreg free
  4416   0076D8  C076  F080         	movff	?_fabsf,atanf@x
  4417   0076DC  C077  F081         	movff	?_fabsf+1,atanf@x+1
  4418   0076E0  C078  F082         	movff	?_fabsf+2,atanf@x+2
  4419   0076E4  C079  F083         	movff	?_fabsf+3,atanf@x+3
  4420   0076E8  0E98               	movlw	152
  4421   0076EA  0100               	movlb	0	; () banked
  4422   0076EC  5DAC               	subwf	(atanf@ix+2)& (0+255),w,b
  4423   0076EE  0E3F               	movlw	63
  4424   0076F0  59AD               	subwfb	(atanf@ix+3)& (0+255),w,b
  4425   0076F2  B0D8               	btfsc	status,0,c
  4426   0076F4  EF7E  F03B         	goto	u2761
  4427   0076F8  EF80  F03B         	goto	u2760
  4428   0076FC                     u2761:
  4429   0076FC  EF20  F03C         	goto	l2799
  4430   007700                     u2760:
  4431   007700                     
  4432                           ; BSR set to: 0
  4433   007700  0E30               	movlw	48
  4434   007702  5DAC               	subwf	(atanf@ix+2)& (0+255),w,b
  4435   007704  0E3F               	movlw	63
  4436   007706  59AD               	subwfb	(atanf@ix+3)& (0+255),w,b
  4437   007708  B0D8               	btfsc	status,0,c
  4438   00770A  EF89  F03B         	goto	u2771
  4439   00770E  EF8B  F03B         	goto	u2770
  4440   007712                     u2771:
  4441   007712  EFDE  F03B         	goto	l2795
  4442   007716                     u2770:
  4443   007716                     
  4444                           ; BSR set to: 0
  4445   007716  6BA5               	clrf	atanf@id& (0+255),b
  4446   007718                     
  4447                           ; BSR set to: 0
  4448   007718  0E00               	movlw	0
  4449   00771A  6E2C               	movwf	___fladd@a^0,c
  4450   00771C  0E00               	movlw	0
  4451   00771E  6E2D               	movwf	(___fladd@a+1)^0,c
  4452   007720  0E80               	movlw	128
  4453   007722  6E2E               	movwf	(___fladd@a+2)^0,c
  4454   007724  0EBF               	movlw	191
  4455   007726  6E2F               	movwf	(___fladd@a+3)^0,c
  4456   007728  0E00               	movlw	0
  4457   00772A  6E13               	movwf	___flmul@a^0,c
  4458   00772C  0E00               	movlw	0
  4459   00772E  6E14               	movwf	(___flmul@a+1)^0,c
  4460   007730  0E00               	movlw	0
  4461   007732  6E15               	movwf	(___flmul@a+2)^0,c
  4462   007734  0E40               	movlw	64
  4463   007736  6E16               	movwf	(___flmul@a+3)^0,c
  4464   007738  C080  F00F         	movff	atanf@x,___flmul@b
  4465   00773C  C081  F010         	movff	atanf@x+1,___flmul@b+1
  4466   007740  C082  F011         	movff	atanf@x+2,___flmul@b+2
  4467   007744  C083  F012         	movff	atanf@x+3,___flmul@b+3
  4468   007748  EC76  F033         	call	___flmul	;wreg free
  4469   00774C  C00F  F028         	movff	?___flmul,___fladd@b
  4470   007750  C010  F029         	movff	?___flmul+1,___fladd@b+1
  4471   007754  C011  F02A         	movff	?___flmul+2,___fladd@b+2
  4472   007758  C012  F02B         	movff	?___flmul+3,___fladd@b+3
  4473   00775C  EC89  F035         	call	___fladd	;wreg free
  4474   007760  C028  F05D         	movff	?___fladd,___fldiv@b
  4475   007764  C029  F05E         	movff	?___fladd+1,___fldiv@b+1
  4476   007768  C02A  F05F         	movff	?___fladd+2,___fldiv@b+2
  4477   00776C  C02B  F060         	movff	?___fladd+3,___fldiv@b+3
  4478   007770  0E00               	movlw	0
  4479   007772  6E2C               	movwf	___fladd@a^0,c
  4480   007774  0E00               	movlw	0
  4481   007776  6E2D               	movwf	(___fladd@a+1)^0,c
  4482   007778  0E00               	movlw	0
  4483   00777A  6E2E               	movwf	(___fladd@a+2)^0,c
  4484   00777C  0E40               	movlw	64
  4485   00777E  6E2F               	movwf	(___fladd@a+3)^0,c
  4486   007780  C080  F028         	movff	atanf@x,___fladd@b
  4487   007784  C081  F029         	movff	atanf@x+1,___fladd@b+1
  4488   007788  C082  F02A         	movff	atanf@x+2,___fladd@b+2
  4489   00778C  C083  F02B         	movff	atanf@x+3,___fladd@b+3
  4490   007790  EC89  F035         	call	___fladd	;wreg free
  4491   007794  C028  F061         	movff	?___fladd,___fldiv@a
  4492   007798  C029  F062         	movff	?___fladd+1,___fldiv@a+1
  4493   00779C  C02A  F063         	movff	?___fladd+2,___fldiv@a+2
  4494   0077A0  C02B  F064         	movff	?___fladd+3,___fldiv@a+3
  4495   0077A4  ECBF  F02F         	call	___fldiv	;wreg free
  4496   0077A8  C05D  F080         	movff	?___fldiv,atanf@x
  4497   0077AC  C05E  F081         	movff	?___fldiv+1,atanf@x+1
  4498   0077B0  C05F  F082         	movff	?___fldiv+2,atanf@x+2
  4499   0077B4  C060  F083         	movff	?___fldiv+3,atanf@x+3
  4500   0077B8  EF9B  F03C         	goto	l2809
  4501   0077BC                     l2795:
  4502                           
  4503                           ; BSR set to: 0
  4504   0077BC  0E01               	movlw	1
  4505   0077BE  6FA5               	movwf	atanf@id& (0+255),b
  4506   0077C0                     
  4507                           ; BSR set to: 0
  4508   0077C0  0E00               	movlw	0
  4509   0077C2  6E2C               	movwf	___fladd@a^0,c
  4510   0077C4  0E00               	movlw	0
  4511   0077C6  6E2D               	movwf	(___fladd@a+1)^0,c
  4512   0077C8  0E80               	movlw	128
  4513   0077CA  6E2E               	movwf	(___fladd@a+2)^0,c
  4514   0077CC  0EBF               	movlw	191
  4515   0077CE  6E2F               	movwf	(___fladd@a+3)^0,c
  4516   0077D0  C080  F028         	movff	atanf@x,___fladd@b
  4517   0077D4  C081  F029         	movff	atanf@x+1,___fladd@b+1
  4518   0077D8  C082  F02A         	movff	atanf@x+2,___fladd@b+2
  4519   0077DC  C083  F02B         	movff	atanf@x+3,___fladd@b+3
  4520   0077E0  EC89  F035         	call	___fladd	;wreg free
  4521   0077E4  C028  F05D         	movff	?___fladd,___fldiv@b
  4522   0077E8  C029  F05E         	movff	?___fladd+1,___fldiv@b+1
  4523   0077EC  C02A  F05F         	movff	?___fladd+2,___fldiv@b+2
  4524   0077F0  C02B  F060         	movff	?___fladd+3,___fldiv@b+3
  4525   0077F4  0E00               	movlw	0
  4526   0077F6  6E2C               	movwf	___fladd@a^0,c
  4527   0077F8  0E00               	movlw	0
  4528   0077FA  6E2D               	movwf	(___fladd@a+1)^0,c
  4529   0077FC  0E80               	movlw	128
  4530   0077FE  6E2E               	movwf	(___fladd@a+2)^0,c
  4531   007800  0E3F               	movlw	63
  4532   007802  6E2F               	movwf	(___fladd@a+3)^0,c
  4533   007804  C080  F028         	movff	atanf@x,___fladd@b
  4534   007808  C081  F029         	movff	atanf@x+1,___fladd@b+1
  4535   00780C  C082  F02A         	movff	atanf@x+2,___fladd@b+2
  4536   007810  C083  F02B         	movff	atanf@x+3,___fladd@b+3
  4537   007814  EC89  F035         	call	___fladd	;wreg free
  4538   007818  C028  F061         	movff	?___fladd,___fldiv@a
  4539   00781C  C029  F062         	movff	?___fladd+1,___fldiv@a+1
  4540   007820  C02A  F063         	movff	?___fladd+2,___fldiv@a+2
  4541   007824  C02B  F064         	movff	?___fladd+3,___fldiv@a+3
  4542   007828  ECBF  F02F         	call	___fldiv	;wreg free
  4543   00782C  C05D  F080         	movff	?___fldiv,atanf@x
  4544   007830  C05E  F081         	movff	?___fldiv+1,atanf@x+1
  4545   007834  C05F  F082         	movff	?___fldiv+2,atanf@x+2
  4546   007838  C060  F083         	movff	?___fldiv+3,atanf@x+3
  4547   00783C  EF9B  F03C         	goto	l2809
  4548   007840                     l2799:
  4549                           
  4550                           ; BSR set to: 0
  4551   007840  0E1C               	movlw	28
  4552   007842  5DAC               	subwf	(atanf@ix+2)& (0+255),w,b
  4553   007844  0E40               	movlw	64
  4554   007846  59AD               	subwfb	(atanf@ix+3)& (0+255),w,b
  4555   007848  B0D8               	btfsc	status,0,c
  4556   00784A  EF29  F03C         	goto	u2781
  4557   00784E  EF2B  F03C         	goto	u2780
  4558   007852                     u2781:
  4559   007852  EF7F  F03C         	goto	l2805
  4560   007856                     u2780:
  4561   007856                     
  4562                           ; BSR set to: 0
  4563   007856  0E02               	movlw	2
  4564   007858  6FA5               	movwf	atanf@id& (0+255),b
  4565   00785A                     
  4566                           ; BSR set to: 0
  4567   00785A  0E00               	movlw	0
  4568   00785C  6E2C               	movwf	___fladd@a^0,c
  4569   00785E  0E00               	movlw	0
  4570   007860  6E2D               	movwf	(___fladd@a+1)^0,c
  4571   007862  0EC0               	movlw	192
  4572   007864  6E2E               	movwf	(___fladd@a+2)^0,c
  4573   007866  0EBF               	movlw	191
  4574   007868  6E2F               	movwf	(___fladd@a+3)^0,c
  4575   00786A  C080  F028         	movff	atanf@x,___fladd@b
  4576   00786E  C081  F029         	movff	atanf@x+1,___fladd@b+1
  4577   007872  C082  F02A         	movff	atanf@x+2,___fladd@b+2
  4578   007876  C083  F02B         	movff	atanf@x+3,___fladd@b+3
  4579   00787A  EC89  F035         	call	___fladd	;wreg free
  4580   00787E  C028  F05D         	movff	?___fladd,___fldiv@b
  4581   007882  C029  F05E         	movff	?___fladd+1,___fldiv@b+1
  4582   007886  C02A  F05F         	movff	?___fladd+2,___fldiv@b+2
  4583   00788A  C02B  F060         	movff	?___fladd+3,___fldiv@b+3
  4584   00788E  0E00               	movlw	0
  4585   007890  6E2C               	movwf	___fladd@a^0,c
  4586   007892  0E00               	movlw	0
  4587   007894  6E2D               	movwf	(___fladd@a+1)^0,c
  4588   007896  0E80               	movlw	128
  4589   007898  6E2E               	movwf	(___fladd@a+2)^0,c
  4590   00789A  0E3F               	movlw	63
  4591   00789C  6E2F               	movwf	(___fladd@a+3)^0,c
  4592   00789E  0E00               	movlw	0
  4593   0078A0  6E13               	movwf	___flmul@a^0,c
  4594   0078A2  0E00               	movlw	0
  4595   0078A4  6E14               	movwf	(___flmul@a+1)^0,c
  4596   0078A6  0EC0               	movlw	192
  4597   0078A8  6E15               	movwf	(___flmul@a+2)^0,c
  4598   0078AA  0E3F               	movlw	63
  4599   0078AC  6E16               	movwf	(___flmul@a+3)^0,c
  4600   0078AE  C080  F00F         	movff	atanf@x,___flmul@b
  4601   0078B2  C081  F010         	movff	atanf@x+1,___flmul@b+1
  4602   0078B6  C082  F011         	movff	atanf@x+2,___flmul@b+2
  4603   0078BA  C083  F012         	movff	atanf@x+3,___flmul@b+3
  4604   0078BE  EC76  F033         	call	___flmul	;wreg free
  4605   0078C2  C00F  F028         	movff	?___flmul,___fladd@b
  4606   0078C6  C010  F029         	movff	?___flmul+1,___fladd@b+1
  4607   0078CA  C011  F02A         	movff	?___flmul+2,___fladd@b+2
  4608   0078CE  C012  F02B         	movff	?___flmul+3,___fladd@b+3
  4609   0078D2  EC89  F035         	call	___fladd	;wreg free
  4610   0078D6  C028  F061         	movff	?___fladd,___fldiv@a
  4611   0078DA  C029  F062         	movff	?___fladd+1,___fldiv@a+1
  4612   0078DE  C02A  F063         	movff	?___fladd+2,___fldiv@a+2
  4613   0078E2  C02B  F064         	movff	?___fladd+3,___fldiv@a+3
  4614   0078E6  ECBF  F02F         	call	___fldiv	;wreg free
  4615   0078EA  C05D  F080         	movff	?___fldiv,atanf@x
  4616   0078EE  C05E  F081         	movff	?___fldiv+1,atanf@x+1
  4617   0078F2  C05F  F082         	movff	?___fldiv+2,atanf@x+2
  4618   0078F6  C060  F083         	movff	?___fldiv+3,atanf@x+3
  4619   0078FA  EF9B  F03C         	goto	l2809
  4620   0078FE                     l2805:
  4621                           
  4622                           ; BSR set to: 0
  4623   0078FE  0E03               	movlw	3
  4624   007900  6FA5               	movwf	atanf@id& (0+255),b
  4625   007902                     
  4626                           ; BSR set to: 0
  4627   007902  0E00               	movlw	0
  4628   007904  6E5D               	movwf	___fldiv@b^0,c
  4629   007906  0E00               	movlw	0
  4630   007908  6E5E               	movwf	(___fldiv@b+1)^0,c
  4631   00790A  0E80               	movlw	128
  4632   00790C  6E5F               	movwf	(___fldiv@b+2)^0,c
  4633   00790E  0EBF               	movlw	191
  4634   007910  6E60               	movwf	(___fldiv@b+3)^0,c
  4635   007912  C080  F061         	movff	atanf@x,___fldiv@a
  4636   007916  C081  F062         	movff	atanf@x+1,___fldiv@a+1
  4637   00791A  C082  F063         	movff	atanf@x+2,___fldiv@a+2
  4638   00791E  C083  F064         	movff	atanf@x+3,___fldiv@a+3
  4639   007922  ECBF  F02F         	call	___fldiv	;wreg free
  4640   007926  C05D  F080         	movff	?___fldiv,atanf@x
  4641   00792A  C05E  F081         	movff	?___fldiv+1,atanf@x+1
  4642   00792E  C05F  F082         	movff	?___fldiv+2,atanf@x+2
  4643   007932  C060  F083         	movff	?___fldiv+3,atanf@x+3
  4644   007936                     l2809:
  4645   007936  C080  F00F         	movff	atanf@x,___flmul@b
  4646   00793A  C081  F010         	movff	atanf@x+1,___flmul@b+1
  4647   00793E  C082  F011         	movff	atanf@x+2,___flmul@b+2
  4648   007942  C083  F012         	movff	atanf@x+3,___flmul@b+3
  4649   007946  C080  F013         	movff	atanf@x,___flmul@a
  4650   00794A  C081  F014         	movff	atanf@x+1,___flmul@a+1
  4651   00794E  C082  F015         	movff	atanf@x+2,___flmul@a+2
  4652   007952  C083  F016         	movff	atanf@x+3,___flmul@a+3
  4653   007956  EC76  F033         	call	___flmul	;wreg free
  4654   00795A  C00F  F0A6         	movff	?___flmul,atanf@z
  4655   00795E  C010  F0A7         	movff	?___flmul+1,atanf@z+1
  4656   007962  C011  F0A8         	movff	?___flmul+2,atanf@z+2
  4657   007966  C012  F0A9         	movff	?___flmul+3,atanf@z+3
  4658   00796A  C0A6  F00F         	movff	atanf@z,___flmul@b
  4659   00796E  C0A7  F010         	movff	atanf@z+1,___flmul@b+1
  4660   007972  C0A8  F011         	movff	atanf@z+2,___flmul@b+2
  4661   007976  C0A9  F012         	movff	atanf@z+3,___flmul@b+3
  4662   00797A  C0A6  F013         	movff	atanf@z,___flmul@a
  4663   00797E  C0A7  F014         	movff	atanf@z+1,___flmul@a+1
  4664   007982  C0A8  F015         	movff	atanf@z+2,___flmul@a+2
  4665   007986  C0A9  F016         	movff	atanf@z+3,___flmul@a+3
  4666   00798A  EC76  F033         	call	___flmul	;wreg free
  4667   00798E  C00F  F0A1         	movff	?___flmul,atanf@w
  4668   007992  C010  F0A2         	movff	?___flmul+1,atanf@w+1
  4669   007996  C011  F0A3         	movff	?___flmul+2,atanf@w+2
  4670   00799A  C012  F0A4         	movff	?___flmul+3,atanf@w+3
  4671   00799E  0E0D               	movlw	13
  4672   0079A0  6E2C               	movwf	___fladd@a^0,c
  4673   0079A2  0EF5               	movlw	245
  4674   0079A4  6E2D               	movwf	(___fladd@a+1)^0,c
  4675   0079A6  0E11               	movlw	17
  4676   0079A8  6E2E               	movwf	(___fladd@a+2)^0,c
  4677   0079AA  0E3E               	movlw	62
  4678   0079AC  6E2F               	movwf	(___fladd@a+3)^0,c
  4679   0079AE  0E25               	movlw	37
  4680   0079B0  6E13               	movwf	___flmul@a^0,c
  4681   0079B2  0EAC               	movlw	172
  4682   0079B4  6E14               	movwf	(___flmul@a+1)^0,c
  4683   0079B6  0E7C               	movlw	124
  4684   0079B8  6E15               	movwf	(___flmul@a+2)^0,c
  4685   0079BA  0E3D               	movlw	61
  4686   0079BC  6E16               	movwf	(___flmul@a+3)^0,c
  4687   0079BE  C0A1  F00F         	movff	atanf@w,___flmul@b
  4688   0079C2  C0A2  F010         	movff	atanf@w+1,___flmul@b+1
  4689   0079C6  C0A3  F011         	movff	atanf@w+2,___flmul@b+2
  4690   0079CA  C0A4  F012         	movff	atanf@w+3,___flmul@b+3
  4691   0079CE  EC76  F033         	call	___flmul	;wreg free
  4692   0079D2  C00F  F028         	movff	?___flmul,___fladd@b
  4693   0079D6  C010  F029         	movff	?___flmul+1,___fladd@b+1
  4694   0079DA  C011  F02A         	movff	?___flmul+2,___fladd@b+2
  4695   0079DE  C012  F02B         	movff	?___flmul+3,___fladd@b+3
  4696   0079E2  EC89  F035         	call	___fladd	;wreg free
  4697   0079E6  C028  F098         	movff	?___fladd,_atanf$1839
  4698   0079EA  C029  F099         	movff	?___fladd+1,_atanf$1839+1
  4699   0079EE  C02A  F09A         	movff	?___fladd+2,_atanf$1839+2
  4700   0079F2  C02B  F09B         	movff	?___fladd+3,_atanf$1839+3
  4701   0079F6  0EA9               	movlw	169
  4702   0079F8  6E2C               	movwf	___fladd@a^0,c
  4703   0079FA  0EAA               	movlw	170
  4704   0079FC  6E2D               	movwf	(___fladd@a+1)^0,c
  4705   0079FE  0EAA               	movlw	170
  4706   007A00  6E2E               	movwf	(___fladd@a+2)^0,c
  4707   007A02  0E3E               	movlw	62
  4708   007A04  6E2F               	movwf	(___fladd@a+3)^0,c
  4709   007A06  C0A1  F013         	movff	atanf@w,___flmul@a
  4710   007A0A  C0A2  F014         	movff	atanf@w+1,___flmul@a+1
  4711   007A0E  C0A3  F015         	movff	atanf@w+2,___flmul@a+2
  4712   007A12  C0A4  F016         	movff	atanf@w+3,___flmul@a+3
  4713   007A16  C098  F00F         	movff	_atanf$1839,___flmul@b
  4714   007A1A  C099  F010         	movff	_atanf$1839+1,___flmul@b+1
  4715   007A1E  C09A  F011         	movff	_atanf$1839+2,___flmul@b+2
  4716   007A22  C09B  F012         	movff	_atanf$1839+3,___flmul@b+3
  4717   007A26  EC76  F033         	call	___flmul	;wreg free
  4718   007A2A  C00F  F028         	movff	?___flmul,___fladd@b
  4719   007A2E  C010  F029         	movff	?___flmul+1,___fladd@b+1
  4720   007A32  C011  F02A         	movff	?___flmul+2,___fladd@b+2
  4721   007A36  C012  F02B         	movff	?___flmul+3,___fladd@b+3
  4722   007A3A  EC89  F035         	call	___fladd	;wreg free
  4723   007A3E  C028  F084         	movff	?___fladd,_atanf$1840
  4724   007A42  C029  F085         	movff	?___fladd+1,_atanf$1840+1
  4725   007A46  C02A  F086         	movff	?___fladd+2,_atanf$1840+2
  4726   007A4A  C02B  F087         	movff	?___fladd+3,_atanf$1840+3
  4727   007A4E  C084  F00F         	movff	_atanf$1840,___flmul@b
  4728   007A52  C085  F010         	movff	_atanf$1840+1,___flmul@b+1
  4729   007A56  C086  F011         	movff	_atanf$1840+2,___flmul@b+2
  4730   007A5A  C087  F012         	movff	_atanf$1840+3,___flmul@b+3
  4731   007A5E  C0A6  F013         	movff	atanf@z,___flmul@a
  4732   007A62  C0A7  F014         	movff	atanf@z+1,___flmul@a+1
  4733   007A66  C0A8  F015         	movff	atanf@z+2,___flmul@a+2
  4734   007A6A  C0A9  F016         	movff	atanf@z+3,___flmul@a+3
  4735   007A6E  EC76  F033         	call	___flmul	;wreg free
  4736   007A72  C00F  F090         	movff	?___flmul,atanf@s1
  4737   007A76  C010  F091         	movff	?___flmul+1,atanf@s1+1
  4738   007A7A  C011  F092         	movff	?___flmul+2,atanf@s1+2
  4739   007A7E  C012  F093         	movff	?___flmul+3,atanf@s1+3
  4740   007A82  0E98               	movlw	152
  4741   007A84  6E2C               	movwf	___fladd@a^0,c
  4742   007A86  0ECA               	movlw	202
  4743   007A88  6E2D               	movwf	(___fladd@a+1)^0,c
  4744   007A8A  0E4C               	movlw	76
  4745   007A8C  6E2E               	movwf	(___fladd@a+2)^0,c
  4746   007A8E  0EBE               	movlw	190
  4747   007A90  6E2F               	movwf	(___fladd@a+3)^0,c
  4748   007A92  0E47               	movlw	71
  4749   007A94  6E13               	movwf	___flmul@a^0,c
  4750   007A96  0E12               	movlw	18
  4751   007A98  6E14               	movwf	(___flmul@a+1)^0,c
  4752   007A9A  0EDA               	movlw	218
  4753   007A9C  6E15               	movwf	(___flmul@a+2)^0,c
  4754   007A9E  0EBD               	movlw	189
  4755   007AA0  6E16               	movwf	(___flmul@a+3)^0,c
  4756   007AA2  C0A1  F00F         	movff	atanf@w,___flmul@b
  4757   007AA6  C0A2  F010         	movff	atanf@w+1,___flmul@b+1
  4758   007AAA  C0A3  F011         	movff	atanf@w+2,___flmul@b+2
  4759   007AAE  C0A4  F012         	movff	atanf@w+3,___flmul@b+3
  4760   007AB2  EC76  F033         	call	___flmul	;wreg free
  4761   007AB6  C00F  F028         	movff	?___flmul,___fladd@b
  4762   007ABA  C010  F029         	movff	?___flmul+1,___fladd@b+1
  4763   007ABE  C011  F02A         	movff	?___flmul+2,___fladd@b+2
  4764   007AC2  C012  F02B         	movff	?___flmul+3,___fladd@b+3
  4765   007AC6  EC89  F035         	call	___fladd	;wreg free
  4766   007ACA  C028  F098         	movff	?___fladd,_atanf$1839
  4767   007ACE  C029  F099         	movff	?___fladd+1,_atanf$1839+1
  4768   007AD2  C02A  F09A         	movff	?___fladd+2,_atanf$1839+2
  4769   007AD6  C02B  F09B         	movff	?___fladd+3,_atanf$1839+3
  4770   007ADA  C098  F00F         	movff	_atanf$1839,___flmul@b
  4771   007ADE  C099  F010         	movff	_atanf$1839+1,___flmul@b+1
  4772   007AE2  C09A  F011         	movff	_atanf$1839+2,___flmul@b+2
  4773   007AE6  C09B  F012         	movff	_atanf$1839+3,___flmul@b+3
  4774   007AEA  C0A1  F013         	movff	atanf@w,___flmul@a
  4775   007AEE  C0A2  F014         	movff	atanf@w+1,___flmul@a+1
  4776   007AF2  C0A3  F015         	movff	atanf@w+2,___flmul@a+2
  4777   007AF6  C0A4  F016         	movff	atanf@w+3,___flmul@a+3
  4778   007AFA  EC76  F033         	call	___flmul	;wreg free
  4779   007AFE  C00F  F094         	movff	?___flmul,atanf@s2
  4780   007B02  C010  F095         	movff	?___flmul+1,atanf@s2+1
  4781   007B06  C011  F096         	movff	?___flmul+2,atanf@s2+2
  4782   007B0A  C012  F097         	movff	?___flmul+3,atanf@s2+3
  4783   007B0E  0100               	movlb	0	; () banked
  4784   007B10  BFA5               	btfsc	atanf@id& (0+255),7,b
  4785   007B12  EF8F  F03D         	goto	u2790
  4786   007B16  EF8D  F03D         	goto	u2791
  4787   007B1A                     u2791:
  4788   007B1A  EFD7  F03D         	goto	l2831
  4789   007B1E                     u2790:
  4790   007B1E                     
  4791                           ; BSR set to: 0
  4792   007B1E  C080  F013         	movff	atanf@x,___flmul@a
  4793   007B22  C081  F014         	movff	atanf@x+1,___flmul@a+1
  4794   007B26  C082  F015         	movff	atanf@x+2,___flmul@a+2
  4795   007B2A  C083  F016         	movff	atanf@x+3,___flmul@a+3
  4796   007B2E  C094  F02C         	movff	atanf@s2,___fladd@a
  4797   007B32  C095  F02D         	movff	atanf@s2+1,___fladd@a+1
  4798   007B36  C096  F02E         	movff	atanf@s2+2,___fladd@a+2
  4799   007B3A  C097  F02F         	movff	atanf@s2+3,___fladd@a+3
  4800   007B3E  C090  F028         	movff	atanf@s1,___fladd@b
  4801   007B42  C091  F029         	movff	atanf@s1+1,___fladd@b+1
  4802   007B46  C092  F02A         	movff	atanf@s1+2,___fladd@b+2
  4803   007B4A  C093  F02B         	movff	atanf@s1+3,___fladd@b+3
  4804   007B4E  EC89  F035         	call	___fladd	;wreg free
  4805   007B52  C028  F00F         	movff	?___fladd,___flmul@b
  4806   007B56  C029  F010         	movff	?___fladd+1,___flmul@b+1
  4807   007B5A  C02A  F011         	movff	?___fladd+2,___flmul@b+2
  4808   007B5E  C02B  F012         	movff	?___fladd+3,___flmul@b+3
  4809   007B62  EC76  F033         	call	___flmul	;wreg free
  4810   007B66  C00F  F09C         	movff	?___flmul,_atanf$1841
  4811   007B6A  C010  F09D         	movff	?___flmul+1,_atanf$1841+1
  4812   007B6E  C011  F09E         	movff	?___flmul+2,_atanf$1841+2
  4813   007B72  C012  F09F         	movff	?___flmul+3,_atanf$1841+3
  4814   007B76  C080  F038         	movff	atanf@x,___flsub@b
  4815   007B7A  C081  F039         	movff	atanf@x+1,___flsub@b+1
  4816   007B7E  C082  F03A         	movff	atanf@x+2,___flsub@b+2
  4817   007B82  C083  F03B         	movff	atanf@x+3,___flsub@b+3
  4818   007B86  C09C  F03C         	movff	_atanf$1841,___flsub@a
  4819   007B8A  C09D  F03D         	movff	_atanf$1841+1,___flsub@a+1
  4820   007B8E  C09E  F03E         	movff	_atanf$1841+2,___flsub@a+2
  4821   007B92  C09F  F03F         	movff	_atanf$1841+3,___flsub@a+3
  4822   007B96  EC04  F02B         	call	___flsub	;wreg free
  4823   007B9A  C038  F080         	movff	?___flsub,?_atanf
  4824   007B9E  C039  F081         	movff	?___flsub+1,?_atanf+1
  4825   007BA2  C03A  F082         	movff	?___flsub+2,?_atanf+2
  4826   007BA6  C03B  F083         	movff	?___flsub+3,?_atanf+3
  4827   007BAA  EF76  F03E         	goto	l1061
  4828   007BAE                     l2831:
  4829                           
  4830                           ; BSR set to: 0
  4831   007BAE  C080  F013         	movff	atanf@x,___flmul@a
  4832   007BB2  C081  F014         	movff	atanf@x+1,___flmul@a+1
  4833   007BB6  C082  F015         	movff	atanf@x+2,___flmul@a+2
  4834   007BBA  C083  F016         	movff	atanf@x+3,___flmul@a+3
  4835   007BBE  C094  F02C         	movff	atanf@s2,___fladd@a
  4836   007BC2  C095  F02D         	movff	atanf@s2+1,___fladd@a+1
  4837   007BC6  C096  F02E         	movff	atanf@s2+2,___fladd@a+2
  4838   007BCA  C097  F02F         	movff	atanf@s2+3,___fladd@a+3
  4839   007BCE  C090  F028         	movff	atanf@s1,___fladd@b
  4840   007BD2  C091  F029         	movff	atanf@s1+1,___fladd@b+1
  4841   007BD6  C092  F02A         	movff	atanf@s1+2,___fladd@b+2
  4842   007BDA  C093  F02B         	movff	atanf@s1+3,___fladd@b+3
  4843   007BDE  EC89  F035         	call	___fladd	;wreg free
  4844   007BE2  C028  F00F         	movff	?___fladd,___flmul@b
  4845   007BE6  C029  F010         	movff	?___fladd+1,___flmul@b+1
  4846   007BEA  C02A  F011         	movff	?___fladd+2,___flmul@b+2
  4847   007BEE  C02B  F012         	movff	?___fladd+3,___flmul@b+3
  4848   007BF2  EC76  F033         	call	___flmul	;wreg free
  4849   007BF6  C00F  F09C         	movff	?___flmul,_atanf$1841
  4850   007BFA  C010  F09D         	movff	?___flmul+1,_atanf$1841+1
  4851   007BFE  C011  F09E         	movff	?___flmul+2,_atanf$1841+2
  4852   007C02  C012  F09F         	movff	?___flmul+3,_atanf$1841+3
  4853   007C06  0100               	movlb	0	; () banked
  4854   007C08  51A5               	movf	atanf@id& (0+255),w,b
  4855   007C0A  0D04               	mullw	4
  4856   007C0C  0EEF               	movlw	low _atanlo
  4857   007C0E  24F3               	addwf	243,w,c
  4858   007C10  6EF6               	movwf	tblptrl,c
  4859   007C12  0E7C               	movlw	high _atanlo
  4860   007C14  20F4               	addwfc	244,w,c
  4861   007C16  6EF7               	movwf	tblptrh,c
  4862   007C18                     	if	0	;There are less than 3 active tblptr bytes
  4863   007C18                     	endif
  4864   007C18  0009               	tblrd		*+
  4865   007C1A  CFF5 F03C          	movff	tablat,___flsub@a
  4866   007C1E  0009               	tblrd		*+
  4867   007C20  CFF5 F03D          	movff	tablat,___flsub@a+1
  4868   007C24  0009               	tblrd		*+
  4869   007C26  CFF5 F03E          	movff	tablat,___flsub@a+2
  4870   007C2A  000A               	tblrd		*-
  4871   007C2C  CFF5 F03F          	movff	tablat,___flsub@a+3
  4872   007C30  C09C  F038         	movff	_atanf$1841,___flsub@b
  4873   007C34  C09D  F039         	movff	_atanf$1841+1,___flsub@b+1
  4874   007C38  C09E  F03A         	movff	_atanf$1841+2,___flsub@b+2
  4875   007C3C  C09F  F03B         	movff	_atanf$1841+3,___flsub@b+3
  4876   007C40  EC04  F02B         	call	___flsub	;wreg free
  4877   007C44  C038  F088         	movff	?___flsub,_atanf$1842
  4878   007C48  C039  F089         	movff	?___flsub+1,_atanf$1842+1
  4879   007C4C  C03A  F08A         	movff	?___flsub+2,_atanf$1842+2
  4880   007C50  C03B  F08B         	movff	?___flsub+3,_atanf$1842+3
  4881   007C54  C080  F03C         	movff	atanf@x,___flsub@a
  4882   007C58  C081  F03D         	movff	atanf@x+1,___flsub@a+1
  4883   007C5C  C082  F03E         	movff	atanf@x+2,___flsub@a+2
  4884   007C60  C083  F03F         	movff	atanf@x+3,___flsub@a+3
  4885   007C64  C088  F038         	movff	_atanf$1842,___flsub@b
  4886   007C68  C089  F039         	movff	_atanf$1842+1,___flsub@b+1
  4887   007C6C  C08A  F03A         	movff	_atanf$1842+2,___flsub@b+2
  4888   007C70  C08B  F03B         	movff	_atanf$1842+3,___flsub@b+3
  4889   007C74  EC04  F02B         	call	___flsub	;wreg free
  4890   007C78  C038  F08C         	movff	?___flsub,_atanf$1843
  4891   007C7C  C039  F08D         	movff	?___flsub+1,_atanf$1843+1
  4892   007C80  C03A  F08E         	movff	?___flsub+2,_atanf$1843+2
  4893   007C84  C03B  F08F         	movff	?___flsub+3,_atanf$1843+3
  4894   007C88  0100               	movlb	0	; () banked
  4895   007C8A  51A5               	movf	atanf@id& (0+255),w,b
  4896   007C8C  0D04               	mullw	4
  4897   007C8E  0EFF               	movlw	low _atanhi
  4898   007C90  24F3               	addwf	243,w,c
  4899   007C92  6EF6               	movwf	tblptrl,c
  4900   007C94  0E7C               	movlw	high _atanhi
  4901   007C96  20F4               	addwfc	244,w,c
  4902   007C98  6EF7               	movwf	tblptrh,c
  4903   007C9A                     	if	0	;There are less than 3 active tblptr bytes
  4904   007C9A                     	endif
  4905   007C9A  0009               	tblrd		*+
  4906   007C9C  CFF5 F038          	movff	tablat,___flsub@b
  4907   007CA0  0009               	tblrd		*+
  4908   007CA2  CFF5 F039          	movff	tablat,___flsub@b+1
  4909   007CA6  0009               	tblrd		*+
  4910   007CA8  CFF5 F03A          	movff	tablat,___flsub@b+2
  4911   007CAC  000A               	tblrd		*-
  4912   007CAE  CFF5 F03B          	movff	tablat,___flsub@b+3
  4913   007CB2  C08C  F03C         	movff	_atanf$1843,___flsub@a
  4914   007CB6  C08D  F03D         	movff	_atanf$1843+1,___flsub@a+1
  4915   007CBA  C08E  F03E         	movff	_atanf$1843+2,___flsub@a+2
  4916   007CBE  C08F  F03F         	movff	_atanf$1843+3,___flsub@a+3
  4917   007CC2  EC04  F02B         	call	___flsub	;wreg free
  4918   007CC6  C038  F0A6         	movff	?___flsub,atanf@z
  4919   007CCA  C039  F0A7         	movff	?___flsub+1,atanf@z+1
  4920   007CCE  C03A  F0A8         	movff	?___flsub+2,atanf@z+2
  4921   007CD2  C03B  F0A9         	movff	?___flsub+3,atanf@z+3
  4922   007CD6  0100               	movlb	0	; () banked
  4923   007CD8  51A0               	movf	atanf@sign& (0+255),w,b
  4924   007CDA  A4D8               	btfss	status,2,c
  4925   007CDC  EF72  F03E         	goto	u2801
  4926   007CE0  EF74  F03E         	goto	u2800
  4927   007CE4                     u2801:
  4928   007CE4  EF33  F03B         	goto	l2775
  4929   007CE8                     u2800:
  4930   007CE8  EF29  F03B         	goto	l2773
  4931   007CEC                     l1061:
  4932   007CEC  0012               	return		;funcret
  4933   007CEE                     __end_of_atanf:
  4934                           	callstack 0
  4935                           
  4936 ;; *************** function _fabsf *****************
  4937 ;; Defined at:
  4938 ;;		line 4 in file "C:\Program Files\Microchip\xc8\v2.50\pic\sources\c99\common\fabsf.c"
  4939 ;; Parameters:    Size  Location     Type
  4940 ;;  x               4  117[COMRAM] float 
  4941 ;; Auto vars:     Size  Location     Type
  4942 ;;  u               4  121[COMRAM] struct .
  4943 ;; Return value:  Size  Location     Type
  4944 ;;                  4  117[COMRAM] float 
  4945 ;; Registers used:
  4946 ;;		status,2, status,0
  4947 ;; Tracked objects:
  4948 ;;		On entry : 0/0
  4949 ;;		On exit  : 0/0
  4950 ;;		Unchanged: 0/0
  4951 ;; Data sizes:     COMRAM   BANK0   BANK1   BANK2   BANK3   BANK4   BANK5
  4952 ;;      Params:         4       0       0       0       0       0       0
  4953 ;;      Locals:         4       0       0       0       0       0       0
  4954 ;;      Temps:          0       0       0       0       0       0       0
  4955 ;;      Totals:         8       0       0       0       0       0       0
  4956 ;;Total ram usage:        8 bytes
  4957 ;; Hardware stack levels used: 1
  4958 ;; This function calls:
  4959 ;;		Nothing
  4960 ;; This function is called by:
  4961 ;;		_atan2f
  4962 ;;		_atanf
  4963 ;; This function uses a non-reentrant model
  4964 ;;
  4965                           
  4966                           	psect	text13
  4967   0054E4                     __ptext13:
  4968                           	callstack 0
  4969   0054E4                     _fabsf:
  4970                           	callstack 25
  4971   0054E4  C114  F07A         	movff	fabsf@F465,fabsf@u
  4972   0054E8  C115  F07B         	movff	fabsf@F465+1,fabsf@u+1
  4973   0054EC  C116  F07C         	movff	fabsf@F465+2,fabsf@u+2
  4974   0054F0  C117  F07D         	movff	fabsf@F465+3,fabsf@u+3
  4975   0054F4  C076  F07A         	movff	fabsf@x,fabsf@u
  4976   0054F8  C077  F07B         	movff	fabsf@x+1,fabsf@u+1
  4977   0054FC  C078  F07C         	movff	fabsf@x+2,fabsf@u+2
  4978   005500  C079  F07D         	movff	fabsf@x+3,fabsf@u+3
  4979   005504  9E7D               	bcf	(fabsf@u+3)^0,7,c
  4980   005506  C07A  F076         	movff	fabsf@u,?_fabsf
  4981   00550A  C07B  F077         	movff	fabsf@u+1,?_fabsf+1
  4982   00550E  C07C  F078         	movff	fabsf@u+2,?_fabsf+2
  4983   005512  C07D  F079         	movff	fabsf@u+3,?_fabsf+3
  4984   005516  0012               	return		;funcret
  4985   005518                     __end_of_fabsf:
  4986                           	callstack 0
  4987                           
  4988 ;; *************** function ___fpclassifyf *****************
  4989 ;; Defined at:
  4990 ;;		line 4 in file "C:\Program Files\Microchip\xc8\v2.50\pic\sources\c99\common\__fpclassifyf.c"
  4991 ;; Parameters:    Size  Location     Type
  4992 ;;  x               4    0[COMRAM] float 
  4993 ;; Auto vars:     Size  Location     Type
  4994 ;;  u               4   10[COMRAM] struct .
  4995 ;;  e               2    8[COMRAM] int 
  4996 ;; Return value:  Size  Location     Type
  4997 ;;                  2    0[COMRAM] int 
  4998 ;; Registers used:
  4999 ;;		wreg, status,2, status,0
  5000 ;; Tracked objects:
  5001 ;;		On entry : 0/0
  5002 ;;		On exit  : 0/0
  5003 ;;		Unchanged: 0/0
  5004 ;; Data sizes:     COMRAM   BANK0   BANK1   BANK2   BANK3   BANK4   BANK5
  5005 ;;      Params:         4       0       0       0       0       0       0
  5006 ;;      Locals:         6       0       0       0       0       0       0
  5007 ;;      Temps:          4       0       0       0       0       0       0
  5008 ;;      Totals:        14       0       0       0       0       0       0
  5009 ;;Total ram usage:       14 bytes
  5010 ;; Hardware stack levels used: 1
  5011 ;; This function calls:
  5012 ;;		Nothing
  5013 ;; This function is called by:
  5014 ;;		_atan2f
  5015 ;;		_atanf
  5016 ;; This function uses a non-reentrant model
  5017 ;;
  5018                           
  5019                           	psect	text14
  5020   0057B0                     __ptext14:
  5021                           	callstack 0
  5022   0057B0                     ___fpclassifyf:
  5023                           	callstack 24
  5024   0057B0  C118  F00B         	movff	___fpclassifyf@F465,___fpclassifyf@u
  5025   0057B4  C119  F00C         	movff	___fpclassifyf@F465+1,___fpclassifyf@u+1
  5026   0057B8  C11A  F00D         	movff	___fpclassifyf@F465+2,___fpclassifyf@u+2
  5027   0057BC  C11B  F00E         	movff	___fpclassifyf@F465+3,___fpclassifyf@u+3
  5028   0057C0  C001  F00B         	movff	___fpclassifyf@x,___fpclassifyf@u
  5029   0057C4  C002  F00C         	movff	___fpclassifyf@x+1,___fpclassifyf@u+1
  5030   0057C8  C003  F00D         	movff	___fpclassifyf@x+2,___fpclassifyf@u+2
  5031   0057CC  C004  F00E         	movff	___fpclassifyf@x+3,___fpclassifyf@u+3
  5032   0057D0  C00B  F005         	movff	___fpclassifyf@u,??___fpclassifyf
  5033   0057D4  C00C  F006         	movff	___fpclassifyf@u+1,??___fpclassifyf+1
  5034   0057D8  C00D  F007         	movff	___fpclassifyf@u+2,??___fpclassifyf+2
  5035   0057DC  C00E  F008         	movff	___fpclassifyf@u+3,??___fpclassifyf+3
  5036   0057E0  0E18               	movlw	24
  5037   0057E2  EFF8  F02B         	goto	u2620
  5038   0057E6                     u2625:
  5039   0057E6  90D8               	bcf	status,0,c
  5040   0057E8  3208               	rrcf	(??___fpclassifyf+3)^0,f,c
  5041   0057EA  3207               	rrcf	(??___fpclassifyf+2)^0,f,c
  5042   0057EC  3206               	rrcf	(??___fpclassifyf+1)^0,f,c
  5043   0057EE  3205               	rrcf	??___fpclassifyf^0,f,c
  5044   0057F0                     u2620:
  5045   0057F0  2EE8               	decfsz	wreg,f,c
  5046   0057F2  EFF3  F02B         	goto	u2625
  5047   0057F6  5005               	movf	??___fpclassifyf^0,w,c
  5048   0057F8  6E09               	movwf	___fpclassifyf@e^0,c
  5049   0057FA  6A0A               	clrf	(___fpclassifyf@e+1)^0,c
  5050   0057FC  5009               	movf	___fpclassifyf@e^0,w,c
  5051   0057FE  100A               	iorwf	(___fpclassifyf@e+1)^0,w,c
  5052   005800  A4D8               	btfss	status,2,c
  5053   005802  EF05  F02C         	goto	u2631
  5054   005806  EF07  F02C         	goto	u2630
  5055   00580A                     u2631:
  5056   00580A  EF27  F02C         	goto	l2739
  5057   00580E                     u2630:
  5058   00580E  90D8               	bcf	status,0,c
  5059   005810  340B               	rlcf	___fpclassifyf@u^0,w,c
  5060   005812  6E05               	movwf	??___fpclassifyf^0,c
  5061   005814  340C               	rlcf	(___fpclassifyf@u+1)^0,w,c
  5062   005816  6E06               	movwf	(??___fpclassifyf+1)^0,c
  5063   005818  340D               	rlcf	(___fpclassifyf@u+2)^0,w,c
  5064   00581A  6E07               	movwf	(??___fpclassifyf+2)^0,c
  5065   00581C  340E               	rlcf	(___fpclassifyf@u+3)^0,w,c
  5066   00581E  6E08               	movwf	(??___fpclassifyf+3)^0,c
  5067   005820  5005               	movf	??___fpclassifyf^0,w,c
  5068   005822  1006               	iorwf	(??___fpclassifyf+1)^0,w,c
  5069   005824  1007               	iorwf	(??___fpclassifyf+2)^0,w,c
  5070   005826  1008               	iorwf	(??___fpclassifyf+3)^0,w,c
  5071   005828  A4D8               	btfss	status,2,c
  5072   00582A  EF19  F02C         	goto	u2641
  5073   00582E  EF1B  F02C         	goto	u2640
  5074   005832                     u2641:
  5075   005832  EF21  F02C         	goto	l2735
  5076   005836                     u2640:
  5077   005836  0E00               	movlw	0
  5078   005838  6E02               	movwf	(?___fpclassifyf+1)^0,c
  5079   00583A  0E02               	movlw	2
  5080   00583C  6E01               	movwf	?___fpclassifyf^0,c
  5081   00583E  EF56  F02C         	goto	l1037
  5082   005842                     l2735:
  5083   005842  0E00               	movlw	0
  5084   005844  6E02               	movwf	(?___fpclassifyf+1)^0,c
  5085   005846  0E03               	movlw	3
  5086   005848  6E01               	movwf	?___fpclassifyf^0,c
  5087   00584A  EF56  F02C         	goto	l1037
  5088   00584E                     l2739:
  5089   00584E  2809               	incf	___fpclassifyf@e^0,w,c
  5090   005850  100A               	iorwf	(___fpclassifyf@e+1)^0,w,c
  5091   005852  A4D8               	btfss	status,2,c
  5092   005854  EF2E  F02C         	goto	u2651
  5093   005858  EF30  F02C         	goto	u2650
  5094   00585C                     u2651:
  5095   00585C  EF52  F02C         	goto	l2745
  5096   005860                     u2650:
  5097   005860  C00B  F005         	movff	___fpclassifyf@u,??___fpclassifyf
  5098   005864  C00C  F006         	movff	___fpclassifyf@u+1,??___fpclassifyf+1
  5099   005868  C00D  F007         	movff	___fpclassifyf@u+2,??___fpclassifyf+2
  5100   00586C  C00E  F008         	movff	___fpclassifyf@u+3,??___fpclassifyf+3
  5101   005870  0E09               	movlw	9
  5102   005872                     u2665:
  5103   005872  90D8               	bcf	status,0,c
  5104   005874  3605               	rlcf	??___fpclassifyf^0,f,c
  5105   005876  3606               	rlcf	(??___fpclassifyf+1)^0,f,c
  5106   005878  3607               	rlcf	(??___fpclassifyf+2)^0,f,c
  5107   00587A  3608               	rlcf	(??___fpclassifyf+3)^0,f,c
  5108   00587C  2EE8               	decfsz	wreg,f,c
  5109   00587E  EF39  F02C         	goto	u2665
  5110   005882  5005               	movf	??___fpclassifyf^0,w,c
  5111   005884  1006               	iorwf	(??___fpclassifyf+1)^0,w,c
  5112   005886  1007               	iorwf	(??___fpclassifyf+2)^0,w,c
  5113   005888  1008               	iorwf	(??___fpclassifyf+3)^0,w,c
  5114   00588A  B4D8               	btfsc	status,2,c
  5115   00588C  EF4A  F02C         	goto	u2671
  5116   005890  EF4D  F02C         	goto	u2670
  5117   005894                     u2671:
  5118   005894  0E01               	movlw	1
  5119   005896  EF4E  F02C         	goto	u2680
  5120   00589A                     u2670:
  5121   00589A  0E00               	movlw	0
  5122   00589C                     u2680:
  5123   00589C  6E01               	movwf	?___fpclassifyf^0,c
  5124   00589E  6A02               	clrf	(?___fpclassifyf+1)^0,c
  5125   0058A0  EF56  F02C         	goto	l1037
  5126   0058A4                     l2745:
  5127   0058A4  0E00               	movlw	0
  5128   0058A6  6E02               	movwf	(?___fpclassifyf+1)^0,c
  5129   0058A8  0E04               	movlw	4
  5130   0058AA  6E01               	movwf	?___fpclassifyf^0,c
  5131   0058AC                     l1037:
  5132   0058AC  0012               	return		;funcret
  5133   0058AE                     __end_of___fpclassifyf:
  5134                           	callstack 0
  5135                           
  5136 ;; *************** function ___flsub *****************
  5137 ;; Defined at:
  5138 ;;		line 245 in file "C:\Program Files\Microchip\xc8\v2.50\pic\sources\c99\common\sprcadd.c"
  5139 ;; Parameters:    Size  Location     Type
  5140 ;;  b               4   55[COMRAM] int 
  5141 ;;  a               4   59[COMRAM] int 
  5142 ;; Auto vars:     Size  Location     Type
  5143 ;;		None
  5144 ;; Return value:  Size  Location     Type
  5145 ;;                  4   55[COMRAM] int 
  5146 ;; Registers used:
  5147 ;;		wreg, status,2, status,0, cstack
  5148 ;; Tracked objects:
  5149 ;;		On entry : 0/0
  5150 ;;		On exit  : 0/0
  5151 ;;		Unchanged: 0/0
  5152 ;; Data sizes:     COMRAM   BANK0   BANK1   BANK2   BANK3   BANK4   BANK5
  5153 ;;      Params:         8       0       0       0       0       0       0
  5154 ;;      Locals:         0       0       0       0       0       0       0
  5155 ;;      Temps:          0       0       0       0       0       0       0
  5156 ;;      Totals:         8       0       0       0       0       0       0
  5157 ;;Total ram usage:        8 bytes
  5158 ;; Hardware stack levels used: 1
  5159 ;; Hardware stack levels required when called: 1
  5160 ;; This function calls:
  5161 ;;		___fladd
  5162 ;; This function is called by:
  5163 ;;		_Check_Gyroscope
  5164 ;;		_atan2f
  5165 ;;		_atanf
  5166 ;; This function uses a non-reentrant model
  5167 ;;
  5168                           
  5169                           	psect	text15
  5170   005608                     __ptext15:
  5171                           	callstack 0
  5172   005608                     ___flsub:
  5173                           	callstack 23
  5174   005608  0E00               	movlw	0
  5175   00560A  1A3C               	xorwf	___flsub@a^0,f,c
  5176   00560C  0E00               	movlw	0
  5177   00560E  1A3D               	xorwf	(___flsub@a+1)^0,f,c
  5178   005610  0E00               	movlw	0
  5179   005612  1A3E               	xorwf	(___flsub@a+2)^0,f,c
  5180   005614  0E80               	movlw	128
  5181   005616  1A3F               	xorwf	(___flsub@a+3)^0,f,c
  5182   005618  C038  F028         	movff	___flsub@b,___fladd@b
  5183   00561C  C039  F029         	movff	___flsub@b+1,___fladd@b+1
  5184   005620  C03A  F02A         	movff	___flsub@b+2,___fladd@b+2
  5185   005624  C03B  F02B         	movff	___flsub@b+3,___fladd@b+3
  5186   005628  C03C  F02C         	movff	___flsub@a,___fladd@a
  5187   00562C  C03D  F02D         	movff	___flsub@a+1,___fladd@a+1
  5188   005630  C03E  F02E         	movff	___flsub@a+2,___fladd@a+2
  5189   005634  C03F  F02F         	movff	___flsub@a+3,___fladd@a+3
  5190   005638  EC89  F035         	call	___fladd	;wreg free
  5191   00563C  C028  F038         	movff	?___fladd,?___flsub
  5192   005640  C029  F039         	movff	?___fladd+1,?___flsub+1
  5193   005644  C02A  F03A         	movff	?___fladd+2,?___flsub+2
  5194   005648  C02B  F03B         	movff	?___fladd+3,?___flsub+3
  5195   00564C  0012               	return		;funcret
  5196   00564E                     __end_of___flsub:
  5197                           	callstack 0
  5198                           
  5199 ;; *************** function ___fladd *****************
  5200 ;; Defined at:
  5201 ;;		line 10 in file "C:\Program Files\Microchip\xc8\v2.50\pic\sources\c99\common\sprcadd.c"
  5202 ;; Parameters:    Size  Location     Type
  5203 ;;  b               4   39[COMRAM] int 
  5204 ;;  a               4   43[COMRAM] int 
  5205 ;; Auto vars:     Size  Location     Type
  5206 ;;  grs             1   54[COMRAM] unsigned char 
  5207 ;;  bexp            1   53[COMRAM] unsigned char 
  5208 ;;  aexp            1   52[COMRAM] unsigned char 
  5209 ;;  signs           1   51[COMRAM] unsigned char 
  5210 ;; Return value:  Size  Location     Type
  5211 ;;                  4   39[COMRAM] unsigned char 
  5212 ;; Registers used:
  5213 ;;		wreg, status,2, status,0
  5214 ;; Tracked objects:
  5215 ;;		On entry : 0/0
  5216 ;;		On exit  : 0/0
  5217 ;;		Unchanged: 0/0
  5218 ;; Data sizes:     COMRAM   BANK0   BANK1   BANK2   BANK3   BANK4   BANK5
  5219 ;;      Params:         8       0       0       0       0       0       0
  5220 ;;      Locals:         4       0       0       0       0       0       0
  5221 ;;      Temps:          4       0       0       0       0       0       0
  5222 ;;      Totals:        16       0       0       0       0       0       0
  5223 ;;Total ram usage:       16 bytes
  5224 ;; Hardware stack levels used: 1
  5225 ;; This function calls:
  5226 ;;		Nothing
  5227 ;; This function is called by:
  5228 ;;		_calculate_angle
  5229 ;;		___flsub
  5230 ;;		_atan2f
  5231 ;;		_atanf
  5232 ;; This function uses a non-reentrant model
  5233 ;;
  5234                           
  5235                           	psect	text16
  5236   006B12                     __ptext16:
  5237                           	callstack 0
  5238   006B12                     ___fladd:
  5239                           	callstack 23
  5240   006B12  502B               	movf	(___fladd@b+3)^0,w,c
  5241   006B14  0B80               	andlw	128
  5242   006B16  6E34               	movwf	___fladd@signs^0,c
  5243   006B18  502B               	movf	(___fladd@b+3)^0,w,c
  5244   006B1A  242B               	addwf	(___fladd@b+3)^0,w,c
  5245   006B1C  6E36               	movwf	___fladd@bexp^0,c
  5246   006B1E  AE2A               	btfss	(___fladd@b+2)^0,7,c
  5247   006B20  EF94  F035         	goto	u1801
  5248   006B24  EF96  F035         	goto	u1800
  5249   006B28                     u1801:
  5250   006B28  EF97  F035         	goto	l2261
  5251   006B2C                     u1800:
  5252   006B2C  8036               	bsf	___fladd@bexp^0,0,c
  5253   006B2E                     l2261:
  5254   006B2E  5036               	movf	___fladd@bexp^0,w,c
  5255   006B30  B4D8               	btfsc	status,2,c
  5256   006B32  EF9D  F035         	goto	u1811
  5257   006B36  EF9F  F035         	goto	u1810
  5258   006B3A                     u1811:
  5259   006B3A  EFB3  F035         	goto	l2271
  5260   006B3E                     u1810:
  5261   006B3E  2836               	incf	___fladd@bexp^0,w,c
  5262   006B40  A4D8               	btfss	status,2,c
  5263   006B42  EFA5  F035         	goto	u1821
  5264   006B46  EFA7  F035         	goto	u1820
  5265   006B4A                     u1821:
  5266   006B4A  EFAF  F035         	goto	l2267
  5267   006B4E                     u1820:
  5268   006B4E  0E00               	movlw	0
  5269   006B50  6E28               	movwf	___fladd@b^0,c
  5270   006B52  0E00               	movlw	0
  5271   006B54  6E29               	movwf	(___fladd@b+1)^0,c
  5272   006B56  0E00               	movlw	0
  5273   006B58  6E2A               	movwf	(___fladd@b+2)^0,c
  5274   006B5A  0E00               	movlw	0
  5275   006B5C  6E2B               	movwf	(___fladd@b+3)^0,c
  5276   006B5E                     l2267:
  5277   006B5E  8E2A               	bsf	(___fladd@b+2)^0,7,c
  5278   006B60  6A2B               	clrf	(___fladd@b+3)^0,c
  5279   006B62  EFBB  F035         	goto	l2273
  5280   006B66                     l2271:
  5281   006B66  0E00               	movlw	0
  5282   006B68  6E28               	movwf	___fladd@b^0,c
  5283   006B6A  0E00               	movlw	0
  5284   006B6C  6E29               	movwf	(___fladd@b+1)^0,c
  5285   006B6E  0E00               	movlw	0
  5286   006B70  6E2A               	movwf	(___fladd@b+2)^0,c
  5287   006B72  0E00               	movlw	0
  5288   006B74  6E2B               	movwf	(___fladd@b+3)^0,c
  5289   006B76                     l2273:
  5290   006B76  502F               	movf	(___fladd@a+3)^0,w,c
  5291   006B78  0B80               	andlw	128
  5292   006B7A  6E35               	movwf	___fladd@aexp^0,c
  5293   006B7C  5034               	movf	___fladd@signs^0,w,c
  5294   006B7E  1835               	xorwf	___fladd@aexp^0,w,c
  5295   006B80  B4D8               	btfsc	status,2,c
  5296   006B82  EFC5  F035         	goto	u1831
  5297   006B86  EFC7  F035         	goto	u1830
  5298   006B8A                     u1831:
  5299   006B8A  EFC8  F035         	goto	l2279
  5300   006B8E                     u1830:
  5301   006B8E  8C34               	bsf	___fladd@signs^0,6,c
  5302   006B90                     l2279:
  5303   006B90  502F               	movf	(___fladd@a+3)^0,w,c
  5304   006B92  242F               	addwf	(___fladd@a+3)^0,w,c
  5305   006B94  6E35               	movwf	___fladd@aexp^0,c
  5306   006B96  AE2E               	btfss	(___fladd@a+2)^0,7,c
  5307   006B98  EFD0  F035         	goto	u1841
  5308   006B9C  EFD2  F035         	goto	u1840
  5309   006BA0                     u1841:
  5310   006BA0  EFD3  F035         	goto	l2285
  5311   006BA4                     u1840:
  5312   006BA4  8035               	bsf	___fladd@aexp^0,0,c
  5313   006BA6                     l2285:
  5314   006BA6  5035               	movf	___fladd@aexp^0,w,c
  5315   006BA8  B4D8               	btfsc	status,2,c
  5316   006BAA  EFD9  F035         	goto	u1851
  5317   006BAE  EFDB  F035         	goto	u1850
  5318   006BB2                     u1851:
  5319   006BB2  EFEF  F035         	goto	l2295
  5320   006BB6                     u1850:
  5321   006BB6  2835               	incf	___fladd@aexp^0,w,c
  5322   006BB8  A4D8               	btfss	status,2,c
  5323   006BBA  EFE1  F035         	goto	u1861
  5324   006BBE  EFE3  F035         	goto	u1860
  5325   006BC2                     u1861:
  5326   006BC2  EFEB  F035         	goto	l2291
  5327   006BC6                     u1860:
  5328   006BC6  0E00               	movlw	0
  5329   006BC8  6E2C               	movwf	___fladd@a^0,c
  5330   006BCA  0E00               	movlw	0
  5331   006BCC  6E2D               	movwf	(___fladd@a+1)^0,c
  5332   006BCE  0E00               	movlw	0
  5333   006BD0  6E2E               	movwf	(___fladd@a+2)^0,c
  5334   006BD2  0E00               	movlw	0
  5335   006BD4  6E2F               	movwf	(___fladd@a+3)^0,c
  5336   006BD6                     l2291:
  5337   006BD6  8E2E               	bsf	(___fladd@a+2)^0,7,c
  5338   006BD8  6A2F               	clrf	(___fladd@a+3)^0,c
  5339   006BDA  EFF7  F035         	goto	l2297
  5340   006BDE                     l2295:
  5341   006BDE  0E00               	movlw	0
  5342   006BE0  6E2C               	movwf	___fladd@a^0,c
  5343   006BE2  0E00               	movlw	0
  5344   006BE4  6E2D               	movwf	(___fladd@a+1)^0,c
  5345   006BE6  0E00               	movlw	0
  5346   006BE8  6E2E               	movwf	(___fladd@a+2)^0,c
  5347   006BEA  0E00               	movlw	0
  5348   006BEC  6E2F               	movwf	(___fladd@a+3)^0,c
  5349   006BEE                     l2297:
  5350   006BEE  5036               	movf	___fladd@bexp^0,w,c
  5351   006BF0  5C35               	subwf	___fladd@aexp^0,w,c
  5352   006BF2  B0D8               	btfsc	status,0,c
  5353   006BF4  EFFE  F035         	goto	u1871
  5354   006BF8  EF00  F036         	goto	u1870
  5355   006BFC                     u1871:
  5356   006BFC  EF27  F036         	goto	l2333
  5357   006C00                     u1870:
  5358   006C00  AC34               	btfss	___fladd@signs^0,6,c
  5359   006C02  EF05  F036         	goto	u1881
  5360   006C06  EF07  F036         	goto	u1880
  5361   006C0A                     u1881:
  5362   006C0A  EF09  F036         	goto	l2303
  5363   006C0E                     u1880:
  5364   006C0E  0E80               	movlw	128
  5365   006C10  1A34               	xorwf	___fladd@signs^0,f,c
  5366   006C12                     l2303:
  5367   006C12  C036  F037         	movff	___fladd@bexp,___fladd@grs
  5368   006C16  C035  F036         	movff	___fladd@aexp,___fladd@bexp
  5369   006C1A  C037  F035         	movff	___fladd@grs,___fladd@aexp
  5370   006C1E  C028  F037         	movff	___fladd@b,___fladd@grs
  5371   006C22  C02C  F028         	movff	___fladd@a,___fladd@b
  5372   006C26  C037  F02C         	movff	___fladd@grs,___fladd@a
  5373   006C2A  C029  F037         	movff	___fladd@b+1,___fladd@grs
  5374   006C2E  C02D  F029         	movff	___fladd@a+1,___fladd@b+1
  5375   006C32  C037  F02D         	movff	___fladd@grs,___fladd@a+1
  5376   006C36  C02A  F037         	movff	___fladd@b+2,___fladd@grs
  5377   006C3A  C02E  F02A         	movff	___fladd@a+2,___fladd@b+2
  5378   006C3E  C037  F02E         	movff	___fladd@grs,___fladd@a+2
  5379   006C42  C02B  F037         	movff	___fladd@b+3,___fladd@grs
  5380   006C46  C02F  F02B         	movff	___fladd@a+3,___fladd@b+3
  5381   006C4A  C037  F02F         	movff	___fladd@grs,___fladd@a+3
  5382   006C4E                     l2333:
  5383   006C4E  6A37               	clrf	___fladd@grs^0,c
  5384   006C50  5036               	movf	___fladd@bexp^0,w,c
  5385   006C52  C035  F030         	movff	___fladd@aexp,??___fladd
  5386   006C56  6A31               	clrf	(??___fladd+1)^0,c
  5387   006C58  5E30               	subwf	??___fladd^0,f,c
  5388   006C5A  0E00               	movlw	0
  5389   006C5C  5A31               	subwfb	(??___fladd+1)^0,f,c
  5390   006C5E  BE31               	btfsc	(??___fladd+1)^0,7,c
  5391   006C60  EF3B  F036         	goto	u1891
  5392   006C64  5031               	movf	(??___fladd+1)^0,w,c
  5393   006C66  E109               	bnz	u1890
  5394   006C68  0E1A               	movlw	26
  5395   006C6A  5C30               	subwf	??___fladd^0,w,c
  5396   006C6C  A0D8               	btfss	status,0,c
  5397   006C6E  EF3B  F036         	goto	u1891
  5398   006C72  EF3D  F036         	goto	u1890
  5399   006C76                     u1891:
  5400   006C76  EF74  F036         	goto	l826
  5401   006C7A                     u1890:
  5402   006C7A  5028               	movf	___fladd@b^0,w,c
  5403   006C7C  1029               	iorwf	(___fladd@b+1)^0,w,c
  5404   006C7E  102A               	iorwf	(___fladd@b+2)^0,w,c
  5405   006C80  102B               	iorwf	(___fladd@b+3)^0,w,c
  5406   006C82  A4D8               	btfss	status,2,c
  5407   006C84  EF46  F036         	goto	u1901
  5408   006C88  EF49  F036         	goto	u1900
  5409   006C8C                     u1901:
  5410   006C8C  0E01               	movlw	1
  5411   006C8E  EF4A  F036         	goto	u1910
  5412   006C92                     u1900:
  5413   006C92  0E00               	movlw	0
  5414   006C94                     u1910:
  5415   006C94  6E37               	movwf	___fladd@grs^0,c
  5416   006C96  0E00               	movlw	0
  5417   006C98  6E28               	movwf	___fladd@b^0,c
  5418   006C9A  0E00               	movlw	0
  5419   006C9C  6E29               	movwf	(___fladd@b+1)^0,c
  5420   006C9E  0E00               	movlw	0
  5421   006CA0  6E2A               	movwf	(___fladd@b+2)^0,c
  5422   006CA2  0E00               	movlw	0
  5423   006CA4  6E2B               	movwf	(___fladd@b+3)^0,c
  5424   006CA6  C035  F036         	movff	___fladd@aexp,___fladd@bexp
  5425   006CAA  EF7D  F036         	goto	l825
  5426   006CAE                     l827:
  5427   006CAE  A037               	btfss	___fladd@grs^0,0,c
  5428   006CB0  EF5C  F036         	goto	u1921
  5429   006CB4  EF5E  F036         	goto	u1920
  5430   006CB8                     u1921:
  5431   006CB8  EF64  F036         	goto	l2343
  5432   006CBC                     u1920:
  5433   006CBC  90D8               	bcf	status,0,c
  5434   006CBE  3037               	rrcf	___fladd@grs^0,w,c
  5435   006CC0  0901               	iorlw	1
  5436   006CC2  6E37               	movwf	___fladd@grs^0,c
  5437   006CC4  EF66  F036         	goto	l2345
  5438   006CC8                     l2343:
  5439   006CC8  90D8               	bcf	status,0,c
  5440   006CCA  3237               	rrcf	___fladd@grs^0,f,c
  5441   006CCC                     l2345:
  5442   006CCC  A028               	btfss	___fladd@b^0,0,c
  5443   006CCE  EF6B  F036         	goto	u1931
  5444   006CD2  EF6D  F036         	goto	u1930
  5445   006CD6                     u1931:
  5446   006CD6  EF6E  F036         	goto	l2349
  5447   006CDA                     u1930:
  5448   006CDA  8E37               	bsf	___fladd@grs^0,7,c
  5449   006CDC                     l2349:
  5450   006CDC  342B               	rlcf	(___fladd@b+3)^0,w,c
  5451   006CDE  322B               	rrcf	(___fladd@b+3)^0,f,c
  5452   006CE0  322A               	rrcf	(___fladd@b+2)^0,f,c
  5453   006CE2  3229               	rrcf	(___fladd@b+1)^0,f,c
  5454   006CE4  3228               	rrcf	___fladd@b^0,f,c
  5455   006CE6  2A36               	incf	___fladd@bexp^0,f,c
  5456   006CE8                     l826:
  5457   006CE8  5035               	movf	___fladd@aexp^0,w,c
  5458   006CEA  5C36               	subwf	___fladd@bexp^0,w,c
  5459   006CEC  A0D8               	btfss	status,0,c
  5460   006CEE  EF7B  F036         	goto	u1941
  5461   006CF2  EF7D  F036         	goto	u1940
  5462   006CF6                     u1941:
  5463   006CF6  EF57  F036         	goto	l827
  5464   006CFA                     u1940:
  5465   006CFA                     l825:
  5466   006CFA  BC34               	btfsc	___fladd@signs^0,6,c
  5467   006CFC  EF82  F036         	goto	u1951
  5468   006D00  EF84  F036         	goto	u1950
  5469   006D04                     u1951:
  5470   006D04  EFC4  F036         	goto	l2377
  5471   006D08                     u1950:
  5472   006D08  5036               	movf	___fladd@bexp^0,w,c
  5473   006D0A  A4D8               	btfss	status,2,c
  5474   006D0C  EF8A  F036         	goto	u1961
  5475   006D10  EF8C  F036         	goto	u1960
  5476   006D14                     u1961:
  5477   006D14  EF96  F036         	goto	l2359
  5478   006D18                     u1960:
  5479   006D18  0E00               	movlw	0
  5480   006D1A  6E28               	movwf	?___fladd^0,c
  5481   006D1C  0E00               	movlw	0
  5482   006D1E  6E29               	movwf	(?___fladd+1)^0,c
  5483   006D20  0E00               	movlw	0
  5484   006D22  6E2A               	movwf	(?___fladd+2)^0,c
  5485   006D24  0E00               	movlw	0
  5486   006D26  6E2B               	movwf	(?___fladd+3)^0,c
  5487   006D28  EFE3  F037         	goto	l834
  5488   006D2C                     l2359:
  5489   006D2C  502C               	movf	___fladd@a^0,w,c
  5490   006D2E  2628               	addwf	___fladd@b^0,f,c
  5491   006D30  502D               	movf	(___fladd@a+1)^0,w,c
  5492   006D32  2229               	addwfc	(___fladd@b+1)^0,f,c
  5493   006D34  502E               	movf	(___fladd@a+2)^0,w,c
  5494   006D36  222A               	addwfc	(___fladd@b+2)^0,f,c
  5495   006D38  502F               	movf	(___fladd@a+3)^0,w,c
  5496   006D3A  222B               	addwfc	(___fladd@b+3)^0,f,c
  5497   006D3C  A02B               	btfss	(___fladd@b+3)^0,0,c
  5498   006D3E  EFA3  F036         	goto	u1971
  5499   006D42  EFA5  F036         	goto	u1970
  5500   006D46                     u1971:
  5501   006D46  EF51  F037         	goto	l839
  5502   006D4A                     u1970:
  5503   006D4A  A037               	btfss	___fladd@grs^0,0,c
  5504   006D4C  EFAA  F036         	goto	u1981
  5505   006D50  EFAC  F036         	goto	u1980
  5506   006D54                     u1981:
  5507   006D54  EFB2  F036         	goto	l2367
  5508   006D58                     u1980:
  5509   006D58  90D8               	bcf	status,0,c
  5510   006D5A  3037               	rrcf	___fladd@grs^0,w,c
  5511   006D5C  0901               	iorlw	1
  5512   006D5E  6E37               	movwf	___fladd@grs^0,c
  5513   006D60  EFB4  F036         	goto	l2369
  5514   006D64                     l2367:
  5515   006D64  90D8               	bcf	status,0,c
  5516   006D66  3237               	rrcf	___fladd@grs^0,f,c
  5517   006D68                     l2369:
  5518   006D68  A028               	btfss	___fladd@b^0,0,c
  5519   006D6A  EFB9  F036         	goto	u1991
  5520   006D6E  EFBB  F036         	goto	u1990
  5521   006D72                     u1991:
  5522   006D72  EFBC  F036         	goto	l2373
  5523   006D76                     u1990:
  5524   006D76  8E37               	bsf	___fladd@grs^0,7,c
  5525   006D78                     l2373:
  5526   006D78  342B               	rlcf	(___fladd@b+3)^0,w,c
  5527   006D7A  322B               	rrcf	(___fladd@b+3)^0,f,c
  5528   006D7C  322A               	rrcf	(___fladd@b+2)^0,f,c
  5529   006D7E  3229               	rrcf	(___fladd@b+1)^0,f,c
  5530   006D80  3228               	rrcf	___fladd@b^0,f,c
  5531   006D82  2A36               	incf	___fladd@bexp^0,f,c
  5532   006D84  EF51  F037         	goto	l839
  5533   006D88                     l2377:
  5534   006D88  502C               	movf	___fladd@a^0,w,c
  5535   006D8A  5C28               	subwf	___fladd@b^0,w,c
  5536   006D8C  502D               	movf	(___fladd@a+1)^0,w,c
  5537   006D8E  5829               	subwfb	(___fladd@b+1)^0,w,c
  5538   006D90  502E               	movf	(___fladd@a+2)^0,w,c
  5539   006D92  582A               	subwfb	(___fladd@b+2)^0,w,c
  5540   006D94  502B               	movf	(___fladd@b+3)^0,w,c
  5541   006D96  0A80               	xorlw	128
  5542   006D98  6E30               	movwf	??___fladd^0,c
  5543   006D9A  502F               	movf	(___fladd@a+3)^0,w,c
  5544   006D9C  0A80               	xorlw	128
  5545   006D9E  5830               	subwfb	??___fladd^0,w,c
  5546   006DA0  B0D8               	btfsc	status,0,c
  5547   006DA2  EFD5  F036         	goto	u2001
  5548   006DA6  EFD7  F036         	goto	u2000
  5549   006DAA                     u2001:
  5550   006DAA  EF02  F037         	goto	l2387
  5551   006DAE                     u2000:
  5552   006DAE  5028               	movf	___fladd@b^0,w,c
  5553   006DB0  5C2C               	subwf	___fladd@a^0,w,c
  5554   006DB2  6E30               	movwf	??___fladd^0,c
  5555   006DB4  5029               	movf	(___fladd@b+1)^0,w,c
  5556   006DB6  582D               	subwfb	(___fladd@a+1)^0,w,c
  5557   006DB8  6E31               	movwf	(??___fladd+1)^0,c
  5558   006DBA  502A               	movf	(___fladd@b+2)^0,w,c
  5559   006DBC  582E               	subwfb	(___fladd@a+2)^0,w,c
  5560   006DBE  6E32               	movwf	(??___fladd+2)^0,c
  5561   006DC0  502B               	movf	(___fladd@b+3)^0,w,c
  5562   006DC2  582F               	subwfb	(___fladd@a+3)^0,w,c
  5563   006DC4  6E33               	movwf	(??___fladd+3)^0,c
  5564   006DC6  0EFF               	movlw	255
  5565   006DC8  2430               	addwf	??___fladd^0,w,c
  5566   006DCA  6E28               	movwf	___fladd@b^0,c
  5567   006DCC  0EFF               	movlw	255
  5568   006DCE  2031               	addwfc	(??___fladd+1)^0,w,c
  5569   006DD0  6E29               	movwf	(___fladd@b+1)^0,c
  5570   006DD2  0EFF               	movlw	255
  5571   006DD4  2032               	addwfc	(??___fladd+2)^0,w,c
  5572   006DD6  6E2A               	movwf	(___fladd@b+2)^0,c
  5573   006DD8  0EFF               	movlw	255
  5574   006DDA  2033               	addwfc	(??___fladd+3)^0,w,c
  5575   006DDC  6E2B               	movwf	(___fladd@b+3)^0,c
  5576   006DDE  0E80               	movlw	128
  5577   006DE0  1A34               	xorwf	___fladd@signs^0,f,c
  5578   006DE2  6C37               	negf	___fladd@grs^0,c
  5579   006DE4  5037               	movf	___fladd@grs^0,w,c
  5580   006DE6  A4D8               	btfss	status,2,c
  5581   006DE8  EFF8  F036         	goto	u2011
  5582   006DEC  EFFA  F036         	goto	u2010
  5583   006DF0                     u2011:
  5584   006DF0  EF0A  F037         	goto	l842
  5585   006DF4                     u2010:
  5586   006DF4  0E01               	movlw	1
  5587   006DF6  2628               	addwf	___fladd@b^0,f,c
  5588   006DF8  0E00               	movlw	0
  5589   006DFA  2229               	addwfc	(___fladd@b+1)^0,f,c
  5590   006DFC  222A               	addwfc	(___fladd@b+2)^0,f,c
  5591   006DFE  222B               	addwfc	(___fladd@b+3)^0,f,c
  5592   006E00  EF0A  F037         	goto	l842
  5593   006E04                     l2387:
  5594   006E04  502C               	movf	___fladd@a^0,w,c
  5595   006E06  5E28               	subwf	___fladd@b^0,f,c
  5596   006E08  502D               	movf	(___fladd@a+1)^0,w,c
  5597   006E0A  5A29               	subwfb	(___fladd@b+1)^0,f,c
  5598   006E0C  502E               	movf	(___fladd@a+2)^0,w,c
  5599   006E0E  5A2A               	subwfb	(___fladd@b+2)^0,f,c
  5600   006E10  502F               	movf	(___fladd@a+3)^0,w,c
  5601   006E12  5A2B               	subwfb	(___fladd@b+3)^0,f,c
  5602   006E14                     l842:
  5603   006E14  5028               	movf	___fladd@b^0,w,c
  5604   006E16  1029               	iorwf	(___fladd@b+1)^0,w,c
  5605   006E18  102A               	iorwf	(___fladd@b+2)^0,w,c
  5606   006E1A  102B               	iorwf	(___fladd@b+3)^0,w,c
  5607   006E1C  A4D8               	btfss	status,2,c
  5608   006E1E  EF13  F037         	goto	u2021
  5609   006E22  EF15  F037         	goto	u2020
  5610   006E26                     u2021:
  5611   006E26  EF4A  F037         	goto	l2411
  5612   006E2A                     u2020:
  5613   006E2A  5037               	movf	___fladd@grs^0,w,c
  5614   006E2C  A4D8               	btfss	status,2,c
  5615   006E2E  EF1B  F037         	goto	u2031
  5616   006E32  EF1D  F037         	goto	u2030
  5617   006E36                     u2031:
  5618   006E36  EF4A  F037         	goto	l2411
  5619   006E3A                     u2030:
  5620   006E3A  0E00               	movlw	0
  5621   006E3C  6E28               	movwf	?___fladd^0,c
  5622   006E3E  0E00               	movlw	0
  5623   006E40  6E29               	movwf	(?___fladd+1)^0,c
  5624   006E42  0E00               	movlw	0
  5625   006E44  6E2A               	movwf	(?___fladd+2)^0,c
  5626   006E46  0E00               	movlw	0
  5627   006E48  6E2B               	movwf	(?___fladd+3)^0,c
  5628   006E4A  EFE3  F037         	goto	l834
  5629   006E4E                     l2395:
  5630   006E4E  90D8               	bcf	status,0,c
  5631   006E50  3628               	rlcf	___fladd@b^0,f,c
  5632   006E52  3629               	rlcf	(___fladd@b+1)^0,f,c
  5633   006E54  362A               	rlcf	(___fladd@b+2)^0,f,c
  5634   006E56  362B               	rlcf	(___fladd@b+3)^0,f,c
  5635   006E58  AE37               	btfss	___fladd@grs^0,7,c
  5636   006E5A  EF31  F037         	goto	u2041
  5637   006E5E  EF33  F037         	goto	u2040
  5638   006E62                     u2041:
  5639   006E62  EF34  F037         	goto	l2401
  5640   006E66                     u2040:
  5641   006E66  8028               	bsf	___fladd@b^0,0,c
  5642   006E68                     l2401:
  5643   006E68  A037               	btfss	___fladd@grs^0,0,c
  5644   006E6A  EF39  F037         	goto	u2051
  5645   006E6E  EF3B  F037         	goto	u2050
  5646   006E72                     u2051:
  5647   006E72  EF3F  F037         	goto	l2405
  5648   006E76                     u2050:
  5649   006E76  80D8               	bsf	status,0,c
  5650   006E78  3637               	rlcf	___fladd@grs^0,f,c
  5651   006E7A  EF41  F037         	goto	l2407
  5652   006E7E                     l2405:
  5653   006E7E  90D8               	bcf	status,0,c
  5654   006E80  3637               	rlcf	___fladd@grs^0,f,c
  5655   006E82                     l2407:
  5656   006E82  5036               	movf	___fladd@bexp^0,w,c
  5657   006E84  B4D8               	btfsc	status,2,c
  5658   006E86  EF47  F037         	goto	u2061
  5659   006E8A  EF49  F037         	goto	u2060
  5660   006E8E                     u2061:
  5661   006E8E  EF4A  F037         	goto	l2411
  5662   006E92                     u2060:
  5663   006E92  0636               	decf	___fladd@bexp^0,f,c
  5664   006E94                     l2411:
  5665   006E94  AE2A               	btfss	(___fladd@b+2)^0,7,c
  5666   006E96  EF4F  F037         	goto	u2071
  5667   006E9A  EF51  F037         	goto	u2070
  5668   006E9E                     u2071:
  5669   006E9E  EF27  F037         	goto	l2395
  5670   006EA2                     u2070:
  5671   006EA2                     l839:
  5672   006EA2  6A35               	clrf	___fladd@aexp^0,c
  5673   006EA4  AE37               	btfss	___fladd@grs^0,7,c
  5674   006EA6  EF57  F037         	goto	u2081
  5675   006EAA  EF59  F037         	goto	u2080
  5676   006EAE                     u2081:
  5677   006EAE  EF71  F037         	goto	l851
  5678   006EB2                     u2080:
  5679   006EB2  C037  F030         	movff	___fladd@grs,??___fladd
  5680   006EB6  0E7F               	movlw	127
  5681   006EB8  1630               	andwf	??___fladd^0,f,c
  5682   006EBA  B4D8               	btfsc	status,2,c
  5683   006EBC  EF62  F037         	goto	u2091
  5684   006EC0  EF64  F037         	goto	u2090
  5685   006EC4                     u2091:
  5686   006EC4  EF68  F037         	goto	l852
  5687   006EC8                     u2090:
  5688   006EC8                     l2415:
  5689   006EC8  0E01               	movlw	1
  5690   006ECA  6E35               	movwf	___fladd@aexp^0,c
  5691   006ECC  EF71  F037         	goto	l851
  5692   006ED0                     l852:
  5693   006ED0  A028               	btfss	___fladd@b^0,0,c
  5694   006ED2  EF6D  F037         	goto	u2101
  5695   006ED6  EF6F  F037         	goto	u2100
  5696   006EDA                     u2101:
  5697   006EDA  EF71  F037         	goto	l851
  5698   006EDE                     u2100:
  5699   006EDE  EF64  F037         	goto	l2415
  5700   006EE2                     l851:
  5701   006EE2  5035               	movf	___fladd@aexp^0,w,c
  5702   006EE4  B4D8               	btfsc	status,2,c
  5703   006EE6  EF77  F037         	goto	u2111
  5704   006EEA  EF79  F037         	goto	u2110
  5705   006EEE                     u2111:
  5706   006EEE  EFA4  F037         	goto	l2427
  5707   006EF2                     u2110:
  5708   006EF2  0E01               	movlw	1
  5709   006EF4  2628               	addwf	___fladd@b^0,f,c
  5710   006EF6  0E00               	movlw	0
  5711   006EF8  2229               	addwfc	(___fladd@b+1)^0,f,c
  5712   006EFA  222A               	addwfc	(___fladd@b+2)^0,f,c
  5713   006EFC  222B               	addwfc	(___fladd@b+3)^0,f,c
  5714   006EFE  A02B               	btfss	(___fladd@b+3)^0,0,c
  5715   006F00  EF84  F037         	goto	u2121
  5716   006F04  EF86  F037         	goto	u2120
  5717   006F08                     u2121:
  5718   006F08  EFA4  F037         	goto	l2427
  5719   006F0C                     u2120:
  5720   006F0C  C028  F030         	movff	___fladd@b,??___fladd
  5721   006F10  C029  F031         	movff	___fladd@b+1,??___fladd+1
  5722   006F14  C02A  F032         	movff	___fladd@b+2,??___fladd+2
  5723   006F18  C02B  F033         	movff	___fladd@b+3,??___fladd+3
  5724   006F1C  3433               	rlcf	(??___fladd+3)^0,w,c
  5725   006F1E  3233               	rrcf	(??___fladd+3)^0,f,c
  5726   006F20  3232               	rrcf	(??___fladd+2)^0,f,c
  5727   006F22  3231               	rrcf	(??___fladd+1)^0,f,c
  5728   006F24  3230               	rrcf	??___fladd^0,f,c
  5729   006F26  C030  F028         	movff	??___fladd,___fladd@b
  5730   006F2A  C031  F029         	movff	??___fladd+1,___fladd@b+1
  5731   006F2E  C032  F02A         	movff	??___fladd+2,___fladd@b+2
  5732   006F32  C033  F02B         	movff	??___fladd+3,___fladd@b+3
  5733   006F36  2836               	incf	___fladd@bexp^0,w,c
  5734   006F38  B4D8               	btfsc	status,2,c
  5735   006F3A  EFA1  F037         	goto	u2131
  5736   006F3E  EFA3  F037         	goto	u2130
  5737   006F42                     u2131:
  5738   006F42  EFA4  F037         	goto	l2427
  5739   006F46                     u2130:
  5740   006F46  2A36               	incf	___fladd@bexp^0,f,c
  5741   006F48                     l2427:
  5742   006F48  2836               	incf	___fladd@bexp^0,w,c
  5743   006F4A  B4D8               	btfsc	status,2,c
  5744   006F4C  EFAA  F037         	goto	u2141
  5745   006F50  EFAC  F037         	goto	u2140
  5746   006F54                     u2141:
  5747   006F54  EFB4  F037         	goto	l2431
  5748   006F58                     u2140:
  5749   006F58  5036               	movf	___fladd@bexp^0,w,c
  5750   006F5A  A4D8               	btfss	status,2,c
  5751   006F5C  EFB2  F037         	goto	u2151
  5752   006F60  EFB4  F037         	goto	u2150
  5753   006F64                     u2151:
  5754   006F64  EFC5  F037         	goto	l858
  5755   006F68                     u2150:
  5756   006F68                     l2431:
  5757   006F68  0E00               	movlw	0
  5758   006F6A  6E28               	movwf	___fladd@b^0,c
  5759   006F6C  0E00               	movlw	0
  5760   006F6E  6E29               	movwf	(___fladd@b+1)^0,c
  5761   006F70  0E00               	movlw	0
  5762   006F72  6E2A               	movwf	(___fladd@b+2)^0,c
  5763   006F74  0E00               	movlw	0
  5764   006F76  6E2B               	movwf	(___fladd@b+3)^0,c
  5765   006F78  5036               	movf	___fladd@bexp^0,w,c
  5766   006F7A  A4D8               	btfss	status,2,c
  5767   006F7C  EFC2  F037         	goto	u2161
  5768   006F80  EFC4  F037         	goto	u2160
  5769   006F84                     u2161:
  5770   006F84  EFC5  F037         	goto	l858
  5771   006F88                     u2160:
  5772   006F88  6A34               	clrf	___fladd@signs^0,c
  5773   006F8A                     l858:
  5774   006F8A  A036               	btfss	___fladd@bexp^0,0,c
  5775   006F8C  EFCA  F037         	goto	u2171
  5776   006F90  EFCC  F037         	goto	u2170
  5777   006F94                     u2171:
  5778   006F94  EFCF  F037         	goto	l2437
  5779   006F98                     u2170:
  5780   006F98  8E2A               	bsf	(___fladd@b+2)^0,7,c
  5781   006F9A  EFD0  F037         	goto	l2439
  5782   006F9E                     l2437:
  5783   006F9E  9E2A               	bcf	(___fladd@b+2)^0,7,c
  5784   006FA0                     l2439:
  5785   006FA0  90D8               	bcf	status,0,c
  5786   006FA2  3036               	rrcf	___fladd@bexp^0,w,c
  5787   006FA4  6E2B               	movwf	(___fladd@b+3)^0,c
  5788   006FA6  AE34               	btfss	___fladd@signs^0,7,c
  5789   006FA8  EFD8  F037         	goto	u2181
  5790   006FAC  EFDA  F037         	goto	u2180
  5791   006FB0                     u2181:
  5792   006FB0  EFDB  F037         	goto	l2445
  5793   006FB4                     u2180:
  5794   006FB4  8E2B               	bsf	(___fladd@b+3)^0,7,c
  5795   006FB6                     l2445:
  5796   006FB6  C028  F028         	movff	___fladd@b,?___fladd
  5797   006FBA  C029  F029         	movff	___fladd@b+1,?___fladd+1
  5798   006FBE  C02A  F02A         	movff	___fladd@b+2,?___fladd+2
  5799   006FC2  C02B  F02B         	movff	___fladd@b+3,?___fladd+3
  5800   006FC6                     l834:
  5801   006FC6  0012               	return		;funcret
  5802   006FC8                     __end_of___fladd:
  5803                           	callstack 0
  5804                           
  5805 ;; *************** function ___flneg *****************
  5806 ;; Defined at:
  5807 ;;		line 15 in file "C:\Program Files\Microchip\xc8\v2.50\pic\sources\c99\common\flneg.c"
  5808 ;; Parameters:    Size  Location     Type
  5809 ;;  f1              4    0[COMRAM] unsigned char 
  5810 ;; Auto vars:     Size  Location     Type
  5811 ;;		None
  5812 ;; Return value:  Size  Location     Type
  5813 ;;                  4    0[COMRAM] unsigned char 
  5814 ;; Registers used:
  5815 ;;		wreg, status,2, status,0
  5816 ;; Tracked objects:
  5817 ;;		On entry : 0/0
  5818 ;;		On exit  : 0/0
  5819 ;;		Unchanged: 0/0
  5820 ;; Data sizes:     COMRAM   BANK0   BANK1   BANK2   BANK3   BANK4   BANK5
  5821 ;;      Params:         4       0       0       0       0       0       0
  5822 ;;      Locals:         0       0       0       0       0       0       0
  5823 ;;      Temps:          0       0       0       0       0       0       0
  5824 ;;      Totals:         4       0       0       0       0       0       0
  5825 ;;Total ram usage:        4 bytes
  5826 ;; Hardware stack levels used: 1
  5827 ;; This function calls:
  5828 ;;		Nothing
  5829 ;; This function is called by:
  5830 ;;		_atan2f
  5831 ;;		_atanf
  5832 ;; This function uses a non-reentrant model
  5833 ;;
  5834                           
  5835                           	psect	text17
  5836   005518                     __ptext17:
  5837                           	callstack 0
  5838   005518                     ___flneg:
  5839                           	callstack 24
  5840   005518  5001               	movf	___flneg@f1^0,w,c
  5841   00551A  1002               	iorwf	(___flneg@f1+1)^0,w,c
  5842   00551C  1003               	iorwf	(___flneg@f1+2)^0,w,c
  5843   00551E  1004               	iorwf	(___flneg@f1+3)^0,w,c
  5844   005520  B4D8               	btfsc	status,2,c
  5845   005522  EF95  F02A         	goto	u2611
  5846   005526  EF97  F02A         	goto	u2610
  5847   00552A                     u2611:
  5848   00552A  EF9F  F02A         	goto	l2723
  5849   00552E                     u2610:
  5850   00552E  0E00               	movlw	0
  5851   005530  1A01               	xorwf	___flneg@f1^0,f,c
  5852   005532  0E00               	movlw	0
  5853   005534  1A02               	xorwf	(___flneg@f1+1)^0,f,c
  5854   005536  0E00               	movlw	0
  5855   005538  1A03               	xorwf	(___flneg@f1+2)^0,f,c
  5856   00553A  0E80               	movlw	128
  5857   00553C  1A04               	xorwf	(___flneg@f1+3)^0,f,c
  5858   00553E                     l2723:
  5859   00553E  C001  F001         	movff	___flneg@f1,?___flneg
  5860   005542  C002  F002         	movff	___flneg@f1+1,?___flneg+1
  5861   005546  C003  F003         	movff	___flneg@f1+2,?___flneg+2
  5862   00554A  C004  F004         	movff	___flneg@f1+3,?___flneg+3
  5863   00554E  0012               	return		;funcret
  5864   005550                     __end_of___flneg:
  5865                           	callstack 0
  5866                           
  5867 ;; *************** function ___flmul *****************
  5868 ;; Defined at:
  5869 ;;		line 8 in file "C:\Program Files\Microchip\xc8\v2.50\pic\sources\c99\common\sprcmul.c"
  5870 ;; Parameters:    Size  Location     Type
  5871 ;;  b               4   14[COMRAM] unsigned char 
  5872 ;;  a               4   18[COMRAM] unsigned char 
  5873 ;; Auto vars:     Size  Location     Type
  5874 ;;  prod            4   33[COMRAM] struct .
  5875 ;;  grs             4   27[COMRAM] unsigned long 
  5876 ;;  temp            2   37[COMRAM] struct .
  5877 ;;  bexp            1   32[COMRAM] unsigned char 
  5878 ;;  aexp            1   31[COMRAM] unsigned char 
  5879 ;;  sign            1   26[COMRAM] unsigned char 
  5880 ;; Return value:  Size  Location     Type
  5881 ;;                  4   14[COMRAM] unsigned char 
  5882 ;; Registers used:
  5883 ;;		wreg, status,2, status,0, prodl, prodh
  5884 ;; Tracked objects:
  5885 ;;		On entry : 0/0
  5886 ;;		On exit  : 0/0
  5887 ;;		Unchanged: 0/0
  5888 ;; Data sizes:     COMRAM   BANK0   BANK1   BANK2   BANK3   BANK4   BANK5
  5889 ;;      Params:         8       0       0       0       0       0       0
  5890 ;;      Locals:        13       0       0       0       0       0       0
  5891 ;;      Temps:          4       0       0       0       0       0       0
  5892 ;;      Totals:        25       0       0       0       0       0       0
  5893 ;;Total ram usage:       25 bytes
  5894 ;; Hardware stack levels used: 1
  5895 ;; This function calls:
  5896 ;;		Nothing
  5897 ;; This function is called by:
  5898 ;;		_calculate_angle
  5899 ;;		_atanf
  5900 ;; This function uses a non-reentrant model
  5901 ;;
  5902                           
  5903                           	psect	text18
  5904   0066EC                     __ptext18:
  5905                           	callstack 0
  5906   0066EC                     ___flmul:
  5907                           	callstack 24
  5908   0066EC  5012               	movf	(___flmul@b+3)^0,w,c
  5909   0066EE  0B80               	andlw	128
  5910   0066F0  6E1B               	movwf	___flmul@sign^0,c
  5911   0066F2  5012               	movf	(___flmul@b+3)^0,w,c
  5912   0066F4  2412               	addwf	(___flmul@b+3)^0,w,c
  5913   0066F6  6E21               	movwf	___flmul@bexp^0,c
  5914   0066F8  AE11               	btfss	(___flmul@b+2)^0,7,c
  5915   0066FA  EF81  F033         	goto	u2421
  5916   0066FE  EF83  F033         	goto	u2420
  5917   006702                     u2421:
  5918   006702  EF84  F033         	goto	l2591
  5919   006706                     u2420:
  5920   006706  8021               	bsf	___flmul@bexp^0,0,c
  5921   006708                     l2591:
  5922   006708  5021               	movf	___flmul@bexp^0,w,c
  5923   00670A  B4D8               	btfsc	status,2,c
  5924   00670C  EF8A  F033         	goto	u2431
  5925   006710  EF8C  F033         	goto	u2430
  5926   006714                     u2431:
  5927   006714  EF9F  F033         	goto	l2599
  5928   006718                     u2430:
  5929   006718  2821               	incf	___flmul@bexp^0,w,c
  5930   00671A  A4D8               	btfss	status,2,c
  5931   00671C  EF92  F033         	goto	u2441
  5932   006720  EF94  F033         	goto	u2440
  5933   006724                     u2441:
  5934   006724  EF9C  F033         	goto	l2597
  5935   006728                     u2440:
  5936   006728  0E00               	movlw	0
  5937   00672A  6E0F               	movwf	___flmul@b^0,c
  5938   00672C  0E00               	movlw	0
  5939   00672E  6E10               	movwf	(___flmul@b+1)^0,c
  5940   006730  0E00               	movlw	0
  5941   006732  6E11               	movwf	(___flmul@b+2)^0,c
  5942   006734  0E00               	movlw	0
  5943   006736  6E12               	movwf	(___flmul@b+3)^0,c
  5944   006738                     l2597:
  5945   006738  8E11               	bsf	(___flmul@b+2)^0,7,c
  5946   00673A  EFA7  F033         	goto	l2601
  5947   00673E                     l2599:
  5948   00673E  0E00               	movlw	0
  5949   006740  6E0F               	movwf	___flmul@b^0,c
  5950   006742  0E00               	movlw	0
  5951   006744  6E10               	movwf	(___flmul@b+1)^0,c
  5952   006746  0E00               	movlw	0
  5953   006748  6E11               	movwf	(___flmul@b+2)^0,c
  5954   00674A  0E00               	movlw	0
  5955   00674C  6E12               	movwf	(___flmul@b+3)^0,c
  5956   00674E                     l2601:
  5957   00674E  5016               	movf	(___flmul@a+3)^0,w,c
  5958   006750  0B80               	andlw	128
  5959   006752  1A1B               	xorwf	___flmul@sign^0,f,c
  5960   006754  5016               	movf	(___flmul@a+3)^0,w,c
  5961   006756  2416               	addwf	(___flmul@a+3)^0,w,c
  5962   006758  6E20               	movwf	___flmul@aexp^0,c
  5963   00675A  AE15               	btfss	(___flmul@a+2)^0,7,c
  5964   00675C  EFB2  F033         	goto	u2451
  5965   006760  EFB4  F033         	goto	u2450
  5966   006764                     u2451:
  5967   006764  EFB5  F033         	goto	l2609
  5968   006768                     u2450:
  5969   006768  8020               	bsf	___flmul@aexp^0,0,c
  5970   00676A                     l2609:
  5971   00676A  5020               	movf	___flmul@aexp^0,w,c
  5972   00676C  B4D8               	btfsc	status,2,c
  5973   00676E  EFBB  F033         	goto	u2461
  5974   006772  EFBD  F033         	goto	u2460
  5975   006776                     u2461:
  5976   006776  EFD0  F033         	goto	l2617
  5977   00677A                     u2460:
  5978   00677A  2820               	incf	___flmul@aexp^0,w,c
  5979   00677C  A4D8               	btfss	status,2,c
  5980   00677E  EFC3  F033         	goto	u2471
  5981   006782  EFC5  F033         	goto	u2470
  5982   006786                     u2471:
  5983   006786  EFCD  F033         	goto	l2615
  5984   00678A                     u2470:
  5985   00678A  0E00               	movlw	0
  5986   00678C  6E13               	movwf	___flmul@a^0,c
  5987   00678E  0E00               	movlw	0
  5988   006790  6E14               	movwf	(___flmul@a+1)^0,c
  5989   006792  0E00               	movlw	0
  5990   006794  6E15               	movwf	(___flmul@a+2)^0,c
  5991   006796  0E00               	movlw	0
  5992   006798  6E16               	movwf	(___flmul@a+3)^0,c
  5993   00679A                     l2615:
  5994   00679A  8E15               	bsf	(___flmul@a+2)^0,7,c
  5995   00679C  EFD8  F033         	goto	l911
  5996   0067A0                     l2617:
  5997   0067A0  0E00               	movlw	0
  5998   0067A2  6E13               	movwf	___flmul@a^0,c
  5999   0067A4  0E00               	movlw	0
  6000   0067A6  6E14               	movwf	(___flmul@a+1)^0,c
  6001   0067A8  0E00               	movlw	0
  6002   0067AA  6E15               	movwf	(___flmul@a+2)^0,c
  6003   0067AC  0E00               	movlw	0
  6004   0067AE  6E16               	movwf	(___flmul@a+3)^0,c
  6005   0067B0                     l911:
  6006   0067B0  5020               	movf	___flmul@aexp^0,w,c
  6007   0067B2  B4D8               	btfsc	status,2,c
  6008   0067B4  EFDE  F033         	goto	u2481
  6009   0067B8  EFE0  F033         	goto	u2480
  6010   0067BC                     u2481:
  6011   0067BC  EFE8  F033         	goto	l2621
  6012   0067C0                     u2480:
  6013   0067C0  5021               	movf	___flmul@bexp^0,w,c
  6014   0067C2  A4D8               	btfss	status,2,c
  6015   0067C4  EFE6  F033         	goto	u2491
  6016   0067C8  EFE8  F033         	goto	u2490
  6017   0067CC                     u2491:
  6018   0067CC  EFF2  F033         	goto	l2625
  6019   0067D0                     u2490:
  6020   0067D0                     l2621:
  6021   0067D0  0E00               	movlw	0
  6022   0067D2  6E0F               	movwf	?___flmul^0,c
  6023   0067D4  0E00               	movlw	0
  6024   0067D6  6E10               	movwf	(?___flmul+1)^0,c
  6025   0067D8  0E00               	movlw	0
  6026   0067DA  6E11               	movwf	(?___flmul+2)^0,c
  6027   0067DC  0E00               	movlw	0
  6028   0067DE  6E12               	movwf	(?___flmul+3)^0,c
  6029   0067E0  EF88  F035         	goto	l915
  6030   0067E4                     l2625:
  6031   0067E4  5015               	movf	(___flmul@a+2)^0,w,c
  6032   0067E6  020F               	mulwf	___flmul@b^0,c
  6033   0067E8  CFF3 F026          	movff	prodl,___flmul@temp
  6034   0067EC  CFF4 F027          	movff	prodh,___flmul@temp+1
  6035   0067F0  5026               	movf	___flmul@temp^0,w,c
  6036   0067F2  6E1C               	movwf	___flmul@grs^0,c
  6037   0067F4  6A1D               	clrf	(___flmul@grs+1)^0,c
  6038   0067F6  6A1E               	clrf	(___flmul@grs+2)^0,c
  6039   0067F8  6A1F               	clrf	(___flmul@grs+3)^0,c
  6040   0067FA  5027               	movf	(___flmul@temp+1)^0,w,c
  6041   0067FC  6E22               	movwf	___flmul@prod^0,c
  6042   0067FE  6A23               	clrf	(___flmul@prod+1)^0,c
  6043   006800  6A24               	clrf	(___flmul@prod+2)^0,c
  6044   006802  6A25               	clrf	(___flmul@prod+3)^0,c
  6045   006804  5014               	movf	(___flmul@a+1)^0,w,c
  6046   006806  0210               	mulwf	(___flmul@b+1)^0,c
  6047   006808  CFF3 F026          	movff	prodl,___flmul@temp
  6048   00680C  CFF4 F027          	movff	prodh,___flmul@temp+1
  6049   006810  5026               	movf	___flmul@temp^0,w,c
  6050   006812  261C               	addwf	___flmul@grs^0,f,c
  6051   006814  0E00               	movlw	0
  6052   006816  221D               	addwfc	(___flmul@grs+1)^0,f,c
  6053   006818  221E               	addwfc	(___flmul@grs+2)^0,f,c
  6054   00681A  221F               	addwfc	(___flmul@grs+3)^0,f,c
  6055   00681C  5027               	movf	(___flmul@temp+1)^0,w,c
  6056   00681E  2622               	addwf	___flmul@prod^0,f,c
  6057   006820  0E00               	movlw	0
  6058   006822  2223               	addwfc	(___flmul@prod+1)^0,f,c
  6059   006824  2224               	addwfc	(___flmul@prod+2)^0,f,c
  6060   006826  2225               	addwfc	(___flmul@prod+3)^0,f,c
  6061   006828  5013               	movf	___flmul@a^0,w,c
  6062   00682A  0211               	mulwf	(___flmul@b+2)^0,c
  6063   00682C  CFF3 F026          	movff	prodl,___flmul@temp
  6064   006830  CFF4 F027          	movff	prodh,___flmul@temp+1
  6065   006834  5026               	movf	___flmul@temp^0,w,c
  6066   006836  261C               	addwf	___flmul@grs^0,f,c
  6067   006838  0E00               	movlw	0
  6068   00683A  221D               	addwfc	(___flmul@grs+1)^0,f,c
  6069   00683C  221E               	addwfc	(___flmul@grs+2)^0,f,c
  6070   00683E  221F               	addwfc	(___flmul@grs+3)^0,f,c
  6071   006840  5027               	movf	(___flmul@temp+1)^0,w,c
  6072   006842  2622               	addwf	___flmul@prod^0,f,c
  6073   006844  0E00               	movlw	0
  6074   006846  2223               	addwfc	(___flmul@prod+1)^0,f,c
  6075   006848  2224               	addwfc	(___flmul@prod+2)^0,f,c
  6076   00684A  2225               	addwfc	(___flmul@prod+3)^0,f,c
  6077   00684C  C01E  F01F         	movff	___flmul@grs+2,___flmul@grs+3
  6078   006850  C01D  F01E         	movff	___flmul@grs+1,___flmul@grs+2
  6079   006854  C01C  F01D         	movff	___flmul@grs,___flmul@grs+1
  6080   006858  6A1C               	clrf	___flmul@grs^0,c
  6081   00685A  5013               	movf	___flmul@a^0,w,c
  6082   00685C  0210               	mulwf	(___flmul@b+1)^0,c
  6083   00685E  CFF3 F026          	movff	prodl,___flmul@temp
  6084   006862  CFF4 F027          	movff	prodh,___flmul@temp+1
  6085   006866  5026               	movf	___flmul@temp^0,w,c
  6086   006868  261C               	addwf	___flmul@grs^0,f,c
  6087   00686A  5027               	movf	(___flmul@temp+1)^0,w,c
  6088   00686C  221D               	addwfc	(___flmul@grs+1)^0,f,c
  6089   00686E  0E00               	movlw	0
  6090   006870  221E               	addwfc	(___flmul@grs+2)^0,f,c
  6091   006872  0E00               	movlw	0
  6092   006874  221F               	addwfc	(___flmul@grs+3)^0,f,c
  6093   006876  5014               	movf	(___flmul@a+1)^0,w,c
  6094   006878  020F               	mulwf	___flmul@b^0,c
  6095   00687A  CFF3 F026          	movff	prodl,___flmul@temp
  6096   00687E  CFF4 F027          	movff	prodh,___flmul@temp+1
  6097   006882  5026               	movf	___flmul@temp^0,w,c
  6098   006884  261C               	addwf	___flmul@grs^0,f,c
  6099   006886  5027               	movf	(___flmul@temp+1)^0,w,c
  6100   006888  221D               	addwfc	(___flmul@grs+1)^0,f,c
  6101   00688A  0E00               	movlw	0
  6102   00688C  221E               	addwfc	(___flmul@grs+2)^0,f,c
  6103   00688E  0E00               	movlw	0
  6104   006890  221F               	addwfc	(___flmul@grs+3)^0,f,c
  6105   006892  C01E  F01F         	movff	___flmul@grs+2,___flmul@grs+3
  6106   006896  C01D  F01E         	movff	___flmul@grs+1,___flmul@grs+2
  6107   00689A  C01C  F01D         	movff	___flmul@grs,___flmul@grs+1
  6108   00689E  6A1C               	clrf	___flmul@grs^0,c
  6109   0068A0  5013               	movf	___flmul@a^0,w,c
  6110   0068A2  020F               	mulwf	___flmul@b^0,c
  6111   0068A4  CFF3 F026          	movff	prodl,___flmul@temp
  6112   0068A8  CFF4 F027          	movff	prodh,___flmul@temp+1
  6113   0068AC  5026               	movf	___flmul@temp^0,w,c
  6114   0068AE  261C               	addwf	___flmul@grs^0,f,c
  6115   0068B0  5027               	movf	(___flmul@temp+1)^0,w,c
  6116   0068B2  221D               	addwfc	(___flmul@grs+1)^0,f,c
  6117   0068B4  0E00               	movlw	0
  6118   0068B6  221E               	addwfc	(___flmul@grs+2)^0,f,c
  6119   0068B8  0E00               	movlw	0
  6120   0068BA  221F               	addwfc	(___flmul@grs+3)^0,f,c
  6121   0068BC  5015               	movf	(___flmul@a+2)^0,w,c
  6122   0068BE  0210               	mulwf	(___flmul@b+1)^0,c
  6123   0068C0  CFF3 F026          	movff	prodl,___flmul@temp
  6124   0068C4  CFF4 F027          	movff	prodh,___flmul@temp+1
  6125   0068C8  5026               	movf	___flmul@temp^0,w,c
  6126   0068CA  2622               	addwf	___flmul@prod^0,f,c
  6127   0068CC  5027               	movf	(___flmul@temp+1)^0,w,c
  6128   0068CE  2223               	addwfc	(___flmul@prod+1)^0,f,c
  6129   0068D0  0E00               	movlw	0
  6130   0068D2  2224               	addwfc	(___flmul@prod+2)^0,f,c
  6131   0068D4  0E00               	movlw	0
  6132   0068D6  2225               	addwfc	(___flmul@prod+3)^0,f,c
  6133   0068D8  5014               	movf	(___flmul@a+1)^0,w,c
  6134   0068DA  0211               	mulwf	(___flmul@b+2)^0,c
  6135   0068DC  CFF3 F026          	movff	prodl,___flmul@temp
  6136   0068E0  CFF4 F027          	movff	prodh,___flmul@temp+1
  6137   0068E4  5026               	movf	___flmul@temp^0,w,c
  6138   0068E6  2622               	addwf	___flmul@prod^0,f,c
  6139   0068E8  5027               	movf	(___flmul@temp+1)^0,w,c
  6140   0068EA  2223               	addwfc	(___flmul@prod+1)^0,f,c
  6141   0068EC  0E00               	movlw	0
  6142   0068EE  2224               	addwfc	(___flmul@prod+2)^0,f,c
  6143   0068F0  0E00               	movlw	0
  6144   0068F2  2225               	addwfc	(___flmul@prod+3)^0,f,c
  6145   0068F4  5015               	movf	(___flmul@a+2)^0,w,c
  6146   0068F6  0211               	mulwf	(___flmul@b+2)^0,c
  6147   0068F8  CFF3 F026          	movff	prodl,___flmul@temp
  6148   0068FC  CFF4 F027          	movff	prodh,___flmul@temp+1
  6149   006900  5026               	movf	___flmul@temp^0,w,c
  6150   006902  6E17               	movwf	??___flmul^0,c
  6151   006904  5027               	movf	(___flmul@temp+1)^0,w,c
  6152   006906  6E18               	movwf	(??___flmul+1)^0,c
  6153   006908  6A19               	clrf	(??___flmul+2)^0,c
  6154   00690A  6A1A               	clrf	(??___flmul+3)^0,c
  6155   00690C  C019  F01A         	movff	??___flmul+2,??___flmul+3
  6156   006910  C018  F019         	movff	??___flmul+1,??___flmul+2
  6157   006914  C017  F018         	movff	??___flmul,??___flmul+1
  6158   006918  6A17               	clrf	??___flmul^0,c
  6159   00691A  5017               	movf	??___flmul^0,w,c
  6160   00691C  2622               	addwf	___flmul@prod^0,f,c
  6161   00691E  5018               	movf	(??___flmul+1)^0,w,c
  6162   006920  2223               	addwfc	(___flmul@prod+1)^0,f,c
  6163   006922  5019               	movf	(??___flmul+2)^0,w,c
  6164   006924  2224               	addwfc	(___flmul@prod+2)^0,f,c
  6165   006926  501A               	movf	(??___flmul+3)^0,w,c
  6166   006928  2225               	addwfc	(___flmul@prod+3)^0,f,c
  6167   00692A  C01C  F017         	movff	___flmul@grs,??___flmul
  6168   00692E  C01D  F018         	movff	___flmul@grs+1,??___flmul+1
  6169   006932  C01E  F019         	movff	___flmul@grs+2,??___flmul+2
  6170   006936  C01F  F01A         	movff	___flmul@grs+3,??___flmul+3
  6171   00693A  0E19               	movlw	25
  6172   00693C  EFA5  F034         	goto	u2500
  6173   006940                     u2505:
  6174   006940  90D8               	bcf	status,0,c
  6175   006942  321A               	rrcf	(??___flmul+3)^0,f,c
  6176   006944  3219               	rrcf	(??___flmul+2)^0,f,c
  6177   006946  3218               	rrcf	(??___flmul+1)^0,f,c
  6178   006948  3217               	rrcf	??___flmul^0,f,c
  6179   00694A                     u2500:
  6180   00694A  2EE8               	decfsz	wreg,f,c
  6181   00694C  EFA0  F034         	goto	u2505
  6182   006950  5017               	movf	??___flmul^0,w,c
  6183   006952  2622               	addwf	___flmul@prod^0,f,c
  6184   006954  5018               	movf	(??___flmul+1)^0,w,c
  6185   006956  2223               	addwfc	(___flmul@prod+1)^0,f,c
  6186   006958  5019               	movf	(??___flmul+2)^0,w,c
  6187   00695A  2224               	addwfc	(___flmul@prod+2)^0,f,c
  6188   00695C  501A               	movf	(??___flmul+3)^0,w,c
  6189   00695E  2225               	addwfc	(___flmul@prod+3)^0,f,c
  6190   006960  C01E  F01F         	movff	___flmul@grs+2,___flmul@grs+3
  6191   006964  C01D  F01E         	movff	___flmul@grs+1,___flmul@grs+2
  6192   006968  C01C  F01D         	movff	___flmul@grs,___flmul@grs+1
  6193   00696C  6A1C               	clrf	___flmul@grs^0,c
  6194   00696E  5020               	movf	___flmul@aexp^0,w,c
  6195   006970  C021  F017         	movff	___flmul@bexp,??___flmul
  6196   006974  6A18               	clrf	(??___flmul+1)^0,c
  6197   006976  2617               	addwf	??___flmul^0,f,c
  6198   006978  0E00               	movlw	0
  6199   00697A  2218               	addwfc	(??___flmul+1)^0,f,c
  6200   00697C  0E82               	movlw	130
  6201   00697E  2417               	addwf	??___flmul^0,w,c
  6202   006980  6E26               	movwf	___flmul@temp^0,c
  6203   006982  0EFF               	movlw	255
  6204   006984  2018               	addwfc	(??___flmul+1)^0,w,c
  6205   006986  6E27               	movwf	(___flmul@temp+1)^0,c
  6206   006988  EFDB  F034         	goto	l2673
  6207   00698C                     l2667:
  6208   00698C  90D8               	bcf	status,0,c
  6209   00698E  3622               	rlcf	___flmul@prod^0,f,c
  6210   006990  3623               	rlcf	(___flmul@prod+1)^0,f,c
  6211   006992  3624               	rlcf	(___flmul@prod+2)^0,f,c
  6212   006994  3625               	rlcf	(___flmul@prod+3)^0,f,c
  6213   006996  AE1F               	btfss	(___flmul@grs+3)^0,7,c
  6214   006998  EFD0  F034         	goto	u2511
  6215   00699C  EFD2  F034         	goto	u2510
  6216   0069A0                     u2511:
  6217   0069A0  EFD3  F034         	goto	l918
  6218   0069A4                     u2510:
  6219   0069A4  8022               	bsf	___flmul@prod^0,0,c
  6220   0069A6                     l918:
  6221   0069A6  90D8               	bcf	status,0,c
  6222   0069A8  361C               	rlcf	___flmul@grs^0,f,c
  6223   0069AA  361D               	rlcf	(___flmul@grs+1)^0,f,c
  6224   0069AC  361E               	rlcf	(___flmul@grs+2)^0,f,c
  6225   0069AE  361F               	rlcf	(___flmul@grs+3)^0,f,c
  6226   0069B0  0626               	decf	___flmul@temp^0,f,c
  6227   0069B2  A0D8               	btfss	status,0,c
  6228   0069B4  0627               	decf	(___flmul@temp+1)^0,f,c
  6229   0069B6                     l2673:
  6230   0069B6  AE24               	btfss	(___flmul@prod+2)^0,7,c
  6231   0069B8  EFE0  F034         	goto	u2521
  6232   0069BC  EFE2  F034         	goto	u2520
  6233   0069C0                     u2521:
  6234   0069C0  EFC6  F034         	goto	l2667
  6235   0069C4                     u2520:
  6236   0069C4  6A20               	clrf	___flmul@aexp^0,c
  6237   0069C6  AE1F               	btfss	(___flmul@grs+3)^0,7,c
  6238   0069C8  EFE8  F034         	goto	u2531
  6239   0069CC  EFEA  F034         	goto	u2530
  6240   0069D0                     u2531:
  6241   0069D0  EF0E  F035         	goto	l920
  6242   0069D4                     u2530:
  6243   0069D4  0EFF               	movlw	255
  6244   0069D6  141C               	andwf	___flmul@grs^0,w,c
  6245   0069D8  6E17               	movwf	??___flmul^0,c
  6246   0069DA  0EFF               	movlw	255
  6247   0069DC  141D               	andwf	(___flmul@grs+1)^0,w,c
  6248   0069DE  6E18               	movwf	(??___flmul+1)^0,c
  6249   0069E0  0EFF               	movlw	255
  6250   0069E2  141E               	andwf	(___flmul@grs+2)^0,w,c
  6251   0069E4  6E19               	movwf	(??___flmul+2)^0,c
  6252   0069E6  0E7F               	movlw	127
  6253   0069E8  141F               	andwf	(___flmul@grs+3)^0,w,c
  6254   0069EA  6E1A               	movwf	(??___flmul+3)^0,c
  6255   0069EC  5017               	movf	??___flmul^0,w,c
  6256   0069EE  1018               	iorwf	(??___flmul+1)^0,w,c
  6257   0069F0  1019               	iorwf	(??___flmul+2)^0,w,c
  6258   0069F2  101A               	iorwf	(??___flmul+3)^0,w,c
  6259   0069F4  B4D8               	btfsc	status,2,c
  6260   0069F6  EFFF  F034         	goto	u2541
  6261   0069FA  EF01  F035         	goto	u2540
  6262   0069FE                     u2541:
  6263   0069FE  EF05  F035         	goto	l921
  6264   006A02                     u2540:
  6265   006A02                     l2677:
  6266   006A02  0E01               	movlw	1
  6267   006A04  6E20               	movwf	___flmul@aexp^0,c
  6268   006A06  EF0E  F035         	goto	l920
  6269   006A0A                     l921:
  6270   006A0A  A022               	btfss	___flmul@prod^0,0,c
  6271   006A0C  EF0A  F035         	goto	u2551
  6272   006A10  EF0C  F035         	goto	u2550
  6273   006A14                     u2551:
  6274   006A14  EF0E  F035         	goto	l920
  6275   006A18                     u2550:
  6276   006A18  EF01  F035         	goto	l2677
  6277   006A1C                     l920:
  6278   006A1C  5020               	movf	___flmul@aexp^0,w,c
  6279   006A1E  B4D8               	btfsc	status,2,c
  6280   006A20  EF14  F035         	goto	u2561
  6281   006A24  EF16  F035         	goto	u2560
  6282   006A28                     u2561:
  6283   006A28  EF3A  F035         	goto	l2689
  6284   006A2C                     u2560:
  6285   006A2C  0E01               	movlw	1
  6286   006A2E  2622               	addwf	___flmul@prod^0,f,c
  6287   006A30  0E00               	movlw	0
  6288   006A32  2223               	addwfc	(___flmul@prod+1)^0,f,c
  6289   006A34  2224               	addwfc	(___flmul@prod+2)^0,f,c
  6290   006A36  2225               	addwfc	(___flmul@prod+3)^0,f,c
  6291   006A38  A025               	btfss	(___flmul@prod+3)^0,0,c
  6292   006A3A  EF21  F035         	goto	u2571
  6293   006A3E  EF23  F035         	goto	u2570
  6294   006A42                     u2571:
  6295   006A42  EF3A  F035         	goto	l2689
  6296   006A46                     u2570:
  6297   006A46  C022  F017         	movff	___flmul@prod,??___flmul
  6298   006A4A  C023  F018         	movff	___flmul@prod+1,??___flmul+1
  6299   006A4E  C024  F019         	movff	___flmul@prod+2,??___flmul+2
  6300   006A52  C025  F01A         	movff	___flmul@prod+3,??___flmul+3
  6301   006A56  341A               	rlcf	(??___flmul+3)^0,w,c
  6302   006A58  321A               	rrcf	(??___flmul+3)^0,f,c
  6303   006A5A  3219               	rrcf	(??___flmul+2)^0,f,c
  6304   006A5C  3218               	rrcf	(??___flmul+1)^0,f,c
  6305   006A5E  3217               	rrcf	??___flmul^0,f,c
  6306   006A60  C017  F022         	movff	??___flmul,___flmul@prod
  6307   006A64  C018  F023         	movff	??___flmul+1,___flmul@prod+1
  6308   006A68  C019  F024         	movff	??___flmul+2,___flmul@prod+2
  6309   006A6C  C01A  F025         	movff	??___flmul+3,___flmul@prod+3
  6310   006A70  4A26               	infsnz	___flmul@temp^0,f,c
  6311   006A72  2A27               	incf	(___flmul@temp+1)^0,f,c
  6312   006A74                     l2689:
  6313   006A74  BE27               	btfsc	(___flmul@temp+1)^0,7,c
  6314   006A76  EF45  F035         	goto	u2581
  6315   006A7A  5027               	movf	(___flmul@temp+1)^0,w,c
  6316   006A7C  E108               	bnz	u2580
  6317   006A7E  2826               	incf	___flmul@temp^0,w,c
  6318   006A80  A0D8               	btfss	status,0,c
  6319   006A82  EF45  F035         	goto	u2581
  6320   006A86  EF47  F035         	goto	u2580
  6321   006A8A                     u2581:
  6322   006A8A  EF51  F035         	goto	l2693
  6323   006A8E                     u2580:
  6324   006A8E  0E00               	movlw	0
  6325   006A90  6E22               	movwf	___flmul@prod^0,c
  6326   006A92  0E00               	movlw	0
  6327   006A94  6E23               	movwf	(___flmul@prod+1)^0,c
  6328   006A96  0E80               	movlw	128
  6329   006A98  6E24               	movwf	(___flmul@prod+2)^0,c
  6330   006A9A  0E7F               	movlw	127
  6331   006A9C  6E25               	movwf	(___flmul@prod+3)^0,c
  6332   006A9E  EF7E  F035         	goto	l2707
  6333   006AA2                     l2693:
  6334   006AA2  BE27               	btfsc	(___flmul@temp+1)^0,7,c
  6335   006AA4  EF5E  F035         	goto	u2590
  6336   006AA8  5027               	movf	(___flmul@temp+1)^0,w,c
  6337   006AAA  E106               	bnz	u2591
  6338   006AAC  0426               	decf	___flmul@temp^0,w,c
  6339   006AAE  B0D8               	btfsc	status,0,c
  6340   006AB0  EF5C  F035         	goto	u2591
  6341   006AB4  EF5E  F035         	goto	u2590
  6342   006AB8                     u2591:
  6343   006AB8  EF69  F035         	goto	l928
  6344   006ABC                     u2590:
  6345   006ABC  0E00               	movlw	0
  6346   006ABE  6E22               	movwf	___flmul@prod^0,c
  6347   006AC0  0E00               	movlw	0
  6348   006AC2  6E23               	movwf	(___flmul@prod+1)^0,c
  6349   006AC4  0E00               	movlw	0
  6350   006AC6  6E24               	movwf	(___flmul@prod+2)^0,c
  6351   006AC8  0E00               	movlw	0
  6352   006ACA  6E25               	movwf	(___flmul@prod+3)^0,c
  6353   006ACC  6A1B               	clrf	___flmul@sign^0,c
  6354   006ACE  EF7E  F035         	goto	l2707
  6355   006AD2                     l928:
  6356   006AD2  C026  F021         	movff	___flmul@temp,___flmul@bexp
  6357   006AD6  0EFF               	movlw	255
  6358   006AD8  1622               	andwf	___flmul@prod^0,f,c
  6359   006ADA  0EFF               	movlw	255
  6360   006ADC  1623               	andwf	(___flmul@prod+1)^0,f,c
  6361   006ADE  0E7F               	movlw	127
  6362   006AE0  1624               	andwf	(___flmul@prod+2)^0,f,c
  6363   006AE2  0E00               	movlw	0
  6364   006AE4  1625               	andwf	(___flmul@prod+3)^0,f,c
  6365   006AE6  A021               	btfss	___flmul@bexp^0,0,c
  6366   006AE8  EF78  F035         	goto	u2601
  6367   006AEC  EF7A  F035         	goto	u2600
  6368   006AF0                     u2601:
  6369   006AF0  EF7B  F035         	goto	l2705
  6370   006AF4                     u2600:
  6371   006AF4  8E24               	bsf	(___flmul@prod+2)^0,7,c
  6372   006AF6                     l2705:
  6373   006AF6  90D8               	bcf	status,0,c
  6374   006AF8  3021               	rrcf	___flmul@bexp^0,w,c
  6375   006AFA  6E25               	movwf	(___flmul@prod+3)^0,c
  6376   006AFC                     l2707:
  6377   006AFC  501B               	movf	___flmul@sign^0,w,c
  6378   006AFE  1225               	iorwf	(___flmul@prod+3)^0,f,c
  6379   006B00  C022  F00F         	movff	___flmul@prod,?___flmul
  6380   006B04  C023  F010         	movff	___flmul@prod+1,?___flmul+1
  6381   006B08  C024  F011         	movff	___flmul@prod+2,?___flmul+2
  6382   006B0C  C025  F012         	movff	___flmul@prod+3,?___flmul+3
  6383   006B10                     l915:
  6384   006B10  0012               	return		;funcret
  6385   006B12                     __end_of___flmul:
  6386                           	callstack 0
  6387                           
  6388 ;; *************** function ___fldiv *****************
  6389 ;; Defined at:
  6390 ;;		line 11 in file "C:\Program Files\Microchip\xc8\v2.50\pic\sources\c99\common\sprcdiv.c"
  6391 ;; Parameters:    Size  Location     Type
  6392 ;;  b               4   92[COMRAM] unsigned char 
  6393 ;;  a               4   96[COMRAM] unsigned char 
  6394 ;; Auto vars:     Size  Location     Type
  6395 ;;  grs             4  111[COMRAM] unsigned long 
  6396 ;;  rem             4  104[COMRAM] unsigned long 
  6397 ;;  new_exp         2  109[COMRAM] short 
  6398 ;;  aexp            1  116[COMRAM] unsigned char 
  6399 ;;  bexp            1  115[COMRAM] unsigned char 
  6400 ;;  sign            1  108[COMRAM] unsigned char 
  6401 ;; Return value:  Size  Location     Type
  6402 ;;                  4   92[COMRAM] unsigned char 
  6403 ;; Registers used:
  6404 ;;		wreg, status,2, status,0
  6405 ;; Tracked objects:
  6406 ;;		On entry : 0/0
  6407 ;;		On exit  : 0/0
  6408 ;;		Unchanged: 0/0
  6409 ;; Data sizes:     COMRAM   BANK0   BANK1   BANK2   BANK3   BANK4   BANK5
  6410 ;;      Params:         8       0       0       0       0       0       0
  6411 ;;      Locals:        13       0       0       0       0       0       0
  6412 ;;      Temps:          4       0       0       0       0       0       0
  6413 ;;      Totals:        25       0       0       0       0       0       0
  6414 ;;Total ram usage:       25 bytes
  6415 ;; Hardware stack levels used: 1
  6416 ;; This function calls:
  6417 ;;		Nothing
  6418 ;; This function is called by:
  6419 ;;		_calculate_angle
  6420 ;;		_atan2f
  6421 ;;		_atanf
  6422 ;; This function uses a non-reentrant model
  6423 ;;
  6424                           
  6425                           	psect	text19
  6426   005F7E                     __ptext19:
  6427                           	callstack 0
  6428   005F7E                     ___fldiv:
  6429                           	callstack 24
  6430   005F7E  5060               	movf	(___fldiv@b+3)^0,w,c
  6431   005F80  0B80               	andlw	128
  6432   005F82  6E6D               	movwf	___fldiv@sign^0,c
  6433   005F84  5060               	movf	(___fldiv@b+3)^0,w,c
  6434   005F86  2460               	addwf	(___fldiv@b+3)^0,w,c
  6435   005F88  6E74               	movwf	___fldiv@bexp^0,c
  6436   005F8A  AE5F               	btfss	(___fldiv@b+2)^0,7,c
  6437   005F8C  EFCA  F02F         	goto	u2191
  6438   005F90  EFCC  F02F         	goto	u2190
  6439   005F94                     u2191:
  6440   005F94  EFCD  F02F         	goto	l2455
  6441   005F98                     u2190:
  6442   005F98  8074               	bsf	___fldiv@bexp^0,0,c
  6443   005F9A                     l2455:
  6444   005F9A  5074               	movf	___fldiv@bexp^0,w,c
  6445   005F9C  B4D8               	btfsc	status,2,c
  6446   005F9E  EFD3  F02F         	goto	u2201
  6447   005FA2  EFD5  F02F         	goto	u2200
  6448   005FA6                     u2201:
  6449   005FA6  EFE9  F02F         	goto	l2465
  6450   005FAA                     u2200:
  6451   005FAA  2874               	incf	___fldiv@bexp^0,w,c
  6452   005FAC  A4D8               	btfss	status,2,c
  6453   005FAE  EFDB  F02F         	goto	u2211
  6454   005FB2  EFDD  F02F         	goto	u2210
  6455   005FB6                     u2211:
  6456   005FB6  EFE5  F02F         	goto	l2461
  6457   005FBA                     u2210:
  6458   005FBA  0E00               	movlw	0
  6459   005FBC  6E5D               	movwf	___fldiv@b^0,c
  6460   005FBE  0E00               	movlw	0
  6461   005FC0  6E5E               	movwf	(___fldiv@b+1)^0,c
  6462   005FC2  0E00               	movlw	0
  6463   005FC4  6E5F               	movwf	(___fldiv@b+2)^0,c
  6464   005FC6  0E00               	movlw	0
  6465   005FC8  6E60               	movwf	(___fldiv@b+3)^0,c
  6466   005FCA                     l2461:
  6467   005FCA  8E5F               	bsf	(___fldiv@b+2)^0,7,c
  6468   005FCC  6A60               	clrf	(___fldiv@b+3)^0,c
  6469   005FCE  EFF1  F02F         	goto	l2467
  6470   005FD2                     l2465:
  6471   005FD2  0E00               	movlw	0
  6472   005FD4  6E5D               	movwf	___fldiv@b^0,c
  6473   005FD6  0E00               	movlw	0
  6474   005FD8  6E5E               	movwf	(___fldiv@b+1)^0,c
  6475   005FDA  0E00               	movlw	0
  6476   005FDC  6E5F               	movwf	(___fldiv@b+2)^0,c
  6477   005FDE  0E00               	movlw	0
  6478   005FE0  6E60               	movwf	(___fldiv@b+3)^0,c
  6479   005FE2                     l2467:
  6480   005FE2  5064               	movf	(___fldiv@a+3)^0,w,c
  6481   005FE4  0B80               	andlw	128
  6482   005FE6  1A6D               	xorwf	___fldiv@sign^0,f,c
  6483   005FE8  5064               	movf	(___fldiv@a+3)^0,w,c
  6484   005FEA  2464               	addwf	(___fldiv@a+3)^0,w,c
  6485   005FEC  6E75               	movwf	___fldiv@aexp^0,c
  6486   005FEE  AE63               	btfss	(___fldiv@a+2)^0,7,c
  6487   005FF0  EFFC  F02F         	goto	u2221
  6488   005FF4  EFFE  F02F         	goto	u2220
  6489   005FF8                     u2221:
  6490   005FF8  EFFF  F02F         	goto	l2475
  6491   005FFC                     u2220:
  6492   005FFC  8075               	bsf	___fldiv@aexp^0,0,c
  6493   005FFE                     l2475:
  6494   005FFE  5075               	movf	___fldiv@aexp^0,w,c
  6495   006000  B4D8               	btfsc	status,2,c
  6496   006002  EF05  F030         	goto	u2231
  6497   006006  EF07  F030         	goto	u2230
  6498   00600A                     u2231:
  6499   00600A  EF1B  F030         	goto	l2485
  6500   00600E                     u2230:
  6501   00600E  2875               	incf	___fldiv@aexp^0,w,c
  6502   006010  A4D8               	btfss	status,2,c
  6503   006012  EF0D  F030         	goto	u2241
  6504   006016  EF0F  F030         	goto	u2240
  6505   00601A                     u2241:
  6506   00601A  EF17  F030         	goto	l2481
  6507   00601E                     u2240:
  6508   00601E  0E00               	movlw	0
  6509   006020  6E61               	movwf	___fldiv@a^0,c
  6510   006022  0E00               	movlw	0
  6511   006024  6E62               	movwf	(___fldiv@a+1)^0,c
  6512   006026  0E00               	movlw	0
  6513   006028  6E63               	movwf	(___fldiv@a+2)^0,c
  6514   00602A  0E00               	movlw	0
  6515   00602C  6E64               	movwf	(___fldiv@a+3)^0,c
  6516   00602E                     l2481:
  6517   00602E  8E63               	bsf	(___fldiv@a+2)^0,7,c
  6518   006030  6A64               	clrf	(___fldiv@a+3)^0,c
  6519   006032  EF23  F030         	goto	l2487
  6520   006036                     l2485:
  6521   006036  0E00               	movlw	0
  6522   006038  6E61               	movwf	___fldiv@a^0,c
  6523   00603A  0E00               	movlw	0
  6524   00603C  6E62               	movwf	(___fldiv@a+1)^0,c
  6525   00603E  0E00               	movlw	0
  6526   006040  6E63               	movwf	(___fldiv@a+2)^0,c
  6527   006042  0E00               	movlw	0
  6528   006044  6E64               	movwf	(___fldiv@a+3)^0,c
  6529   006046                     l2487:
  6530   006046  5061               	movf	___fldiv@a^0,w,c
  6531   006048  1062               	iorwf	(___fldiv@a+1)^0,w,c
  6532   00604A  1063               	iorwf	(___fldiv@a+2)^0,w,c
  6533   00604C  1064               	iorwf	(___fldiv@a+3)^0,w,c
  6534   00604E  A4D8               	btfss	status,2,c
  6535   006050  EF2C  F030         	goto	u2251
  6536   006054  EF2E  F030         	goto	u2250
  6537   006058                     u2251:
  6538   006058  EF46  F030         	goto	l2499
  6539   00605C                     u2250:
  6540   00605C  0E00               	movlw	0
  6541   00605E  6E5D               	movwf	___fldiv@b^0,c
  6542   006060  0E00               	movlw	0
  6543   006062  6E5E               	movwf	(___fldiv@b+1)^0,c
  6544   006064  0E00               	movlw	0
  6545   006066  6E5F               	movwf	(___fldiv@b+2)^0,c
  6546   006068  0E00               	movlw	0
  6547   00606A  6E60               	movwf	(___fldiv@b+3)^0,c
  6548   00606C  0E80               	movlw	128
  6549   00606E  125F               	iorwf	(___fldiv@b+2)^0,f,c
  6550   006070  0E7F               	movlw	127
  6551   006072  1260               	iorwf	(___fldiv@b+3)^0,f,c
  6552   006074                     l2493:
  6553   006074  506D               	movf	___fldiv@sign^0,w,c
  6554   006076  1260               	iorwf	(___fldiv@b+3)^0,f,c
  6555   006078  C05D  F05D         	movff	___fldiv@b,?___fldiv
  6556   00607C  C05E  F05E         	movff	___fldiv@b+1,?___fldiv+1
  6557   006080  C05F  F05F         	movff	___fldiv@b+2,?___fldiv+2
  6558   006084  C060  F060         	movff	___fldiv@b+3,?___fldiv+3
  6559   006088  EF86  F031         	goto	l879
  6560   00608C                     l2499:
  6561   00608C  5074               	movf	___fldiv@bexp^0,w,c
  6562   00608E  A4D8               	btfss	status,2,c
  6563   006090  EF4C  F030         	goto	u2261
  6564   006094  EF4E  F030         	goto	u2260
  6565   006098                     u2261:
  6566   006098  EF58  F030         	goto	l2507
  6567   00609C                     u2260:
  6568   00609C  0E00               	movlw	0
  6569   00609E  6E5D               	movwf	?___fldiv^0,c
  6570   0060A0  0E00               	movlw	0
  6571   0060A2  6E5E               	movwf	(?___fldiv+1)^0,c
  6572   0060A4  0E00               	movlw	0
  6573   0060A6  6E5F               	movwf	(?___fldiv+2)^0,c
  6574   0060A8  0E00               	movlw	0
  6575   0060AA  6E60               	movwf	(?___fldiv+3)^0,c
  6576   0060AC  EF86  F031         	goto	l879
  6577   0060B0                     l2507:
  6578   0060B0  5075               	movf	___fldiv@aexp^0,w,c
  6579   0060B2  C074  F065         	movff	___fldiv@bexp,??___fldiv
  6580   0060B6  6A66               	clrf	(??___fldiv+1)^0,c
  6581   0060B8  5E65               	subwf	??___fldiv^0,f,c
  6582   0060BA  0E00               	movlw	0
  6583   0060BC  5A66               	subwfb	(??___fldiv+1)^0,f,c
  6584   0060BE  0E7F               	movlw	127
  6585   0060C0  2465               	addwf	??___fldiv^0,w,c
  6586   0060C2  6E6E               	movwf	___fldiv@new_exp^0,c
  6587   0060C4  0E00               	movlw	0
  6588   0060C6  2066               	addwfc	(??___fldiv+1)^0,w,c
  6589   0060C8  6E6F               	movwf	(___fldiv@new_exp+1)^0,c
  6590   0060CA  C05D  F069         	movff	___fldiv@b,___fldiv@rem
  6591   0060CE  C05E  F06A         	movff	___fldiv@b+1,___fldiv@rem+1
  6592   0060D2  C05F  F06B         	movff	___fldiv@b+2,___fldiv@rem+2
  6593   0060D6  C060  F06C         	movff	___fldiv@b+3,___fldiv@rem+3
  6594   0060DA  0E00               	movlw	0
  6595   0060DC  6E5D               	movwf	___fldiv@b^0,c
  6596   0060DE  0E00               	movlw	0
  6597   0060E0  6E5E               	movwf	(___fldiv@b+1)^0,c
  6598   0060E2  0E00               	movlw	0
  6599   0060E4  6E5F               	movwf	(___fldiv@b+2)^0,c
  6600   0060E6  0E00               	movlw	0
  6601   0060E8  6E60               	movwf	(___fldiv@b+3)^0,c
  6602   0060EA  0E00               	movlw	0
  6603   0060EC  6E70               	movwf	___fldiv@grs^0,c
  6604   0060EE  0E00               	movlw	0
  6605   0060F0  6E71               	movwf	(___fldiv@grs+1)^0,c
  6606   0060F2  0E00               	movlw	0
  6607   0060F4  6E72               	movwf	(___fldiv@grs+2)^0,c
  6608   0060F6  0E00               	movlw	0
  6609   0060F8  6E73               	movwf	(___fldiv@grs+3)^0,c
  6610   0060FA  6A75               	clrf	___fldiv@aexp^0,c
  6611   0060FC  EFB8  F030         	goto	l881
  6612   006100                     l2517:
  6613   006100  5075               	movf	___fldiv@aexp^0,w,c
  6614   006102  B4D8               	btfsc	status,2,c
  6615   006104  EF86  F030         	goto	u2271
  6616   006108  EF88  F030         	goto	u2270
  6617   00610C                     u2271:
  6618   00610C  EF9F  F030         	goto	l2525
  6619   006110                     u2270:
  6620   006110  90D8               	bcf	status,0,c
  6621   006112  3669               	rlcf	___fldiv@rem^0,f,c
  6622   006114  366A               	rlcf	(___fldiv@rem+1)^0,f,c
  6623   006116  366B               	rlcf	(___fldiv@rem+2)^0,f,c
  6624   006118  366C               	rlcf	(___fldiv@rem+3)^0,f,c
  6625   00611A  90D8               	bcf	status,0,c
  6626   00611C  365D               	rlcf	___fldiv@b^0,f,c
  6627   00611E  365E               	rlcf	(___fldiv@b+1)^0,f,c
  6628   006120  365F               	rlcf	(___fldiv@b+2)^0,f,c
  6629   006122  3660               	rlcf	(___fldiv@b+3)^0,f,c
  6630   006124  AE73               	btfss	(___fldiv@grs+3)^0,7,c
  6631   006126  EF97  F030         	goto	u2281
  6632   00612A  EF99  F030         	goto	u2280
  6633   00612E                     u2281:
  6634   00612E  EF9A  F030         	goto	l884
  6635   006132                     u2280:
  6636   006132  805D               	bsf	___fldiv@b^0,0,c
  6637   006134                     l884:
  6638   006134  90D8               	bcf	status,0,c
  6639   006136  3670               	rlcf	___fldiv@grs^0,f,c
  6640   006138  3671               	rlcf	(___fldiv@grs+1)^0,f,c
  6641   00613A  3672               	rlcf	(___fldiv@grs+2)^0,f,c
  6642   00613C  3673               	rlcf	(___fldiv@grs+3)^0,f,c
  6643   00613E                     l2525:
  6644   00613E  5061               	movf	___fldiv@a^0,w,c
  6645   006140  5C69               	subwf	___fldiv@rem^0,w,c
  6646   006142  5062               	movf	(___fldiv@a+1)^0,w,c
  6647   006144  586A               	subwfb	(___fldiv@rem+1)^0,w,c
  6648   006146  5063               	movf	(___fldiv@a+2)^0,w,c
  6649   006148  586B               	subwfb	(___fldiv@rem+2)^0,w,c
  6650   00614A  5064               	movf	(___fldiv@a+3)^0,w,c
  6651   00614C  586C               	subwfb	(___fldiv@rem+3)^0,w,c
  6652   00614E  A0D8               	btfss	status,0,c
  6653   006150  EFAC  F030         	goto	u2291
  6654   006154  EFAE  F030         	goto	u2290
  6655   006158                     u2291:
  6656   006158  EFB7  F030         	goto	l2531
  6657   00615C                     u2290:
  6658   00615C  8C73               	bsf	(___fldiv@grs+3)^0,6,c
  6659   00615E  5061               	movf	___fldiv@a^0,w,c
  6660   006160  5E69               	subwf	___fldiv@rem^0,f,c
  6661   006162  5062               	movf	(___fldiv@a+1)^0,w,c
  6662   006164  5A6A               	subwfb	(___fldiv@rem+1)^0,f,c
  6663   006166  5063               	movf	(___fldiv@a+2)^0,w,c
  6664   006168  5A6B               	subwfb	(___fldiv@rem+2)^0,f,c
  6665   00616A  5064               	movf	(___fldiv@a+3)^0,w,c
  6666   00616C  5A6C               	subwfb	(___fldiv@rem+3)^0,f,c
  6667   00616E                     l2531:
  6668   00616E  2A75               	incf	___fldiv@aexp^0,f,c
  6669   006170                     l881:
  6670   006170  0E19               	movlw	25
  6671   006172  6475               	cpfsgt	___fldiv@aexp^0,c
  6672   006174  EFBE  F030         	goto	u2301
  6673   006178  EFC0  F030         	goto	u2300
  6674   00617C                     u2301:
  6675   00617C  EF80  F030         	goto	l2517
  6676   006180                     u2300:
  6677   006180  5069               	movf	___fldiv@rem^0,w,c
  6678   006182  106A               	iorwf	(___fldiv@rem+1)^0,w,c
  6679   006184  106B               	iorwf	(___fldiv@rem+2)^0,w,c
  6680   006186  106C               	iorwf	(___fldiv@rem+3)^0,w,c
  6681   006188  B4D8               	btfsc	status,2,c
  6682   00618A  EFC9  F030         	goto	u2311
  6683   00618E  EFCB  F030         	goto	u2310
  6684   006192                     u2311:
  6685   006192  EFE3  F030         	goto	l2543
  6686   006196                     u2310:
  6687   006196  8070               	bsf	___fldiv@grs^0,0,c
  6688   006198  EFE3  F030         	goto	l2543
  6689   00619C                     l2537:
  6690   00619C  90D8               	bcf	status,0,c
  6691   00619E  365D               	rlcf	___fldiv@b^0,f,c
  6692   0061A0  365E               	rlcf	(___fldiv@b+1)^0,f,c
  6693   0061A2  365F               	rlcf	(___fldiv@b+2)^0,f,c
  6694   0061A4  3660               	rlcf	(___fldiv@b+3)^0,f,c
  6695   0061A6  AE73               	btfss	(___fldiv@grs+3)^0,7,c
  6696   0061A8  EFD8  F030         	goto	u2321
  6697   0061AC  EFDA  F030         	goto	u2320
  6698   0061B0                     u2321:
  6699   0061B0  EFDB  F030         	goto	l890
  6700   0061B4                     u2320:
  6701   0061B4  805D               	bsf	___fldiv@b^0,0,c
  6702   0061B6                     l890:
  6703   0061B6  90D8               	bcf	status,0,c
  6704   0061B8  3670               	rlcf	___fldiv@grs^0,f,c
  6705   0061BA  3671               	rlcf	(___fldiv@grs+1)^0,f,c
  6706   0061BC  3672               	rlcf	(___fldiv@grs+2)^0,f,c
  6707   0061BE  3673               	rlcf	(___fldiv@grs+3)^0,f,c
  6708   0061C0  066E               	decf	___fldiv@new_exp^0,f,c
  6709   0061C2  A0D8               	btfss	status,0,c
  6710   0061C4  066F               	decf	(___fldiv@new_exp+1)^0,f,c
  6711   0061C6                     l2543:
  6712   0061C6  AE5F               	btfss	(___fldiv@b+2)^0,7,c
  6713   0061C8  EFE8  F030         	goto	u2331
  6714   0061CC  EFEA  F030         	goto	u2330
  6715   0061D0                     u2331:
  6716   0061D0  EFCE  F030         	goto	l2537
  6717   0061D4                     u2330:
  6718   0061D4  6A75               	clrf	___fldiv@aexp^0,c
  6719   0061D6  AE73               	btfss	(___fldiv@grs+3)^0,7,c
  6720   0061D8  EFF0  F030         	goto	u2341
  6721   0061DC  EFF2  F030         	goto	u2340
  6722   0061E0                     u2341:
  6723   0061E0  EF16  F031         	goto	l892
  6724   0061E4                     u2340:
  6725   0061E4  0EFF               	movlw	255
  6726   0061E6  1470               	andwf	___fldiv@grs^0,w,c
  6727   0061E8  6E65               	movwf	??___fldiv^0,c
  6728   0061EA  0EFF               	movlw	255
  6729   0061EC  1471               	andwf	(___fldiv@grs+1)^0,w,c
  6730   0061EE  6E66               	movwf	(??___fldiv+1)^0,c
  6731   0061F0  0EFF               	movlw	255
  6732   0061F2  1472               	andwf	(___fldiv@grs+2)^0,w,c
  6733   0061F4  6E67               	movwf	(??___fldiv+2)^0,c
  6734   0061F6  0E7F               	movlw	127
  6735   0061F8  1473               	andwf	(___fldiv@grs+3)^0,w,c
  6736   0061FA  6E68               	movwf	(??___fldiv+3)^0,c
  6737   0061FC  5065               	movf	??___fldiv^0,w,c
  6738   0061FE  1066               	iorwf	(??___fldiv+1)^0,w,c
  6739   006200  1067               	iorwf	(??___fldiv+2)^0,w,c
  6740   006202  1068               	iorwf	(??___fldiv+3)^0,w,c
  6741   006204  B4D8               	btfsc	status,2,c
  6742   006206  EF07  F031         	goto	u2351
  6743   00620A  EF09  F031         	goto	u2350
  6744   00620E                     u2351:
  6745   00620E  EF0D  F031         	goto	l893
  6746   006212                     u2350:
  6747   006212                     l2547:
  6748   006212  0E01               	movlw	1
  6749   006214  6E75               	movwf	___fldiv@aexp^0,c
  6750   006216  EF16  F031         	goto	l892
  6751   00621A                     l893:
  6752   00621A  A05D               	btfss	___fldiv@b^0,0,c
  6753   00621C  EF12  F031         	goto	u2361
  6754   006220  EF14  F031         	goto	u2360
  6755   006224                     u2361:
  6756   006224  EF16  F031         	goto	l892
  6757   006228                     u2360:
  6758   006228  EF09  F031         	goto	l2547
  6759   00622C                     l892:
  6760   00622C  5075               	movf	___fldiv@aexp^0,w,c
  6761   00622E  B4D8               	btfsc	status,2,c
  6762   006230  EF1C  F031         	goto	u2371
  6763   006234  EF1E  F031         	goto	u2370
  6764   006238                     u2371:
  6765   006238  EF42  F031         	goto	l2559
  6766   00623C                     u2370:
  6767   00623C  0E01               	movlw	1
  6768   00623E  265D               	addwf	___fldiv@b^0,f,c
  6769   006240  0E00               	movlw	0
  6770   006242  225E               	addwfc	(___fldiv@b+1)^0,f,c
  6771   006244  225F               	addwfc	(___fldiv@b+2)^0,f,c
  6772   006246  2260               	addwfc	(___fldiv@b+3)^0,f,c
  6773   006248  A060               	btfss	(___fldiv@b+3)^0,0,c
  6774   00624A  EF29  F031         	goto	u2381
  6775   00624E  EF2B  F031         	goto	u2380
  6776   006252                     u2381:
  6777   006252  EF42  F031         	goto	l2559
  6778   006256                     u2380:
  6779   006256  C05D  F065         	movff	___fldiv@b,??___fldiv
  6780   00625A  C05E  F066         	movff	___fldiv@b+1,??___fldiv+1
  6781   00625E  C05F  F067         	movff	___fldiv@b+2,??___fldiv+2
  6782   006262  C060  F068         	movff	___fldiv@b+3,??___fldiv+3
  6783   006266  3468               	rlcf	(??___fldiv+3)^0,w,c
  6784   006268  3268               	rrcf	(??___fldiv+3)^0,f,c
  6785   00626A  3267               	rrcf	(??___fldiv+2)^0,f,c
  6786   00626C  3266               	rrcf	(??___fldiv+1)^0,f,c
  6787   00626E  3265               	rrcf	??___fldiv^0,f,c
  6788   006270  C065  F05D         	movff	??___fldiv,___fldiv@b
  6789   006274  C066  F05E         	movff	??___fldiv+1,___fldiv@b+1
  6790   006278  C067  F05F         	movff	??___fldiv+2,___fldiv@b+2
  6791   00627C  C068  F060         	movff	??___fldiv+3,___fldiv@b+3
  6792   006280  4A6E               	infsnz	___fldiv@new_exp^0,f,c
  6793   006282  2A6F               	incf	(___fldiv@new_exp+1)^0,f,c
  6794   006284                     l2559:
  6795   006284  BE6F               	btfsc	(___fldiv@new_exp+1)^0,7,c
  6796   006286  EF4D  F031         	goto	u2391
  6797   00628A  506F               	movf	(___fldiv@new_exp+1)^0,w,c
  6798   00628C  E108               	bnz	u2390
  6799   00628E  286E               	incf	___fldiv@new_exp^0,w,c
  6800   006290  A0D8               	btfss	status,0,c
  6801   006292  EF4D  F031         	goto	u2391
  6802   006296  EF4F  F031         	goto	u2390
  6803   00629A                     u2391:
  6804   00629A  EF5A  F031         	goto	l2563
  6805   00629E                     u2390:
  6806   00629E  0E00               	movlw	0
  6807   0062A0  6E6F               	movwf	(___fldiv@new_exp+1)^0,c
  6808   0062A2  686E               	setf	___fldiv@new_exp^0,c
  6809   0062A4  0E00               	movlw	0
  6810   0062A6  6E5D               	movwf	___fldiv@b^0,c
  6811   0062A8  0E00               	movlw	0
  6812   0062AA  6E5E               	movwf	(___fldiv@b+1)^0,c
  6813   0062AC  0E00               	movlw	0
  6814   0062AE  6E5F               	movwf	(___fldiv@b+2)^0,c
  6815   0062B0  0E00               	movlw	0
  6816   0062B2  6E60               	movwf	(___fldiv@b+3)^0,c
  6817   0062B4                     l2563:
  6818   0062B4  BE6F               	btfsc	(___fldiv@new_exp+1)^0,7,c
  6819   0062B6  EF67  F031         	goto	u2400
  6820   0062BA  506F               	movf	(___fldiv@new_exp+1)^0,w,c
  6821   0062BC  E106               	bnz	u2401
  6822   0062BE  046E               	decf	___fldiv@new_exp^0,w,c
  6823   0062C0  B0D8               	btfsc	status,0,c
  6824   0062C2  EF65  F031         	goto	u2401
  6825   0062C6  EF67  F031         	goto	u2400
  6826   0062CA                     u2401:
  6827   0062CA  EF74  F031         	goto	l2569
  6828   0062CE                     u2400:
  6829   0062CE  0E00               	movlw	0
  6830   0062D0  6E6F               	movwf	(___fldiv@new_exp+1)^0,c
  6831   0062D2  0E00               	movlw	0
  6832   0062D4  6E6E               	movwf	___fldiv@new_exp^0,c
  6833   0062D6  0E00               	movlw	0
  6834   0062D8  6E5D               	movwf	___fldiv@b^0,c
  6835   0062DA  0E00               	movlw	0
  6836   0062DC  6E5E               	movwf	(___fldiv@b+1)^0,c
  6837   0062DE  0E00               	movlw	0
  6838   0062E0  6E5F               	movwf	(___fldiv@b+2)^0,c
  6839   0062E2  0E00               	movlw	0
  6840   0062E4  6E60               	movwf	(___fldiv@b+3)^0,c
  6841   0062E6  6A6D               	clrf	___fldiv@sign^0,c
  6842   0062E8                     l2569:
  6843   0062E8  C06E  F074         	movff	___fldiv@new_exp,___fldiv@bexp
  6844   0062EC  A074               	btfss	___fldiv@bexp^0,0,c
  6845   0062EE  EF7B  F031         	goto	u2411
  6846   0062F2  EF7D  F031         	goto	u2410
  6847   0062F6                     u2411:
  6848   0062F6  EF80  F031         	goto	l2575
  6849   0062FA                     u2410:
  6850   0062FA  8E5F               	bsf	(___fldiv@b+2)^0,7,c
  6851   0062FC  EF81  F031         	goto	l2577
  6852   006300                     l2575:
  6853   006300  9E5F               	bcf	(___fldiv@b+2)^0,7,c
  6854   006302                     l2577:
  6855   006302  90D8               	bcf	status,0,c
  6856   006304  3074               	rrcf	___fldiv@bexp^0,w,c
  6857   006306  6E60               	movwf	(___fldiv@b+3)^0,c
  6858   006308  EF3A  F030         	goto	l2493
  6859   00630C                     l879:
  6860   00630C  0012               	return		;funcret
  6861   00630E                     __end_of___fldiv:
  6862                           	callstack 0
  6863                           
  6864 ;; *************** function ___xxtofl *****************
  6865 ;; Defined at:
  6866 ;;		line 10 in file "C:\Program Files\Microchip\xc8\v2.50\pic\sources\c99\common\xxtofl.c"
  6867 ;; Parameters:    Size  Location     Type
  6868 ;;  sign            1    wreg     unsigned char 
  6869 ;;  val             4    0[COMRAM] long 
  6870 ;; Auto vars:     Size  Location     Type
  6871 ;;  sign            1    8[COMRAM] unsigned char 
  6872 ;;  arg             4   10[COMRAM] unsigned long 
  6873 ;;  exp             1    9[COMRAM] unsigned char 
  6874 ;; Return value:  Size  Location     Type
  6875 ;;                  4    0[COMRAM] unsigned char 
  6876 ;; Registers used:
  6877 ;;		wreg, status,2, status,0
  6878 ;; Tracked objects:
  6879 ;;		On entry : 0/0
  6880 ;;		On exit  : 0/0
  6881 ;;		Unchanged: 0/0
  6882 ;; Data sizes:     COMRAM   BANK0   BANK1   BANK2   BANK3   BANK4   BANK5
  6883 ;;      Params:         4       0       0       0       0       0       0
  6884 ;;      Locals:         6       0       0       0       0       0       0
  6885 ;;      Temps:          4       0       0       0       0       0       0
  6886 ;;      Totals:        14       0       0       0       0       0       0
  6887 ;;Total ram usage:       14 bytes
  6888 ;; Hardware stack levels used: 1
  6889 ;; This function calls:
  6890 ;;		Nothing
  6891 ;; This function is called by:
  6892 ;;		_calculate_angle
  6893 ;; This function uses a non-reentrant model
  6894 ;;
  6895                           
  6896                           	psect	text20
  6897   005B48                     __ptext20:
  6898                           	callstack 0
  6899   005B48                     ___xxtofl:
  6900                           	callstack 26
  6901                           
  6902                           ;incstack = 0
  6903                           ;___xxtofl@sign stored from wreg
  6904   005B48  6E09               	movwf	___xxtofl@sign^0,c
  6905   005B4A  5009               	movf	___xxtofl@sign^0,w,c
  6906   005B4C  B4D8               	btfsc	status,2,c
  6907   005B4E  EFAB  F02D         	goto	u3101
  6908   005B52  EFAD  F02D         	goto	u3100
  6909   005B56                     u3101:
  6910   005B56  EFCF  F02D         	goto	l952
  6911   005B5A                     u3100:
  6912   005B5A  BE04               	btfsc	(___xxtofl@val+3)^0,7,c
  6913   005B5C  EFB4  F02D         	goto	u3110
  6914   005B60  EFB2  F02D         	goto	u3111
  6915   005B64                     u3111:
  6916   005B64  EFCF  F02D         	goto	l952
  6917   005B68                     u3110:
  6918   005B68  C001  F005         	movff	___xxtofl@val,??___xxtofl
  6919   005B6C  C002  F006         	movff	___xxtofl@val+1,??___xxtofl+1
  6920   005B70  C003  F007         	movff	___xxtofl@val+2,??___xxtofl+2
  6921   005B74  C004  F008         	movff	___xxtofl@val+3,??___xxtofl+3
  6922   005B78  1E05               	comf	??___xxtofl^0,f,c
  6923   005B7A  1E06               	comf	(??___xxtofl+1)^0,f,c
  6924   005B7C  1E07               	comf	(??___xxtofl+2)^0,f,c
  6925   005B7E  1E08               	comf	(??___xxtofl+3)^0,f,c
  6926   005B80  2A05               	incf	??___xxtofl^0,f,c
  6927   005B82  0E00               	movlw	0
  6928   005B84  2206               	addwfc	(??___xxtofl+1)^0,f,c
  6929   005B86  2207               	addwfc	(??___xxtofl+2)^0,f,c
  6930   005B88  2208               	addwfc	(??___xxtofl+3)^0,f,c
  6931   005B8A  C005  F00B         	movff	??___xxtofl,___xxtofl@arg
  6932   005B8E  C006  F00C         	movff	??___xxtofl+1,___xxtofl@arg+1
  6933   005B92  C007  F00D         	movff	??___xxtofl+2,___xxtofl@arg+2
  6934   005B96  C008  F00E         	movff	??___xxtofl+3,___xxtofl@arg+3
  6935   005B9A  EFD7  F02D         	goto	l3043
  6936   005B9E                     l952:
  6937   005B9E  C001  F00B         	movff	___xxtofl@val,___xxtofl@arg
  6938   005BA2  C002  F00C         	movff	___xxtofl@val+1,___xxtofl@arg+1
  6939   005BA6  C003  F00D         	movff	___xxtofl@val+2,___xxtofl@arg+2
  6940   005BAA  C004  F00E         	movff	___xxtofl@val+3,___xxtofl@arg+3
  6941   005BAE                     l3043:
  6942   005BAE  5001               	movf	___xxtofl@val^0,w,c
  6943   005BB0  1002               	iorwf	(___xxtofl@val+1)^0,w,c
  6944   005BB2  1003               	iorwf	(___xxtofl@val+2)^0,w,c
  6945   005BB4  1004               	iorwf	(___xxtofl@val+3)^0,w,c
  6946   005BB6  A4D8               	btfss	status,2,c
  6947   005BB8  EFE0  F02D         	goto	u3121
  6948   005BBC  EFE2  F02D         	goto	u3120
  6949   005BC0                     u3121:
  6950   005BC0  EFEC  F02D         	goto	l3049
  6951   005BC4                     u3120:
  6952   005BC4  0E00               	movlw	0
  6953   005BC6  6E01               	movwf	?___xxtofl^0,c
  6954   005BC8  0E00               	movlw	0
  6955   005BCA  6E02               	movwf	(?___xxtofl+1)^0,c
  6956   005BCC  0E00               	movlw	0
  6957   005BCE  6E03               	movwf	(?___xxtofl+2)^0,c
  6958   005BD0  0E00               	movlw	0
  6959   005BD2  6E04               	movwf	(?___xxtofl+3)^0,c
  6960   005BD4  EF7D  F02E         	goto	l955
  6961   005BD8                     l3049:
  6962   005BD8  0E96               	movlw	150
  6963   005BDA  6E0A               	movwf	___xxtofl@exp^0,c
  6964   005BDC  EFF6  F02D         	goto	l3053
  6965   005BE0                     l3051:
  6966   005BE0  2A0A               	incf	___xxtofl@exp^0,f,c
  6967   005BE2  90D8               	bcf	status,0,c
  6968   005BE4  320E               	rrcf	(___xxtofl@arg+3)^0,f,c
  6969   005BE6  320D               	rrcf	(___xxtofl@arg+2)^0,f,c
  6970   005BE8  320C               	rrcf	(___xxtofl@arg+1)^0,f,c
  6971   005BEA  320B               	rrcf	___xxtofl@arg^0,f,c
  6972   005BEC                     l3053:
  6973   005BEC  0E00               	movlw	0
  6974   005BEE  140B               	andwf	___xxtofl@arg^0,w,c
  6975   005BF0  6E05               	movwf	??___xxtofl^0,c
  6976   005BF2  0E00               	movlw	0
  6977   005BF4  140C               	andwf	(___xxtofl@arg+1)^0,w,c
  6978   005BF6  6E06               	movwf	(??___xxtofl+1)^0,c
  6979   005BF8  0E00               	movlw	0
  6980   005BFA  140D               	andwf	(___xxtofl@arg+2)^0,w,c
  6981   005BFC  6E07               	movwf	(??___xxtofl+2)^0,c
  6982   005BFE  0EFE               	movlw	254
  6983   005C00  140E               	andwf	(___xxtofl@arg+3)^0,w,c
  6984   005C02  6E08               	movwf	(??___xxtofl+3)^0,c
  6985   005C04  5005               	movf	??___xxtofl^0,w,c
  6986   005C06  1006               	iorwf	(??___xxtofl+1)^0,w,c
  6987   005C08  1007               	iorwf	(??___xxtofl+2)^0,w,c
  6988   005C0A  1008               	iorwf	(??___xxtofl+3)^0,w,c
  6989   005C0C  A4D8               	btfss	status,2,c
  6990   005C0E  EF0B  F02E         	goto	u3131
  6991   005C12  EF0D  F02E         	goto	u3130
  6992   005C16                     u3131:
  6993   005C16  EFF0  F02D         	goto	l3051
  6994   005C1A                     u3130:
  6995   005C1A  EF1B  F02E         	goto	l959
  6996   005C1E                     l3055:
  6997   005C1E  2A0A               	incf	___xxtofl@exp^0,f,c
  6998   005C20  0E01               	movlw	1
  6999   005C22  260B               	addwf	___xxtofl@arg^0,f,c
  7000   005C24  0E00               	movlw	0
  7001   005C26  220C               	addwfc	(___xxtofl@arg+1)^0,f,c
  7002   005C28  220D               	addwfc	(___xxtofl@arg+2)^0,f,c
  7003   005C2A  220E               	addwfc	(___xxtofl@arg+3)^0,f,c
  7004   005C2C  90D8               	bcf	status,0,c
  7005   005C2E  320E               	rrcf	(___xxtofl@arg+3)^0,f,c
  7006   005C30  320D               	rrcf	(___xxtofl@arg+2)^0,f,c
  7007   005C32  320C               	rrcf	(___xxtofl@arg+1)^0,f,c
  7008   005C34  320B               	rrcf	___xxtofl@arg^0,f,c
  7009   005C36                     l959:
  7010   005C36  0E00               	movlw	0
  7011   005C38  140B               	andwf	___xxtofl@arg^0,w,c
  7012   005C3A  6E05               	movwf	??___xxtofl^0,c
  7013   005C3C  0E00               	movlw	0
  7014   005C3E  140C               	andwf	(___xxtofl@arg+1)^0,w,c
  7015   005C40  6E06               	movwf	(??___xxtofl+1)^0,c
  7016   005C42  0E00               	movlw	0
  7017   005C44  140D               	andwf	(___xxtofl@arg+2)^0,w,c
  7018   005C46  6E07               	movwf	(??___xxtofl+2)^0,c
  7019   005C48  0EFF               	movlw	255
  7020   005C4A  140E               	andwf	(___xxtofl@arg+3)^0,w,c
  7021   005C4C  6E08               	movwf	(??___xxtofl+3)^0,c
  7022   005C4E  5005               	movf	??___xxtofl^0,w,c
  7023   005C50  1006               	iorwf	(??___xxtofl+1)^0,w,c
  7024   005C52  1007               	iorwf	(??___xxtofl+2)^0,w,c
  7025   005C54  1008               	iorwf	(??___xxtofl+3)^0,w,c
  7026   005C56  A4D8               	btfss	status,2,c
  7027   005C58  EF30  F02E         	goto	u3141
  7028   005C5C  EF32  F02E         	goto	u3140
  7029   005C60                     u3141:
  7030   005C60  EF0F  F02E         	goto	l3055
  7031   005C64                     u3140:
  7032   005C64  EF3A  F02E         	goto	l3063
  7033   005C68                     l3061:
  7034   005C68  060A               	decf	___xxtofl@exp^0,f,c
  7035   005C6A  90D8               	bcf	status,0,c
  7036   005C6C  360B               	rlcf	___xxtofl@arg^0,f,c
  7037   005C6E  360C               	rlcf	(___xxtofl@arg+1)^0,f,c
  7038   005C70  360D               	rlcf	(___xxtofl@arg+2)^0,f,c
  7039   005C72  360E               	rlcf	(___xxtofl@arg+3)^0,f,c
  7040   005C74                     l3063:
  7041   005C74  BE0D               	btfsc	(___xxtofl@arg+2)^0,7,c
  7042   005C76  EF3F  F02E         	goto	u3151
  7043   005C7A  EF41  F02E         	goto	u3150
  7044   005C7E                     u3151:
  7045   005C7E  EF49  F02E         	goto	l966
  7046   005C82                     u3150:
  7047   005C82  0E02               	movlw	2
  7048   005C84  600A               	cpfslt	___xxtofl@exp^0,c
  7049   005C86  EF47  F02E         	goto	u3161
  7050   005C8A  EF49  F02E         	goto	u3160
  7051   005C8E                     u3161:
  7052   005C8E  EF34  F02E         	goto	l3061
  7053   005C92                     u3160:
  7054   005C92                     l966:
  7055   005C92  B00A               	btfsc	___xxtofl@exp^0,0,c
  7056   005C94  EF4E  F02E         	goto	u3171
  7057   005C98  EF50  F02E         	goto	u3170
  7058   005C9C                     u3171:
  7059   005C9C  EF51  F02E         	goto	l3069
  7060   005CA0                     u3170:
  7061   005CA0  9E0D               	bcf	(___xxtofl@arg+2)^0,7,c
  7062   005CA2                     l3069:
  7063   005CA2  90D8               	bcf	status,0,c
  7064   005CA4  320A               	rrcf	___xxtofl@exp^0,f,c
  7065   005CA6  C00A  F005         	movff	___xxtofl@exp,??___xxtofl
  7066   005CAA  6A06               	clrf	(??___xxtofl+1)^0,c
  7067   005CAC  6A07               	clrf	(??___xxtofl+2)^0,c
  7068   005CAE  6A08               	clrf	(??___xxtofl+3)^0,c
  7069   005CB0  C005  F008         	movff	??___xxtofl,??___xxtofl+3
  7070   005CB4  6A07               	clrf	(??___xxtofl+2)^0,c
  7071   005CB6  6A06               	clrf	(??___xxtofl+1)^0,c
  7072   005CB8  6A05               	clrf	??___xxtofl^0,c
  7073   005CBA  5005               	movf	??___xxtofl^0,w,c
  7074   005CBC  120B               	iorwf	___xxtofl@arg^0,f,c
  7075   005CBE  5006               	movf	(??___xxtofl+1)^0,w,c
  7076   005CC0  120C               	iorwf	(___xxtofl@arg+1)^0,f,c
  7077   005CC2  5007               	movf	(??___xxtofl+2)^0,w,c
  7078   005CC4  120D               	iorwf	(___xxtofl@arg+2)^0,f,c
  7079   005CC6  5008               	movf	(??___xxtofl+3)^0,w,c
  7080   005CC8  120E               	iorwf	(___xxtofl@arg+3)^0,f,c
  7081   005CCA  5009               	movf	___xxtofl@sign^0,w,c
  7082   005CCC  B4D8               	btfsc	status,2,c
  7083   005CCE  EF6B  F02E         	goto	u3181
  7084   005CD2  EF6D  F02E         	goto	u3180
  7085   005CD6                     u3181:
  7086   005CD6  EF75  F02E         	goto	l3079
  7087   005CDA                     u3180:
  7088   005CDA  BE04               	btfsc	(___xxtofl@val+3)^0,7,c
  7089   005CDC  EF74  F02E         	goto	u3190
  7090   005CE0  EF72  F02E         	goto	u3191
  7091   005CE4                     u3191:
  7092   005CE4  EF75  F02E         	goto	l3079
  7093   005CE8                     u3190:
  7094   005CE8  8E0E               	bsf	(___xxtofl@arg+3)^0,7,c
  7095   005CEA                     l3079:
  7096   005CEA  C00B  F001         	movff	___xxtofl@arg,?___xxtofl
  7097   005CEE  C00C  F002         	movff	___xxtofl@arg+1,?___xxtofl+1
  7098   005CF2  C00D  F003         	movff	___xxtofl@arg+2,?___xxtofl+2
  7099   005CF6  C00E  F004         	movff	___xxtofl@arg+3,?___xxtofl+3
  7100   005CFA                     l955:
  7101   005CFA  0012               	return		;funcret
  7102   005CFC                     __end_of___xxtofl:
  7103                           	callstack 0
  7104                           
  7105 ;; *************** function ___flge *****************
  7106 ;; Defined at:
  7107 ;;		line 4 in file "C:\Program Files\Microchip\xc8\v2.50\pic\sources\c99\common\flge.c"
  7108 ;; Parameters:    Size  Location     Type
  7109 ;;  ff1             4    0[COMRAM] unsigned char 
  7110 ;;  ff2             4    4[COMRAM] unsigned char 
  7111 ;; Auto vars:     Size  Location     Type
  7112 ;;		None
  7113 ;; Return value:  Size  Location     Type
  7114 ;;		None               void
  7115 ;; Registers used:
  7116 ;;		wreg, status,2, status,0
  7117 ;; Tracked objects:
  7118 ;;		On entry : 0/0
  7119 ;;		On exit  : 0/0
  7120 ;;		Unchanged: 0/0
  7121 ;; Data sizes:     COMRAM   BANK0   BANK1   BANK2   BANK3   BANK4   BANK5
  7122 ;;      Params:         8       0       0       0       0       0       0
  7123 ;;      Locals:         0       0       0       0       0       0       0
  7124 ;;      Temps:          4       0       0       0       0       0       0
  7125 ;;      Totals:        12       0       0       0       0       0       0
  7126 ;;Total ram usage:       12 bytes
  7127 ;; Hardware stack levels used: 1
  7128 ;; This function calls:
  7129 ;;		Nothing
  7130 ;; This function is called by:
  7131 ;;		_Check_Gyroscope
  7132 ;; This function uses a non-reentrant model
  7133 ;;
  7134                           
  7135                           	psect	text21
  7136   0058AE                     __ptext21:
  7137                           	callstack 0
  7138   0058AE                     ___flge:
  7139                           	callstack 29
  7140   0058AE  0E00               	movlw	0
  7141   0058B0  1401               	andwf	___flge@ff1^0,w,c
  7142   0058B2  6E09               	movwf	??___flge^0,c
  7143   0058B4  0E00               	movlw	0
  7144   0058B6  1402               	andwf	(___flge@ff1+1)^0,w,c
  7145   0058B8  6E0A               	movwf	(??___flge+1)^0,c
  7146   0058BA  0E80               	movlw	128
  7147   0058BC  1403               	andwf	(___flge@ff1+2)^0,w,c
  7148   0058BE  6E0B               	movwf	(??___flge+2)^0,c
  7149   0058C0  0E7F               	movlw	127
  7150   0058C2  1404               	andwf	(___flge@ff1+3)^0,w,c
  7151   0058C4  6E0C               	movwf	(??___flge+3)^0,c
  7152   0058C6  5009               	movf	??___flge^0,w,c
  7153   0058C8  100A               	iorwf	(??___flge+1)^0,w,c
  7154   0058CA  100B               	iorwf	(??___flge+2)^0,w,c
  7155   0058CC  100C               	iorwf	(??___flge+3)^0,w,c
  7156   0058CE  A4D8               	btfss	status,2,c
  7157   0058D0  EF6C  F02C         	goto	u3301
  7158   0058D4  EF6E  F02C         	goto	u3300
  7159   0058D8                     u3301:
  7160   0058D8  EF76  F02C         	goto	l3199
  7161   0058DC                     u3300:
  7162   0058DC  0E00               	movlw	0
  7163   0058DE  6E01               	movwf	___flge@ff1^0,c
  7164   0058E0  0E00               	movlw	0
  7165   0058E2  6E02               	movwf	(___flge@ff1+1)^0,c
  7166   0058E4  0E00               	movlw	0
  7167   0058E6  6E03               	movwf	(___flge@ff1+2)^0,c
  7168   0058E8  0E00               	movlw	0
  7169   0058EA  6E04               	movwf	(___flge@ff1+3)^0,c
  7170   0058EC                     l3199:
  7171   0058EC  0E00               	movlw	0
  7172   0058EE  1405               	andwf	___flge@ff2^0,w,c
  7173   0058F0  6E09               	movwf	??___flge^0,c
  7174   0058F2  0E00               	movlw	0
  7175   0058F4  1406               	andwf	(___flge@ff2+1)^0,w,c
  7176   0058F6  6E0A               	movwf	(??___flge+1)^0,c
  7177   0058F8  0E80               	movlw	128
  7178   0058FA  1407               	andwf	(___flge@ff2+2)^0,w,c
  7179   0058FC  6E0B               	movwf	(??___flge+2)^0,c
  7180   0058FE  0E7F               	movlw	127
  7181   005900  1408               	andwf	(___flge@ff2+3)^0,w,c
  7182   005902  6E0C               	movwf	(??___flge+3)^0,c
  7183   005904  5009               	movf	??___flge^0,w,c
  7184   005906  100A               	iorwf	(??___flge+1)^0,w,c
  7185   005908  100B               	iorwf	(??___flge+2)^0,w,c
  7186   00590A  100C               	iorwf	(??___flge+3)^0,w,c
  7187   00590C  A4D8               	btfss	status,2,c
  7188   00590E  EF8B  F02C         	goto	u3311
  7189   005912  EF8D  F02C         	goto	u3310
  7190   005916                     u3311:
  7191   005916  EF95  F02C         	goto	l3203
  7192   00591A                     u3310:
  7193   00591A  0E00               	movlw	0
  7194   00591C  6E05               	movwf	___flge@ff2^0,c
  7195   00591E  0E00               	movlw	0
  7196   005920  6E06               	movwf	(___flge@ff2+1)^0,c
  7197   005922  0E00               	movlw	0
  7198   005924  6E07               	movwf	(___flge@ff2+2)^0,c
  7199   005926  0E00               	movlw	0
  7200   005928  6E08               	movwf	(___flge@ff2+3)^0,c
  7201   00592A                     l3203:
  7202   00592A  AE04               	btfss	(___flge@ff1+3)^0,7,c
  7203   00592C  EF9A  F02C         	goto	u3321
  7204   005930  EF9C  F02C         	goto	u3320
  7205   005934                     u3321:
  7206   005934  EFA5  F02C         	goto	l3207
  7207   005938                     u3320:
  7208   005938  6C01               	negf	___flge@ff1^0,c
  7209   00593A  1E02               	comf	(___flge@ff1+1)^0,f,c
  7210   00593C  B0D8               	btfsc	status,0,c
  7211   00593E  2A02               	incf	(___flge@ff1+1)^0,f,c
  7212   005940  1E03               	comf	(___flge@ff1+2)^0,f,c
  7213   005942  B0D8               	btfsc	status,0,c
  7214   005944  2A03               	incf	(___flge@ff1+2)^0,f,c
  7215   005946  0E80               	movlw	128
  7216   005948  5604               	subfwb	(___flge@ff1+3)^0,f,c
  7217   00594A                     l3207:
  7218   00594A  AE08               	btfss	(___flge@ff2+3)^0,7,c
  7219   00594C  EFAA  F02C         	goto	u3331
  7220   005950  EFAC  F02C         	goto	u3330
  7221   005954                     u3331:
  7222   005954  EFB5  F02C         	goto	l562
  7223   005958                     u3330:
  7224   005958  6C05               	negf	___flge@ff2^0,c
  7225   00595A  1E06               	comf	(___flge@ff2+1)^0,f,c
  7226   00595C  B0D8               	btfsc	status,0,c
  7227   00595E  2A06               	incf	(___flge@ff2+1)^0,f,c
  7228   005960  1E07               	comf	(___flge@ff2+2)^0,f,c
  7229   005962  B0D8               	btfsc	status,0,c
  7230   005964  2A07               	incf	(___flge@ff2+2)^0,f,c
  7231   005966  0E80               	movlw	128
  7232   005968  5608               	subfwb	(___flge@ff2+3)^0,f,c
  7233   00596A                     l562:
  7234   00596A  0E00               	movlw	0
  7235   00596C  1A01               	xorwf	___flge@ff1^0,f,c
  7236   00596E  0E00               	movlw	0
  7237   005970  1A02               	xorwf	(___flge@ff1+1)^0,f,c
  7238   005972  0E00               	movlw	0
  7239   005974  1A03               	xorwf	(___flge@ff1+2)^0,f,c
  7240   005976  0E80               	movlw	128
  7241   005978  1A04               	xorwf	(___flge@ff1+3)^0,f,c
  7242   00597A  0E00               	movlw	0
  7243   00597C  1A05               	xorwf	___flge@ff2^0,f,c
  7244   00597E  0E00               	movlw	0
  7245   005980  1A06               	xorwf	(___flge@ff2+1)^0,f,c
  7246   005982  0E00               	movlw	0
  7247   005984  1A07               	xorwf	(___flge@ff2+2)^0,f,c
  7248   005986  0E80               	movlw	128
  7249   005988  1A08               	xorwf	(___flge@ff2+3)^0,f,c
  7250   00598A  5005               	movf	___flge@ff2^0,w,c
  7251   00598C  5C01               	subwf	___flge@ff1^0,w,c
  7252   00598E  5006               	movf	(___flge@ff2+1)^0,w,c
  7253   005990  5802               	subwfb	(___flge@ff1+1)^0,w,c
  7254   005992  5007               	movf	(___flge@ff2+2)^0,w,c
  7255   005994  5803               	subwfb	(___flge@ff1+2)^0,w,c
  7256   005996  5008               	movf	(___flge@ff2+3)^0,w,c
  7257   005998  5804               	subwfb	(___flge@ff1+3)^0,w,c
  7258   00599A  B0D8               	btfsc	status,0,c
  7259   00599C  EFD2  F02C         	goto	u3341
  7260   0059A0  EFD4  F02C         	goto	u3340
  7261   0059A4                     u3341:
  7262   0059A4  EFD7  F02C         	goto	l3213
  7263   0059A8                     u3340:
  7264   0059A8  90D8               	bcf	status,0,c
  7265   0059AA  EFD8  F02C         	goto	l567
  7266   0059AE                     l3213:
  7267   0059AE  80D8               	bsf	status,0,c
  7268   0059B0                     l567:
  7269   0059B0  0012               	return		;funcret
  7270   0059B2                     __end_of___flge:
  7271                           	callstack 0
  7272                           
  7273 ;; *************** function _I2C_Write *****************
  7274 ;; Defined at:
  7275 ;;		line 124 in file "setting_hardaware/gyroscope.c"
  7276 ;; Parameters:    Size  Location     Type
  7277 ;;  data            1    wreg     unsigned char 
  7278 ;; Auto vars:     Size  Location     Type
  7279 ;;  data            1    0[COMRAM] unsigned char 
  7280 ;; Return value:  Size  Location     Type
  7281 ;;                  1    wreg      void 
  7282 ;; Registers used:
  7283 ;;		wreg
  7284 ;; Tracked objects:
  7285 ;;		On entry : 0/0
  7286 ;;		On exit  : 0/0
  7287 ;;		Unchanged: 0/0
  7288 ;; Data sizes:     COMRAM   BANK0   BANK1   BANK2   BANK3   BANK4   BANK5
  7289 ;;      Params:         0       0       0       0       0       0       0
  7290 ;;      Locals:         1       0       0       0       0       0       0
  7291 ;;      Temps:          0       0       0       0       0       0       0
  7292 ;;      Totals:         1       0       0       0       0       0       0
  7293 ;;Total ram usage:        1 bytes
  7294 ;; Hardware stack levels used: 1
  7295 ;; This function calls:
  7296 ;;		Nothing
  7297 ;; This function is called by:
  7298 ;;		_Gyroscope_Initialize
  7299 ;;		_Check_Gyroscope
  7300 ;;		_Calibration
  7301 ;; This function uses a non-reentrant model
  7302 ;;
  7303                           
  7304                           	psect	text22
  7305   00548E                     __ptext22:
  7306                           	callstack 0
  7307   00548E                     _I2C_Write:
  7308                           	callstack 28
  7309                           
  7310                           ;incstack = 0
  7311                           ;I2C_Write@data stored from wreg
  7312   00548E  6E01               	movwf	I2C_Write@data^0,c
  7313   005490                     
  7314                           ;setting_hardaware/gyroscope.c: 125:     SSPBUF = data;
  7315   005490  C001  FFC9         	movff	I2C_Write@data,4041	;volatile
  7316   005494                     l276:
  7317   005494  B0C7               	btfsc	4039,0,c	;volatile
  7318   005496  EF4F  F02A         	goto	u3211
  7319   00549A  EF51  F02A         	goto	u3210
  7320   00549E                     u3211:
  7321   00549E  EF4A  F02A         	goto	l276
  7322   0054A2                     u3210:
  7323   0054A2                     l279:
  7324   0054A2  BCC5               	btfsc	197,6,c	;volatile
  7325   0054A4  EF56  F02A         	goto	u3221
  7326   0054A8  EF58  F02A         	goto	u3220
  7327   0054AC                     u3221:
  7328   0054AC  EF51  F02A         	goto	l279
  7329   0054B0                     u3220:
  7330   0054B0  0012               	return		;funcret
  7331   0054B2                     __end_of_I2C_Write:
  7332                           	callstack 0
  7333                           
  7334 ;; *************** function _I2C_Stop *****************
  7335 ;; Defined at:
  7336 ;;		line 119 in file "setting_hardaware/gyroscope.c"
  7337 ;; Parameters:    Size  Location     Type
  7338 ;;		None
  7339 ;; Auto vars:     Size  Location     Type
  7340 ;;		None
  7341 ;; Return value:  Size  Location     Type
  7342 ;;                  1    wreg      void 
  7343 ;; Registers used:
  7344 ;;		None
  7345 ;; Tracked objects:
  7346 ;;		On entry : 0/0
  7347 ;;		On exit  : 0/0
  7348 ;;		Unchanged: 0/0
  7349 ;; Data sizes:     COMRAM   BANK0   BANK1   BANK2   BANK3   BANK4   BANK5
  7350 ;;      Params:         0       0       0       0       0       0       0
  7351 ;;      Locals:         0       0       0       0       0       0       0
  7352 ;;      Temps:          0       0       0       0       0       0       0
  7353 ;;      Totals:         0       0       0       0       0       0       0
  7354 ;;Total ram usage:        0 bytes
  7355 ;; Hardware stack levels used: 1
  7356 ;; This function calls:
  7357 ;;		Nothing
  7358 ;; This function is called by:
  7359 ;;		_Gyroscope_Initialize
  7360 ;;		_Check_Gyroscope
  7361 ;;		_Calibration
  7362 ;; This function uses a non-reentrant model
  7363 ;;
  7364                           
  7365                           	psect	text23
  7366   005412                     __ptext23:
  7367                           	callstack 0
  7368   005412                     _I2C_Stop:
  7369                           	callstack 28
  7370   005412                     
  7371                           ;setting_hardaware/gyroscope.c: 120:     PEN = 1;
  7372   005412  84C5               	bsf	4037,2,c	;volatile
  7373   005414                     l270:
  7374   005414  B4C5               	btfsc	4037,2,c	;volatile
  7375   005416  EF0F  F02A         	goto	u3231
  7376   00541A  EF11  F02A         	goto	u3230
  7377   00541E                     u3231:
  7378   00541E  EF0A  F02A         	goto	l270
  7379   005422                     u3230:
  7380   005422  0012               	return		;funcret
  7381   005424                     __end_of_I2C_Stop:
  7382                           	callstack 0
  7383                           
  7384 ;; *************** function _I2C_Start *****************
  7385 ;; Defined at:
  7386 ;;		line 113 in file "setting_hardaware/gyroscope.c"
  7387 ;; Parameters:    Size  Location     Type
  7388 ;;		None
  7389 ;; Auto vars:     Size  Location     Type
  7390 ;;		None
  7391 ;; Return value:  Size  Location     Type
  7392 ;;                  1    wreg      void 
  7393 ;; Registers used:
  7394 ;;		None
  7395 ;; Tracked objects:
  7396 ;;		On entry : 0/0
  7397 ;;		On exit  : 0/0
  7398 ;;		Unchanged: 0/0
  7399 ;; Data sizes:     COMRAM   BANK0   BANK1   BANK2   BANK3   BANK4   BANK5
  7400 ;;      Params:         0       0       0       0       0       0       0
  7401 ;;      Locals:         0       0       0       0       0       0       0
  7402 ;;      Temps:          0       0       0       0       0       0       0
  7403 ;;      Totals:         0       0       0       0       0       0       0
  7404 ;;Total ram usage:        0 bytes
  7405 ;; Hardware stack levels used: 1
  7406 ;; This function calls:
  7407 ;;		Nothing
  7408 ;; This function is called by:
  7409 ;;		_Gyroscope_Initialize
  7410 ;;		_Check_Gyroscope
  7411 ;;		_Calibration
  7412 ;; This function uses a non-reentrant model
  7413 ;;
  7414                           
  7415                           	psect	text24
  7416   005400                     __ptext24:
  7417                           	callstack 0
  7418   005400                     _I2C_Start:
  7419                           	callstack 28
  7420   005400                     
  7421                           ;setting_hardaware/gyroscope.c: 114:     SEN = 1;
  7422   005400  80C5               	bsf	4037,0,c	;volatile
  7423   005402                     l264:
  7424   005402  B0C5               	btfsc	4037,0,c	;volatile
  7425   005404  EF06  F02A         	goto	u3201
  7426   005408  EF08  F02A         	goto	u3200
  7427   00540C                     u3201:
  7428   00540C  EF01  F02A         	goto	l264
  7429   005410                     u3200:
  7430   005410  0012               	return		;funcret
  7431   005412                     __end_of_I2C_Start:
  7432                           	callstack 0
  7433                           
  7434 ;; *************** function _I2C_Read *****************
  7435 ;; Defined at:
  7436 ;;		line 131 in file "setting_hardaware/gyroscope.c"
  7437 ;; Parameters:    Size  Location     Type
  7438 ;;  ack             1    wreg     unsigned char 
  7439 ;; Auto vars:     Size  Location     Type
  7440 ;;  ack             1    0[COMRAM] unsigned char 
  7441 ;;  data            1    1[COMRAM] unsigned char 
  7442 ;; Return value:  Size  Location     Type
  7443 ;;                  1    wreg      unsigned char 
  7444 ;; Registers used:
  7445 ;;		wreg, status,2
  7446 ;; Tracked objects:
  7447 ;;		On entry : 0/0
  7448 ;;		On exit  : 0/0
  7449 ;;		Unchanged: 0/0
  7450 ;; Data sizes:     COMRAM   BANK0   BANK1   BANK2   BANK3   BANK4   BANK5
  7451 ;;      Params:         0       0       0       0       0       0       0
  7452 ;;      Locals:         2       0       0       0       0       0       0
  7453 ;;      Temps:          0       0       0       0       0       0       0
  7454 ;;      Totals:         2       0       0       0       0       0       0
  7455 ;;Total ram usage:        2 bytes
  7456 ;; Hardware stack levels used: 1
  7457 ;; This function calls:
  7458 ;;		Nothing
  7459 ;; This function is called by:
  7460 ;;		_Check_Gyroscope
  7461 ;;		_Calibration
  7462 ;; This function uses a non-reentrant model
  7463 ;;
  7464                           
  7465                           	psect	text25
  7466   00558A                     __ptext25:
  7467                           	callstack 0
  7468   00558A                     _I2C_Read:
  7469                           	callstack 27
  7470                           
  7471                           ;incstack = 0
  7472                           ;I2C_Read@ack stored from wreg
  7473   00558A  6E01               	movwf	I2C_Read@ack^0,c
  7474   00558C                     
  7475                           ;setting_hardaware/gyroscope.c: 132:     uint8_t data;;setting_hardaware/gyroscope.c: 13
      +                          3:     RCEN = 1;
  7476   00558C  86C5               	bsf	4037,3,c	;volatile
  7477   00558E                     l285:
  7478   00558E  A0C7               	btfss	4039,0,c	;volatile
  7479   005590  EFCC  F02A         	goto	u3241
  7480   005594  EFCE  F02A         	goto	u3240
  7481   005598                     u3241:
  7482   005598  EFC7  F02A         	goto	l285
  7483   00559C                     u3240:
  7484   00559C                     
  7485                           ;setting_hardaware/gyroscope.c: 135:     data = SSPBUF;
  7486   00559C  CFC9 F002          	movff	4041,I2C_Read@data	;volatile
  7487   0055A0                     
  7488                           ;setting_hardaware/gyroscope.c: 138:     ACKDT = ack ? 0 : 1;
  7489   0055A0  5001               	movf	I2C_Read@ack^0,w,c
  7490   0055A2  B4D8               	btfsc	status,2,c
  7491   0055A4  EFD6  F02A         	goto	u3251
  7492   0055A8  EFD9  F02A         	goto	u3250
  7493   0055AC                     u3251:
  7494   0055AC  8AC5               	bsf	4037,5,c	;volatile
  7495   0055AE  EFDA  F02A         	goto	u3265
  7496   0055B2                     u3250:
  7497   0055B2  9AC5               	bcf	4037,5,c	;volatile
  7498   0055B4                     u3265:
  7499   0055B4                     
  7500                           ;setting_hardaware/gyroscope.c: 139:     ACKEN = 1;
  7501   0055B4  88C5               	bsf	4037,4,c	;volatile
  7502   0055B6                     l288:
  7503   0055B6  B8C5               	btfsc	4037,4,c	;volatile
  7504   0055B8  EFE0  F02A         	goto	u3271
  7505   0055BC  EFE2  F02A         	goto	u3270
  7506   0055C0                     u3271:
  7507   0055C0  EFDB  F02A         	goto	l288
  7508   0055C4                     u3270:
  7509   0055C4                     
  7510                           ;setting_hardaware/gyroscope.c: 141:     return data;
  7511   0055C4  5002               	movf	I2C_Read@data^0,w,c
  7512   0055C6  0012               	return		;funcret
  7513   0055C8                     __end_of_I2C_Read:
  7514                           	callstack 0
  7515                           
  7516 ;; *************** function _Check_ADC *****************
  7517 ;; Defined at:
  7518 ;;		line 36 in file "setting_hardaware/adc.c"
  7519 ;; Parameters:    Size  Location     Type
  7520 ;;  prev_sensor_    2    6[COMRAM] int 
  7521 ;; Auto vars:     Size  Location     Type
  7522 ;;  bend_sensor_    2   11[COMRAM] int 
  7523 ;; Return value:  Size  Location     Type
  7524 ;;                  1    wreg      void 
  7525 ;; Registers used:
  7526 ;;		wreg, status,2, status,0, cstack
  7527 ;; Tracked objects:
  7528 ;;		On entry : 0/0
  7529 ;;		On exit  : 0/0
  7530 ;;		Unchanged: 0/0
  7531 ;; Data sizes:     COMRAM   BANK0   BANK1   BANK2   BANK3   BANK4   BANK5
  7532 ;;      Params:         2       0       0       0       0       0       0
  7533 ;;      Locals:         2       0       0       0       0       0       0
  7534 ;;      Temps:          3       0       0       0       0       0       0
  7535 ;;      Totals:         7       0       0       0       0       0       0
  7536 ;;Total ram usage:        7 bytes
  7537 ;; Hardware stack levels used: 1
  7538 ;; Hardware stack levels required when called: 1
  7539 ;; This function calls:
  7540 ;;		_ADC_Read
  7541 ;; This function is called by:
  7542 ;;		_main
  7543 ;; This function uses a non-reentrant model
  7544 ;;
  7545                           
  7546                           	psect	text26
  7547   00564E                     __ptext26:
  7548                           	callstack 0
  7549   00564E                     _Check_ADC:
  7550                           	callstack 29
  7551   00564E                     
  7552                           ;setting_hardaware/adc.c: 38:     int bend_sensor_val=ADC_Read(bend_sensor_val);
  7553   00564E  C00C  F001         	movff	Check_ADC@bend_sensor_val,ADC_Read@channel
  7554   005652  C00D  F002         	movff	Check_ADC@bend_sensor_val+1,ADC_Read@channel+1
  7555   005656  EC59  F02A         	call	_ADC_Read	;wreg free
  7556   00565A  C001  F00C         	movff	?_ADC_Read,Check_ADC@bend_sensor_val
  7557   00565E  C002  F00D         	movff	?_ADC_Read+1,Check_ADC@bend_sensor_val+1
  7558   005662                     
  7559                           ;setting_hardaware/adc.c: 40:     if(prev_sensor_val<bend_sensor_val-5 || prev_sensor_va
      +                          l>bend_sensor_val+5)
  7560   005662  0EFB               	movlw	251
  7561   005664  240C               	addwf	Check_ADC@bend_sensor_val^0,w,c
  7562   005666  6E09               	movwf	??_Check_ADC^0,c
  7563   005668  0EFF               	movlw	255
  7564   00566A  200D               	addwfc	(Check_ADC@bend_sensor_val+1)^0,w,c
  7565   00566C  6E0A               	movwf	(??_Check_ADC+1)^0,c
  7566   00566E  5009               	movf	??_Check_ADC^0,w,c
  7567   005670  5C07               	subwf	Check_ADC@prev_sensor_val^0,w,c
  7568   005672  5008               	movf	(Check_ADC@prev_sensor_val+1)^0,w,c
  7569   005674  0A80               	xorlw	128
  7570   005676  6E0B               	movwf	(??_Check_ADC+2)^0,c
  7571   005678  500A               	movf	(??_Check_ADC+1)^0,w,c
  7572   00567A  0A80               	xorlw	128
  7573   00567C  580B               	subwfb	(??_Check_ADC+2)^0,w,c
  7574   00567E  A0D8               	btfss	status,0,c
  7575   005680  EF44  F02B         	goto	u3351
  7576   005684  EF46  F02B         	goto	u3350
  7577   005688                     u3351:
  7578   005688  EF5B  F02B         	goto	l30
  7579   00568C                     u3350:
  7580   00568C  0E05               	movlw	5
  7581   00568E  240C               	addwf	Check_ADC@bend_sensor_val^0,w,c
  7582   005690  6E09               	movwf	??_Check_ADC^0,c
  7583   005692  0E00               	movlw	0
  7584   005694  200D               	addwfc	(Check_ADC@bend_sensor_val+1)^0,w,c
  7585   005696  6E0A               	movwf	(??_Check_ADC+1)^0,c
  7586   005698  5007               	movf	Check_ADC@prev_sensor_val^0,w,c
  7587   00569A  5C09               	subwf	??_Check_ADC^0,w,c
  7588   00569C  500A               	movf	(??_Check_ADC+1)^0,w,c
  7589   00569E  0A80               	xorlw	128
  7590   0056A0  6E0B               	movwf	(??_Check_ADC+2)^0,c
  7591   0056A2  5008               	movf	(Check_ADC@prev_sensor_val+1)^0,w,c
  7592   0056A4  0A80               	xorlw	128
  7593   0056A6  580B               	subwfb	(??_Check_ADC+2)^0,w,c
  7594   0056A8  B0D8               	btfsc	status,0,c
  7595   0056AA  EF59  F02B         	goto	u3361
  7596   0056AE  EF5B  F02B         	goto	u3360
  7597   0056B2                     u3361:
  7598   0056B2  EF5F  F02B         	goto	l3223
  7599   0056B6                     u3360:
  7600   0056B6                     l30:
  7601                           
  7602                           ;setting_hardaware/adc.c: 41:     {;setting_hardaware/adc.c: 42:         prev_sensor_val
      +                          =bend_sensor_val;
  7603   0056B6  C00C  F007         	movff	Check_ADC@bend_sensor_val,Check_ADC@prev_sensor_val
  7604   0056BA  C00D  F008         	movff	Check_ADC@bend_sensor_val+1,Check_ADC@prev_sensor_val+1
  7605   0056BE                     l3223:
  7606                           
  7607                           ;setting_hardaware/adc.c: 45:     if(prev_sensor_val<=0x0130)
  7608   0056BE  BE08               	btfsc	(Check_ADC@prev_sensor_val+1)^0,7,c
  7609   0056C0  EF6D  F02B         	goto	u3370
  7610   0056C4  0E31               	movlw	49
  7611   0056C6  5C07               	subwf	Check_ADC@prev_sensor_val^0,w,c
  7612   0056C8  0E01               	movlw	1
  7613   0056CA  5808               	subwfb	(Check_ADC@prev_sensor_val+1)^0,w,c
  7614   0056CC  B0D8               	btfsc	status,0,c
  7615   0056CE  EF6B  F02B         	goto	u3371
  7616   0056D2  EF6D  F02B         	goto	u3370
  7617   0056D6                     u3371:
  7618   0056D6  EF70  F02B         	goto	l31
  7619   0056DA                     u3370:
  7620   0056DA                     
  7621                           ;setting_hardaware/adc.c: 46:     {;setting_hardaware/adc.c: 47:         LATAbits.LATA6 
      +                          = 1;;
  7622   0056DA  8C89               	bsf	137,6,c	;volatile
  7623                           
  7624                           ;setting_hardaware/adc.c: 48:     }
  7625   0056DC  EF71  F02B         	goto	l33
  7626   0056E0                     l31:
  7627                           
  7628                           ;setting_hardaware/adc.c: 50:     {;setting_hardaware/adc.c: 51:         LATAbits.LATA6 
      +                          = 0;;
  7629   0056E0  9C89               	bcf	137,6,c	;volatile
  7630   0056E2                     l33:
  7631   0056E2  0012               	return		;funcret
  7632   0056E4                     __end_of_Check_ADC:
  7633                           	callstack 0
  7634                           
  7635 ;; *************** function _ADC_Read *****************
  7636 ;; Defined at:
  7637 ;;		line 22 in file "setting_hardaware/adc.c"
  7638 ;; Parameters:    Size  Location     Type
  7639 ;;  channel         2    0[COMRAM] int 
  7640 ;; Auto vars:     Size  Location     Type
  7641 ;;  digital         2    4[COMRAM] int 
  7642 ;; Return value:  Size  Location     Type
  7643 ;;                  2    0[COMRAM] int 
  7644 ;; Registers used:
  7645 ;;		wreg, status,2, status,0
  7646 ;; Tracked objects:
  7647 ;;		On entry : 0/0
  7648 ;;		On exit  : 0/0
  7649 ;;		Unchanged: 0/0
  7650 ;; Data sizes:     COMRAM   BANK0   BANK1   BANK2   BANK3   BANK4   BANK5
  7651 ;;      Params:         2       0       0       0       0       0       0
  7652 ;;      Locals:         2       0       0       0       0       0       0
  7653 ;;      Temps:          2       0       0       0       0       0       0
  7654 ;;      Totals:         6       0       0       0       0       0       0
  7655 ;;Total ram usage:        6 bytes
  7656 ;; Hardware stack levels used: 1
  7657 ;; This function calls:
  7658 ;;		Nothing
  7659 ;; This function is called by:
  7660 ;;		_Check_ADC
  7661 ;; This function uses a non-reentrant model
  7662 ;;
  7663                           
  7664                           	psect	text27
  7665   0054B2                     __ptext27:
  7666                           	callstack 0
  7667   0054B2                     _ADC_Read:
  7668                           	callstack 29
  7669   0054B2                     
  7670                           ;setting_hardaware/adc.c: 22: int ADC_Read(int channel);setting_hardaware/adc.c: 23: {;s
      +                          etting_hardaware/adc.c: 24:     int digital;;setting_hardaware/adc.c: 26:     ADCON0bits
      +                          .ADON = 1;
  7671   0054B2  80C2               	bsf	194,0,c	;volatile
  7672                           
  7673                           ;setting_hardaware/adc.c: 27:     ADCON0bits.GO = 1;
  7674   0054B4  82C2               	bsf	194,1,c	;volatile
  7675   0054B6                     l22:
  7676   0054B6  B2C2               	btfsc	194,1,c	;volatile
  7677   0054B8  EF60  F02A         	goto	u3281
  7678   0054BC  EF62  F02A         	goto	u3280
  7679   0054C0                     u3281:
  7680   0054C0  EF5B  F02A         	goto	l22
  7681   0054C4                     u3280:
  7682   0054C4                     
  7683                           ;setting_hardaware/adc.c: 31:     digital = (ADRESH*256) | (ADRESL);
  7684   0054C4  50C3               	movf	195,w,c	;volatile
  7685   0054C6  CFC4 F003          	movff	4036,??_ADC_Read	;volatile
  7686   0054CA  6A04               	clrf	(??_ADC_Read+1)^0,c
  7687   0054CC  C003  F004         	movff	??_ADC_Read,??_ADC_Read+1
  7688   0054D0  6A03               	clrf	??_ADC_Read^0,c
  7689   0054D2  1003               	iorwf	??_ADC_Read^0,w,c
  7690   0054D4  6E05               	movwf	ADC_Read@digital^0,c
  7691   0054D6  5004               	movf	(??_ADC_Read+1)^0,w,c
  7692   0054D8  6E06               	movwf	(ADC_Read@digital+1)^0,c
  7693   0054DA                     
  7694                           ;setting_hardaware/adc.c: 33:     return(digital);
  7695   0054DA  C005  F001         	movff	ADC_Read@digital,?_ADC_Read
  7696   0054DE  C006  F002         	movff	ADC_Read@digital+1,?_ADC_Read+1
  7697   0054E2  0012               	return		;funcret
  7698   0054E4                     __end_of_ADC_Read:
  7699                           	callstack 0
  7700                           
  7701                           	psect	rparam
  7702   000001                     ___rparam_used  equ	1
  7703   000000                     ___param_bank   equ	0
  7704   000000                     __Lparam        equ	__Lrparam
  7705   000000                     __Hparam        equ	__Hrparam
  7706                           
  7707                           	psect	idloc
  7708                           
  7709                           ;Config register IDLOC0 @ 0x200000
  7710                           ;	unspecified, using default values
  7711   200000                     	org	2097152
  7712   200000  FF                 	db	255
  7713                           
  7714                           ;Config register IDLOC1 @ 0x200001
  7715                           ;	unspecified, using default values
  7716   200001                     	org	2097153
  7717   200001  FF                 	db	255
  7718                           
  7719                           ;Config register IDLOC2 @ 0x200002
  7720                           ;	unspecified, using default values
  7721   200002                     	org	2097154
  7722   200002  FF                 	db	255
  7723                           
  7724                           ;Config register IDLOC3 @ 0x200003
  7725                           ;	unspecified, using default values
  7726   200003                     	org	2097155
  7727   200003  FF                 	db	255
  7728                           
  7729                           ;Config register IDLOC4 @ 0x200004
  7730                           ;	unspecified, using default values
  7731   200004                     	org	2097156
  7732   200004  FF                 	db	255
  7733                           
  7734                           ;Config register IDLOC5 @ 0x200005
  7735                           ;	unspecified, using default values
  7736   200005                     	org	2097157
  7737   200005  FF                 	db	255
  7738                           
  7739                           ;Config register IDLOC6 @ 0x200006
  7740                           ;	unspecified, using default values
  7741   200006                     	org	2097158
  7742   200006  FF                 	db	255
  7743                           
  7744                           ;Config register IDLOC7 @ 0x200007
  7745                           ;	unspecified, using default values
  7746   200007                     	org	2097159
  7747   200007  FF                 	db	255
  7748                           
  7749                           	psect	config
  7750                           
  7751                           ; Padding undefined space
  7752   300000                     	org	3145728
  7753   300000  FF                 	db	255
  7754                           
  7755                           ;Config register CONFIG1H @ 0x300001
  7756                           ;	Oscillator Selection bits
  7757                           ;	OSC = INTIO67, Internal oscillator block, port function on RA6 and RA7
  7758                           ;	Fail-Safe Clock Monitor Enable bit
  7759                           ;	FCMEN = OFF, Fail-Safe Clock Monitor disabled
  7760                           ;	Internal/External Oscillator Switchover bit
  7761                           ;	IESO = ON, Oscillator Switchover mode enabled
  7762   300001                     	org	3145729
  7763   300001  88                 	db	136
  7764                           
  7765                           ;Config register CONFIG2L @ 0x300002
  7766                           ;	Power-up Timer Enable bit
  7767                           ;	PWRT = OFF, PWRT disabled
  7768                           ;	Brown-out Reset Enable bits
  7769                           ;	BOREN = SBORDIS, Brown-out Reset enabled in hardware only (SBOREN is disabled)
  7770                           ;	Brown Out Reset Voltage bits
  7771                           ;	BORV = 3, Minimum setting
  7772   300002                     	org	3145730
  7773   300002  1F                 	db	31
  7774                           
  7775                           ;Config register CONFIG2H @ 0x300003
  7776                           ;	Watchdog Timer Enable bit
  7777                           ;	WDT = OFF, WDT disabled (control is placed on the SWDTEN bit)
  7778                           ;	Watchdog Timer Postscale Select bits
  7779                           ;	WDTPS = 1, 1:1
  7780   300003                     	org	3145731
  7781   300003  00                 	db	0
  7782                           
  7783                           ; Padding undefined space
  7784   300004                     	org	3145732
  7785   300004  FF                 	db	255
  7786                           
  7787                           ;Config register CONFIG3H @ 0x300005
  7788                           ;	CCP2 MUX bit
  7789                           ;	CCP2MX = PORTC, CCP2 input/output is multiplexed with RC1
  7790                           ;	PORTB A/D Enable bit
  7791                           ;	PBADEN = ON, PORTB<4:0> pins are configured as analog input channels on Reset
  7792                           ;	Low-Power Timer1 Oscillator Enable bit
  7793                           ;	LPT1OSC = OFF, Timer1 configured for higher power operation
  7794                           ;	MCLR Pin Enable bit
  7795                           ;	MCLRE = ON, MCLR pin enabled; RE3 input pin disabled
  7796   300005                     	org	3145733
  7797   300005  83                 	db	131
  7798                           
  7799                           ;Config register CONFIG4L @ 0x300006
  7800                           ;	Stack Full/Underflow Reset Enable bit
  7801                           ;	STVREN = ON, Stack full/underflow will cause Reset
  7802                           ;	Single-Supply ICSP Enable bit
  7803                           ;	LVP = OFF, Single-Supply ICSP disabled
  7804                           ;	Extended Instruction Set Enable bit
  7805                           ;	XINST = OFF, Instruction set extension and Indexed Addressing mode disabled (Legacy mo
      +                          de)
  7806                           ;	Background Debugger Enable bit
  7807                           ;	DEBUG = 0x1, unprogrammed default
  7808   300006                     	org	3145734
  7809   300006  81                 	db	129
  7810                           
  7811                           ; Padding undefined space
  7812   300007                     	org	3145735
  7813   300007  FF                 	db	255
  7814                           
  7815                           ;Config register CONFIG5L @ 0x300008
  7816                           ;	Code Protection bit
  7817                           ;	CP0 = OFF, Block 0 (000800-001FFFh) not code-protected
  7818                           ;	Code Protection bit
  7819                           ;	CP1 = OFF, Block 1 (002000-003FFFh) not code-protected
  7820                           ;	Code Protection bit
  7821                           ;	CP2 = OFF, Block 2 (004000-005FFFh) not code-protected
  7822                           ;	Code Protection bit
  7823                           ;	CP3 = OFF, Block 3 (006000-007FFFh) not code-protected
  7824   300008                     	org	3145736
  7825   300008  0F                 	db	15
  7826                           
  7827                           ;Config register CONFIG5H @ 0x300009
  7828                           ;	Boot Block Code Protection bit
  7829                           ;	CPB = OFF, Boot block (000000-0007FFh) not code-protected
  7830                           ;	Data EEPROM Code Protection bit
  7831                           ;	CPD = OFF, Data EEPROM not code-protected
  7832   300009                     	org	3145737
  7833   300009  C0                 	db	192
  7834                           
  7835                           ;Config register CONFIG6L @ 0x30000A
  7836                           ;	Write Protection bit
  7837                           ;	WRT0 = OFF, Block 0 (000800-001FFFh) not write-protected
  7838                           ;	Write Protection bit
  7839                           ;	WRT1 = OFF, Block 1 (002000-003FFFh) not write-protected
  7840                           ;	Write Protection bit
  7841                           ;	WRT2 = OFF, Block 2 (004000-005FFFh) not write-protected
  7842                           ;	Write Protection bit
  7843                           ;	WRT3 = OFF, Block 3 (006000-007FFFh) not write-protected
  7844   30000A                     	org	3145738
  7845   30000A  0F                 	db	15
  7846                           
  7847                           ;Config register CONFIG6H @ 0x30000B
  7848                           ;	Configuration Register Write Protection bit
  7849                           ;	WRTC = OFF, Configuration registers (300000-3000FFh) not write-protected
  7850                           ;	Boot Block Write Protection bit
  7851                           ;	WRTB = OFF, Boot block (000000-0007FFh) not write-protected
  7852                           ;	Data EEPROM Write Protection bit
  7853                           ;	WRTD = OFF, Data EEPROM not write-protected
  7854   30000B                     	org	3145739
  7855   30000B  E0                 	db	224
  7856                           
  7857                           ;Config register CONFIG7L @ 0x30000C
  7858                           ;	Table Read Protection bit
  7859                           ;	EBTR0 = OFF, Block 0 (000800-001FFFh) not protected from table reads executed in other
      +                           blocks
  7860                           ;	Table Read Protection bit
  7861                           ;	EBTR1 = OFF, Block 1 (002000-003FFFh) not protected from table reads executed in other
      +                           blocks
  7862                           ;	Table Read Protection bit
  7863                           ;	EBTR2 = OFF, Block 2 (004000-005FFFh) not protected from table reads executed in other
      +                           blocks
  7864                           ;	Table Read Protection bit
  7865                           ;	EBTR3 = OFF, Block 3 (006000-007FFFh) not protected from table reads executed in other
      +                           blocks
  7866   30000C                     	org	3145740
  7867   30000C  0F                 	db	15
  7868                           
  7869                           ;Config register CONFIG7H @ 0x30000D
  7870                           ;	Boot Block Table Read Protection bit
  7871                           ;	EBTRB = OFF, Boot block (000000-0007FFh) not protected from table reads executed in ot
      +                          her blocks
  7872   30000D                     	org	3145741
  7873   30000D  40                 	db	64
  7874                           tosu	equ	0xFFF
  7875                           tosh	equ	0xFFE
  7876                           tosl	equ	0xFFD
  7877                           stkptr	equ	0xFFC
  7878                           pclatu	equ	0xFFB
  7879                           pclath	equ	0xFFA
  7880                           pcl	equ	0xFF9
  7881                           tblptru	equ	0xFF8
  7882                           tblptrh	equ	0xFF7
  7883                           tblptrl	equ	0xFF6
  7884                           tablat	equ	0xFF5
  7885                           prodh	equ	0xFF4
  7886                           prodl	equ	0xFF3
  7887                           indf0	equ	0xFEF
  7888                           postinc0	equ	0xFEE
  7889                           postdec0	equ	0xFED
  7890                           preinc0	equ	0xFEC
  7891                           plusw0	equ	0xFEB
  7892                           fsr0h	equ	0xFEA
  7893                           fsr0l	equ	0xFE9
  7894                           wreg	equ	0xFE8
  7895                           indf1	equ	0xFE7
  7896                           postinc1	equ	0xFE6
  7897                           postdec1	equ	0xFE5
  7898                           preinc1	equ	0xFE4
  7899                           plusw1	equ	0xFE3
  7900                           fsr1h	equ	0xFE2
  7901                           fsr1l	equ	0xFE1
  7902                           bsr	equ	0xFE0
  7903                           indf2	equ	0xFDF
  7904                           postinc2	equ	0xFDE
  7905                           postdec2	equ	0xFDD
  7906                           preinc2	equ	0xFDC
  7907                           plusw2	equ	0xFDB
  7908                           fsr2h	equ	0xFDA
  7909                           fsr2l	equ	0xFD9
  7910                           status	equ	0xFD8

Data Sizes:
    Strings     3
    Constant    60
    Data        0
    BSS         84
    Persistent  0
    Stack       0

Auto Spaces:
    Space          Size  Autos    Used
    COMRAM          127    127     127
    BANK0           128    115     127
    BANK1           256      0      72
    BANK2           256      0       0
    BANK3           256      0       0
    BANK4           256      0       0
    BANK5           239      0       0

Pointer List with Targets:

    sp__GetString	PTR unsigned char  size(2) Largest target is 20
		 -> mystring(BANK1[20]), 


Critical Paths under _main in COMRAM

    _main->_Check_Gyroscope
    _Gyroscope_Initialize->_Calibration
    _sqrtf->___fladd
    _atan2f->_fabsf
    _atanf->_fabsf
    _fabsf->___fldiv
    ___flsub->___fladd
    ___fladd->___flmul
    ___flmul->___xxtofl
    ___fldiv->_sqrtf
    _Check_ADC->_ADC_Read

Critical Paths under _main in BANK0

    _SYSTEM_Initialize->_Gyroscope_Initialize
    _Gyroscope_Initialize->_Calibration
    _Calibration->_calculate_angle
    _Check_Gyroscope->_calculate_angle
    _calculate_angle->_atan2f
    _atan2f->_atanf

Critical Paths under _main in BANK1

    None.

Critical Paths under _main in BANK2

    None.

Critical Paths under _main in BANK3

    None.

Critical Paths under _main in BANK4

    None.

Critical Paths under _main in BANK5

    None.

Call Graph Tables:

 ---------------------------------------------------------------------------------
 (Depth) Function   	        Calls       Base Space   Used Autos Params    Refs
 ---------------------------------------------------------------------------------
 (0) _main                                                 5     5      0   43446
                                            110 BANK0      5     5      0
                          _Check_ADC
                    _Check_Gyroscope
                  _SYSTEM_Initialize
 ---------------------------------------------------------------------------------
 (1) _SYSTEM_Initialize                                    0     0      0   20550
                     _ADC_Initialize
               _Gyroscope_Initialize
               _INTERRUPT_Initialize
              _OSCILLATOR_Initialize
 ---------------------------------------------------------------------------------
 (2) _OSCILLATOR_Initialize                                0     0      0       0
 ---------------------------------------------------------------------------------
 (2) _INTERRUPT_Initialize                                 0     0      0       0
 ---------------------------------------------------------------------------------
 (2) _Gyroscope_Initialize                                 1     1      0   20550
                                            109 BANK0      1     1      0
                        _Calibration
                           _I2C_Init
                          _I2C_Start
                           _I2C_Stop
                          _I2C_Write
 ---------------------------------------------------------------------------------
 (3) _I2C_Init                                             0     0      0       0
 ---------------------------------------------------------------------------------
 (3) _Calibration                                         10    10      0   20521
                                            125 COMRAM     2     2      0
                                            101 BANK0      8     8      0
                           _I2C_Read
                          _I2C_Start
                           _I2C_Stop
                          _I2C_Write
                    _calculate_angle
 ---------------------------------------------------------------------------------
 (2) _ADC_Initialize                                       0     0      0       0
 ---------------------------------------------------------------------------------
 (1) _Check_Gyroscope                                      8     6      2   22670
                                            125 COMRAM     2     0      2
                                            101 BANK0      6     6      0
                           _I2C_Read
                          _I2C_Start
                           _I2C_Stop
                          _I2C_Write
                             ___flge
                            ___flsub
                    _calculate_angle
 ---------------------------------------------------------------------------------
 (4) _calculate_angle                                     14     8      6   20302
                                             87 BANK0     14     8      6
                            ___fladd
                            ___fldiv
                            ___flmul
                           ___xxtofl
                             _atan2f
                              _sqrtf
 ---------------------------------------------------------------------------------
 (5) _sqrtf                                               41    37      4     730
                                             55 COMRAM    37    33      4
                            ___fladd (ARG)
                            ___flmul (ARG)
                           ___xxtofl (ARG)
 ---------------------------------------------------------------------------------
 (5) _atan2f                                              41    33      8   14422
                                             46 BANK0     41    33      8
                            ___fladd
                            ___fldiv
                            ___flneg
                            ___flsub
                      ___fpclassifyf
                           ___xxtofl (ARG)
                              _atanf
                              _fabsf
                              _sqrtf (ARG)
 ---------------------------------------------------------------------------------
 (6) _atanf                                               46    42      4    8153
                                              0 BANK0     46    42      4
                            ___fladd
                            ___fldiv
                            ___flmul
                            ___flneg
                            ___flsub
                      ___fpclassifyf
                              _fabsf
 ---------------------------------------------------------------------------------
 (6) _fabsf                                                8     4      4      49
                                            117 COMRAM     8     4      4
                            ___fldiv (ARG)
 ---------------------------------------------------------------------------------
 (7) ___fpclassifyf                                       14    10      4     138
                                              0 COMRAM    14    10      4
 ---------------------------------------------------------------------------------
 (7) ___flsub                                              8     0      8    2077
                                             55 COMRAM     8     0      8
                            ___fladd
                            ___flmul (ARG)
 ---------------------------------------------------------------------------------
 (8) ___fladd                                             16     8      8    2020
                                             39 COMRAM    16     8      8
                            ___flmul (ARG)
                           ___xxtofl (ARG)
 ---------------------------------------------------------------------------------
 (7) ___flneg                                              4     0      4      48
                                              0 COMRAM     4     0      4
 ---------------------------------------------------------------------------------
 (7) ___flmul                                             25    17      8    1494
                                             14 COMRAM    25    17      8
                           ___xxtofl (ARG)
 ---------------------------------------------------------------------------------
 (7) ___fldiv                                             25    17      8    1133
                                             92 COMRAM    25    17      8
                            ___fladd (ARG)
                            ___flmul (ARG)
                           ___xxtofl (ARG)
                              _sqrtf (ARG)
 ---------------------------------------------------------------------------------
 (5) ___xxtofl                                            14    10      4     341
                                              0 COMRAM    14    10      4
 ---------------------------------------------------------------------------------
 (2) ___flge                                              12     4      8     186
                                              0 COMRAM    12     4      8
 ---------------------------------------------------------------------------------
 (3) _I2C_Write                                            1     1      0      29
                                              0 COMRAM     1     1      0
 ---------------------------------------------------------------------------------
 (3) _I2C_Stop                                             0     0      0       0
 ---------------------------------------------------------------------------------
 (3) _I2C_Start                                            0     0      0       0
 ---------------------------------------------------------------------------------
 (4) _I2C_Read                                             2     2      0      52
                                              0 COMRAM     2     2      0
 ---------------------------------------------------------------------------------
 (1) _Check_ADC                                            7     5      2     181
                                              6 COMRAM     7     5      2
                           _ADC_Read
 ---------------------------------------------------------------------------------
 (2) _ADC_Read                                             6     4      2      24
                                              0 COMRAM     6     4      2
 ---------------------------------------------------------------------------------
 Estimated maximum stack depth 8
 ---------------------------------------------------------------------------------

 Call Graph Graphs:

 _main (ROOT)
   _Check_ADC
     _ADC_Read
   _Check_Gyroscope
     _I2C_Read
     _I2C_Start
     _I2C_Stop
     _I2C_Write
     ___flge
     ___flsub
       ___fladd
         ___flmul (ARG)
           ___xxtofl (ARG)
         ___xxtofl (ARG)
       ___flmul (ARG)
     _calculate_angle
       ___fladd
       ___fldiv
         ___fladd (ARG)
         ___flmul (ARG)
         ___xxtofl (ARG)
         _sqrtf (ARG)
           ___fladd (ARG)
           ___flmul (ARG)
           ___xxtofl (ARG)
       ___flmul
       ___xxtofl
       _atan2f
         ___fladd
         ___fldiv
         ___flneg
         ___flsub
         ___fpclassifyf
         ___xxtofl (ARG)
         _atanf (ARG)
           ___fladd
           ___fldiv
           ___flmul
           ___flneg
           ___flsub
           ___fpclassifyf
           _fabsf
             ___fldiv (ARG)
         _fabsf (ARG)
         _sqrtf (ARG)
       _sqrtf
   _SYSTEM_Initialize
     _ADC_Initialize
     _Gyroscope_Initialize
       _Calibration
         _I2C_Read
         _I2C_Start
         _I2C_Stop
         _I2C_Write
         _calculate_angle
       _I2C_Init
       _I2C_Start
       _I2C_Stop
       _I2C_Write
     _INTERRUPT_Initialize
     _OSCILLATOR_Initialize

Address spaces:
Name               Size   Autos  Total    Usage
BIGRAM            1518      0       0      0.0%
BITBANK4           256      0       0      0.0%
BANK4              256      0       0      0.0%
BITBANK3           256      0       0      0.0%
BANK3              256      0       0      0.0%
BITBANK2           256      0       0      0.0%
BANK2              256      0       0      0.0%
BITBANK1           256      0       0      0.0%
BANK1              256      0      72     28.1%
BITBANK5           239      0       0      0.0%
BANK5              239      0       0      0.0%
BITBANK0           128      0       0      0.0%
BANK0              128    115     127     99.2%
BITCOMRAM          127      0       0      0.0%
COMRAM             127    127     127    100.0%
BITBIGSFR_1h        38      0       0      0.0%
BITBIGSFRh          18      0       0      0.0%
BITBIGSFR_1llh      12      0       0      0.0%
BITBIGSFR_5h         9      0       0      0.0%
BITBIGSFRl           9      0       0      0.0%
BITBIGSFR_2          6      0       0      0.0%
BITBIGSFR_4          3      0       0      0.0%
BITBIGSFR_3          3      0       0      0.0%
BITBIGSFR_5l         2      0       0      0.0%
BITBIGSFR_1lh        1      0       0      0.0%
STACK                0      0       0      0.0%
DATA                 0      0     326      0.0%


Microchip Technology PIC18 Macro Assembler V2.50 build 20240725155939 
Symbol Table                                                                                   Tue Jan 14 23:22:29 2025

                 ___fldiv@aexp 0075                   ___fldiv@bexp 0074                   ___fldiv@sign 006D  
                           l22 54B6                             l30 56B6                             _BF 7E38  
                           l31 56E0                             l25 54E2                             l33 56E2  
                           l19 544E                             l63 546A                             l80 5434  
                           l83 53F0                             _pi 7D27                            l242 5588  
                          l261 53FE                            l270 5414                            l255 5F7C  
                          l264 5402                            l273 5422                            l290 55C4  
                          l282 54B0                            l258 5B46                            l291 55C6  
                          l267 5410                            l276 5494                            l285 558E  
                          l294 57AE                            l287 559C                            l279 54A2  
                          l288 55B6                            l562 596A                            l571 554E  
                          l567 59B0                            l911 67B0                            l920 6A1C  
                          l921 6A0A                            l825 6CFA                            l842 6E14  
                          l834 6FC6                            l826 6CE8                            l915 6B10  
                          l851 6EE2                            l827 6CAE                            l852 6ED0  
                          l918 69A6                            l919 69C4                            l839 6EA2  
                          l952 5B9E                            l928 6AD2                            l881 6170  
                          l890 61B6                            l858 6F8A                            l955 5CFA  
                          l891 61D4                            l867 564C                            l892 622C  
                          l884 6134                            l893 621A                            l981 704C  
                          l966 5C92                            l959 5C36                            l879 630C  
                          l984 7582                            l989 7128                            _PEN 7E2A  
                          _SEN 7E28                            _aT0 7D1F                            _aT1 7D1B  
                          _aT2 7D17                            _aT3 7D13                            _aT4 7D0F  
                          _dir 00F5          ?_Gyroscope_Initialize 0001                            _str 0100  
                          wreg 0FE8                   ___flmul@aexp 0020       Check_ADC@prev_sensor_val 0007  
                 ___flmul@bexp 0021                   ___flmul@sign 001B                   ___flmul@temp 0026  
                 ___flmul@prod 0022                           l1013 7386                           l1102 6550  
                         l1023 744E                           l1015 7350                           l1105 6614  
                         l1107 6682                           l1037 58AC                           l1061 7CEC  
                         l3001 72D8                           l1067 76BE                           l3003 72FE  
                         l2301 6C0E                           l1085 5516                           l3021 7462  
                         l3013 7394                           l3005 7334                           l1094 66EA  
                         l2311 6C22                           l2303 6C12                           l3015 73CA  
                         l3007 735E                           l3111 56E8                           l3103 53F2  
                         l3201 591A                           l3041 5B68                           l2401 6E68  
                         l2321 6C36                           l2313 6C26                           l2305 6C16  
                         l3025 748A                           l3017 73DE                           l3009 7372  
                         l3121 5712                           l3113 56EE                           l3105 53F6  
                         l1098 64F2                           l3211 59A8                           l3203 592A  
                         l3051 5BE0                           l3043 5BAE                           l2403 6E76  
                         l2411 6E94                           l2331 6C4A                           l2323 6C3A  
                         l2315 6C2A                           l2307 6C1A                           l3019 7426  
                         l3035 7562                           l3131 573E                           l3123 571C  
                         l3115 56F8                           l3107 53FC                           l3221 568C  
                         l3213 59AE                           l3205 5938                           l3061 5C68  
                         l3053 5BEC                           l3045 5BC4                           l3037 5B4A  
                         l2501 609C                           l2421 6EFE                           l2413 6EB2  
                         l2405 6E7E                           l2341 6CBC                           l2325 6C3E  
                         l2317 6C2E                           l2309 6C1E                           l2333 6C4E  
                         l2261 6B2E                           l3029 74F6                           l3301 5EFA  
                         l3141 5438                           l3133 5756                           l3125 5726  
                         l3117 56FE                           l3109 56E4                           l3151 54C4  
                         l3223 56BE                           l3207 594A                           l3071 5CA6  
                         l3063 5C74                           l3055 5C1E                           l3039 5B5A  
                         l2511 60DA                           l2503 609C                           l2431 6F68  
                         l2423 6F0C                           l2415 6EC8                           l2407 6E82  
                         l2351 6CE6                           l2343 6CC8                           l2335 6C7A  
                         l2327 6C42                           l2319 6C32                           l2263 6B3E  
                         l2271 6B66                           l2255 6B12                           l3303 5F0E  
                         l3311 5F38                           l3143 543C                           l3135 576C  
                         l3127 5730                           l3119 5708                           l3231 542C  
                         l3153 54DA                           l3225 56DA                           l3217 564E  
                         l3209 5958                           l3073 5CCA                           l3065 5C82  
                         l3057 5C20                           l3049 5BD8                           l2521 6124  
                         l2513 60EA                           l2601 674E                           l2441 6FA6  
                         l2433 6F88                           l2425 6F46                           l2409 6E92  
                         l2361 6D3C                           l2353 6D08                           l2345 6CCC  
                         l2337 6C96                           l2329 6C46                           l2281 6B96  
                         l2273 6B76                           l2265 6B4E                           l2257 6B1E  
                         l3313 5F4A                           l3305 5F20                           l3321 5F72  
                         l3145 544A                           l3137 5782                           l3129 573A  
                         l3161 545A                           l3233 5430                           l3219 5662  
                         l3091 55A0                           l3083 5400                           l3075 5CDA  
                         l3067 5CA0                           l3059 5C2C                           l2531 616E  
                         l2523 6132                           l2515 60FA                           l2507 60B0  
                         l2451 5F8A                           l2611 677A                           l2603 6754  
                         l2443 6FB4                           l2435 6F98                           l2419 6EF2  
                         l2427 6F48                           l2371 6D76                           l2363 6D4A  
                         l2355 6D18                           l2347 6CDA                           l2339 6CA6  
                         l2291 6BD6                           l2283 6BA4                           l2275 6B7C  
                         l2267 6B5E                           l2259 6B2C                           l3315 5F5C  
                         l3307 5F30                           l3251 5D16                           l3243 5CFC  
                         l3147 544C                           l3139 5436                           l3171 5468  
                         l3163 545C                           l3227 5424                           l3149 54B2  
                         l3093 55B4                           l3085 5490                           l3077 5CE8  
                         l3069 5CA2                           l2541 61B4                           l2533 6180  
                         l2525 613E                           l2517 6100                           l2509 60CA  
                         l2461 5FCA                           l2453 5F98                           l2701 6AE6  
                         l2621 67D0                           l2613 678A                           l2605 675A  
                         l2445 6FB6                           l2437 6F9E                           l2429 6F58  
                         l2381 6DE2                           l2373 6D78                           l2365 6D58  
                         l2349 6CDC                           l2293 6BD8                           l2285 6BA6  
                         l2277 6B8E                           l2269 6B60                           l3317 5F6C  
                         l3309 5F32                           l3261 5D48                           l3253 5D20  
                         l3245 5D00                           l3181 556A                           l3165 545E  
                         l3157 5450                           l3173 53EA                           l3229 5428  
                         l3087 5412                           l3079 5CEA                           l2551 623C  
                         l2535 6196                           l2543 61C6                           l2527 615C  
                         l2519 6110                           l2471 5FEE                           l2463 5FCC  
                         l2455 5F9A                           l2703 6AF4                           l2631 6810  
                         l2615 679A                           l2607 6768                           l2439 6FA0  
                         l2391 6E3A                           l2383 6DE4                           l2375 6D82  
                         l2367 6D64                           l2359 6D2C                           l2287 6BB6  
                         l2295 6BDE                           l2279 6B90                           l3095 59B2  
                         l3271 5DA8                           l3263 5D52                           l3255 5D2A  
                         l3247 5D06                           l3183 556E                           l3175 5550  
                         l3167 5464                           l3159 5456                           l3089 558C  
                         l2561 629E                           l2553 6248                           l2545 61E4  
                         l2537 619C                           l2529 615E                           l2481 602E  
                         l2473 5FFC                           l2457 5FAA                           l2465 5FD2  
                         l2449 5F7E                           l2705 6AF6                           l2641 685A  
                         l2633 681C                           l2625 67E4                           l2617 67A0  
                         l2609 676A                           l2721 552E                           l2385 6DF4  
                         l2369 6D68                           l2377 6D88                           l2297 6BEE  
                         l2289 6BC6                           l2713 5608                           l2801 7856  
                         l3097 5AA2                           l3281 5E62                           l3273 5DD4  
                         l3265 5D56                           l3257 5D34                           l3249 5D10  
                         l3185 5574                           l3177 5554                           l3169 5466  
                         l3361 55EE                           l3353 55C8                           l3195 58AE  
                         l2571 62EC                           l2563 62B4                           l2555 6256  
                         l2547 6212                           l2539 61A6                           l2491 606C  
                         l2483 6030                           l2475 5FFE                           l2467 5FE2  
                         l2459 5FBA                           l2707 6AFC                           l2651 68AC  
                         l2643 6866                           l2635 6834                           l2627 67F0  
                         l2619 67C0                           l2723 553E                           l2395 6E4E  
                         l2379 6DAE                           l2387 6E04                           l2299 6C00  
                         l2715 5618                           l2731 580E                           l2811 796A  
                         l2803 785A                           l3099 5AEE                           l3291 5E9E  
                         l3283 5E72                           l3275 5E08                           l3267 5D74  
                         l3259 5D3E                           l3187 557A                           l3179 5558  
                         l3355 55CC                           l3197 58DC                           l2573 62FA  
                         l2565 62CE                           l2557 6280                           l2493 6074  
                         l2477 600E                           l2485 6036                           l2469 5FE8  
                         l2709 6B00                           l2661 692A                           l2653 68BC  
                         l2645 6876                           l2637 6840                           l2629 67FA  
                         l2397 6E58                           l2389 6E2A                           l2741 5860  
                         l2733 5836                           l2821 7ADA                           l2813 799E  
                         l2805 78FE                           l2901 6624                           l3293 5EA2  
                         l3285 5E74                           l3277 5E3A                           l3269 5D8C  
                         l3189 5584                           l3357 55D6                           l3199 58EC  
                         l2575 6300                           l2567 62E6                           l2559 6284  
                         l2495 6078                           l2487 6046                           l2479 601E  
                         l2671 69A4                           l2663 6960                           l2655 68D8  
                         l2647 6882                           l2639 684C                           l2591 6708  
                         l2719 5518                           l2399 6E66                           l2735 5842  
                         l2727 57B0                           l2751 5504                           l2831 7BAE  
                         l2823 7B0E                           l2815 79F6                           l2807 7902  
                         l2903 662E                           l3295 5EAA                           l3279 5E50  
                         l3287 5E7A                           l3359 55E2                           l2577 6302  
                         l2569 62E8                           l2489 605C                           l2681 6A2C  
                         l2673 69B6                           l2665 696E                           l2657 68E4  
                         l2649 6892                           l2593 6718                           l2585 66EC  
                         l2745 58A4                           l2729 57D0                           l2753 5506  
                         l2833 7C06                           l2825 7B1E                           l2817 7A4E  
                         l2809 7936                           l2761 75AA                           l2921 706C  
                         l2913 6FC8                           l2905 6644                           l3289 5E8C  
                         l3297 5EAC                           l2499 608C                           l2691 6A8E  
                         l2683 6A38                           l2675 69D4                           l2667 698C  
                         l2659 6900                           l2595 6728                           l2587 66F8  
                         l2739 584E                           l2835 7C54                           l2827 7B76  
                         l2819 7A82                           l2771 7640                           l2763 75AC  
                         l2931 710C                           l2923 708A                           l2915 6FEE  
                         l2907 665A                           l2851 6352                           l3299 5EC8  
                         l2693 6AA2                           l2685 6A46                           l2677 6A02  
                         l2669 6996                           l2597 6738                           l2589 6706  
                         l2749 54E4                           l2837 7C88                           l2781 76A4  
                         l2773 7652                           l2765 75C2                           l2757 7584  
                         l2917 7014                           l2853 6380                           l2861 63B2  
                         l2695 6ABC                           l2687 6A70                           l2599 673E  
                         l2839 7CD6                           l2791 7716                           l2775 7666  
                         l2767 75E8                           l2759 7594                           l2951 71AE  
                         l2935 713C                           l2927 70B2                           l2871 6420  
                         l2863 63D0                           l2855 638E                           l2847 630E  
                         l2697 6ACC                           l2689 6A74                           l2793 7718  
                         l2785 76C4                           l2769 75FC                           l2953 71C2  
                         l2945 7164                           l2929 710A                           l2881 64A6  
                         l2865 63FE                           l2857 639E                           l2849 631E  
                         l2699 6AD6                           l2795 77BC                           l2787 76E8  
                         l2779 768E                           l2971 723A                           l2963 7212  
                         l2939 7150                           l2947 718A                           l2891 6540  
                         l2883 64B0                           l2797 77C0                           l2789 7700  
                         l2981 7262                           l2949 71A0                           l2957 71D6  
                         l2893 656A                           l2885 64BC                           l2869 6412  
                         l2877 643E                           l2799 7840                           l2991 72B0  
                         l2983 7288                           l2975 724E                           l2967 7226  
                         l2959 71F2                           l2895 658A                           l2887 64CA  
                         l2879 6492                           l2897 659E                           l2889 6532  
                         l2995 72C4                           l2987 729C                           l2899 65DC  
                         _ADFM 7E07                           STR_1 7D2B                           u2000 6DAE  
                         u2001 6DAA                           u2010 6DF4                           u2011 6DF0  
                         u2100 6EDE                           u2020 6E2A                           u2101 6EDA  
                         u2021 6E26                           u2110 6EF2                           u2030 6E3A  
                         u2111 6EEE                           u2031 6E36                           u2200 5FAA  
                         u2120 6F0C                           u2040 6E66                           u3000 7124  
                         u2201 5FA6                           u2121 6F08                           u2041 6E62  
                         u3001 7120                           u2210 5FBA                           u2130 6F46  
                         u2050 6E76                           u3010 71A0                           u2211 5FB6  
                         u2131 6F42                           u2051 6E72                           u3011 719C  
                         u3100 5B5A                           u2300 6180                           u2220 5FFC  
                         u2140 6F58                           u2060 6E92                           u3020 71AE  
                         u3101 5B56                           u2301 617C                           u2221 5FF8  
                         u2141 6F54                           u2061 6E8E                           u3021 71AA  
                         _LATA 0F89                           u3110 5B68                           u2310 6196  
                         u2230 600E                           u2150 6F68                           u2070 6EA2  
                         u3030 71F2                           u3111 5B64                           u2311 6192  
                         u2231 600A                           u2151 6F64                           u2071 6E9E  
                         u3031 71EE                           u3200 5410                           u3120 5BC4  
                         u2400 62CE                           u2320 61B4                           u2240 601E  
                         u2160 6F88                           u2080 6EB2                           u3040 720E  
                         u3201 540C                           u3121 5BC0                           u2401 62CA  
                         u2321 61B0                           u2241 601A                           u2161 6F84  
                         u2081 6EAE                           u3041 720A                           u3210 54A2  
                         u3130 5C1A                           u2410 62FA                           u2330 61D4  
                         u2250 605C                           u2170 6F98                           u2090 6EC8  
                         u3050 7334                           u3211 549E                           u3131 5C16  
                         u2411 62F6                           u2331 61D0                           u2251 6058  
                         u2171 6F94                           u2091 6EC4                           u3051 7330  
                         u3220 54B0                           u3300 58DC                           u3140 5C64  
                         u2340 61E4                           u2260 609C                           u2500 694A  
                         u2420 6706                           u2180 6FB4                           u3060 7350  
                         u3221 54AC                           u3301 58D8                           u3141 5C60  
                         u2341 61E0                           u2261 6098                           u2421 6702  
                         u2181 6FB0                           u3061 734C                           u3230 5422  
                         u3310 591A                           u3150 5C82                           u2350 6212  
                         u2270 6110                           u2190 5F98                           u2510 69A4  
                         u2430 6718                           u3070 735E                           u3231 541E  
                         u3311 5916                           u3151 5C7E                           u2351 620E  
                         u2271 610C                           u2191 5F94                           u2511 69A0  
                         u2431 6714                           u3071 735A                           u3240 559C  
                         u3320 5938                           u3160 5C92                           u2360 6228  
                         u2280 6132                           u2600 6AF4                           u2520 69C4  
                         u2440 6728                           u1800 6B2C                           u3080 7394  
                         u3400 5E50                           u3241 5598                           u3321 5934  
                         u3161 5C8E                           u2361 6224                           u2281 612E  
                         u2601 6AF0                           u2521 69C0                           u2505 6940  
                         u2441 6724                           u1801 6B28                           u3081 7390  
                         u3401 5E4C                           u3250 55B2                           u3330 5958  
                         u3170 5CA0                           u2370 623C                           u2290 615C  
                         u2530 69D4                           u2450 6768                           u2610 552E  
                         u1810 6B3E                           u3090 73CA                           u3410 5E62  
                         u3251 55AC                           u3331 5954                           u3171 5C9C  
                         u2371 6238                           u2291 6158                           u2531 69D0  
                         u2451 6764                           u2611 552A                           u1811 6B3A  
                         u3091 73C6                           u3411 5E5E                           u3340 59A8  
                         u3180 5CDA                           u2380 6256                           u2540 6A02  
                         u2460 677A                           u1900 6C92                           u1820 6B4E  
                         u2620 57F0                           u2700 75A8                           u3420 5E8C  
                         u3341 59A4                           u3181 5CD6                           u2381 6252  
                         u2541 69FE                           u2461 6776                           u1901 6C8C  
                         u1821 6B4A                           u3421 5E88                           u3350 568C  
                         u3270 55C4                           u3190 5CE8                           u2390 629E  
                         u2550 6A18                           u2470 678A                           u1910 6C94  
                         u1830 6B8E                           u2630 580E                           u2710 75C2  
                         u3430 5E9E                           u3351 5688                           u3271 55C0  
                         u3191 5CE4                           u2391 629A                           u2551 6A14  
                         u2471 6786                           u1831 6B8A                           u2631 580A  
                         u2711 75BE                           u3431 5E9A                           u3280 54C4  
                         u3360 56B6                           u2560 6A2C                           u2480 67C0  
                         u1920 6CBC                           u1840 6BA4                           u2640 5836  
                         u2800 7CE8                           u2720 75E8                           u3440 5EFA  
                         u3281 54C0                           u3361 56B2                           u3265 55B4  
                         u2561 6A28                           u2481 67BC                           u1921 6CB8  
                         u1841 6BA0                           u2641 5832                           u2625 57E6  
                         u2801 7CE4                           u2721 75E4                           u3441 5EF6  
                         u3370 56DA                           u2570 6A46                           u2490 67D0  
                         u1930 6CDA                           u1850 6BB6                           u2650 5860  
                         u2730 7652                           u2810 6352                           u3450 5F0E  
                         u3371 56D6                           u2571 6A42                           u2491 67CC  
                         u1931 6CD6                           u1851 6BB2                           u2651 585C  
                         u2731 764E                           u2811 634E                           u3451 5F0A  
            ??_Check_Gyroscope 00E5                           u2580 6A8E                           u1940 6CFA  
                         u1860 6BC6                           u2740 76A4                           u2900 6540  
                         u2820 6380                           u3460 5F20                           u2581 6A8A  
                         u1941 6CF6                           u1861 6BC2                           u2741 76A0  
                         u2901 653C                           u2821 637C                           u3461 5F1C  
                         u3517 55F6                           u2590 6ABC                           u1950 6D08  
                         u1870 6C00                           u2670 589A                           u2750 76BA  
                         u2910 65DC                           u2830 638E                           u3470 5F4A  
                         u3390 5E3A                           u2591 6AB8                           u1951 6D04  
                         u1871 6BFC                           u2671 5894                           u2751 76B6  
                         u2911 65D8                           u2831 638A                           u3471 5F46  
                         u3391 5E36                           u3527 5560                           u1960 6D18  
                         u1880 6C0E                           u2680 589C                           u2760 7700  
                         u2920 6644                           u2840 63D0                           u3480 5F5C  
                         u1961 6D14                           u1881 6C0A                           u2665 5872  
                         u2761 76FC                           u2921 6640                           u2841 63CC  
                         u3481 5F58                           u3537 5EB8                           u1970 6D4A  
                         u1890 6C7A                           u2770 7716                           u2690 75A6  
                         u2930 665A                           u2850 63FE                           u1971 6D46  
                         u1891 6C76                           u2771 7712                           u2691 75A0  
                         u2931 6656                           u2851 63FA                           u1980 6D58  
                         u2780 7856                           u2860 6420                           u1981 6D54  
                         u2781 7852                           u2861 641C                           u1990 6D76  
                         u2790 7B1E                           u2950 6FEE                           u1991 6D72  
                         u2791 7B1A                           u2951 6FEA                           u2960 7014  
                         u2880 6492                           u2961 7010                           u2945 66C6  
                         u2881 648E                           u2970 708A                           u2890 64CA  
                         u2971 7086                           u2891 64C6                           u2875 6452  
                         u2980 70D2                           u2876 645C                           _RCEN 7E2B  
                         u2877 646C                           u2990 70FC                           u2985 70C8  
                         u2995 70F2                           _accX 012A                           _accY 00F7  
                         _accZ 0128                           _main 55C8               __end_of_I2C_Init 5400  
             __end_of_I2C_Read 55C8               __end_of_I2C_Stop 5424               __end_of_ADC_Read 54E4  
                ___fpclassifyf 57B0                           prodh 0FF4                           prodl 0FF3  
                         start 0000                ___fldiv@new_exp 006E                   ___param_bank 0000  
                  _Calibration 56E4  __end_of_OSCILLATOR_Initialize 53F2                __end_of___fladd 6FC8  
                        ?_main 0001                          _ACKEN 7E2C                          _ACKDT 7E2D  
              __end_of___fldiv 630E               ?_calculate_angle 00D7                __end_of___flneg 5550  
              __end_of___flmul 6B12                __end_of___flsub 564E                          _IRCF0 7E9C  
                        _IRCF1 7E9D                          _IRCF2 7E9E                          _RCREG 0FAE  
                        _SPBRG 0FAF                          _TRISA 0F92                          _TRISB 0F93  
                        _TXREG 0FAD                          _fabsf 54E4                          _angle 011C  
                        _atanf 7584                          _count 0130                          _errno 0124  
                        _pi_lo 7D23                          _sqrtf 630E              __end_of_I2C_Start 5412  
            __end_of_I2C_Write 54B2                          tablat 0FF5                          status 0FD8  
               ?___fpclassifyf 0001                __initialization 546C                   __end_of_main 5608  
                       ??_main 00EE         ??_Gyroscope_Initialize 00ED                  __activetblptr 0002  
               _postpostscaler 0126                         ?_fabsf 0076                         ?_atanf 0080  
                       _ADCON1 0FC1                         _ADRESH 0FC4                         _ADRESL 0FC3  
                       ?_sqrtf 0038                         _OSCCON 0FD3                         _SSPADD 0FC8  
                       _SSPBUF 0FC9               __end_of___xxtofl 5CFC                         ___flge 58AE  
                    ??___fladd 0030                      ??___fldiv 0065                      ??___flneg 0005  
                    ??___flmul 0017                         _atan2f 6FC8                      ??___flsub 0040  
                       _atanhi 7CFF                         _atanlo 7CEF                ADC_Read@channel 0001  
                       _lenStr 0132                         fabsf@u 007A                         fabsf@x 0076  
              ADC_Read@digital 0005                         clear_0 5472                         clear_1 547E  
                       atanf@w 00A1                         atanf@x 0080                         atanf@z 00A6  
                       isa$std 0001                      ?_I2C_Init 0001                      ?_I2C_Read 0001  
                    ?_I2C_Stop 0001                ___fpclassifyf@e 0009                ___fpclassifyf@u 000B  
                    ?_ADC_Read 0001                ___fpclassifyf@x 0001           _Check_Gyroscope$1833 00E7  
                 __mediumconst 7CEE                         tblptrh 0FF7                         tblptrl 0FF6  
                       tblptru 0FF8              __end_of_Check_ADC 56E4                         sqrtf@i 0045  
                       sqrtf@m 0051                         sqrtf@q 0049                         sqrtf@r 0055  
                       sqrtf@s 0041                         sqrtf@t 004D                         sqrtf@x 0038  
                   ___flge@ff1 0001                ??___fpclassifyf 0005                     ___flge@ff2 0005  
                 ___xxtofl@arg 000B                   ___xxtofl@exp 000A              _SYSTEM_Initialize 5424  
                 ___xxtofl@val 0001                     __accesstop 0080        __end_of__initialization 5484  
                   ___flneg@f1 0001             ?_SYSTEM_Initialize 0001                  ___rparam_used 0001  
               __pcstackCOMRAM 0001            ??_SYSTEM_Initialize 0080                  __end_of_fabsf 5518  
                __end_of_atanf 7CEE                  __end_of_pi_lo 7D27                  __end_of_sqrtf 66EC  
                   __end_of_pi 7D2B                _Check_Gyroscope 5CFC                     ??_I2C_Init 0001  
                   ??_I2C_Read 0001                     ??_I2C_Stop 0001                     ??_ADC_Read 0003  
              Calibration@accX 00E5                Calibration@accZ 00E7                        ??_fabsf 007A  
                      ??_atanf 007E      __end_of_SYSTEM_Initialize 5436                        ??_sqrtf 003C  
                   __pbssBANK0 00F3                     __pbssBANK1 0100                     _atanf$1840 0084  
                   _atanf$1841 009C                     _atanf$1842 0088                     _atanf$1843 008C  
                   _atanf$1839 0098                   I2C_Read@data 0002                   ?_Calibration 0001  
                      ?___flge 0001                        ?_atan2f 00AE                        _CCP1CON 0FBD  
                    ?___xxtofl 0001                        _SSPCON1 0FC6                        _SSPCON2 0FC5  
                      _SSPSTAT 0FC7                      _I2C_Start 5400                      _I2C_Write 548E  
                      __Hparam 0000                        __Lparam 0000                        ___fladd 6B12  
      __end_of_Check_Gyroscope 5F7E                        ___fldiv 5F7E                        ___flneg 5518  
                      ___flmul 66EC                        ___flsub 5608                        __pcinit 546C  
                      __ramtop 0600                        __ptext0 55C8                        __ptext1 5424  
                      __ptext2 53EA                        __ptext3 5450                        __ptext4 5550  
                      __ptext5 53F2                        __ptext6 56E4                        __ptext7 5436  
                      __ptext8 5CFC                        __ptext9 59B2          _OSCILLATOR_Initialize 53EA  
                      atan2f@m 00D6                        atan2f@x 00B2                        atan2f@y 00AE  
                      atan2f@z 00CA                     ??___xxtofl 0005                        atanf@s1 0090  
                      atanf@s2 0094                        atanf@id 00A5                        atanf@ix 00AA  
         end_of_initialization 5484                  __Lmediumconst 7CEE                     ?_I2C_Start 0001  
                   ?_I2C_Write 0001                      _RCSTAbits 0FAB                        postinc0 0FEE  
                      sqrtf@ix 0059       Check_ADC@bend_sensor_val 000C                    ___fladd@grs 0037  
                ___xxtofl@sign 0009                      _TRISAbits 0F92                      _TRISCbits 0F94  
                  ___fldiv@grs 0070                    ___fldiv@rem 0069                    ___flmul@grs 001C  
                    _Check_ADC 564E                      _TXSTAbits 0FAC   __end_of_INTERRUPT_Initialize 546C  
             ?_Check_Gyroscope 007E                 __end_of___flge 59B2                 __end_of_atan2f 7584  
                  _BAUDCONbits 0FB8                 __end_of_atanhi 7D0F                 __end_of_atanlo 7CFF  
               _ADC_Initialize 5436         ?_OSCILLATOR_Initialize 0001            start_initialization 546C  
                  __end_of_aT0 7D23                    __end_of_aT1 7D1F                    __end_of_aT2 7D1B  
                  __end_of_aT3 7D17                    __end_of_aT4 7D13           Calibration@accX_high 00E9  
         Calibration@accZ_high 00EB                     ?_Check_ADC 0007          __end_of___fpclassifyf 58AE  
                  ??_I2C_Start 0001              ??_calculate_angle 007E                    ??_I2C_Write 0001  
                     ??___flge 0009                       ??_atan2f 00B6         __end_of_ADC_Initialize 5450  
                  _atan2f$1836 00BE                    _atan2f$1837 00C2                    _atan2f$1838 00C6  
              main@blinker_dir 00F1                      ___fladd@a 002C                      ___fladd@b 0028  
                    ___fldiv@a 0061                      ___fldiv@b 005D                      _accX_high 00FE  
                    _accY_high 00FC                      ___flmul@a 0013                      ___flmul@b 000F  
                    _accZ_high 00FA                      ___flsub@a 003C                      ___flsub@b 0038  
                __pcstackBANK0 0080                    I2C_Read@ack 0001                  __pmediumconst 7CEE  
                     ?___fladd 0028                       ?___fldiv 005D                       ?___flneg 0001  
                     ?___flmul 000F                       ?___flsub 0038                ?_ADC_Initialize 0001  
     main@prev_bend_sensor_val 00EF           _calculate_angle$1834 00DD           _calculate_angle$1835 00E1  
                    fabsf@F465 0114                       _I2C_Init 53F2                       _I2C_Read 558A  
                     _I2C_Stop 5412                       _ADC_Read 54B2           _INTERRUPT_Initialize 5450  
                  _isConnected 012E                    ??_Check_ADC 0009                       _LATAbits 0F89  
                     _LATBbits 0F8A                       _IPR1bits 0F9F                       _PIE1bits 0F9D  
                     _PIR1bits 0F9E                      atanf@sign 00A0                       _RCONbits 0FD0  
                   _ADCON0bits 0FC2     Check_Gyroscope@blinker_dir 007E                     _ADCON2bits 0FC0  
                  _needSendMsg 012C          ?_INTERRUPT_Initialize 0001            Calibration@accX_low 00EA  
          Calibration@accZ_low 00EC   __end_of_Gyroscope_Initialize 558A                       __Hrparam 0000  
                     __Lrparam 0000                  I2C_Write@data 0001        ??_OSCILLATOR_Initialize 0001  
                     _accX_low 00FD                       _accY_low 00FB                       _accZ_low 00F9  
           ___fpclassifyf@F465 0118                       ___xxtofl 5B48                _calculate_angle 59B2  
                 _pitch_offset 0120                       __ptext10 630E                       __ptext11 6FC8  
                     __ptext20 5B48                       __ptext12 7584                       __ptext21 58AE  
                     __ptext13 54E4                       __ptext22 548E                       __ptext14 57B0  
                     __ptext23 5412                       __ptext15 5608                       __ptext24 5400  
                     __ptext16 6B12                       __ptext25 558A                       __ptext17 5518  
                     __ptext26 564E                       __ptext18 66EC                       __ptext27 54B2  
                     __ptext19 5F7E                       _from_mid 00F3                       atan2f@ix 00CE  
                     atan2f@iy 00D2                  ??_Calibration 007E                       isa$xinst 0000  
                     _mystring 0134                     _INTCONbits 0FF2         ??_INTERRUPT_Initialize 0001  
             ??_ADC_Initialize 0001        __end_of_calculate_angle 5B48            __end_of_Calibration 57B0  
         _Gyroscope_Initialize 5550                    _SSPCON2bits 0FC5                  ___fladd@signs 0034  
                 ___fladd@aexp 0035                   ___fladd@bexp 0036            calculate_angle@accX 00D7  
          calculate_angle@accY 00D9            calculate_angle@accZ 00DB  
