

Microchip MPLAB XC8 Assembler V2.50 build 20240725155939 
                                                                                               Tue Jan 14 20:14:58 2025

Microchip MPLAB XC8 C Compiler v2.50 (Free license) build 20240725155939 Og1 
     1                           	processor	18F4520
     2                           	fnconf	rparam,??,?,0
     3                           	pagewidth 120
     4                           	opt	flic
     5                           	psect	mediumconst,global,reloc=2,class=MEDIUMCONST,space=0,delta=1,noexec
     6                           	psect	cinit,global,reloc=2,class=CODE,space=0,delta=1
     7                           	psect	bssCOMRAM,global,class=COMRAM,space=1,delta=1,lowdata,noexec
     8                           	psect	bssBANK0,global,class=BANK0,space=1,delta=1,lowdata,noexec
     9                           	psect	bssBANK1,global,class=BANK1,space=1,delta=1,lowdata,noexec
    10                           	psect	cstackBANK1,global,class=BANK1,space=1,delta=1,lowdata,noexec
    11                           	psect	cstackBANK0,global,class=BANK0,space=1,delta=1,lowdata,noexec
    12                           	psect	cstackCOMRAM,global,class=COMRAM,space=1,delta=1,lowdata,noexec
    13                           	psect	text0,global,reloc=2,class=CODE,space=0,delta=1
    14                           	psect	text1,global,reloc=2,class=CODE,space=0,delta=1
    15                           	psect	text2,global,reloc=2,class=CODE,space=0,delta=1
    16                           	psect	text3,global,reloc=2,class=CODE,space=0,delta=1
    17                           	psect	text4,global,reloc=2,class=CODE,space=0,delta=1
    18                           	psect	text5,global,reloc=2,class=CODE,space=0,delta=1
    19                           	psect	text6,global,reloc=2,class=CODE,space=0,delta=1
    20                           	psect	text7,global,reloc=2,class=CODE,space=0,delta=1
    21                           	psect	text8,global,reloc=2,class=CODE,space=0,delta=1
    22                           	psect	text9,global,reloc=2,class=CODE,space=0,delta=1
    23                           	psect	text10,global,reloc=2,class=CODE,space=0,delta=1
    24                           	psect	text11,global,reloc=2,class=CODE,space=0,delta=1,group=2
    25                           	psect	text12,global,reloc=2,class=CODE,space=0,delta=1,group=2
    26                           	psect	text13,global,reloc=2,class=CODE,space=0,delta=1,group=2
    27                           	psect	text14,global,reloc=2,class=CODE,space=0,delta=1,group=2
    28                           	psect	text15,global,reloc=2,class=CODE,space=0,delta=1,group=2
    29                           	psect	text16,global,reloc=2,class=CODE,space=0,delta=1,group=1
    30                           	psect	text17,global,reloc=2,class=CODE,space=0,delta=1,group=1
    31                           	psect	text18,global,reloc=2,class=CODE,space=0,delta=1,group=1
    32                           	psect	text19,global,reloc=2,class=CODE,space=0,delta=1,group=1
    33                           	psect	text20,global,reloc=2,class=CODE,space=0,delta=1,group=1
    34                           	psect	text21,global,reloc=2,class=CODE,space=0,delta=1,group=1
    35                           	psect	text22,global,reloc=2,class=CODE,space=0,delta=1,group=1
    36                           	psect	text23,global,reloc=2,class=CODE,space=0,delta=1
    37                           	psect	text24,global,reloc=2,class=CODE,space=0,delta=1
    38                           	psect	text25,global,reloc=2,class=CODE,space=0,delta=1
    39                           	psect	text26,global,reloc=2,class=CODE,space=0,delta=1
    40                           	psect	text27,global,reloc=2,class=CODE,space=0,delta=1
    41                           	psect	text28,global,reloc=2,class=CODE,space=0,delta=1
    42                           	psect	intcodelo,global,reloc=2,class=CODE,space=0,delta=1
    43                           	psect	intsave_regs,global,class=BIGRAM,space=1,delta=1,noexec
    44                           	psect	rparam,global,class=COMRAM,space=1,delta=1,noexec
    45                           	psect	temp,global,ovrld,common,class=COMRAM,space=1,delta=1,lowdata
    46                           	psect	idloc,global,abs,ovrld,class=IDLOC,space=5,delta=1,noexec
    47                           	psect	config,global,abs,ovrld,class=CONFIG,space=4,delta=1,noexec
    48   000000                     
    49                           ; Generated 25/07/2024 GMT
    50                           ; 
    51                           ; Copyright © 2024, Microchip Technology Inc. and its subsidiaries ("Microchip")
    52                           ; All rights reserved.
    53                           ; 
    54                           ; This software is developed by Microchip Technology Inc. and its subsidiaries ("Microch
      +                          ip").
    55                           ; 
    56                           ; Redistribution and use in source and binary forms, with or without modification, are
    57                           ; permitted provided that the following conditions are met:
    58                           ; 
    59                           ;     1. Redistributions of source code must retain the above copyright notice, this lis
      +                          t of
    60                           ;        conditions and the following disclaimer.
    61                           ; 
    62                           ;     2. Redistributions in binary form must reproduce the above copyright notice, this 
      +                          list
    63                           ;        of conditions and the following disclaimer in the documentation and/or other
    64                           ;        materials provided with the distribution. Publication is not required when
    65                           ;        this file is used in an embedded application.
    66                           ; 
    67                           ;     3. Microchip's name may not be used to endorse or promote products derived from th
      +                          is
    68                           ;        software without specific prior written permission.
    69                           ; 
    70                           ; THIS SOFTWARE IS PROVIDED BY MICROCHIP "AS IS" AND ANY EXPRESS OR IMPLIED WARRANTIES,
    71                           ; INCLUDING, BUT NOT LIMITED TO, THE IMPLIED WARRANTIES OF MERCHANTABILITY AND FITNESS F
      +                          OR
    72                           ; PURPOSE ARE DISCLAIMED.  IN NO EVENT SHALL MICROCHIP BE LIABLE FOR ANY DIRECT, INDIREC
      +                          T,
    73                           ; INCIDENTAL, SPECIAL, EXEMPLARY, OR CONSEQUENTIAL DAMAGES (INCLUDING BUT NOT LIMITED TO
    74                           ; PROCUREMENT OF SUBSTITUTE GOODS OR SERVICES; LOSS OF USE, DATA OR PROFITS; OR BUSINESS
    75                           ; INTERRUPTION) HOWSOEVER CAUSED AND ON ANY THEORY OF LIABILITY, WHETHER IN CONTRACT, ST
      +                          RICT
    76                           ; LIABILITY, OR TORT (INCLUDING NEGLIGENCE OR OTHERWISE) ARISING IN ANY WAY OUT OF THE U
      +                          SE OF
    77                           ; THIS SOFTWARE, EVEN IF ADVISED OF THE POSSIBILITY OF SUCH DAMAGE.
    78                           ; 
    79                           ; 
    80                           ; Code-generator required, PIC18F4520 Definitions
    81                           ; 
    82                           ; SFR Addresses
    83   000FE0                     bsr             equ	4064
    84   000FE9                     fsr0            equ	4073
    85   000FEA                     fsr0h           equ	4074
    86   000FE9                     fsr0l           equ	4073
    87   000FE1                     fsr1            equ	4065
    88   000FE2                     fsr1h           equ	4066
    89   000FE1                     fsr1l           equ	4065
    90   000FD9                     fsr2            equ	4057
    91   000FDA                     fsr2h           equ	4058
    92   000FD9                     fsr2l           equ	4057
    93   000FEF                     indf0           equ	4079
    94   000FE7                     indf1           equ	4071
    95   000FDF                     indf2           equ	4063
    96   000FF2                     intcon          equ	4082
    97   000000                     nvmcon          equ	0
    98   000FF9                     pcl             equ	4089
    99   000FFA                     pclath          equ	4090
   100   000FFB                     pclatu          equ	4091
   101   000FEB                     plusw0          equ	4075
   102   000FE3                     plusw1          equ	4067
   103   000FDB                     plusw2          equ	4059
   104   000FED                     postdec0        equ	4077
   105   000FE5                     postdec1        equ	4069
   106   000FDD                     postdec2        equ	4061
   107   000FEE                     postinc0        equ	4078
   108   000FE6                     postinc1        equ	4070
   109   000FDE                     postinc2        equ	4062
   110   000FEC                     preinc0         equ	4076
   111   000FE4                     preinc1         equ	4068
   112   000FDC                     preinc2         equ	4060
   113   000FF3                     prod            equ	4083
   114   000FF4                     prodh           equ	4084
   115   000FF3                     prodl           equ	4083
   116   000FD8                     status          equ	4056
   117   000FF5                     tablat          equ	4085
   118   000FF6                     tblptr          equ	4086
   119   000FF7                     tblptrh         equ	4087
   120   000FF6                     tblptrl         equ	4086
   121   000FF8                     tblptru         equ	4088
   122   000FFD                     tosl            equ	4093
   123   000FE8                     wreg            equ	4072
   124   000F80                     PORTA           equ	3968	;# 
   125   000F81                     PORTB           equ	3969	;# 
   126   000F82                     PORTC           equ	3970	;# 
   127   000F83                     PORTD           equ	3971	;# 
   128   000F84                     PORTE           equ	3972	;# 
   129   000F89                     LATA            equ	3977	;# 
   130   000F8A                     LATB            equ	3978	;# 
   131   000F8B                     LATC            equ	3979	;# 
   132   000F8C                     LATD            equ	3980	;# 
   133   000F8D                     LATE            equ	3981	;# 
   134   000F92                     TRISA           equ	3986	;# 
   135   000F92                     DDRA            equ	3986	;# 
   136   000F93                     TRISB           equ	3987	;# 
   137   000F93                     DDRB            equ	3987	;# 
   138   000F94                     TRISC           equ	3988	;# 
   139   000F94                     DDRC            equ	3988	;# 
   140   000F95                     TRISD           equ	3989	;# 
   141   000F95                     DDRD            equ	3989	;# 
   142   000F96                     TRISE           equ	3990	;# 
   143   000F96                     DDRE            equ	3990	;# 
   144   000F9B                     OSCTUNE         equ	3995	;# 
   145   000F9D                     PIE1            equ	3997	;# 
   146   000F9E                     PIR1            equ	3998	;# 
   147   000F9F                     IPR1            equ	3999	;# 
   148   000FA0                     PIE2            equ	4000	;# 
   149   000FA1                     PIR2            equ	4001	;# 
   150   000FA2                     IPR2            equ	4002	;# 
   151   000FA6                     EECON1          equ	4006	;# 
   152   000FA7                     EECON2          equ	4007	;# 
   153   000FA8                     EEDATA          equ	4008	;# 
   154   000FA9                     EEADR           equ	4009	;# 
   155   000FAB                     RCSTA           equ	4011	;# 
   156   000FAB                     RCSTA1          equ	4011	;# 
   157   000FAC                     TXSTA           equ	4012	;# 
   158   000FAC                     TXSTA1          equ	4012	;# 
   159   000FAD                     TXREG           equ	4013	;# 
   160   000FAD                     TXREG1          equ	4013	;# 
   161   000FAE                     RCREG           equ	4014	;# 
   162   000FAE                     RCREG1          equ	4014	;# 
   163   000FAF                     SPBRG           equ	4015	;# 
   164   000FAF                     SPBRG1          equ	4015	;# 
   165   000FB0                     SPBRGH          equ	4016	;# 
   166   000FB1                     T3CON           equ	4017	;# 
   167   000FB2                     TMR3            equ	4018	;# 
   168   000FB2                     TMR3L           equ	4018	;# 
   169   000FB3                     TMR3H           equ	4019	;# 
   170   000FB4                     CMCON           equ	4020	;# 
   171   000FB5                     CVRCON          equ	4021	;# 
   172   000FB6                     ECCP1AS         equ	4022	;# 
   173   000FB6                     ECCPAS          equ	4022	;# 
   174   000FB7                     PWM1CON         equ	4023	;# 
   175   000FB7                     ECCP1DEL        equ	4023	;# 
   176   000FB8                     BAUDCON         equ	4024	;# 
   177   000FB8                     BAUDCTL         equ	4024	;# 
   178   000FBA                     CCP2CON         equ	4026	;# 
   179   000FBB                     CCPR2           equ	4027	;# 
   180   000FBB                     CCPR2L          equ	4027	;# 
   181   000FBC                     CCPR2H          equ	4028	;# 
   182   000FBD                     CCP1CON         equ	4029	;# 
   183   000FBE                     CCPR1           equ	4030	;# 
   184   000FBE                     CCPR1L          equ	4030	;# 
   185   000FBF                     CCPR1H          equ	4031	;# 
   186   000FC0                     ADCON2          equ	4032	;# 
   187   000FC1                     ADCON1          equ	4033	;# 
   188   000FC2                     ADCON0          equ	4034	;# 
   189   000FC3                     ADRES           equ	4035	;# 
   190   000FC3                     ADRESL          equ	4035	;# 
   191   000FC4                     ADRESH          equ	4036	;# 
   192   000FC5                     SSPCON2         equ	4037	;# 
   193   000FC6                     SSPCON1         equ	4038	;# 
   194   000FC7                     SSPSTAT         equ	4039	;# 
   195   000FC8                     SSPADD          equ	4040	;# 
   196   000FC9                     SSPBUF          equ	4041	;# 
   197   000FCA                     T2CON           equ	4042	;# 
   198   000FCB                     PR2             equ	4043	;# 
   199   000FCB                     MEMCON          equ	4043	;# 
   200   000FCC                     TMR2            equ	4044	;# 
   201   000FCD                     T1CON           equ	4045	;# 
   202   000FCE                     TMR1            equ	4046	;# 
   203   000FCE                     TMR1L           equ	4046	;# 
   204   000FCF                     TMR1H           equ	4047	;# 
   205   000FD0                     RCON            equ	4048	;# 
   206   000FD1                     WDTCON          equ	4049	;# 
   207   000FD2                     HLVDCON         equ	4050	;# 
   208   000FD2                     LVDCON          equ	4050	;# 
   209   000FD3                     OSCCON          equ	4051	;# 
   210   000FD5                     T0CON           equ	4053	;# 
   211   000FD6                     TMR0            equ	4054	;# 
   212   000FD6                     TMR0L           equ	4054	;# 
   213   000FD7                     TMR0H           equ	4055	;# 
   214   000FD8                     STATUS          equ	4056	;# 
   215   000FD9                     FSR2            equ	4057	;# 
   216   000FD9                     FSR2L           equ	4057	;# 
   217   000FDA                     FSR2H           equ	4058	;# 
   218   000FDB                     PLUSW2          equ	4059	;# 
   219   000FDC                     PREINC2         equ	4060	;# 
   220   000FDD                     POSTDEC2        equ	4061	;# 
   221   000FDE                     POSTINC2        equ	4062	;# 
   222   000FDF                     INDF2           equ	4063	;# 
   223   000FE0                     BSR             equ	4064	;# 
   224   000FE1                     FSR1            equ	4065	;# 
   225   000FE1                     FSR1L           equ	4065	;# 
   226   000FE2                     FSR1H           equ	4066	;# 
   227   000FE3                     PLUSW1          equ	4067	;# 
   228   000FE4                     PREINC1         equ	4068	;# 
   229   000FE5                     POSTDEC1        equ	4069	;# 
   230   000FE6                     POSTINC1        equ	4070	;# 
   231   000FE7                     INDF1           equ	4071	;# 
   232   000FE8                     WREG            equ	4072	;# 
   233   000FE9                     FSR0            equ	4073	;# 
   234   000FE9                     FSR0L           equ	4073	;# 
   235   000FEA                     FSR0H           equ	4074	;# 
   236   000FEB                     PLUSW0          equ	4075	;# 
   237   000FEC                     PREINC0         equ	4076	;# 
   238   000FED                     POSTDEC0        equ	4077	;# 
   239   000FEE                     POSTINC0        equ	4078	;# 
   240   000FEF                     INDF0           equ	4079	;# 
   241   000FF0                     INTCON3         equ	4080	;# 
   242   000FF1                     INTCON2         equ	4081	;# 
   243   000FF2                     INTCON          equ	4082	;# 
   244   000FF3                     PROD            equ	4083	;# 
   245   000FF3                     PRODL           equ	4083	;# 
   246   000FF4                     PRODH           equ	4084	;# 
   247   000FF5                     TABLAT          equ	4085	;# 
   248   000FF6                     TBLPTR          equ	4086	;# 
   249   000FF6                     TBLPTRL         equ	4086	;# 
   250   000FF7                     TBLPTRH         equ	4087	;# 
   251   000FF8                     TBLPTRU         equ	4088	;# 
   252   000FF9                     PCLAT           equ	4089	;# 
   253   000FF9                     PC              equ	4089	;# 
   254   000FF9                     PCL             equ	4089	;# 
   255   000FFA                     PCLATH          equ	4090	;# 
   256   000FFB                     PCLATU          equ	4091	;# 
   257   000FFC                     STKPTR          equ	4092	;# 
   258   000FFD                     TOS             equ	4093	;# 
   259   000FFD                     TOSL            equ	4093	;# 
   260   000FFE                     TOSH            equ	4094	;# 
   261   000FFF                     TOSU            equ	4095	;# 
   262   000F80                     PORTA           equ	3968	;# 
   263   000F81                     PORTB           equ	3969	;# 
   264   000F82                     PORTC           equ	3970	;# 
   265   000F83                     PORTD           equ	3971	;# 
   266   000F84                     PORTE           equ	3972	;# 
   267   000F89                     LATA            equ	3977	;# 
   268   000F8A                     LATB            equ	3978	;# 
   269   000F8B                     LATC            equ	3979	;# 
   270   000F8C                     LATD            equ	3980	;# 
   271   000F8D                     LATE            equ	3981	;# 
   272   000F92                     TRISA           equ	3986	;# 
   273   000F92                     DDRA            equ	3986	;# 
   274   000F93                     TRISB           equ	3987	;# 
   275   000F93                     DDRB            equ	3987	;# 
   276   000F94                     TRISC           equ	3988	;# 
   277   000F94                     DDRC            equ	3988	;# 
   278   000F95                     TRISD           equ	3989	;# 
   279   000F95                     DDRD            equ	3989	;# 
   280   000F96                     TRISE           equ	3990	;# 
   281   000F96                     DDRE            equ	3990	;# 
   282   000F9B                     OSCTUNE         equ	3995	;# 
   283   000F9D                     PIE1            equ	3997	;# 
   284   000F9E                     PIR1            equ	3998	;# 
   285   000F9F                     IPR1            equ	3999	;# 
   286   000FA0                     PIE2            equ	4000	;# 
   287   000FA1                     PIR2            equ	4001	;# 
   288   000FA2                     IPR2            equ	4002	;# 
   289   000FA6                     EECON1          equ	4006	;# 
   290   000FA7                     EECON2          equ	4007	;# 
   291   000FA8                     EEDATA          equ	4008	;# 
   292   000FA9                     EEADR           equ	4009	;# 
   293   000FAB                     RCSTA           equ	4011	;# 
   294   000FAB                     RCSTA1          equ	4011	;# 
   295   000FAC                     TXSTA           equ	4012	;# 
   296   000FAC                     TXSTA1          equ	4012	;# 
   297   000FAD                     TXREG           equ	4013	;# 
   298   000FAD                     TXREG1          equ	4013	;# 
   299   000FAE                     RCREG           equ	4014	;# 
   300   000FAE                     RCREG1          equ	4014	;# 
   301   000FAF                     SPBRG           equ	4015	;# 
   302   000FAF                     SPBRG1          equ	4015	;# 
   303   000FB0                     SPBRGH          equ	4016	;# 
   304   000FB1                     T3CON           equ	4017	;# 
   305   000FB2                     TMR3            equ	4018	;# 
   306   000FB2                     TMR3L           equ	4018	;# 
   307   000FB3                     TMR3H           equ	4019	;# 
   308   000FB4                     CMCON           equ	4020	;# 
   309   000FB5                     CVRCON          equ	4021	;# 
   310   000FB6                     ECCP1AS         equ	4022	;# 
   311   000FB6                     ECCPAS          equ	4022	;# 
   312   000FB7                     PWM1CON         equ	4023	;# 
   313   000FB7                     ECCP1DEL        equ	4023	;# 
   314   000FB8                     BAUDCON         equ	4024	;# 
   315   000FB8                     BAUDCTL         equ	4024	;# 
   316   000FBA                     CCP2CON         equ	4026	;# 
   317   000FBB                     CCPR2           equ	4027	;# 
   318   000FBB                     CCPR2L          equ	4027	;# 
   319   000FBC                     CCPR2H          equ	4028	;# 
   320   000FBD                     CCP1CON         equ	4029	;# 
   321   000FBE                     CCPR1           equ	4030	;# 
   322   000FBE                     CCPR1L          equ	4030	;# 
   323   000FBF                     CCPR1H          equ	4031	;# 
   324   000FC0                     ADCON2          equ	4032	;# 
   325   000FC1                     ADCON1          equ	4033	;# 
   326   000FC2                     ADCON0          equ	4034	;# 
   327   000FC3                     ADRES           equ	4035	;# 
   328   000FC3                     ADRESL          equ	4035	;# 
   329   000FC4                     ADRESH          equ	4036	;# 
   330   000FC5                     SSPCON2         equ	4037	;# 
   331   000FC6                     SSPCON1         equ	4038	;# 
   332   000FC7                     SSPSTAT         equ	4039	;# 
   333   000FC8                     SSPADD          equ	4040	;# 
   334   000FC9                     SSPBUF          equ	4041	;# 
   335   000FCA                     T2CON           equ	4042	;# 
   336   000FCB                     PR2             equ	4043	;# 
   337   000FCB                     MEMCON          equ	4043	;# 
   338   000FCC                     TMR2            equ	4044	;# 
   339   000FCD                     T1CON           equ	4045	;# 
   340   000FCE                     TMR1            equ	4046	;# 
   341   000FCE                     TMR1L           equ	4046	;# 
   342   000FCF                     TMR1H           equ	4047	;# 
   343   000FD0                     RCON            equ	4048	;# 
   344   000FD1                     WDTCON          equ	4049	;# 
   345   000FD2                     HLVDCON         equ	4050	;# 
   346   000FD2                     LVDCON          equ	4050	;# 
   347   000FD3                     OSCCON          equ	4051	;# 
   348   000FD5                     T0CON           equ	4053	;# 
   349   000FD6                     TMR0            equ	4054	;# 
   350   000FD6                     TMR0L           equ	4054	;# 
   351   000FD7                     TMR0H           equ	4055	;# 
   352   000FD8                     STATUS          equ	4056	;# 
   353   000FD9                     FSR2            equ	4057	;# 
   354   000FD9                     FSR2L           equ	4057	;# 
   355   000FDA                     FSR2H           equ	4058	;# 
   356   000FDB                     PLUSW2          equ	4059	;# 
   357   000FDC                     PREINC2         equ	4060	;# 
   358   000FDD                     POSTDEC2        equ	4061	;# 
   359   000FDE                     POSTINC2        equ	4062	;# 
   360   000FDF                     INDF2           equ	4063	;# 
   361   000FE0                     BSR             equ	4064	;# 
   362   000FE1                     FSR1            equ	4065	;# 
   363   000FE1                     FSR1L           equ	4065	;# 
   364   000FE2                     FSR1H           equ	4066	;# 
   365   000FE3                     PLUSW1          equ	4067	;# 
   366   000FE4                     PREINC1         equ	4068	;# 
   367   000FE5                     POSTDEC1        equ	4069	;# 
   368   000FE6                     POSTINC1        equ	4070	;# 
   369   000FE7                     INDF1           equ	4071	;# 
   370   000FE8                     WREG            equ	4072	;# 
   371   000FE9                     FSR0            equ	4073	;# 
   372   000FE9                     FSR0L           equ	4073	;# 
   373   000FEA                     FSR0H           equ	4074	;# 
   374   000FEB                     PLUSW0          equ	4075	;# 
   375   000FEC                     PREINC0         equ	4076	;# 
   376   000FED                     POSTDEC0        equ	4077	;# 
   377   000FEE                     POSTINC0        equ	4078	;# 
   378   000FEF                     INDF0           equ	4079	;# 
   379   000FF0                     INTCON3         equ	4080	;# 
   380   000FF1                     INTCON2         equ	4081	;# 
   381   000FF2                     INTCON          equ	4082	;# 
   382   000FF3                     PROD            equ	4083	;# 
   383   000FF3                     PRODL           equ	4083	;# 
   384   000FF4                     PRODH           equ	4084	;# 
   385   000FF5                     TABLAT          equ	4085	;# 
   386   000FF6                     TBLPTR          equ	4086	;# 
   387   000FF6                     TBLPTRL         equ	4086	;# 
   388   000FF7                     TBLPTRH         equ	4087	;# 
   389   000FF8                     TBLPTRU         equ	4088	;# 
   390   000FF9                     PCLAT           equ	4089	;# 
   391   000FF9                     PC              equ	4089	;# 
   392   000FF9                     PCL             equ	4089	;# 
   393   000FFA                     PCLATH          equ	4090	;# 
   394   000FFB                     PCLATU          equ	4091	;# 
   395   000FFC                     STKPTR          equ	4092	;# 
   396   000FFD                     TOS             equ	4093	;# 
   397   000FFD                     TOSL            equ	4093	;# 
   398   000FFE                     TOSH            equ	4094	;# 
   399   000FFF                     TOSU            equ	4095	;# 
   400   000F80                     PORTA           equ	3968	;# 
   401   000F81                     PORTB           equ	3969	;# 
   402   000F82                     PORTC           equ	3970	;# 
   403   000F83                     PORTD           equ	3971	;# 
   404   000F84                     PORTE           equ	3972	;# 
   405   000F89                     LATA            equ	3977	;# 
   406   000F8A                     LATB            equ	3978	;# 
   407   000F8B                     LATC            equ	3979	;# 
   408   000F8C                     LATD            equ	3980	;# 
   409   000F8D                     LATE            equ	3981	;# 
   410   000F92                     TRISA           equ	3986	;# 
   411   000F92                     DDRA            equ	3986	;# 
   412   000F93                     TRISB           equ	3987	;# 
   413   000F93                     DDRB            equ	3987	;# 
   414   000F94                     TRISC           equ	3988	;# 
   415   000F94                     DDRC            equ	3988	;# 
   416   000F95                     TRISD           equ	3989	;# 
   417   000F95                     DDRD            equ	3989	;# 
   418   000F96                     TRISE           equ	3990	;# 
   419   000F96                     DDRE            equ	3990	;# 
   420   000F9B                     OSCTUNE         equ	3995	;# 
   421   000F9D                     PIE1            equ	3997	;# 
   422   000F9E                     PIR1            equ	3998	;# 
   423   000F9F                     IPR1            equ	3999	;# 
   424   000FA0                     PIE2            equ	4000	;# 
   425   000FA1                     PIR2            equ	4001	;# 
   426   000FA2                     IPR2            equ	4002	;# 
   427   000FA6                     EECON1          equ	4006	;# 
   428   000FA7                     EECON2          equ	4007	;# 
   429   000FA8                     EEDATA          equ	4008	;# 
   430   000FA9                     EEADR           equ	4009	;# 
   431   000FAB                     RCSTA           equ	4011	;# 
   432   000FAB                     RCSTA1          equ	4011	;# 
   433   000FAC                     TXSTA           equ	4012	;# 
   434   000FAC                     TXSTA1          equ	4012	;# 
   435   000FAD                     TXREG           equ	4013	;# 
   436   000FAD                     TXREG1          equ	4013	;# 
   437   000FAE                     RCREG           equ	4014	;# 
   438   000FAE                     RCREG1          equ	4014	;# 
   439   000FAF                     SPBRG           equ	4015	;# 
   440   000FAF                     SPBRG1          equ	4015	;# 
   441   000FB0                     SPBRGH          equ	4016	;# 
   442   000FB1                     T3CON           equ	4017	;# 
   443   000FB2                     TMR3            equ	4018	;# 
   444   000FB2                     TMR3L           equ	4018	;# 
   445   000FB3                     TMR3H           equ	4019	;# 
   446   000FB4                     CMCON           equ	4020	;# 
   447   000FB5                     CVRCON          equ	4021	;# 
   448   000FB6                     ECCP1AS         equ	4022	;# 
   449   000FB6                     ECCPAS          equ	4022	;# 
   450   000FB7                     PWM1CON         equ	4023	;# 
   451   000FB7                     ECCP1DEL        equ	4023	;# 
   452   000FB8                     BAUDCON         equ	4024	;# 
   453   000FB8                     BAUDCTL         equ	4024	;# 
   454   000FBA                     CCP2CON         equ	4026	;# 
   455   000FBB                     CCPR2           equ	4027	;# 
   456   000FBB                     CCPR2L          equ	4027	;# 
   457   000FBC                     CCPR2H          equ	4028	;# 
   458   000FBD                     CCP1CON         equ	4029	;# 
   459   000FBE                     CCPR1           equ	4030	;# 
   460   000FBE                     CCPR1L          equ	4030	;# 
   461   000FBF                     CCPR1H          equ	4031	;# 
   462   000FC0                     ADCON2          equ	4032	;# 
   463   000FC1                     ADCON1          equ	4033	;# 
   464   000FC2                     ADCON0          equ	4034	;# 
   465   000FC3                     ADRES           equ	4035	;# 
   466   000FC3                     ADRESL          equ	4035	;# 
   467   000FC4                     ADRESH          equ	4036	;# 
   468   000FC5                     SSPCON2         equ	4037	;# 
   469   000FC6                     SSPCON1         equ	4038	;# 
   470   000FC7                     SSPSTAT         equ	4039	;# 
   471   000FC8                     SSPADD          equ	4040	;# 
   472   000FC9                     SSPBUF          equ	4041	;# 
   473   000FCA                     T2CON           equ	4042	;# 
   474   000FCB                     PR2             equ	4043	;# 
   475   000FCB                     MEMCON          equ	4043	;# 
   476   000FCC                     TMR2            equ	4044	;# 
   477   000FCD                     T1CON           equ	4045	;# 
   478   000FCE                     TMR1            equ	4046	;# 
   479   000FCE                     TMR1L           equ	4046	;# 
   480   000FCF                     TMR1H           equ	4047	;# 
   481   000FD0                     RCON            equ	4048	;# 
   482   000FD1                     WDTCON          equ	4049	;# 
   483   000FD2                     HLVDCON         equ	4050	;# 
   484   000FD2                     LVDCON          equ	4050	;# 
   485   000FD3                     OSCCON          equ	4051	;# 
   486   000FD5                     T0CON           equ	4053	;# 
   487   000FD6                     TMR0            equ	4054	;# 
   488   000FD6                     TMR0L           equ	4054	;# 
   489   000FD7                     TMR0H           equ	4055	;# 
   490   000FD8                     STATUS          equ	4056	;# 
   491   000FD9                     FSR2            equ	4057	;# 
   492   000FD9                     FSR2L           equ	4057	;# 
   493   000FDA                     FSR2H           equ	4058	;# 
   494   000FDB                     PLUSW2          equ	4059	;# 
   495   000FDC                     PREINC2         equ	4060	;# 
   496   000FDD                     POSTDEC2        equ	4061	;# 
   497   000FDE                     POSTINC2        equ	4062	;# 
   498   000FDF                     INDF2           equ	4063	;# 
   499   000FE0                     BSR             equ	4064	;# 
   500   000FE1                     FSR1            equ	4065	;# 
   501   000FE1                     FSR1L           equ	4065	;# 
   502   000FE2                     FSR1H           equ	4066	;# 
   503   000FE3                     PLUSW1          equ	4067	;# 
   504   000FE4                     PREINC1         equ	4068	;# 
   505   000FE5                     POSTDEC1        equ	4069	;# 
   506   000FE6                     POSTINC1        equ	4070	;# 
   507   000FE7                     INDF1           equ	4071	;# 
   508   000FE8                     WREG            equ	4072	;# 
   509   000FE9                     FSR0            equ	4073	;# 
   510   000FE9                     FSR0L           equ	4073	;# 
   511   000FEA                     FSR0H           equ	4074	;# 
   512   000FEB                     PLUSW0          equ	4075	;# 
   513   000FEC                     PREINC0         equ	4076	;# 
   514   000FED                     POSTDEC0        equ	4077	;# 
   515   000FEE                     POSTINC0        equ	4078	;# 
   516   000FEF                     INDF0           equ	4079	;# 
   517   000FF0                     INTCON3         equ	4080	;# 
   518   000FF1                     INTCON2         equ	4081	;# 
   519   000FF2                     INTCON          equ	4082	;# 
   520   000FF3                     PROD            equ	4083	;# 
   521   000FF3                     PRODL           equ	4083	;# 
   522   000FF4                     PRODH           equ	4084	;# 
   523   000FF5                     TABLAT          equ	4085	;# 
   524   000FF6                     TBLPTR          equ	4086	;# 
   525   000FF6                     TBLPTRL         equ	4086	;# 
   526   000FF7                     TBLPTRH         equ	4087	;# 
   527   000FF8                     TBLPTRU         equ	4088	;# 
   528   000FF9                     PCLAT           equ	4089	;# 
   529   000FF9                     PC              equ	4089	;# 
   530   000FF9                     PCL             equ	4089	;# 
   531   000FFA                     PCLATH          equ	4090	;# 
   532   000FFB                     PCLATU          equ	4091	;# 
   533   000FFC                     STKPTR          equ	4092	;# 
   534   000FFD                     TOS             equ	4093	;# 
   535   000FFD                     TOSL            equ	4093	;# 
   536   000FFE                     TOSH            equ	4094	;# 
   537   000FFF                     TOSU            equ	4095	;# 
   538   000F80                     PORTA           equ	3968	;# 
   539   000F81                     PORTB           equ	3969	;# 
   540   000F82                     PORTC           equ	3970	;# 
   541   000F83                     PORTD           equ	3971	;# 
   542   000F84                     PORTE           equ	3972	;# 
   543   000F89                     LATA            equ	3977	;# 
   544   000F8A                     LATB            equ	3978	;# 
   545   000F8B                     LATC            equ	3979	;# 
   546   000F8C                     LATD            equ	3980	;# 
   547   000F8D                     LATE            equ	3981	;# 
   548   000F92                     TRISA           equ	3986	;# 
   549   000F92                     DDRA            equ	3986	;# 
   550   000F93                     TRISB           equ	3987	;# 
   551   000F93                     DDRB            equ	3987	;# 
   552   000F94                     TRISC           equ	3988	;# 
   553   000F94                     DDRC            equ	3988	;# 
   554   000F95                     TRISD           equ	3989	;# 
   555   000F95                     DDRD            equ	3989	;# 
   556   000F96                     TRISE           equ	3990	;# 
   557   000F96                     DDRE            equ	3990	;# 
   558   000F9B                     OSCTUNE         equ	3995	;# 
   559   000F9D                     PIE1            equ	3997	;# 
   560   000F9E                     PIR1            equ	3998	;# 
   561   000F9F                     IPR1            equ	3999	;# 
   562   000FA0                     PIE2            equ	4000	;# 
   563   000FA1                     PIR2            equ	4001	;# 
   564   000FA2                     IPR2            equ	4002	;# 
   565   000FA6                     EECON1          equ	4006	;# 
   566   000FA7                     EECON2          equ	4007	;# 
   567   000FA8                     EEDATA          equ	4008	;# 
   568   000FA9                     EEADR           equ	4009	;# 
   569   000FAB                     RCSTA           equ	4011	;# 
   570   000FAB                     RCSTA1          equ	4011	;# 
   571   000FAC                     TXSTA           equ	4012	;# 
   572   000FAC                     TXSTA1          equ	4012	;# 
   573   000FAD                     TXREG           equ	4013	;# 
   574   000FAD                     TXREG1          equ	4013	;# 
   575   000FAE                     RCREG           equ	4014	;# 
   576   000FAE                     RCREG1          equ	4014	;# 
   577   000FAF                     SPBRG           equ	4015	;# 
   578   000FAF                     SPBRG1          equ	4015	;# 
   579   000FB0                     SPBRGH          equ	4016	;# 
   580   000FB1                     T3CON           equ	4017	;# 
   581   000FB2                     TMR3            equ	4018	;# 
   582   000FB2                     TMR3L           equ	4018	;# 
   583   000FB3                     TMR3H           equ	4019	;# 
   584   000FB4                     CMCON           equ	4020	;# 
   585   000FB5                     CVRCON          equ	4021	;# 
   586   000FB6                     ECCP1AS         equ	4022	;# 
   587   000FB6                     ECCPAS          equ	4022	;# 
   588   000FB7                     PWM1CON         equ	4023	;# 
   589   000FB7                     ECCP1DEL        equ	4023	;# 
   590   000FB8                     BAUDCON         equ	4024	;# 
   591   000FB8                     BAUDCTL         equ	4024	;# 
   592   000FBA                     CCP2CON         equ	4026	;# 
   593   000FBB                     CCPR2           equ	4027	;# 
   594   000FBB                     CCPR2L          equ	4027	;# 
   595   000FBC                     CCPR2H          equ	4028	;# 
   596   000FBD                     CCP1CON         equ	4029	;# 
   597   000FBE                     CCPR1           equ	4030	;# 
   598   000FBE                     CCPR1L          equ	4030	;# 
   599   000FBF                     CCPR1H          equ	4031	;# 
   600   000FC0                     ADCON2          equ	4032	;# 
   601   000FC1                     ADCON1          equ	4033	;# 
   602   000FC2                     ADCON0          equ	4034	;# 
   603   000FC3                     ADRES           equ	4035	;# 
   604   000FC3                     ADRESL          equ	4035	;# 
   605   000FC4                     ADRESH          equ	4036	;# 
   606   000FC5                     SSPCON2         equ	4037	;# 
   607   000FC6                     SSPCON1         equ	4038	;# 
   608   000FC7                     SSPSTAT         equ	4039	;# 
   609   000FC8                     SSPADD          equ	4040	;# 
   610   000FC9                     SSPBUF          equ	4041	;# 
   611   000FCA                     T2CON           equ	4042	;# 
   612   000FCB                     PR2             equ	4043	;# 
   613   000FCB                     MEMCON          equ	4043	;# 
   614   000FCC                     TMR2            equ	4044	;# 
   615   000FCD                     T1CON           equ	4045	;# 
   616   000FCE                     TMR1            equ	4046	;# 
   617   000FCE                     TMR1L           equ	4046	;# 
   618   000FCF                     TMR1H           equ	4047	;# 
   619   000FD0                     RCON            equ	4048	;# 
   620   000FD1                     WDTCON          equ	4049	;# 
   621   000FD2                     HLVDCON         equ	4050	;# 
   622   000FD2                     LVDCON          equ	4050	;# 
   623   000FD3                     OSCCON          equ	4051	;# 
   624   000FD5                     T0CON           equ	4053	;# 
   625   000FD6                     TMR0            equ	4054	;# 
   626   000FD6                     TMR0L           equ	4054	;# 
   627   000FD7                     TMR0H           equ	4055	;# 
   628   000FD8                     STATUS          equ	4056	;# 
   629   000FD9                     FSR2            equ	4057	;# 
   630   000FD9                     FSR2L           equ	4057	;# 
   631   000FDA                     FSR2H           equ	4058	;# 
   632   000FDB                     PLUSW2          equ	4059	;# 
   633   000FDC                     PREINC2         equ	4060	;# 
   634   000FDD                     POSTDEC2        equ	4061	;# 
   635   000FDE                     POSTINC2        equ	4062	;# 
   636   000FDF                     INDF2           equ	4063	;# 
   637   000FE0                     BSR             equ	4064	;# 
   638   000FE1                     FSR1            equ	4065	;# 
   639   000FE1                     FSR1L           equ	4065	;# 
   640   000FE2                     FSR1H           equ	4066	;# 
   641   000FE3                     PLUSW1          equ	4067	;# 
   642   000FE4                     PREINC1         equ	4068	;# 
   643   000FE5                     POSTDEC1        equ	4069	;# 
   644   000FE6                     POSTINC1        equ	4070	;# 
   645   000FE7                     INDF1           equ	4071	;# 
   646   000FE8                     WREG            equ	4072	;# 
   647   000FE9                     FSR0            equ	4073	;# 
   648   000FE9                     FSR0L           equ	4073	;# 
   649   000FEA                     FSR0H           equ	4074	;# 
   650   000FEB                     PLUSW0          equ	4075	;# 
   651   000FEC                     PREINC0         equ	4076	;# 
   652   000FED                     POSTDEC0        equ	4077	;# 
   653   000FEE                     POSTINC0        equ	4078	;# 
   654   000FEF                     INDF0           equ	4079	;# 
   655   000FF0                     INTCON3         equ	4080	;# 
   656   000FF1                     INTCON2         equ	4081	;# 
   657   000FF2                     INTCON          equ	4082	;# 
   658   000FF3                     PROD            equ	4083	;# 
   659   000FF3                     PRODL           equ	4083	;# 
   660   000FF4                     PRODH           equ	4084	;# 
   661   000FF5                     TABLAT          equ	4085	;# 
   662   000FF6                     TBLPTR          equ	4086	;# 
   663   000FF6                     TBLPTRL         equ	4086	;# 
   664   000FF7                     TBLPTRH         equ	4087	;# 
   665   000FF8                     TBLPTRU         equ	4088	;# 
   666   000FF9                     PCLAT           equ	4089	;# 
   667   000FF9                     PC              equ	4089	;# 
   668   000FF9                     PCL             equ	4089	;# 
   669   000FFA                     PCLATH          equ	4090	;# 
   670   000FFB                     PCLATU          equ	4091	;# 
   671   000FFC                     STKPTR          equ	4092	;# 
   672   000FFD                     TOS             equ	4093	;# 
   673   000FFD                     TOSL            equ	4093	;# 
   674   000FFE                     TOSH            equ	4094	;# 
   675   000FFF                     TOSU            equ	4095	;# 
   676   000F80                     PORTA           equ	3968	;# 
   677   000F81                     PORTB           equ	3969	;# 
   678   000F82                     PORTC           equ	3970	;# 
   679   000F83                     PORTD           equ	3971	;# 
   680   000F84                     PORTE           equ	3972	;# 
   681   000F89                     LATA            equ	3977	;# 
   682   000F8A                     LATB            equ	3978	;# 
   683   000F8B                     LATC            equ	3979	;# 
   684   000F8C                     LATD            equ	3980	;# 
   685   000F8D                     LATE            equ	3981	;# 
   686   000F92                     TRISA           equ	3986	;# 
   687   000F92                     DDRA            equ	3986	;# 
   688   000F93                     TRISB           equ	3987	;# 
   689   000F93                     DDRB            equ	3987	;# 
   690   000F94                     TRISC           equ	3988	;# 
   691   000F94                     DDRC            equ	3988	;# 
   692   000F95                     TRISD           equ	3989	;# 
   693   000F95                     DDRD            equ	3989	;# 
   694   000F96                     TRISE           equ	3990	;# 
   695   000F96                     DDRE            equ	3990	;# 
   696   000F9B                     OSCTUNE         equ	3995	;# 
   697   000F9D                     PIE1            equ	3997	;# 
   698   000F9E                     PIR1            equ	3998	;# 
   699   000F9F                     IPR1            equ	3999	;# 
   700   000FA0                     PIE2            equ	4000	;# 
   701   000FA1                     PIR2            equ	4001	;# 
   702   000FA2                     IPR2            equ	4002	;# 
   703   000FA6                     EECON1          equ	4006	;# 
   704   000FA7                     EECON2          equ	4007	;# 
   705   000FA8                     EEDATA          equ	4008	;# 
   706   000FA9                     EEADR           equ	4009	;# 
   707   000FAB                     RCSTA           equ	4011	;# 
   708   000FAB                     RCSTA1          equ	4011	;# 
   709   000FAC                     TXSTA           equ	4012	;# 
   710   000FAC                     TXSTA1          equ	4012	;# 
   711   000FAD                     TXREG           equ	4013	;# 
   712   000FAD                     TXREG1          equ	4013	;# 
   713   000FAE                     RCREG           equ	4014	;# 
   714   000FAE                     RCREG1          equ	4014	;# 
   715   000FAF                     SPBRG           equ	4015	;# 
   716   000FAF                     SPBRG1          equ	4015	;# 
   717   000FB0                     SPBRGH          equ	4016	;# 
   718   000FB1                     T3CON           equ	4017	;# 
   719   000FB2                     TMR3            equ	4018	;# 
   720   000FB2                     TMR3L           equ	4018	;# 
   721   000FB3                     TMR3H           equ	4019	;# 
   722   000FB4                     CMCON           equ	4020	;# 
   723   000FB5                     CVRCON          equ	4021	;# 
   724   000FB6                     ECCP1AS         equ	4022	;# 
   725   000FB6                     ECCPAS          equ	4022	;# 
   726   000FB7                     PWM1CON         equ	4023	;# 
   727   000FB7                     ECCP1DEL        equ	4023	;# 
   728   000FB8                     BAUDCON         equ	4024	;# 
   729   000FB8                     BAUDCTL         equ	4024	;# 
   730   000FBA                     CCP2CON         equ	4026	;# 
   731   000FBB                     CCPR2           equ	4027	;# 
   732   000FBB                     CCPR2L          equ	4027	;# 
   733   000FBC                     CCPR2H          equ	4028	;# 
   734   000FBD                     CCP1CON         equ	4029	;# 
   735   000FBE                     CCPR1           equ	4030	;# 
   736   000FBE                     CCPR1L          equ	4030	;# 
   737   000FBF                     CCPR1H          equ	4031	;# 
   738   000FC0                     ADCON2          equ	4032	;# 
   739   000FC1                     ADCON1          equ	4033	;# 
   740   000FC2                     ADCON0          equ	4034	;# 
   741   000FC3                     ADRES           equ	4035	;# 
   742   000FC3                     ADRESL          equ	4035	;# 
   743   000FC4                     ADRESH          equ	4036	;# 
   744   000FC5                     SSPCON2         equ	4037	;# 
   745   000FC6                     SSPCON1         equ	4038	;# 
   746   000FC7                     SSPSTAT         equ	4039	;# 
   747   000FC8                     SSPADD          equ	4040	;# 
   748   000FC9                     SSPBUF          equ	4041	;# 
   749   000FCA                     T2CON           equ	4042	;# 
   750   000FCB                     PR2             equ	4043	;# 
   751   000FCB                     MEMCON          equ	4043	;# 
   752   000FCC                     TMR2            equ	4044	;# 
   753   000FCD                     T1CON           equ	4045	;# 
   754   000FCE                     TMR1            equ	4046	;# 
   755   000FCE                     TMR1L           equ	4046	;# 
   756   000FCF                     TMR1H           equ	4047	;# 
   757   000FD0                     RCON            equ	4048	;# 
   758   000FD1                     WDTCON          equ	4049	;# 
   759   000FD2                     HLVDCON         equ	4050	;# 
   760   000FD2                     LVDCON          equ	4050	;# 
   761   000FD3                     OSCCON          equ	4051	;# 
   762   000FD5                     T0CON           equ	4053	;# 
   763   000FD6                     TMR0            equ	4054	;# 
   764   000FD6                     TMR0L           equ	4054	;# 
   765   000FD7                     TMR0H           equ	4055	;# 
   766   000FD8                     STATUS          equ	4056	;# 
   767   000FD9                     FSR2            equ	4057	;# 
   768   000FD9                     FSR2L           equ	4057	;# 
   769   000FDA                     FSR2H           equ	4058	;# 
   770   000FDB                     PLUSW2          equ	4059	;# 
   771   000FDC                     PREINC2         equ	4060	;# 
   772   000FDD                     POSTDEC2        equ	4061	;# 
   773   000FDE                     POSTINC2        equ	4062	;# 
   774   000FDF                     INDF2           equ	4063	;# 
   775   000FE0                     BSR             equ	4064	;# 
   776   000FE1                     FSR1            equ	4065	;# 
   777   000FE1                     FSR1L           equ	4065	;# 
   778   000FE2                     FSR1H           equ	4066	;# 
   779   000FE3                     PLUSW1          equ	4067	;# 
   780   000FE4                     PREINC1         equ	4068	;# 
   781   000FE5                     POSTDEC1        equ	4069	;# 
   782   000FE6                     POSTINC1        equ	4070	;# 
   783   000FE7                     INDF1           equ	4071	;# 
   784   000FE8                     WREG            equ	4072	;# 
   785   000FE9                     FSR0            equ	4073	;# 
   786   000FE9                     FSR0L           equ	4073	;# 
   787   000FEA                     FSR0H           equ	4074	;# 
   788   000FEB                     PLUSW0          equ	4075	;# 
   789   000FEC                     PREINC0         equ	4076	;# 
   790   000FED                     POSTDEC0        equ	4077	;# 
   791   000FEE                     POSTINC0        equ	4078	;# 
   792   000FEF                     INDF0           equ	4079	;# 
   793   000FF0                     INTCON3         equ	4080	;# 
   794   000FF1                     INTCON2         equ	4081	;# 
   795   000FF2                     INTCON          equ	4082	;# 
   796   000FF3                     PROD            equ	4083	;# 
   797   000FF3                     PRODL           equ	4083	;# 
   798   000FF4                     PRODH           equ	4084	;# 
   799   000FF5                     TABLAT          equ	4085	;# 
   800   000FF6                     TBLPTR          equ	4086	;# 
   801   000FF6                     TBLPTRL         equ	4086	;# 
   802   000FF7                     TBLPTRH         equ	4087	;# 
   803   000FF8                     TBLPTRU         equ	4088	;# 
   804   000FF9                     PCLAT           equ	4089	;# 
   805   000FF9                     PC              equ	4089	;# 
   806   000FF9                     PCL             equ	4089	;# 
   807   000FFA                     PCLATH          equ	4090	;# 
   808   000FFB                     PCLATU          equ	4091	;# 
   809   000FFC                     STKPTR          equ	4092	;# 
   810   000FFD                     TOS             equ	4093	;# 
   811   000FFD                     TOSL            equ	4093	;# 
   812   000FFE                     TOSH            equ	4094	;# 
   813   000FFF                     TOSU            equ	4095	;# 
   814   000F80                     PORTA           equ	3968	;# 
   815   000F81                     PORTB           equ	3969	;# 
   816   000F82                     PORTC           equ	3970	;# 
   817   000F83                     PORTD           equ	3971	;# 
   818   000F84                     PORTE           equ	3972	;# 
   819   000F89                     LATA            equ	3977	;# 
   820   000F8A                     LATB            equ	3978	;# 
   821   000F8B                     LATC            equ	3979	;# 
   822   000F8C                     LATD            equ	3980	;# 
   823   000F8D                     LATE            equ	3981	;# 
   824   000F92                     TRISA           equ	3986	;# 
   825   000F92                     DDRA            equ	3986	;# 
   826   000F93                     TRISB           equ	3987	;# 
   827   000F93                     DDRB            equ	3987	;# 
   828   000F94                     TRISC           equ	3988	;# 
   829   000F94                     DDRC            equ	3988	;# 
   830   000F95                     TRISD           equ	3989	;# 
   831   000F95                     DDRD            equ	3989	;# 
   832   000F96                     TRISE           equ	3990	;# 
   833   000F96                     DDRE            equ	3990	;# 
   834   000F9B                     OSCTUNE         equ	3995	;# 
   835   000F9D                     PIE1            equ	3997	;# 
   836   000F9E                     PIR1            equ	3998	;# 
   837   000F9F                     IPR1            equ	3999	;# 
   838   000FA0                     PIE2            equ	4000	;# 
   839   000FA1                     PIR2            equ	4001	;# 
   840   000FA2                     IPR2            equ	4002	;# 
   841   000FA6                     EECON1          equ	4006	;# 
   842   000FA7                     EECON2          equ	4007	;# 
   843   000FA8                     EEDATA          equ	4008	;# 
   844   000FA9                     EEADR           equ	4009	;# 
   845   000FAB                     RCSTA           equ	4011	;# 
   846   000FAB                     RCSTA1          equ	4011	;# 
   847   000FAC                     TXSTA           equ	4012	;# 
   848   000FAC                     TXSTA1          equ	4012	;# 
   849   000FAD                     TXREG           equ	4013	;# 
   850   000FAD                     TXREG1          equ	4013	;# 
   851   000FAE                     RCREG           equ	4014	;# 
   852   000FAE                     RCREG1          equ	4014	;# 
   853   000FAF                     SPBRG           equ	4015	;# 
   854   000FAF                     SPBRG1          equ	4015	;# 
   855   000FB0                     SPBRGH          equ	4016	;# 
   856   000FB1                     T3CON           equ	4017	;# 
   857   000FB2                     TMR3            equ	4018	;# 
   858   000FB2                     TMR3L           equ	4018	;# 
   859   000FB3                     TMR3H           equ	4019	;# 
   860   000FB4                     CMCON           equ	4020	;# 
   861   000FB5                     CVRCON          equ	4021	;# 
   862   000FB6                     ECCP1AS         equ	4022	;# 
   863   000FB6                     ECCPAS          equ	4022	;# 
   864   000FB7                     PWM1CON         equ	4023	;# 
   865   000FB7                     ECCP1DEL        equ	4023	;# 
   866   000FB8                     BAUDCON         equ	4024	;# 
   867   000FB8                     BAUDCTL         equ	4024	;# 
   868   000FBA                     CCP2CON         equ	4026	;# 
   869   000FBB                     CCPR2           equ	4027	;# 
   870   000FBB                     CCPR2L          equ	4027	;# 
   871   000FBC                     CCPR2H          equ	4028	;# 
   872   000FBD                     CCP1CON         equ	4029	;# 
   873   000FBE                     CCPR1           equ	4030	;# 
   874   000FBE                     CCPR1L          equ	4030	;# 
   875   000FBF                     CCPR1H          equ	4031	;# 
   876   000FC0                     ADCON2          equ	4032	;# 
   877   000FC1                     ADCON1          equ	4033	;# 
   878   000FC2                     ADCON0          equ	4034	;# 
   879   000FC3                     ADRES           equ	4035	;# 
   880   000FC3                     ADRESL          equ	4035	;# 
   881   000FC4                     ADRESH          equ	4036	;# 
   882   000FC5                     SSPCON2         equ	4037	;# 
   883   000FC6                     SSPCON1         equ	4038	;# 
   884   000FC7                     SSPSTAT         equ	4039	;# 
   885   000FC8                     SSPADD          equ	4040	;# 
   886   000FC9                     SSPBUF          equ	4041	;# 
   887   000FCA                     T2CON           equ	4042	;# 
   888   000FCB                     PR2             equ	4043	;# 
   889   000FCB                     MEMCON          equ	4043	;# 
   890   000FCC                     TMR2            equ	4044	;# 
   891   000FCD                     T1CON           equ	4045	;# 
   892   000FCE                     TMR1            equ	4046	;# 
   893   000FCE                     TMR1L           equ	4046	;# 
   894   000FCF                     TMR1H           equ	4047	;# 
   895   000FD0                     RCON            equ	4048	;# 
   896   000FD1                     WDTCON          equ	4049	;# 
   897   000FD2                     HLVDCON         equ	4050	;# 
   898   000FD2                     LVDCON          equ	4050	;# 
   899   000FD3                     OSCCON          equ	4051	;# 
   900   000FD5                     T0CON           equ	4053	;# 
   901   000FD6                     TMR0            equ	4054	;# 
   902   000FD6                     TMR0L           equ	4054	;# 
   903   000FD7                     TMR0H           equ	4055	;# 
   904   000FD8                     STATUS          equ	4056	;# 
   905   000FD9                     FSR2            equ	4057	;# 
   906   000FD9                     FSR2L           equ	4057	;# 
   907   000FDA                     FSR2H           equ	4058	;# 
   908   000FDB                     PLUSW2          equ	4059	;# 
   909   000FDC                     PREINC2         equ	4060	;# 
   910   000FDD                     POSTDEC2        equ	4061	;# 
   911   000FDE                     POSTINC2        equ	4062	;# 
   912   000FDF                     INDF2           equ	4063	;# 
   913   000FE0                     BSR             equ	4064	;# 
   914   000FE1                     FSR1            equ	4065	;# 
   915   000FE1                     FSR1L           equ	4065	;# 
   916   000FE2                     FSR1H           equ	4066	;# 
   917   000FE3                     PLUSW1          equ	4067	;# 
   918   000FE4                     PREINC1         equ	4068	;# 
   919   000FE5                     POSTDEC1        equ	4069	;# 
   920   000FE6                     POSTINC1        equ	4070	;# 
   921   000FE7                     INDF1           equ	4071	;# 
   922   000FE8                     WREG            equ	4072	;# 
   923   000FE9                     FSR0            equ	4073	;# 
   924   000FE9                     FSR0L           equ	4073	;# 
   925   000FEA                     FSR0H           equ	4074	;# 
   926   000FEB                     PLUSW0          equ	4075	;# 
   927   000FEC                     PREINC0         equ	4076	;# 
   928   000FED                     POSTDEC0        equ	4077	;# 
   929   000FEE                     POSTINC0        equ	4078	;# 
   930   000FEF                     INDF0           equ	4079	;# 
   931   000FF0                     INTCON3         equ	4080	;# 
   932   000FF1                     INTCON2         equ	4081	;# 
   933   000FF2                     INTCON          equ	4082	;# 
   934   000FF3                     PROD            equ	4083	;# 
   935   000FF3                     PRODL           equ	4083	;# 
   936   000FF4                     PRODH           equ	4084	;# 
   937   000FF5                     TABLAT          equ	4085	;# 
   938   000FF6                     TBLPTR          equ	4086	;# 
   939   000FF6                     TBLPTRL         equ	4086	;# 
   940   000FF7                     TBLPTRH         equ	4087	;# 
   941   000FF8                     TBLPTRU         equ	4088	;# 
   942   000FF9                     PCLAT           equ	4089	;# 
   943   000FF9                     PC              equ	4089	;# 
   944   000FF9                     PCL             equ	4089	;# 
   945   000FFA                     PCLATH          equ	4090	;# 
   946   000FFB                     PCLATU          equ	4091	;# 
   947   000FFC                     STKPTR          equ	4092	;# 
   948   000FFD                     TOS             equ	4093	;# 
   949   000FFD                     TOSL            equ	4093	;# 
   950   000FFE                     TOSH            equ	4094	;# 
   951   000FFF                     TOSU            equ	4095	;# 
   952   000F80                     PORTA           equ	3968	;# 
   953   000F81                     PORTB           equ	3969	;# 
   954   000F82                     PORTC           equ	3970	;# 
   955   000F83                     PORTD           equ	3971	;# 
   956   000F84                     PORTE           equ	3972	;# 
   957   000F89                     LATA            equ	3977	;# 
   958   000F8A                     LATB            equ	3978	;# 
   959   000F8B                     LATC            equ	3979	;# 
   960   000F8C                     LATD            equ	3980	;# 
   961   000F8D                     LATE            equ	3981	;# 
   962   000F92                     TRISA           equ	3986	;# 
   963   000F92                     DDRA            equ	3986	;# 
   964   000F93                     TRISB           equ	3987	;# 
   965   000F93                     DDRB            equ	3987	;# 
   966   000F94                     TRISC           equ	3988	;# 
   967   000F94                     DDRC            equ	3988	;# 
   968   000F95                     TRISD           equ	3989	;# 
   969   000F95                     DDRD            equ	3989	;# 
   970   000F96                     TRISE           equ	3990	;# 
   971   000F96                     DDRE            equ	3990	;# 
   972   000F9B                     OSCTUNE         equ	3995	;# 
   973   000F9D                     PIE1            equ	3997	;# 
   974   000F9E                     PIR1            equ	3998	;# 
   975   000F9F                     IPR1            equ	3999	;# 
   976   000FA0                     PIE2            equ	4000	;# 
   977   000FA1                     PIR2            equ	4001	;# 
   978   000FA2                     IPR2            equ	4002	;# 
   979   000FA6                     EECON1          equ	4006	;# 
   980   000FA7                     EECON2          equ	4007	;# 
   981   000FA8                     EEDATA          equ	4008	;# 
   982   000FA9                     EEADR           equ	4009	;# 
   983   000FAB                     RCSTA           equ	4011	;# 
   984   000FAB                     RCSTA1          equ	4011	;# 
   985   000FAC                     TXSTA           equ	4012	;# 
   986   000FAC                     TXSTA1          equ	4012	;# 
   987   000FAD                     TXREG           equ	4013	;# 
   988   000FAD                     TXREG1          equ	4013	;# 
   989   000FAE                     RCREG           equ	4014	;# 
   990   000FAE                     RCREG1          equ	4014	;# 
   991   000FAF                     SPBRG           equ	4015	;# 
   992   000FAF                     SPBRG1          equ	4015	;# 
   993   000FB0                     SPBRGH          equ	4016	;# 
   994   000FB1                     T3CON           equ	4017	;# 
   995   000FB2                     TMR3            equ	4018	;# 
   996   000FB2                     TMR3L           equ	4018	;# 
   997   000FB3                     TMR3H           equ	4019	;# 
   998   000FB4                     CMCON           equ	4020	;# 
   999   000FB5                     CVRCON          equ	4021	;# 
  1000   000FB6                     ECCP1AS         equ	4022	;# 
  1001   000FB6                     ECCPAS          equ	4022	;# 
  1002   000FB7                     PWM1CON         equ	4023	;# 
  1003   000FB7                     ECCP1DEL        equ	4023	;# 
  1004   000FB8                     BAUDCON         equ	4024	;# 
  1005   000FB8                     BAUDCTL         equ	4024	;# 
  1006   000FBA                     CCP2CON         equ	4026	;# 
  1007   000FBB                     CCPR2           equ	4027	;# 
  1008   000FBB                     CCPR2L          equ	4027	;# 
  1009   000FBC                     CCPR2H          equ	4028	;# 
  1010   000FBD                     CCP1CON         equ	4029	;# 
  1011   000FBE                     CCPR1           equ	4030	;# 
  1012   000FBE                     CCPR1L          equ	4030	;# 
  1013   000FBF                     CCPR1H          equ	4031	;# 
  1014   000FC0                     ADCON2          equ	4032	;# 
  1015   000FC1                     ADCON1          equ	4033	;# 
  1016   000FC2                     ADCON0          equ	4034	;# 
  1017   000FC3                     ADRES           equ	4035	;# 
  1018   000FC3                     ADRESL          equ	4035	;# 
  1019   000FC4                     ADRESH          equ	4036	;# 
  1020   000FC5                     SSPCON2         equ	4037	;# 
  1021   000FC6                     SSPCON1         equ	4038	;# 
  1022   000FC7                     SSPSTAT         equ	4039	;# 
  1023   000FC8                     SSPADD          equ	4040	;# 
  1024   000FC9                     SSPBUF          equ	4041	;# 
  1025   000FCA                     T2CON           equ	4042	;# 
  1026   000FCB                     PR2             equ	4043	;# 
  1027   000FCB                     MEMCON          equ	4043	;# 
  1028   000FCC                     TMR2            equ	4044	;# 
  1029   000FCD                     T1CON           equ	4045	;# 
  1030   000FCE                     TMR1            equ	4046	;# 
  1031   000FCE                     TMR1L           equ	4046	;# 
  1032   000FCF                     TMR1H           equ	4047	;# 
  1033   000FD0                     RCON            equ	4048	;# 
  1034   000FD1                     WDTCON          equ	4049	;# 
  1035   000FD2                     HLVDCON         equ	4050	;# 
  1036   000FD2                     LVDCON          equ	4050	;# 
  1037   000FD3                     OSCCON          equ	4051	;# 
  1038   000FD5                     T0CON           equ	4053	;# 
  1039   000FD6                     TMR0            equ	4054	;# 
  1040   000FD6                     TMR0L           equ	4054	;# 
  1041   000FD7                     TMR0H           equ	4055	;# 
  1042   000FD8                     STATUS          equ	4056	;# 
  1043   000FD9                     FSR2            equ	4057	;# 
  1044   000FD9                     FSR2L           equ	4057	;# 
  1045   000FDA                     FSR2H           equ	4058	;# 
  1046   000FDB                     PLUSW2          equ	4059	;# 
  1047   000FDC                     PREINC2         equ	4060	;# 
  1048   000FDD                     POSTDEC2        equ	4061	;# 
  1049   000FDE                     POSTINC2        equ	4062	;# 
  1050   000FDF                     INDF2           equ	4063	;# 
  1051   000FE0                     BSR             equ	4064	;# 
  1052   000FE1                     FSR1            equ	4065	;# 
  1053   000FE1                     FSR1L           equ	4065	;# 
  1054   000FE2                     FSR1H           equ	4066	;# 
  1055   000FE3                     PLUSW1          equ	4067	;# 
  1056   000FE4                     PREINC1         equ	4068	;# 
  1057   000FE5                     POSTDEC1        equ	4069	;# 
  1058   000FE6                     POSTINC1        equ	4070	;# 
  1059   000FE7                     INDF1           equ	4071	;# 
  1060   000FE8                     WREG            equ	4072	;# 
  1061   000FE9                     FSR0            equ	4073	;# 
  1062   000FE9                     FSR0L           equ	4073	;# 
  1063   000FEA                     FSR0H           equ	4074	;# 
  1064   000FEB                     PLUSW0          equ	4075	;# 
  1065   000FEC                     PREINC0         equ	4076	;# 
  1066   000FED                     POSTDEC0        equ	4077	;# 
  1067   000FEE                     POSTINC0        equ	4078	;# 
  1068   000FEF                     INDF0           equ	4079	;# 
  1069   000FF0                     INTCON3         equ	4080	;# 
  1070   000FF1                     INTCON2         equ	4081	;# 
  1071   000FF2                     INTCON          equ	4082	;# 
  1072   000FF3                     PROD            equ	4083	;# 
  1073   000FF3                     PRODL           equ	4083	;# 
  1074   000FF4                     PRODH           equ	4084	;# 
  1075   000FF5                     TABLAT          equ	4085	;# 
  1076   000FF6                     TBLPTR          equ	4086	;# 
  1077   000FF6                     TBLPTRL         equ	4086	;# 
  1078   000FF7                     TBLPTRH         equ	4087	;# 
  1079   000FF8                     TBLPTRU         equ	4088	;# 
  1080   000FF9                     PCLAT           equ	4089	;# 
  1081   000FF9                     PC              equ	4089	;# 
  1082   000FF9                     PCL             equ	4089	;# 
  1083   000FFA                     PCLATH          equ	4090	;# 
  1084   000FFB                     PCLATU          equ	4091	;# 
  1085   000FFC                     STKPTR          equ	4092	;# 
  1086   000FFD                     TOS             equ	4093	;# 
  1087   000FFD                     TOSL            equ	4093	;# 
  1088   000FFE                     TOSH            equ	4094	;# 
  1089   000FFF                     TOSU            equ	4095	;# 
  1090                           
  1091                           	psect	mediumconst
  1092   007CEE                     __pmediumconst:
  1093                           	callstack 0
  1094   007CEE  00                 	db	0
  1095   007CEF                     _atanlo:
  1096                           	callstack 0
  1097   007CEF  3769               	dw	14185
  1098   007CF1  31AC               	dw	12716
  1099   007CF3  2168               	dw	8552
  1100   007CF5  3322               	dw	13090
  1101   007CF7  0FB4               	dw	4020
  1102   007CF9  3314               	dw	13076
  1103   007CFB  2168               	dw	8552
  1104   007CFD  33A2               	dw	13218
  1105   007CFF                     __end_of_atanlo:
  1106                           	callstack 0
  1107   007CFF                     _atanhi:
  1108                           	callstack 0
  1109   007CFF  6338               	dw	25400
  1110   007D01  3EED               	dw	16109
  1111   007D03  0FDA               	dw	4058
  1112   007D05  3F49               	dw	16201
  1113   007D07  985E               	dw	39006
  1114   007D09  3F7B               	dw	16251
  1115   007D0B  0FDA               	dw	4058
  1116   007D0D  3FC9               	dw	16329
  1117   007D0F                     __end_of_atanhi:
  1118                           	callstack 0
  1119   007D0F  AC25               	dw	44069
  1120   007D11  3D7C               	dw	15740
  1121   007D13                     __end_of_aT4:
  1122                           	callstack 0
  1123   007D13  1247               	dw	4679
  1124   007D15  BDDA               	dw	48602
  1125   007D17                     __end_of_aT3:
  1126                           	callstack 0
  1127   007D17  F50D               	dw	62733
  1128   007D19  3E11               	dw	15889
  1129   007D1B                     __end_of_aT2:
  1130                           	callstack 0
  1131   007D1B  CA98               	dw	51864
  1132   007D1D  BE4C               	dw	48716
  1133   007D1F                     __end_of_aT1:
  1134                           	callstack 0
  1135   007D1F  AAA9               	dw	43689
  1136   007D21  3EAA               	dw	16042
  1137   007D23                     __end_of_aT0:
  1138                           	callstack 0
  1139   007D23  BD2E               	dw	48430
  1140   007D25  B3BB               	dw	46011
  1141   007D27                     __end_of_pi_lo:
  1142                           	callstack 0
  1143   007D27  0FDB               	dw	4059
  1144   007D29  4049               	dw	16457
  1145   007D2B                     __end_of_pi:
  1146                           	callstack 0
  1147   007CF1                     _TMR2IF         set	31985
  1148   007E2C                     _ACKEN          set	32300
  1149   007E2D                     _ACKDT          set	32301
  1150   007E2B                     _RCEN           set	32299
  1151   007E38                     _BF             set	32312
  1152   007E2A                     _PEN            set	32298
  1153   007E28                     _SEN            set	32296
  1154   007E9C                     _IRCF0          set	32412
  1155   007E9D                     _IRCF1          set	32413
  1156   007E9E                     _IRCF2          set	32414
  1157   007E07                     _ADFM           set	32263
  1158   000F8A                     _LATBbits       set	3978
  1159   000F93                     _TRISB          set	3987
  1160   000F92                     _TRISA          set	3986
  1161   000F89                     _LATA           set	3977
  1162   000F94                     _TRISCbits      set	3988
  1163   000F89                     _LATAbits       set	3977
  1164   000F92                     _TRISAbits      set	3986
  1165   000FC5                     _SSPCON2bits    set	4037
  1166   000FC9                     _SSPBUF         set	4041
  1167   000FC7                     _SSPSTAT        set	4039
  1168   000FC8                     _SSPADD         set	4040
  1169   000FC5                     _SSPCON2        set	4037
  1170   000FC6                     _SSPCON1        set	4038
  1171   000FD3                     _OSCCON         set	4051
  1172   000FAE                     _RCREG          set	4014
  1173   000FAD                     _TXREG          set	4013
  1174   000FAB                     _RCSTAbits      set	4011
  1175   000FAF                     _SPBRG          set	4015
  1176   000FB8                     _BAUDCONbits    set	4024
  1177   000FAC                     _TXSTAbits      set	4012
  1178   000FCB                     _PR2            set	4043
  1179   000FCA                     _T2CON          set	4042
  1180   000F9D                     _PIE1bits       set	3997
  1181   000FD0                     _RCONbits       set	4048
  1182   000F9F                     _IPR1bits       set	3999
  1183   000F9E                     _PIR1bits       set	3998
  1184   000FBD                     _CCP1CON        set	4029
  1185   000FC2                     _ADCON0bits     set	4034
  1186   000FC3                     _ADRESL         set	4035
  1187   000FC4                     _ADRESH         set	4036
  1188   000FC0                     _ADCON2bits     set	4032
  1189   000FC1                     _ADCON1         set	4033
  1190   000FF2                     _INTCONbits     set	4082
  1191   007D2B  0D                 	db	13
  1192   007D2C  0A                 	db	10
  1193   007D2D  00                 	db	0
  1194   007D2E  00                 	db	0	; dummy byte at the end
  1195   000002                     __activetblptr  equ	2
  1196                           
  1197                           ; #config settings
  1198                           
  1199                           	psect	cinit
  1200   002840                     __pcinit:
  1201                           	callstack 0
  1202   002840                     start_initialization:
  1203                           	callstack 0
  1204   002840                     __initialization:
  1205                           	callstack 0
  1206                           
  1207                           ; Clear objects allocated to BANK1 (76 bytes)
  1208   002840  EE01  F000         	lfsr	0,__pbssBANK1
  1209   002844  0E4C               	movlw	76
  1210   002846                     clear_0:
  1211   002846  6AEE               	clrf	postinc0,c
  1212   002848  06E8               	decf	wreg,f,c
  1213   00284A  E1FD               	bnz	clear_0
  1214                           
  1215                           ; Clear objects allocated to BANK0 (2 bytes)
  1216   00284C  0100               	movlb	0
  1217   00284E  6BFF               	clrf	(__pbssBANK0+1)& (0+255),b
  1218   002850  6BFE               	clrf	__pbssBANK0& (0+255),b
  1219                           
  1220                           ; Clear objects allocated to COMRAM (4 bytes)
  1221   002852  6A79               	clrf	(__pbssCOMRAM+3)& (0+255),c
  1222   002854  6A78               	clrf	(__pbssCOMRAM+2)& (0+255),c
  1223   002856  6A77               	clrf	(__pbssCOMRAM+1)& (0+255),c
  1224   002858  6A76               	clrf	__pbssCOMRAM& (0+255),c
  1225   00285A                     end_of_initialization:
  1226                           	callstack 0
  1227   00285A                     __end_of__initialization:
  1228                           	callstack 0
  1229   00285A  907A               	bcf	int$flags,0,c	;clear compiler interrupt flag (level 1)
  1230   00285C  927A               	bcf	int$flags,1,c	;clear compiler interrupt flag (level 2)
  1231   00285E  0E00               	movlw	low (__Lmediumconst shr (0+16))
  1232   002860  6EF8               	movwf	tblptru,c
  1233   002862  0100               	movlb	0
  1234   002864  EF75  F013         	goto	_main	;jump to C main() function
  1235                           
  1236                           	psect	bssCOMRAM
  1237   000076                     __pbssCOMRAM:
  1238                           	callstack 0
  1239   000076                     _accZ_low:
  1240                           	callstack 0
  1241   000076                     	ds	1
  1242   000077                     _accZ_high:
  1243                           	callstack 0
  1244   000077                     	ds	1
  1245   000078                     _accX_low:
  1246                           	callstack 0
  1247   000078                     	ds	1
  1248   000079                     _accX_high:
  1249                           	callstack 0
  1250   000079                     	ds	1
  1251                           
  1252                           	psect	bssBANK0
  1253   0000FE                     __pbssBANK0:
  1254                           	callstack 0
  1255   0000FE                     _accY_low:
  1256                           	callstack 0
  1257   0000FE                     	ds	1
  1258   0000FF                     _accY_high:
  1259                           	callstack 0
  1260   0000FF                     	ds	1
  1261                           
  1262                           	psect	bssBANK1
  1263   000100                     __pbssBANK1:
  1264                           	callstack 0
  1265   000100                     _str:
  1266                           	callstack 0
  1267   000100                     	ds	20
  1268   000114                     fabsf@F465:
  1269                           	callstack 0
  1270   000114                     	ds	4
  1271   000118                     ___fpclassifyf@F465:
  1272                           	callstack 0
  1273   000118                     	ds	4
  1274   00011C                     _angle:
  1275                           	callstack 0
  1276   00011C                     	ds	4
  1277   000120                     _pitch_offset:
  1278                           	callstack 0
  1279   000120                     	ds	4
  1280   000124                     _errno:
  1281                           	callstack 0
  1282   000124                     	ds	2
  1283   000126                     _postpostscaler:
  1284                           	callstack 0
  1285   000126                     	ds	2
  1286   000128                     _dir:
  1287                           	callstack 0
  1288   000128                     	ds	2
  1289   00012A                     _accZ:
  1290                           	callstack 0
  1291   00012A                     	ds	2
  1292   00012C                     _accY:
  1293                           	callstack 0
  1294   00012C                     	ds	2
  1295   00012E                     _accX:
  1296                           	callstack 0
  1297   00012E                     	ds	2
  1298   000130                     _needSendMsg:
  1299                           	callstack 0
  1300   000130                     	ds	2
  1301   000132                     _isConnected:
  1302                           	callstack 0
  1303   000132                     	ds	2
  1304   000134                     _count:
  1305                           	callstack 0
  1306   000134                     	ds	2
  1307   000136                     _lenStr:
  1308                           	callstack 0
  1309   000136                     	ds	2
  1310   000138                     _mystring:
  1311                           	callstack 0
  1312   000138                     	ds	20
  1313                           
  1314                           	psect	cstackBANK1
  1315   00014C                     __pcstackBANK1:
  1316                           	callstack 0
  1317   00014C                     main@prev_bend_sensor_val:
  1318                           	callstack 0
  1319                           
  1320                           ; 2 bytes @ 0x0
  1321   00014C                     	ds	2
  1322   00014E                     main@blinker_dir:
  1323                           	callstack 0
  1324                           
  1325                           ; 2 bytes @ 0x2
  1326   00014E                     	ds	2
  1327                           
  1328                           	psect	cstackBANK0
  1329   000080                     __pcstackBANK0:
  1330                           	callstack 0
  1331   000080                     ___fldiv@rem:
  1332                           	callstack 0
  1333                           
  1334                           ; 4 bytes @ 0x0
  1335   000080                     	ds	4
  1336   000084                     ___fldiv@sign:
  1337                           	callstack 0
  1338                           
  1339                           ; 1 bytes @ 0x4
  1340   000084                     	ds	1
  1341   000085                     ___fldiv@new_exp:
  1342                           	callstack 0
  1343                           
  1344                           ; 2 bytes @ 0x5
  1345   000085                     	ds	2
  1346   000087                     ___fldiv@grs:
  1347                           	callstack 0
  1348                           
  1349                           ; 4 bytes @ 0x7
  1350   000087                     	ds	4
  1351   00008B                     ___fldiv@bexp:
  1352                           	callstack 0
  1353                           
  1354                           ; 1 bytes @ 0xB
  1355   00008B                     	ds	1
  1356   00008C                     ___fldiv@aexp:
  1357                           	callstack 0
  1358                           
  1359                           ; 1 bytes @ 0xC
  1360   00008C                     	ds	1
  1361   00008D                     ?_atanf:
  1362                           	callstack 0
  1363   00008D                     atanf@x:
  1364                           	callstack 0
  1365                           
  1366                           ; 4 bytes @ 0xD
  1367   00008D                     	ds	4
  1368   000091                     _atanf$1906:
  1369                           	callstack 0
  1370                           
  1371                           ; 4 bytes @ 0x11
  1372   000091                     	ds	4
  1373   000095                     _atanf$1908:
  1374                           	callstack 0
  1375                           
  1376                           ; 4 bytes @ 0x15
  1377   000095                     	ds	4
  1378   000099                     _atanf$1909:
  1379                           	callstack 0
  1380                           
  1381                           ; 4 bytes @ 0x19
  1382   000099                     	ds	4
  1383   00009D                     atanf@s1:
  1384                           	callstack 0
  1385                           
  1386                           ; 4 bytes @ 0x1D
  1387   00009D                     	ds	4
  1388   0000A1                     atanf@s2:
  1389                           	callstack 0
  1390                           
  1391                           ; 4 bytes @ 0x21
  1392   0000A1                     	ds	4
  1393   0000A5                     _atanf$1905:
  1394                           	callstack 0
  1395                           
  1396                           ; 4 bytes @ 0x25
  1397   0000A5                     	ds	4
  1398   0000A9                     _atanf$1907:
  1399                           	callstack 0
  1400                           
  1401                           ; 4 bytes @ 0x29
  1402   0000A9                     	ds	4
  1403   0000AD                     atanf@sign:
  1404                           	callstack 0
  1405                           
  1406                           ; 1 bytes @ 0x2D
  1407   0000AD                     	ds	1
  1408   0000AE                     atanf@w:
  1409                           	callstack 0
  1410                           
  1411                           ; 4 bytes @ 0x2E
  1412   0000AE                     	ds	4
  1413   0000B2                     atanf@id:
  1414                           	callstack 0
  1415                           
  1416                           ; 1 bytes @ 0x32
  1417   0000B2                     	ds	1
  1418   0000B3                     atanf@z:
  1419                           	callstack 0
  1420                           
  1421                           ; 4 bytes @ 0x33
  1422   0000B3                     	ds	4
  1423   0000B7                     atanf@ix:
  1424                           	callstack 0
  1425                           
  1426                           ; 4 bytes @ 0x37
  1427   0000B7                     	ds	4
  1428   0000BB                     ?_atan2f:
  1429                           	callstack 0
  1430   0000BB                     atan2f@y:
  1431                           	callstack 0
  1432                           
  1433                           ; 4 bytes @ 0x3B
  1434   0000BB                     	ds	4
  1435   0000BF                     atan2f@x:
  1436                           	callstack 0
  1437                           
  1438                           ; 4 bytes @ 0x3F
  1439   0000BF                     	ds	4
  1440   0000C3                     ??_atan2f:
  1441                           
  1442                           ; 1 bytes @ 0x43
  1443   0000C3                     	ds	8
  1444   0000CB                     _atan2f$1902:
  1445                           	callstack 0
  1446                           
  1447                           ; 4 bytes @ 0x4B
  1448   0000CB                     	ds	4
  1449   0000CF                     _atan2f$1903:
  1450                           	callstack 0
  1451                           
  1452                           ; 4 bytes @ 0x4F
  1453   0000CF                     	ds	4
  1454   0000D3                     _atan2f$1904:
  1455                           	callstack 0
  1456                           
  1457                           ; 4 bytes @ 0x53
  1458   0000D3                     	ds	4
  1459   0000D7                     atan2f@z:
  1460                           	callstack 0
  1461                           
  1462                           ; 4 bytes @ 0x57
  1463   0000D7                     	ds	4
  1464   0000DB                     atan2f@ix:
  1465                           	callstack 0
  1466                           
  1467                           ; 4 bytes @ 0x5B
  1468   0000DB                     	ds	4
  1469   0000DF                     atan2f@iy:
  1470                           	callstack 0
  1471                           
  1472                           ; 4 bytes @ 0x5F
  1473   0000DF                     	ds	4
  1474   0000E3                     atan2f@m:
  1475                           	callstack 0
  1476                           
  1477                           ; 1 bytes @ 0x63
  1478   0000E3                     	ds	1
  1479   0000E4                     ?_calculate_angle:
  1480                           	callstack 0
  1481   0000E4                     calculate_angle@accX:
  1482                           	callstack 0
  1483                           
  1484                           ; 2 bytes @ 0x64
  1485   0000E4                     	ds	2
  1486   0000E6                     calculate_angle@accY:
  1487                           	callstack 0
  1488                           
  1489                           ; 2 bytes @ 0x66
  1490   0000E6                     	ds	2
  1491   0000E8                     calculate_angle@accZ:
  1492                           	callstack 0
  1493                           
  1494                           ; 2 bytes @ 0x68
  1495   0000E8                     	ds	2
  1496   0000EA                     _calculate_angle$1900:
  1497                           	callstack 0
  1498                           
  1499                           ; 4 bytes @ 0x6A
  1500   0000EA                     	ds	4
  1501   0000EE                     _calculate_angle$1901:
  1502                           	callstack 0
  1503                           
  1504                           ; 4 bytes @ 0x6E
  1505   0000EE                     	ds	4
  1506   0000F2                     Check_Gyroscope@blinker_dir:
  1507                           	callstack 0
  1508   0000F2                     ??_Calibration:
  1509                           
  1510                           ; 1 bytes @ 0x72
  1511   0000F2                     	ds	2
  1512   0000F4                     Calibration@accX:
  1513                           	callstack 0
  1514   0000F4                     ??_Check_Gyroscope:
  1515                           
  1516                           ; 1 bytes @ 0x74
  1517   0000F4                     	ds	2
  1518   0000F6                     Calibration@accZ:
  1519                           	callstack 0
  1520   0000F6                     _Check_Gyroscope$1899:
  1521                           	callstack 0
  1522                           
  1523                           ; 4 bytes @ 0x76
  1524   0000F6                     	ds	2
  1525   0000F8                     Calibration@accX_high:
  1526                           	callstack 0
  1527                           
  1528                           ; 1 bytes @ 0x78
  1529   0000F8                     	ds	1
  1530   0000F9                     Calibration@accX_low:
  1531                           	callstack 0
  1532                           
  1533                           ; 1 bytes @ 0x79
  1534   0000F9                     	ds	1
  1535   0000FA                     Calibration@accZ_high:
  1536                           	callstack 0
  1537                           
  1538                           ; 1 bytes @ 0x7A
  1539   0000FA                     	ds	1
  1540   0000FB                     Calibration@accZ_low:
  1541                           	callstack 0
  1542                           
  1543                           ; 1 bytes @ 0x7B
  1544   0000FB                     	ds	1
  1545   0000FC                     ??_Gyroscope_Initialize:
  1546                           
  1547                           ; 1 bytes @ 0x7C
  1548   0000FC                     	ds	1
  1549   0000FD                     ??_main:
  1550                           
  1551                           ; 1 bytes @ 0x7D
  1552   0000FD                     	ds	1
  1553                           
  1554                           	psect	cstackCOMRAM
  1555   000001                     __pcstackCOMRAM:
  1556                           	callstack 0
  1557   000001                     ??_Low_ISR:
  1558                           
  1559                           ; 1 bytes @ 0x0
  1560   000001                     	ds	5
  1561   000006                     ?___fpclassifyf:
  1562                           	callstack 0
  1563   000006                     ?_ADC_Read:
  1564                           	callstack 0
  1565   000006                     ?___flneg:
  1566                           	callstack 0
  1567   000006                     ?___xxtofl:
  1568                           	callstack 0
  1569   000006                     I2C_Write@data:
  1570                           	callstack 0
  1571   000006                     I2C_Read@ack:
  1572                           	callstack 0
  1573   000006                     ADC_Read@channel:
  1574                           	callstack 0
  1575   000006                     ___flge@ff1:
  1576                           	callstack 0
  1577   000006                     ___flneg@f1:
  1578                           	callstack 0
  1579   000006                     ___xxtofl@val:
  1580                           	callstack 0
  1581   000006                     ___fpclassifyf@x:
  1582                           	callstack 0
  1583   000006                     
  1584                           ; 1 bytes @ 0x5
  1585   000006                     	ds	1
  1586   000007                     I2C_Read@data:
  1587                           	callstack 0
  1588                           
  1589                           ; 1 bytes @ 0x6
  1590   000007                     	ds	1
  1591   000008                     ??_ADC_Read:
  1592                           
  1593                           ; 1 bytes @ 0x7
  1594   000008                     	ds	2
  1595   00000A                     ADC_Read@digital:
  1596                           	callstack 0
  1597   00000A                     ___flge@ff2:
  1598                           	callstack 0
  1599   00000A                     ??___fpclassifyf:
  1600   00000A                     ??___xxtofl:
  1601                           
  1602                           ; 1 bytes @ 0x9
  1603   00000A                     	ds	2
  1604   00000C                     Check_ADC@prev_sensor_val:
  1605                           	callstack 0
  1606                           
  1607                           ; 2 bytes @ 0xB
  1608   00000C                     	ds	2
  1609   00000E                     ___xxtofl@sign:
  1610                           	callstack 0
  1611   00000E                     ___fpclassifyf@e:
  1612                           	callstack 0
  1613   00000E                     ??_Check_ADC:
  1614   00000E                     ??___flge:
  1615                           
  1616                           ; 1 bytes @ 0xD
  1617   00000E                     	ds	1
  1618   00000F                     ___xxtofl@exp:
  1619                           	callstack 0
  1620                           
  1621                           ; 1 bytes @ 0xE
  1622   00000F                     	ds	1
  1623   000010                     ___xxtofl@arg:
  1624                           	callstack 0
  1625   000010                     ___fpclassifyf@u:
  1626                           	callstack 0
  1627                           
  1628                           ; 4 bytes @ 0xF
  1629   000010                     	ds	1
  1630   000011                     Check_ADC@bend_sensor_val:
  1631                           	callstack 0
  1632                           
  1633                           ; 2 bytes @ 0x10
  1634   000011                     	ds	3
  1635   000014                     ?___flmul:
  1636                           	callstack 0
  1637   000014                     ___flmul@b:
  1638                           	callstack 0
  1639                           
  1640                           ; 4 bytes @ 0x13
  1641   000014                     	ds	4
  1642   000018                     ___flmul@a:
  1643                           	callstack 0
  1644                           
  1645                           ; 4 bytes @ 0x17
  1646   000018                     	ds	4
  1647   00001C                     ??___flmul:
  1648                           
  1649                           ; 1 bytes @ 0x1B
  1650   00001C                     	ds	4
  1651   000020                     ___flmul@sign:
  1652                           	callstack 0
  1653                           
  1654                           ; 1 bytes @ 0x1F
  1655   000020                     	ds	1
  1656   000021                     ___flmul@aexp:
  1657                           	callstack 0
  1658                           
  1659                           ; 1 bytes @ 0x20
  1660   000021                     	ds	1
  1661   000022                     ___flmul@grs:
  1662                           	callstack 0
  1663                           
  1664                           ; 4 bytes @ 0x21
  1665   000022                     	ds	4
  1666   000026                     ___flmul@bexp:
  1667                           	callstack 0
  1668                           
  1669                           ; 1 bytes @ 0x25
  1670   000026                     	ds	1
  1671   000027                     ___flmul@prod:
  1672                           	callstack 0
  1673                           
  1674                           ; 4 bytes @ 0x26
  1675   000027                     	ds	4
  1676   00002B                     ___flmul@temp:
  1677                           	callstack 0
  1678                           
  1679                           ; 2 bytes @ 0x2A
  1680   00002B                     	ds	2
  1681   00002D                     ?___fladd:
  1682                           	callstack 0
  1683   00002D                     ___fladd@b:
  1684                           	callstack 0
  1685                           
  1686                           ; 4 bytes @ 0x2C
  1687   00002D                     	ds	4
  1688   000031                     ___fladd@a:
  1689                           	callstack 0
  1690                           
  1691                           ; 4 bytes @ 0x30
  1692   000031                     	ds	4
  1693   000035                     ??___fladd:
  1694                           
  1695                           ; 1 bytes @ 0x34
  1696   000035                     	ds	4
  1697   000039                     ___fladd@signs:
  1698                           	callstack 0
  1699                           
  1700                           ; 1 bytes @ 0x38
  1701   000039                     	ds	1
  1702   00003A                     ___fladd@aexp:
  1703                           	callstack 0
  1704                           
  1705                           ; 1 bytes @ 0x39
  1706   00003A                     	ds	1
  1707   00003B                     ___fladd@bexp:
  1708                           	callstack 0
  1709                           
  1710                           ; 1 bytes @ 0x3A
  1711   00003B                     	ds	1
  1712   00003C                     ___fladd@grs:
  1713                           	callstack 0
  1714                           
  1715                           ; 1 bytes @ 0x3B
  1716   00003C                     	ds	1
  1717   00003D                     ?_sqrtf:
  1718                           	callstack 0
  1719   00003D                     ?___flsub:
  1720                           	callstack 0
  1721   00003D                     ___flsub@b:
  1722                           	callstack 0
  1723   00003D                     sqrtf@x:
  1724                           	callstack 0
  1725                           
  1726                           ; 4 bytes @ 0x3C
  1727   00003D                     	ds	4
  1728   000041                     ___flsub@a:
  1729                           	callstack 0
  1730   000041                     ??_sqrtf:
  1731                           
  1732                           ; 1 bytes @ 0x40
  1733   000041                     	ds	4
  1734   000045                     
  1735                           ; 1 bytes @ 0x44
  1736   000045                     	ds	1
  1737   000046                     sqrtf@s:
  1738                           	callstack 0
  1739                           
  1740                           ; 4 bytes @ 0x45
  1741   000046                     	ds	4
  1742   00004A                     sqrtf@i:
  1743                           	callstack 0
  1744                           
  1745                           ; 4 bytes @ 0x49
  1746   00004A                     	ds	4
  1747   00004E                     sqrtf@q:
  1748                           	callstack 0
  1749                           
  1750                           ; 4 bytes @ 0x4D
  1751   00004E                     	ds	4
  1752   000052                     sqrtf@t:
  1753                           	callstack 0
  1754                           
  1755                           ; 4 bytes @ 0x51
  1756   000052                     	ds	4
  1757   000056                     sqrtf@m:
  1758                           	callstack 0
  1759                           
  1760                           ; 4 bytes @ 0x55
  1761   000056                     	ds	4
  1762   00005A                     sqrtf@r:
  1763                           	callstack 0
  1764                           
  1765                           ; 4 bytes @ 0x59
  1766   00005A                     	ds	4
  1767   00005E                     sqrtf@ix:
  1768                           	callstack 0
  1769                           
  1770                           ; 4 bytes @ 0x5D
  1771   00005E                     	ds	4
  1772   000062                     ?___fldiv:
  1773                           	callstack 0
  1774   000062                     ___fldiv@b:
  1775                           	callstack 0
  1776                           
  1777                           ; 4 bytes @ 0x61
  1778   000062                     	ds	4
  1779   000066                     ___fldiv@a:
  1780                           	callstack 0
  1781                           
  1782                           ; 4 bytes @ 0x65
  1783   000066                     	ds	4
  1784   00006A                     ??___fldiv:
  1785                           
  1786                           ; 1 bytes @ 0x69
  1787   00006A                     	ds	4
  1788   00006E                     ?_fabsf:
  1789                           	callstack 0
  1790   00006E                     fabsf@x:
  1791                           	callstack 0
  1792                           
  1793                           ; 4 bytes @ 0x6D
  1794   00006E                     	ds	4
  1795   000072                     fabsf@u:
  1796                           	callstack 0
  1797   000072                     
  1798                           ; 1 bytes @ 0x71
  1799   000072                     	ds	4
  1800   000076                     
  1801                           ; 1 bytes @ 0x75
  1802 ;;
  1803 ;;Main: autosize = 0, tempsize = 1, incstack = 0, save=0
  1804 ;;
  1805 ;; *************** function _main *****************
  1806 ;; Defined at:
  1807 ;;		line 22 in file "main.c"
  1808 ;; Parameters:    Size  Location     Type
  1809 ;;		None
  1810 ;; Auto vars:     Size  Location     Type
  1811 ;;  blinker_dir     2    2[BANK1 ] int 
  1812 ;;  prev_bend_se    2    0[BANK1 ] int 
  1813 ;; Return value:  Size  Location     Type
  1814 ;;                  1    wreg      void 
  1815 ;; Registers used:
  1816 ;;		wreg, status,2, status,0, tblptrl, tblptrh, tblptru, prodl, prodh, cstack
  1817 ;; Tracked objects:
  1818 ;;		On entry : 0/0
  1819 ;;		On exit  : 0/0
  1820 ;;		Unchanged: 0/0
  1821 ;; Data sizes:     COMRAM   BANK0   BANK1   BANK2   BANK3   BANK4   BANK5
  1822 ;;      Params:         0       0       0       0       0       0       0
  1823 ;;      Locals:         0       0       4       0       0       0       0
  1824 ;;      Temps:          0       1       0       0       0       0       0
  1825 ;;      Totals:         0       1       4       0       0       0       0
  1826 ;;Total ram usage:        5 bytes
  1827 ;; Hardware stack levels required when called: 9
  1828 ;; This function calls:
  1829 ;;		_Check_ADC
  1830 ;;		_Check_Gyroscope
  1831 ;;		_SYSTEM_Initialize
  1832 ;; This function is called by:
  1833 ;;		Startup code after reset
  1834 ;; This function uses a non-reentrant model
  1835 ;;
  1836                           
  1837                           	psect	text0
  1838   0026EA                     __ptext0:
  1839                           	callstack 0
  1840   0026EA                     _main:
  1841                           	callstack 22
  1842   0026EA                     
  1843                           ;main.c: 25:     SYSTEM_Initialize() ;
  1844   0026EA  EC61  F014         	call	_SYSTEM_Initialize	;wreg free
  1845   0026EE                     
  1846                           ;main.c: 27:     int blinker_dir = 0;
  1847   0026EE  0E00               	movlw	0
  1848   0026F0  0101               	movlb	1	; () banked
  1849   0026F2  6F4F               	movwf	(main@blinker_dir+1)& (0+255),b
  1850   0026F4  0E00               	movlw	0
  1851   0026F6  6F4E               	movwf	main@blinker_dir& (0+255),b
  1852   0026F8                     l4375:
  1853                           
  1854                           ;main.c: 37:         Check_ADC(prev_bend_sensor_val);
  1855   0026F8  C14C  F00C         	movff	main@prev_bend_sensor_val,Check_ADC@prev_sensor_val
  1856   0026FC  C14D  F00D         	movff	main@prev_bend_sensor_val+1,Check_ADC@prev_sensor_val+1
  1857   002700  EC07  F013         	call	_Check_ADC	;wreg free
  1858   002704                     
  1859                           ;main.c: 39:         Check_Gyroscope(blinker_dir);
  1860   002704  C14E  F0F2         	movff	main@blinker_dir,Check_Gyroscope@blinker_dir
  1861   002708  C14F  F0F3         	movff	main@blinker_dir+1,Check_Gyroscope@blinker_dir+1
  1862   00270C  EC05  F010         	call	_Check_Gyroscope	;wreg free
  1863   002710                     
  1864                           ;main.c: 40:         _delay((unsigned long)((20)*(4000000/4000.0)));
  1865   002710  0E1A               	movlw	26
  1866   002712  0100               	movlb	0	; () banked
  1867   002714  6FFD               	movwf	??_main& (0+255),b
  1868   002716  0EF8               	movlw	248
  1869   002718                     u5107:
  1870   002718  2EE8               	decfsz	wreg,f,c
  1871   00271A  D7FE               	bra	u5107
  1872   00271C  2FFD               	decfsz	??_main& (0+255),f,b
  1873   00271E  D7FC               	bra	u5107
  1874   002720  0000               	nop	
  1875   002722  EF7C  F013         	goto	l4375
  1876   002726  EF70  F000         	goto	start
  1877   00272A                     __end_of_main:
  1878                           	callstack 0
  1879                           
  1880 ;; *************** function _SYSTEM_Initialize *****************
  1881 ;; Defined at:
  1882 ;;		line 60 in file "setting_hardaware/setting.c"
  1883 ;; Parameters:    Size  Location     Type
  1884 ;;		None
  1885 ;; Auto vars:     Size  Location     Type
  1886 ;;		None
  1887 ;; Return value:  Size  Location     Type
  1888 ;;                  1    wreg      void 
  1889 ;; Registers used:
  1890 ;;		wreg, status,2, status,0, tblptrl, tblptrh, tblptru, prodl, prodh, cstack
  1891 ;; Tracked objects:
  1892 ;;		On entry : 0/0
  1893 ;;		On exit  : 0/0
  1894 ;;		Unchanged: 0/0
  1895 ;; Data sizes:     COMRAM   BANK0   BANK1   BANK2   BANK3   BANK4   BANK5
  1896 ;;      Params:         0       0       0       0       0       0       0
  1897 ;;      Locals:         0       0       0       0       0       0       0
  1898 ;;      Temps:          0       0       0       0       0       0       0
  1899 ;;      Totals:         0       0       0       0       0       0       0
  1900 ;;Total ram usage:        0 bytes
  1901 ;; Hardware stack levels used: 1
  1902 ;; Hardware stack levels required when called: 8
  1903 ;; This function calls:
  1904 ;;		_ADC_Initialize
  1905 ;;		_Gyroscope_Initialize
  1906 ;;		_INTERRUPT_Initialize
  1907 ;;		_OSCILLATOR_Initialize
  1908 ;;		_TMR2_Initialize
  1909 ;; This function is called by:
  1910 ;;		_main
  1911 ;; This function uses a non-reentrant model
  1912 ;;
  1913                           
  1914                           	psect	text1
  1915   0028C2                     __ptext1:
  1916                           	callstack 0
  1917   0028C2                     _SYSTEM_Initialize:
  1918                           	callstack 22
  1919   0028C2                     
  1920                           ;setting_hardaware/setting.c: 63:     OSCILLATOR_Initialize();
  1921   0028C2  EC8B  F014         	call	_OSCILLATOR_Initialize	;wreg free
  1922                           
  1923                           ;setting_hardaware/setting.c: 64:     TMR2_Initialize();
  1924   0028C6  EC85  F014         	call	_TMR2_Initialize	;wreg free
  1925   0028CA                     
  1926                           ;setting_hardaware/setting.c: 67:     INTERRUPT_Initialize();
  1927   0028CA  EC46  F014         	call	_INTERRUPT_Initialize	;wreg free
  1928   0028CE                     
  1929                           ;setting_hardaware/setting.c: 70:     ADC_Initialize();
  1930   0028CE  EC54  F014         	call	_ADC_Initialize	;wreg free
  1931   0028D2                     
  1932                           ;setting_hardaware/setting.c: 71:     Gyroscope_Initialize();
  1933   0028D2  ECB4  F013         	call	_Gyroscope_Initialize	;wreg free
  1934   0028D6  0012               	return		;funcret
  1935   0028D8                     __end_of_SYSTEM_Initialize:
  1936                           	callstack 0
  1937                           
  1938 ;; *************** function _TMR2_Initialize *****************
  1939 ;; Defined at:
  1940 ;;		line 83 in file "setting_hardaware/setting.c"
  1941 ;; Parameters:    Size  Location     Type
  1942 ;;		None
  1943 ;; Auto vars:     Size  Location     Type
  1944 ;;		None
  1945 ;; Return value:  Size  Location     Type
  1946 ;;                  1    wreg      void 
  1947 ;; Registers used:
  1948 ;;		None
  1949 ;; Tracked objects:
  1950 ;;		On entry : 0/0
  1951 ;;		On exit  : 0/0
  1952 ;;		Unchanged: 0/0
  1953 ;; Data sizes:     COMRAM   BANK0   BANK1   BANK2   BANK3   BANK4   BANK5
  1954 ;;      Params:         0       0       0       0       0       0       0
  1955 ;;      Locals:         0       0       0       0       0       0       0
  1956 ;;      Temps:          0       0       0       0       0       0       0
  1957 ;;      Totals:         0       0       0       0       0       0       0
  1958 ;;Total ram usage:        0 bytes
  1959 ;; Hardware stack levels used: 1
  1960 ;; Hardware stack levels required when called: 1
  1961 ;; This function calls:
  1962 ;;		Nothing
  1963 ;; This function is called by:
  1964 ;;		_SYSTEM_Initialize
  1965 ;; This function uses a non-reentrant model
  1966 ;;
  1967                           
  1968                           	psect	text2
  1969   00290A                     __ptext2:
  1970                           	callstack 0
  1971   00290A                     _TMR2_Initialize:
  1972                           	callstack 28
  1973   00290A                     
  1974                           ;setting_hardaware/setting.c: 84:     PIR1bits.TMR2IF = 0;
  1975   00290A  929E               	bcf	158,1,c	;volatile
  1976                           
  1977                           ;setting_hardaware/setting.c: 85:     IPR1bits.TMR2IP = 1;
  1978   00290C  829F               	bsf	159,1,c	;volatile
  1979                           
  1980                           ;setting_hardaware/setting.c: 86:     PIE1bits.TMR2IE = 1;
  1981   00290E  829D               	bsf	157,1,c	;volatile
  1982                           
  1983                           ;setting_hardaware/setting.c: 87:     T2CON = 255;
  1984   002910  68CA               	setf	202,c	;volatile
  1985                           
  1986                           ;setting_hardaware/setting.c: 88:     PR2 = 255;
  1987   002912  68CB               	setf	203,c	;volatile
  1988   002914  0012               	return		;funcret
  1989   002916                     __end_of_TMR2_Initialize:
  1990                           	callstack 0
  1991                           
  1992 ;; *************** function _OSCILLATOR_Initialize *****************
  1993 ;; Defined at:
  1994 ;;		line 74 in file "setting_hardaware/setting.c"
  1995 ;; Parameters:    Size  Location     Type
  1996 ;;		None
  1997 ;; Auto vars:     Size  Location     Type
  1998 ;;		None
  1999 ;; Return value:  Size  Location     Type
  2000 ;;                  1    wreg      void 
  2001 ;; Registers used:
  2002 ;;		None
  2003 ;; Tracked objects:
  2004 ;;		On entry : 0/0
  2005 ;;		On exit  : 0/0
  2006 ;;		Unchanged: 0/0
  2007 ;; Data sizes:     COMRAM   BANK0   BANK1   BANK2   BANK3   BANK4   BANK5
  2008 ;;      Params:         0       0       0       0       0       0       0
  2009 ;;      Locals:         0       0       0       0       0       0       0
  2010 ;;      Temps:          0       0       0       0       0       0       0
  2011 ;;      Totals:         0       0       0       0       0       0       0
  2012 ;;Total ram usage:        0 bytes
  2013 ;; Hardware stack levels used: 1
  2014 ;; Hardware stack levels required when called: 1
  2015 ;; This function calls:
  2016 ;;		Nothing
  2017 ;; This function is called by:
  2018 ;;		_SYSTEM_Initialize
  2019 ;; This function uses a non-reentrant model
  2020 ;;
  2021                           
  2022                           	psect	text3
  2023   002916                     __ptext3:
  2024                           	callstack 0
  2025   002916                     _OSCILLATOR_Initialize:
  2026                           	callstack 28
  2027   002916                     
  2028                           ;setting_hardaware/setting.c: 76:     IRCF2 = 1;
  2029   002916  8CD3               	bsf	4051,6,c	;volatile
  2030                           
  2031                           ;setting_hardaware/setting.c: 77:     IRCF1 = 1;
  2032   002918  8AD3               	bsf	4051,5,c	;volatile
  2033                           
  2034                           ;setting_hardaware/setting.c: 78:     IRCF0 = 0;
  2035   00291A  98D3               	bcf	4051,4,c	;volatile
  2036   00291C  0012               	return		;funcret
  2037   00291E                     __end_of_OSCILLATOR_Initialize:
  2038                           	callstack 0
  2039                           
  2040 ;; *************** function _INTERRUPT_Initialize *****************
  2041 ;; Defined at:
  2042 ;;		line 3 in file "setting_hardaware/interrupt_manager.c"
  2043 ;; Parameters:    Size  Location     Type
  2044 ;;		None
  2045 ;; Auto vars:     Size  Location     Type
  2046 ;;		None
  2047 ;; Return value:  Size  Location     Type
  2048 ;;                  1    wreg      void 
  2049 ;; Registers used:
  2050 ;;		wreg, status,2
  2051 ;; Tracked objects:
  2052 ;;		On entry : 0/0
  2053 ;;		On exit  : 0/0
  2054 ;;		Unchanged: 0/0
  2055 ;; Data sizes:     COMRAM   BANK0   BANK1   BANK2   BANK3   BANK4   BANK5
  2056 ;;      Params:         0       0       0       0       0       0       0
  2057 ;;      Locals:         0       0       0       0       0       0       0
  2058 ;;      Temps:          0       0       0       0       0       0       0
  2059 ;;      Totals:         0       0       0       0       0       0       0
  2060 ;;Total ram usage:        0 bytes
  2061 ;; Hardware stack levels used: 1
  2062 ;; Hardware stack levels required when called: 1
  2063 ;; This function calls:
  2064 ;;		Nothing
  2065 ;; This function is called by:
  2066 ;;		_SYSTEM_Initialize
  2067 ;; This function uses a non-reentrant model
  2068 ;;
  2069                           
  2070                           	psect	text4
  2071   00288C                     __ptext4:
  2072                           	callstack 0
  2073   00288C                     _INTERRUPT_Initialize:
  2074                           	callstack 28
  2075   00288C                     
  2076                           ;setting_hardaware/interrupt_manager.c: 5:     RCONbits.IPEN = 1;
  2077   00288C  8ED0               	bsf	208,7,c	;volatile
  2078                           
  2079                           ;setting_hardaware/interrupt_manager.c: 6:     INTCONbits.GIEH = 1;
  2080   00288E  8EF2               	bsf	242,7,c	;volatile
  2081                           
  2082                           ;setting_hardaware/interrupt_manager.c: 7:     INTCONbits.GIEL = 1;
  2083   002890  8CF2               	bsf	242,6,c	;volatile
  2084   002892                     
  2085                           ;setting_hardaware/interrupt_manager.c: 10:     ADCON1 = 0x0f;
  2086   002892  0E0F               	movlw	15
  2087   002894  6EC1               	movwf	193,c	;volatile
  2088   002896                     
  2089                           ;setting_hardaware/interrupt_manager.c: 11:     LATA = 0x00;
  2090   002896  6A89               	clrf	137,c	;volatile
  2091   002898                     
  2092                           ;setting_hardaware/interrupt_manager.c: 12:     TRISA = 0x00;
  2093   002898  6A92               	clrf	146,c	;volatile
  2094   00289A                     
  2095                           ;setting_hardaware/interrupt_manager.c: 13:     TRISAbits.TRISA0 = 1;
  2096   00289A  8092               	bsf	146,0,c	;volatile
  2097                           
  2098                           ;setting_hardaware/interrupt_manager.c: 16:     TRISB = 0x01;
  2099   00289C  0E01               	movlw	1
  2100   00289E  6E93               	movwf	147,c	;volatile
  2101   0028A0                     
  2102                           ;setting_hardaware/interrupt_manager.c: 17:     LATBbits.LATB0 = 0;
  2103   0028A0  908A               	bcf	138,0,c	;volatile
  2104   0028A2                     
  2105                           ;setting_hardaware/interrupt_manager.c: 19:     INTCONbits.INT0IE = 0;
  2106   0028A2  98F2               	bcf	242,4,c	;volatile
  2107   0028A4                     
  2108                           ;setting_hardaware/interrupt_manager.c: 20:     INTCONbits.INT0IF = 0;
  2109   0028A4  92F2               	bcf	242,1,c	;volatile
  2110   0028A6  0012               	return		;funcret
  2111   0028A8                     __end_of_INTERRUPT_Initialize:
  2112                           	callstack 0
  2113                           
  2114 ;; *************** function _Gyroscope_Initialize *****************
  2115 ;; Defined at:
  2116 ;;		line 30 in file "setting_hardaware/gyroscope.c"
  2117 ;; Parameters:    Size  Location     Type
  2118 ;;		None
  2119 ;; Auto vars:     Size  Location     Type
  2120 ;;		None
  2121 ;; Return value:  Size  Location     Type
  2122 ;;                  1    wreg      void 
  2123 ;; Registers used:
  2124 ;;		wreg, status,2, status,0, tblptrl, tblptrh, tblptru, prodl, prodh, cstack
  2125 ;; Tracked objects:
  2126 ;;		On entry : 0/0
  2127 ;;		On exit  : 0/0
  2128 ;;		Unchanged: 0/0
  2129 ;; Data sizes:     COMRAM   BANK0   BANK1   BANK2   BANK3   BANK4   BANK5
  2130 ;;      Params:         0       0       0       0       0       0       0
  2131 ;;      Locals:         0       0       0       0       0       0       0
  2132 ;;      Temps:          0       1       0       0       0       0       0
  2133 ;;      Totals:         0       1       0       0       0       0       0
  2134 ;;Total ram usage:        1 bytes
  2135 ;; Hardware stack levels used: 1
  2136 ;; Hardware stack levels required when called: 7
  2137 ;; This function calls:
  2138 ;;		_Calibration
  2139 ;;		_I2C_Init
  2140 ;;		_I2C_Start
  2141 ;;		_I2C_Stop
  2142 ;;		_I2C_Write
  2143 ;; This function is called by:
  2144 ;;		_SYSTEM_Initialize
  2145 ;; This function uses a non-reentrant model
  2146 ;;
  2147                           
  2148                           	psect	text5
  2149   002768                     __ptext5:
  2150                           	callstack 0
  2151   002768                     _Gyroscope_Initialize:
  2152                           	callstack 22
  2153   002768                     
  2154                           ;setting_hardaware/gyroscope.c: 31:     OSCCON = 0x60;
  2155   002768  0E60               	movlw	96
  2156   00276A  6ED3               	movwf	211,c	;volatile
  2157   00276C                     
  2158                           ;setting_hardaware/gyroscope.c: 33:     I2C_Init();
  2159   00276C  EC7E  F014         	call	_I2C_Init	;wreg free
  2160   002770                     
  2161                           ;setting_hardaware/gyroscope.c: 34:     _delay((unsigned long)((100)*(4000000/4000.0)));
  2162   002770  0E82               	movlw	130
  2163   002772  0100               	movlb	0	; () banked
  2164   002774  6FFC               	movwf	??_Gyroscope_Initialize& (0+255),b
  2165   002776  0EDD               	movlw	221
  2166   002778                     u5117:
  2167   002778  2EE8               	decfsz	wreg,f,c
  2168   00277A  D7FE               	bra	u5117
  2169   00277C  2FFC               	decfsz	??_Gyroscope_Initialize& (0+255),f,b
  2170   00277E  D7FC               	bra	u5117
  2171   002780  D000               	nop2	
  2172   002782                     
  2173                           ;setting_hardaware/gyroscope.c: 37:     I2C_Start();
  2174   002782  EC75  F014         	call	_I2C_Start	;wreg free
  2175   002786                     
  2176                           ;setting_hardaware/gyroscope.c: 38:     I2C_Write(0x68 << 1);
  2177   002786  0ED0               	movlw	208
  2178   002788  EC34  F014         	call	_I2C_Write
  2179   00278C                     
  2180                           ;setting_hardaware/gyroscope.c: 39:     I2C_Write(0x6B);
  2181   00278C  0E6B               	movlw	107
  2182   00278E  EC34  F014         	call	_I2C_Write
  2183   002792                     
  2184                           ;setting_hardaware/gyroscope.c: 40:     I2C_Write(0x00);
  2185   002792  0E00               	movlw	0
  2186   002794  EC34  F014         	call	_I2C_Write
  2187                           
  2188                           ;setting_hardaware/gyroscope.c: 41:     I2C_Stop();
  2189   002798  EC6C  F014         	call	_I2C_Stop	;wreg free
  2190   00279C                     
  2191                           ;setting_hardaware/gyroscope.c: 43:     Calibration();
  2192   00279C  EC9D  F012         	call	_Calibration	;wreg free
  2193   0027A0  0012               	return		;funcret
  2194   0027A2                     __end_of_Gyroscope_Initialize:
  2195                           	callstack 0
  2196                           
  2197 ;; *************** function _I2C_Init *****************
  2198 ;; Defined at:
  2199 ;;		line 88 in file "setting_hardaware/gyroscope.c"
  2200 ;; Parameters:    Size  Location     Type
  2201 ;;		None
  2202 ;; Auto vars:     Size  Location     Type
  2203 ;;		None
  2204 ;; Return value:  Size  Location     Type
  2205 ;;                  1    wreg      void 
  2206 ;; Registers used:
  2207 ;;		wreg, status,2
  2208 ;; Tracked objects:
  2209 ;;		On entry : 0/0
  2210 ;;		On exit  : 0/0
  2211 ;;		Unchanged: 0/0
  2212 ;; Data sizes:     COMRAM   BANK0   BANK1   BANK2   BANK3   BANK4   BANK5
  2213 ;;      Params:         0       0       0       0       0       0       0
  2214 ;;      Locals:         0       0       0       0       0       0       0
  2215 ;;      Temps:          0       0       0       0       0       0       0
  2216 ;;      Totals:         0       0       0       0       0       0       0
  2217 ;;Total ram usage:        0 bytes
  2218 ;; Hardware stack levels used: 1
  2219 ;; Hardware stack levels required when called: 1
  2220 ;; This function calls:
  2221 ;;		Nothing
  2222 ;; This function is called by:
  2223 ;;		_Gyroscope_Initialize
  2224 ;; This function uses a non-reentrant model
  2225 ;;
  2226                           
  2227                           	psect	text6
  2228   0028FC                     __ptext6:
  2229                           	callstack 0
  2230   0028FC                     _I2C_Init:
  2231                           	callstack 27
  2232   0028FC                     
  2233                           ;setting_hardaware/gyroscope.c: 89:     SSPCON1 = 0x28;
  2234   0028FC  0E28               	movlw	40
  2235   0028FE  6EC6               	movwf	198,c	;volatile
  2236   002900                     
  2237                           ;setting_hardaware/gyroscope.c: 90:     SSPCON2 = 0x00;
  2238   002900  6AC5               	clrf	197,c	;volatile
  2239                           
  2240                           ;setting_hardaware/gyroscope.c: 92:     SSPADD = 9;
  2241   002902  0E09               	movlw	9
  2242   002904  6EC8               	movwf	200,c	;volatile
  2243   002906                     
  2244                           ;setting_hardaware/gyroscope.c: 93:     SSPSTAT = 0x00;
  2245   002906  6AC7               	clrf	199,c	;volatile
  2246   002908  0012               	return		;funcret
  2247   00290A                     __end_of_I2C_Init:
  2248                           	callstack 0
  2249                           
  2250 ;; *************** function _Calibration *****************
  2251 ;; Defined at:
  2252 ;;		line 128 in file "setting_hardaware/gyroscope.c"
  2253 ;; Parameters:    Size  Location     Type
  2254 ;;		None
  2255 ;; Auto vars:     Size  Location     Type
  2256 ;;  accZ            2  118[BANK0 ] short 
  2257 ;;  accX            2  116[BANK0 ] short 
  2258 ;;  accZ_low        1  123[BANK0 ] unsigned char 
  2259 ;;  accZ_high       1  122[BANK0 ] unsigned char 
  2260 ;;  accX_low        1  121[BANK0 ] unsigned char 
  2261 ;;  accX_high       1  120[BANK0 ] unsigned char 
  2262 ;; Return value:  Size  Location     Type
  2263 ;;                  1    wreg      void 
  2264 ;; Registers used:
  2265 ;;		wreg, status,2, status,0, tblptrl, tblptrh, tblptru, prodl, prodh, cstack
  2266 ;; Tracked objects:
  2267 ;;		On entry : 0/0
  2268 ;;		On exit  : 0/0
  2269 ;;		Unchanged: 0/0
  2270 ;; Data sizes:     COMRAM   BANK0   BANK1   BANK2   BANK3   BANK4   BANK5
  2271 ;;      Params:         0       0       0       0       0       0       0
  2272 ;;      Locals:         0       8       0       0       0       0       0
  2273 ;;      Temps:          0       2       0       0       0       0       0
  2274 ;;      Totals:         0      10       0       0       0       0       0
  2275 ;;Total ram usage:       10 bytes
  2276 ;; Hardware stack levels used: 1
  2277 ;; Hardware stack levels required when called: 6
  2278 ;; This function calls:
  2279 ;;		_I2C_Read
  2280 ;;		_I2C_Start
  2281 ;;		_I2C_Stop
  2282 ;;		_I2C_Write
  2283 ;;		_calculate_angle
  2284 ;; This function is called by:
  2285 ;;		_Gyroscope_Initialize
  2286 ;; This function uses a non-reentrant model
  2287 ;;
  2288                           
  2289                           	psect	text7
  2290   00253A                     __ptext7:
  2291                           	callstack 0
  2292   00253A                     _Calibration:
  2293                           	callstack 22
  2294   00253A                     
  2295                           ;setting_hardaware/gyroscope.c: 129:     int16_t accX, accZ;;setting_hardaware/gyroscope
      +                          .c: 130:     uint8_t accX_high, accX_low, accZ_high, accZ_low;;setting_hardaware/gyrosco
      +                          pe.c: 131:     I2C_Start();
  2296   00253A  EC75  F014         	call	_I2C_Start	;wreg free
  2297   00253E                     
  2298                           ;setting_hardaware/gyroscope.c: 132:     I2C_Write(0x68 << 1);
  2299   00253E  0ED0               	movlw	208
  2300   002540  EC34  F014         	call	_I2C_Write
  2301   002544                     
  2302                           ;setting_hardaware/gyroscope.c: 133:     I2C_Write(0x3B);
  2303   002544  0E3B               	movlw	59
  2304   002546  EC34  F014         	call	_I2C_Write
  2305                           
  2306                           ;setting_hardaware/gyroscope.c: 134:     I2C_Start();
  2307   00254A  EC75  F014         	call	_I2C_Start	;wreg free
  2308   00254E                     
  2309                           ;setting_hardaware/gyroscope.c: 135:     I2C_Write((0x68 << 1) | 1);
  2310   00254E  0ED1               	movlw	209
  2311   002550  EC34  F014         	call	_I2C_Write
  2312   002554                     
  2313                           ;setting_hardaware/gyroscope.c: 136:     accX_high = I2C_Read(1);
  2314   002554  0E01               	movlw	1
  2315   002556  EC95  F013         	call	_I2C_Read
  2316   00255A  0100               	movlb	0	; () banked
  2317   00255C  6FF8               	movwf	Calibration@accX_high& (0+255),b
  2318   00255E                     
  2319                           ; BSR set to: 0
  2320                           ;setting_hardaware/gyroscope.c: 137:     accX_low = I2C_Read(1);
  2321   00255E  0E01               	movlw	1
  2322   002560  EC95  F013         	call	_I2C_Read
  2323   002564  0100               	movlb	0	; () banked
  2324   002566  6FF9               	movwf	Calibration@accX_low& (0+255),b
  2325   002568                     
  2326                           ; BSR set to: 0
  2327                           ;setting_hardaware/gyroscope.c: 138:     accY_high = I2C_Read(1);
  2328   002568  0E01               	movlw	1
  2329   00256A  EC95  F013         	call	_I2C_Read
  2330   00256E  0100               	movlb	0	; () banked
  2331   002570  6FFF               	movwf	_accY_high& (0+255),b
  2332   002572                     
  2333                           ; BSR set to: 0
  2334                           ;setting_hardaware/gyroscope.c: 139:     accY_low = I2C_Read(1);
  2335   002572  0E01               	movlw	1
  2336   002574  EC95  F013         	call	_I2C_Read
  2337   002578  0100               	movlb	0	; () banked
  2338   00257A  6FFE               	movwf	_accY_low& (0+255),b
  2339   00257C                     
  2340                           ; BSR set to: 0
  2341                           ;setting_hardaware/gyroscope.c: 140:     accZ_high = I2C_Read(1);
  2342   00257C  0E01               	movlw	1
  2343   00257E  EC95  F013         	call	_I2C_Read
  2344   002582  0100               	movlb	0	; () banked
  2345   002584  6FFA               	movwf	Calibration@accZ_high& (0+255),b
  2346   002586                     
  2347                           ; BSR set to: 0
  2348                           ;setting_hardaware/gyroscope.c: 141:     accZ_low = I2C_Read(0);
  2349   002586  0E00               	movlw	0
  2350   002588  EC95  F013         	call	_I2C_Read
  2351   00258C  0100               	movlb	0	; () banked
  2352   00258E  6FFB               	movwf	Calibration@accZ_low& (0+255),b
  2353   002590                     
  2354                           ; BSR set to: 0
  2355                           ;setting_hardaware/gyroscope.c: 142:     I2C_Stop();
  2356   002590  EC6C  F014         	call	_I2C_Stop	;wreg free
  2357   002594                     
  2358                           ;setting_hardaware/gyroscope.c: 144:     accX = (accX_high << 8) | accX_low;
  2359   002594  0100               	movlb	0	; () banked
  2360   002596  51F9               	movf	Calibration@accX_low& (0+255),w,b
  2361   002598  C0F8  F0F2         	movff	Calibration@accX_high,??_Calibration
  2362   00259C  6BF3               	clrf	(??_Calibration+1)& (0+255),b
  2363   00259E  C0F2  F0F3         	movff	??_Calibration,??_Calibration+1
  2364   0025A2  6BF2               	clrf	??_Calibration& (0+255),b
  2365   0025A4  11F2               	iorwf	??_Calibration& (0+255),w,b
  2366   0025A6  6FF4               	movwf	Calibration@accX& (0+255),b
  2367   0025A8  51F3               	movf	(??_Calibration+1)& (0+255),w,b
  2368   0025AA  6FF5               	movwf	(Calibration@accX+1)& (0+255),b
  2369   0025AC                     
  2370                           ; BSR set to: 0
  2371                           ;setting_hardaware/gyroscope.c: 145:     accY = (accY_high << 8) | accY_low;
  2372   0025AC  51FE               	movf	_accY_low& (0+255),w,b
  2373   0025AE  C0FF  F0F2         	movff	_accY_high,??_Calibration
  2374   0025B2  6BF3               	clrf	(??_Calibration+1)& (0+255),b
  2375   0025B4  C0F2  F0F3         	movff	??_Calibration,??_Calibration+1
  2376   0025B8  6BF2               	clrf	??_Calibration& (0+255),b
  2377   0025BA  11F2               	iorwf	??_Calibration& (0+255),w,b
  2378   0025BC  0101               	movlb	1	; () banked
  2379   0025BE  6F2C               	movwf	_accY& (0+255),b
  2380   0025C0  0100               	movlb	0	; () banked
  2381   0025C2  51F3               	movf	(??_Calibration+1)& (0+255),w,b
  2382   0025C4  0101               	movlb	1	; () banked
  2383   0025C6  6F2D               	movwf	(_accY+1)& (0+255),b
  2384   0025C8                     
  2385                           ; BSR set to: 1
  2386                           ;setting_hardaware/gyroscope.c: 146:     accZ = (accZ_high << 8) | accZ_low;
  2387   0025C8  0100               	movlb	0	; () banked
  2388   0025CA  51FB               	movf	Calibration@accZ_low& (0+255),w,b
  2389   0025CC  C0FA  F0F2         	movff	Calibration@accZ_high,??_Calibration
  2390   0025D0  6BF3               	clrf	(??_Calibration+1)& (0+255),b
  2391   0025D2  C0F2  F0F3         	movff	??_Calibration,??_Calibration+1
  2392   0025D6  6BF2               	clrf	??_Calibration& (0+255),b
  2393   0025D8  11F2               	iorwf	??_Calibration& (0+255),w,b
  2394   0025DA  6FF6               	movwf	Calibration@accZ& (0+255),b
  2395   0025DC  51F3               	movf	(??_Calibration+1)& (0+255),w,b
  2396   0025DE  6FF7               	movwf	(Calibration@accZ+1)& (0+255),b
  2397   0025E0                     
  2398                           ; BSR set to: 0
  2399                           ;setting_hardaware/gyroscope.c: 147:     pitch_offset = calculate_angle(accX, accY, accZ
      +                          );
  2400   0025E0  C0F4  F0E4         	movff	Calibration@accX,calculate_angle@accX
  2401   0025E4  C0F5  F0E5         	movff	Calibration@accX+1,calculate_angle@accX+1
  2402   0025E8  C12C  F0E6         	movff	_accY,calculate_angle@accY
  2403   0025EC  C12D  F0E7         	movff	_accY+1,calculate_angle@accY+1
  2404   0025F0  C0F6  F0E8         	movff	Calibration@accZ,calculate_angle@accZ
  2405   0025F4  C0F7  F0E9         	movff	Calibration@accZ+1,calculate_angle@accZ+1
  2406   0025F8  ECD1  F010         	call	_calculate_angle	;wreg free
  2407   0025FC  C0E4  F120         	movff	?_calculate_angle,_pitch_offset
  2408   002600  C0E5  F121         	movff	?_calculate_angle+1,_pitch_offset+1
  2409   002604  C0E6  F122         	movff	?_calculate_angle+2,_pitch_offset+2
  2410   002608  C0E7  F123         	movff	?_calculate_angle+3,_pitch_offset+3
  2411   00260C  0012               	return		;funcret
  2412   00260E                     __end_of_Calibration:
  2413                           	callstack 0
  2414                           
  2415 ;; *************** function _ADC_Initialize *****************
  2416 ;; Defined at:
  2417 ;;		line 8 in file "setting_hardaware/adc.c"
  2418 ;; Parameters:    Size  Location     Type
  2419 ;;		None
  2420 ;; Auto vars:     Size  Location     Type
  2421 ;;		None
  2422 ;; Return value:  Size  Location     Type
  2423 ;;                  1    wreg      void 
  2424 ;; Registers used:
  2425 ;;		wreg, status,2
  2426 ;; Tracked objects:
  2427 ;;		On entry : 0/0
  2428 ;;		On exit  : 0/0
  2429 ;;		Unchanged: 0/0
  2430 ;; Data sizes:     COMRAM   BANK0   BANK1   BANK2   BANK3   BANK4   BANK5
  2431 ;;      Params:         0       0       0       0       0       0       0
  2432 ;;      Locals:         0       0       0       0       0       0       0
  2433 ;;      Temps:          0       0       0       0       0       0       0
  2434 ;;      Totals:         0       0       0       0       0       0       0
  2435 ;;Total ram usage:        0 bytes
  2436 ;; Hardware stack levels used: 1
  2437 ;; Hardware stack levels required when called: 1
  2438 ;; This function calls:
  2439 ;;		Nothing
  2440 ;; This function is called by:
  2441 ;;		_SYSTEM_Initialize
  2442 ;; This function uses a non-reentrant model
  2443 ;;
  2444                           
  2445                           	psect	text8
  2446   0028A8                     __ptext8:
  2447                           	callstack 0
  2448   0028A8                     _ADC_Initialize:
  2449                           	callstack 28
  2450   0028A8                     
  2451                           ;setting_hardaware/adc.c: 10:     TRISAbits.RA0 = 1;
  2452   0028A8  8092               	bsf	146,0,c	;volatile
  2453   0028AA                     
  2454                           ;setting_hardaware/adc.c: 12:     ADCON1 = 0x0e;
  2455   0028AA  0E0E               	movlw	14
  2456   0028AC  6EC1               	movwf	193,c	;volatile
  2457   0028AE                     
  2458                           ;setting_hardaware/adc.c: 14:     ADFM = 1 ;
  2459   0028AE  8EC0               	bsf	4032,7,c	;volatile
  2460                           
  2461                           ;setting_hardaware/adc.c: 15:     ADCON2bits.ADCS = 7;
  2462   0028B0  0E07               	movlw	7
  2463   0028B2  12C0               	iorwf	192,f,c	;volatile
  2464                           
  2465                           ;setting_hardaware/adc.c: 16:     ADCON2bits.ACQT = 0b001;
  2466   0028B4  50C0               	movf	192,w,c	;volatile
  2467   0028B6  0BC7               	andlw	-57
  2468   0028B8  0908               	iorlw	8
  2469   0028BA  6EC0               	movwf	192,c	;volatile
  2470   0028BC                     
  2471                           ;setting_hardaware/adc.c: 18:     ADRESH=0;
  2472   0028BC  6AC4               	clrf	196,c	;volatile
  2473   0028BE                     
  2474                           ;setting_hardaware/adc.c: 19:     ADRESL=0;
  2475   0028BE  6AC3               	clrf	195,c	;volatile
  2476   0028C0  0012               	return		;funcret
  2477   0028C2                     __end_of_ADC_Initialize:
  2478                           	callstack 0
  2479                           
  2480 ;; *************** function _Check_Gyroscope *****************
  2481 ;; Defined at:
  2482 ;;		line 46 in file "setting_hardaware/gyroscope.c"
  2483 ;; Parameters:    Size  Location     Type
  2484 ;;  blinker_dir     2  114[BANK0 ] int 
  2485 ;; Auto vars:     Size  Location     Type
  2486 ;;		None
  2487 ;; Return value:  Size  Location     Type
  2488 ;;                  1    wreg      void 
  2489 ;; Registers used:
  2490 ;;		wreg, status,2, status,0, tblptrl, tblptrh, tblptru, prodl, prodh, cstack
  2491 ;; Tracked objects:
  2492 ;;		On entry : 0/0
  2493 ;;		On exit  : 0/0
  2494 ;;		Unchanged: 0/0
  2495 ;; Data sizes:     COMRAM   BANK0   BANK1   BANK2   BANK3   BANK4   BANK5
  2496 ;;      Params:         0       2       0       0       0       0       0
  2497 ;;      Locals:         0       4       0       0       0       0       0
  2498 ;;      Temps:          0       2       0       0       0       0       0
  2499 ;;      Totals:         0       8       0       0       0       0       0
  2500 ;;Total ram usage:        8 bytes
  2501 ;; Hardware stack levels used: 1
  2502 ;; Hardware stack levels required when called: 6
  2503 ;; This function calls:
  2504 ;;		_I2C_Read
  2505 ;;		_I2C_Start
  2506 ;;		_I2C_Stop
  2507 ;;		_I2C_Write
  2508 ;;		___flge
  2509 ;;		___flsub
  2510 ;;		_calculate_angle
  2511 ;; This function is called by:
  2512 ;;		_main
  2513 ;; This function uses a non-reentrant model
  2514 ;;
  2515                           
  2516                           	psect	text9
  2517   00200A                     __ptext9:
  2518                           	callstack 0
  2519   00200A                     _Check_Gyroscope:
  2520                           	callstack 24
  2521   00200A                     
  2522                           ;setting_hardaware/gyroscope.c: 47:     I2C_Start();
  2523   00200A  EC75  F014         	call	_I2C_Start	;wreg free
  2524   00200E                     
  2525                           ;setting_hardaware/gyroscope.c: 48:     I2C_Write(0x68 << 1);
  2526   00200E  0ED0               	movlw	208
  2527   002010  EC34  F014         	call	_I2C_Write
  2528   002014                     
  2529                           ;setting_hardaware/gyroscope.c: 49:     I2C_Write(0x3B);
  2530   002014  0E3B               	movlw	59
  2531   002016  EC34  F014         	call	_I2C_Write
  2532                           
  2533                           ;setting_hardaware/gyroscope.c: 50:     I2C_Start();
  2534   00201A  EC75  F014         	call	_I2C_Start	;wreg free
  2535   00201E                     
  2536                           ;setting_hardaware/gyroscope.c: 51:     I2C_Write((0x68 << 1) | 1);
  2537   00201E  0ED1               	movlw	209
  2538   002020  EC34  F014         	call	_I2C_Write
  2539   002024                     
  2540                           ;setting_hardaware/gyroscope.c: 53:     accX_high = I2C_Read(1);
  2541   002024  0E01               	movlw	1
  2542   002026  EC95  F013         	call	_I2C_Read
  2543   00202A  6E79               	movwf	_accX_high^0,c
  2544   00202C                     
  2545                           ;setting_hardaware/gyroscope.c: 54:     accX_low = I2C_Read(1);
  2546   00202C  0E01               	movlw	1
  2547   00202E  EC95  F013         	call	_I2C_Read
  2548   002032  6E78               	movwf	_accX_low^0,c
  2549   002034                     
  2550                           ;setting_hardaware/gyroscope.c: 55:     accY_high = I2C_Read(1);
  2551   002034  0E01               	movlw	1
  2552   002036  EC95  F013         	call	_I2C_Read
  2553   00203A  0100               	movlb	0	; () banked
  2554   00203C  6FFF               	movwf	_accY_high& (0+255),b
  2555   00203E                     
  2556                           ; BSR set to: 0
  2557                           ;setting_hardaware/gyroscope.c: 56:     accY_low = I2C_Read(1);
  2558   00203E  0E01               	movlw	1
  2559   002040  EC95  F013         	call	_I2C_Read
  2560   002044  0100               	movlb	0	; () banked
  2561   002046  6FFE               	movwf	_accY_low& (0+255),b
  2562   002048                     
  2563                           ; BSR set to: 0
  2564                           ;setting_hardaware/gyroscope.c: 57:     accZ_high = I2C_Read(1);
  2565   002048  0E01               	movlw	1
  2566   00204A  EC95  F013         	call	_I2C_Read
  2567   00204E  6E77               	movwf	_accZ_high^0,c
  2568   002050                     
  2569                           ;setting_hardaware/gyroscope.c: 58:     accZ_low = I2C_Read(0);
  2570   002050  0E00               	movlw	0
  2571   002052  EC95  F013         	call	_I2C_Read
  2572   002056  6E76               	movwf	_accZ_low^0,c
  2573   002058                     
  2574                           ;setting_hardaware/gyroscope.c: 59:     I2C_Stop();
  2575   002058  EC6C  F014         	call	_I2C_Stop	;wreg free
  2576   00205C                     
  2577                           ;setting_hardaware/gyroscope.c: 62:     accX = (accX_high << 8) | accX_low;
  2578   00205C  5078               	movf	_accX_low^0,w,c
  2579   00205E  C079  F0F4         	movff	_accX_high,??_Check_Gyroscope
  2580   002062  0100               	movlb	0	; () banked
  2581   002064  6BF5               	clrf	(??_Check_Gyroscope+1)& (0+255),b
  2582   002066  C0F4  F0F5         	movff	??_Check_Gyroscope,??_Check_Gyroscope+1
  2583   00206A  6BF4               	clrf	??_Check_Gyroscope& (0+255),b
  2584   00206C  11F4               	iorwf	??_Check_Gyroscope& (0+255),w,b
  2585   00206E  0101               	movlb	1	; () banked
  2586   002070  6F2E               	movwf	_accX& (0+255),b
  2587   002072  0100               	movlb	0	; () banked
  2588   002074  51F5               	movf	(??_Check_Gyroscope+1)& (0+255),w,b
  2589   002076  0101               	movlb	1	; () banked
  2590   002078  6F2F               	movwf	(_accX+1)& (0+255),b
  2591   00207A                     
  2592                           ; BSR set to: 1
  2593                           ;setting_hardaware/gyroscope.c: 63:     accY = (accY_high << 8) | accY_low;
  2594   00207A  0100               	movlb	0	; () banked
  2595   00207C  51FE               	movf	_accY_low& (0+255),w,b
  2596   00207E  C0FF  F0F4         	movff	_accY_high,??_Check_Gyroscope
  2597   002082  6BF5               	clrf	(??_Check_Gyroscope+1)& (0+255),b
  2598   002084  C0F4  F0F5         	movff	??_Check_Gyroscope,??_Check_Gyroscope+1
  2599   002088  6BF4               	clrf	??_Check_Gyroscope& (0+255),b
  2600   00208A  11F4               	iorwf	??_Check_Gyroscope& (0+255),w,b
  2601   00208C  0101               	movlb	1	; () banked
  2602   00208E  6F2C               	movwf	_accY& (0+255),b
  2603   002090  0100               	movlb	0	; () banked
  2604   002092  51F5               	movf	(??_Check_Gyroscope+1)& (0+255),w,b
  2605   002094  0101               	movlb	1	; () banked
  2606   002096  6F2D               	movwf	(_accY+1)& (0+255),b
  2607   002098                     
  2608                           ; BSR set to: 1
  2609                           ;setting_hardaware/gyroscope.c: 64:     accZ = (accZ_high << 8) | accZ_low;
  2610   002098  5076               	movf	_accZ_low^0,w,c
  2611   00209A  C077  F0F4         	movff	_accZ_high,??_Check_Gyroscope
  2612   00209E  0100               	movlb	0	; () banked
  2613   0020A0  6BF5               	clrf	(??_Check_Gyroscope+1)& (0+255),b
  2614   0020A2  C0F4  F0F5         	movff	??_Check_Gyroscope,??_Check_Gyroscope+1
  2615   0020A6  6BF4               	clrf	??_Check_Gyroscope& (0+255),b
  2616   0020A8  11F4               	iorwf	??_Check_Gyroscope& (0+255),w,b
  2617   0020AA  0101               	movlb	1	; () banked
  2618   0020AC  6F2A               	movwf	_accZ& (0+255),b
  2619   0020AE  0100               	movlb	0	; () banked
  2620   0020B0  51F5               	movf	(??_Check_Gyroscope+1)& (0+255),w,b
  2621   0020B2  0101               	movlb	1	; () banked
  2622   0020B4  6F2B               	movwf	(_accZ+1)& (0+255),b
  2623   0020B6                     
  2624                           ; BSR set to: 1
  2625                           ;setting_hardaware/gyroscope.c: 67:     angle = calculate_angle(accX, accY, accZ) - pitc
      +                          h_offset;
  2626   0020B6  C12A  F0E8         	movff	_accZ,calculate_angle@accZ
  2627   0020BA  C12B  F0E9         	movff	_accZ+1,calculate_angle@accZ+1
  2628   0020BE  C12C  F0E6         	movff	_accY,calculate_angle@accY
  2629   0020C2  C12D  F0E7         	movff	_accY+1,calculate_angle@accY+1
  2630   0020C6  C12E  F0E4         	movff	_accX,calculate_angle@accX
  2631   0020CA  C12F  F0E5         	movff	_accX+1,calculate_angle@accX+1
  2632   0020CE  ECD1  F010         	call	_calculate_angle	;wreg free
  2633   0020D2  C0E4  F0F6         	movff	?_calculate_angle,_Check_Gyroscope$1899
  2634   0020D6  C0E5  F0F7         	movff	?_calculate_angle+1,_Check_Gyroscope$1899+1
  2635   0020DA  C0E6  F0F8         	movff	?_calculate_angle+2,_Check_Gyroscope$1899+2
  2636   0020DE  C0E7  F0F9         	movff	?_calculate_angle+3,_Check_Gyroscope$1899+3
  2637   0020E2                     
  2638                           ;setting_hardaware/gyroscope.c: 67:     angle = calculate_angle(accX, accY, accZ) - pitc
      +                          h_offset;
  2639   0020E2  C0F6  F03D         	movff	_Check_Gyroscope$1899,___flsub@b
  2640   0020E6  C0F7  F03E         	movff	_Check_Gyroscope$1899+1,___flsub@b+1
  2641   0020EA  C0F8  F03F         	movff	_Check_Gyroscope$1899+2,___flsub@b+2
  2642   0020EE  C0F9  F040         	movff	_Check_Gyroscope$1899+3,___flsub@b+3
  2643   0020F2  C120  F041         	movff	_pitch_offset,___flsub@a
  2644   0020F6  C121  F042         	movff	_pitch_offset+1,___flsub@a+1
  2645   0020FA  C122  F043         	movff	_pitch_offset+2,___flsub@a+2
  2646   0020FE  C123  F044         	movff	_pitch_offset+3,___flsub@a+3
  2647   002102  EC52  F013         	call	___flsub	;wreg free
  2648   002106  C03D  F11C         	movff	?___flsub,_angle
  2649   00210A  C03E  F11D         	movff	?___flsub+1,_angle+1
  2650   00210E  C03F  F11E         	movff	?___flsub+2,_angle+2
  2651   002112  C040  F11F         	movff	?___flsub+3,_angle+3
  2652   002116                     
  2653                           ;setting_hardaware/gyroscope.c: 70:     if (angle > 30.0) {
  2654   002116  0E00               	movlw	0
  2655   002118  6E06               	movwf	___flge@ff1^0,c
  2656   00211A  0E00               	movlw	0
  2657   00211C  6E07               	movwf	(___flge@ff1+1)^0,c
  2658   00211E  0EF0               	movlw	240
  2659   002120  6E08               	movwf	(___flge@ff1+2)^0,c
  2660   002122  0E41               	movlw	65
  2661   002124  6E09               	movwf	(___flge@ff1+3)^0,c
  2662   002126  C11C  F00A         	movff	_angle,___flge@ff2
  2663   00212A  C11D  F00B         	movff	_angle+1,___flge@ff2+1
  2664   00212E  C11E  F00C         	movff	_angle+2,___flge@ff2+2
  2665   002132  C11F  F00D         	movff	_angle+3,___flge@ff2+3
  2666   002136  EC9C  F011         	call	___flge	;wreg free
  2667   00213A  B0D8               	btfsc	status,0,c
  2668   00213C  EFA2  F010         	goto	u5081
  2669   002140  EFA4  F010         	goto	u5080
  2670   002144                     u5081:
  2671   002144  EFA9  F010         	goto	l4361
  2672   002148                     u5080:
  2673   002148                     
  2674                           ;setting_hardaware/gyroscope.c: 71:         dir = -1;
  2675   002148  0101               	movlb	1	; () banked
  2676   00214A  6928               	setf	_dir& (0+255),b
  2677   00214C  6929               	setf	(_dir+1)& (0+255),b
  2678                           
  2679                           ;setting_hardaware/gyroscope.c: 72:     }
  2680   00214E  EFD0  F010         	goto	l264
  2681   002152                     l4361:
  2682   002152  C11C  F006         	movff	_angle,___flge@ff1
  2683   002156  C11D  F007         	movff	_angle+1,___flge@ff1+1
  2684   00215A  C11E  F008         	movff	_angle+2,___flge@ff1+2
  2685   00215E  C11F  F009         	movff	_angle+3,___flge@ff1+3
  2686   002162  0E00               	movlw	0
  2687   002164  6E0A               	movwf	___flge@ff2^0,c
  2688   002166  0E00               	movlw	0
  2689   002168  6E0B               	movwf	(___flge@ff2+1)^0,c
  2690   00216A  0EF0               	movlw	240
  2691   00216C  6E0C               	movwf	(___flge@ff2+2)^0,c
  2692   00216E  0EC1               	movlw	193
  2693   002170  6E0D               	movwf	(___flge@ff2+3)^0,c
  2694   002172  EC9C  F011         	call	___flge	;wreg free
  2695   002176  B0D8               	btfsc	status,0,c
  2696   002178  EFC0  F010         	goto	u5091
  2697   00217C  EFC2  F010         	goto	u5090
  2698   002180                     u5091:
  2699   002180  EFC9  F010         	goto	l4365
  2700   002184                     u5090:
  2701   002184                     
  2702                           ;setting_hardaware/gyroscope.c: 74:         dir = 1;
  2703   002184  0E00               	movlw	0
  2704   002186  0101               	movlb	1	; () banked
  2705   002188  6F29               	movwf	(_dir+1)& (0+255),b
  2706   00218A  0E01               	movlw	1
  2707   00218C  6F28               	movwf	_dir& (0+255),b
  2708                           
  2709                           ;setting_hardaware/gyroscope.c: 75:     } else{
  2710   00218E  EFD0  F010         	goto	l264
  2711   002192                     l4365:
  2712                           
  2713                           ;setting_hardaware/gyroscope.c: 76:         dir = 0;
  2714   002192  0E00               	movlw	0
  2715   002194  0101               	movlb	1	; () banked
  2716   002196  6F29               	movwf	(_dir+1)& (0+255),b
  2717   002198  0E00               	movlw	0
  2718   00219A  6F28               	movwf	_dir& (0+255),b
  2719   00219C                     
  2720                           ; BSR set to: 1
  2721                           ;setting_hardaware/gyroscope.c: 77:         LATAbits.LATA5 = 0;;
  2722   00219C  9A89               	bcf	137,5,c	;volatile
  2723   00219E                     
  2724                           ; BSR set to: 1
  2725                           ;setting_hardaware/gyroscope.c: 78:         LATAbits.LATA7 = 0;;
  2726   00219E  9E89               	bcf	137,7,c	;volatile
  2727   0021A0                     l264:
  2728                           
  2729                           ; BSR set to: 1
  2730   0021A0  0012               	return		;funcret
  2731   0021A2                     __end_of_Check_Gyroscope:
  2732                           	callstack 0
  2733                           
  2734 ;; *************** function _calculate_angle *****************
  2735 ;; Defined at:
  2736 ;;		line 83 in file "setting_hardaware/gyroscope.c"
  2737 ;; Parameters:    Size  Location     Type
  2738 ;;  accX            2  100[BANK0 ] short 
  2739 ;;  accY            2  102[BANK0 ] short 
  2740 ;;  accZ            2  104[BANK0 ] short 
  2741 ;; Auto vars:     Size  Location     Type
  2742 ;;		None
  2743 ;; Return value:  Size  Location     Type
  2744 ;;                  4  100[BANK0 ] float 
  2745 ;; Registers used:
  2746 ;;		wreg, status,2, status,0, tblptrl, tblptrh, tblptru, prodl, prodh, cstack
  2747 ;; Tracked objects:
  2748 ;;		On entry : 0/0
  2749 ;;		On exit  : 0/0
  2750 ;;		Unchanged: 0/0
  2751 ;; Data sizes:     COMRAM   BANK0   BANK1   BANK2   BANK3   BANK4   BANK5
  2752 ;;      Params:         0       6       0       0       0       0       0
  2753 ;;      Locals:         0       8       0       0       0       0       0
  2754 ;;      Temps:          0       0       0       0       0       0       0
  2755 ;;      Totals:         0      14       0       0       0       0       0
  2756 ;;Total ram usage:       14 bytes
  2757 ;; Hardware stack levels used: 1
  2758 ;; Hardware stack levels required when called: 5
  2759 ;; This function calls:
  2760 ;;		___fladd
  2761 ;;		___fldiv
  2762 ;;		___flmul
  2763 ;;		___xxtofl
  2764 ;;		_atan2f
  2765 ;;		_sqrtf
  2766 ;; This function is called by:
  2767 ;;		_Check_Gyroscope
  2768 ;;		_Calibration
  2769 ;; This function uses a non-reentrant model
  2770 ;;
  2771                           
  2772                           	psect	text10
  2773   0021A2                     __ptext10:
  2774                           	callstack 0
  2775   0021A2                     _calculate_angle:
  2776                           	callstack 22
  2777   0021A2                     
  2778                           ;setting_hardaware/gyroscope.c: 84:     return atan2f((float)accX,sqrtf((float)accY * ac
      +                          cY + (float)accZ * accZ)) * 180.0 / 3.14159265358979323846;
  2779   0021A2  C0E8  F006         	movff	calculate_angle@accZ,___xxtofl@val
  2780   0021A6  C0E9  F007         	movff	calculate_angle@accZ+1,___xxtofl@val+1
  2781   0021AA  0E00               	movlw	0
  2782   0021AC  BE07               	btfsc	(___xxtofl@val+1)^0,7,c
  2783   0021AE  0EFF               	movlw	-1
  2784   0021B0  6E08               	movwf	(___xxtofl@val+2)^0,c
  2785   0021B2  6E09               	movwf	(___xxtofl@val+3)^0,c
  2786   0021B4  0E01               	movlw	1
  2787   0021B6  EC2B  F00F         	call	___xxtofl
  2788   0021BA  C006  F018         	movff	?___xxtofl,___flmul@a
  2789   0021BE  C007  F019         	movff	?___xxtofl+1,___flmul@a+1
  2790   0021C2  C008  F01A         	movff	?___xxtofl+2,___flmul@a+2
  2791   0021C6  C009  F01B         	movff	?___xxtofl+3,___flmul@a+3
  2792   0021CA  C0E8  F006         	movff	calculate_angle@accZ,___xxtofl@val
  2793   0021CE  C0E9  F007         	movff	calculate_angle@accZ+1,___xxtofl@val+1
  2794   0021D2  0E00               	movlw	0
  2795   0021D4  BE07               	btfsc	(___xxtofl@val+1)^0,7,c
  2796   0021D6  0EFF               	movlw	-1
  2797   0021D8  6E08               	movwf	(___xxtofl@val+2)^0,c
  2798   0021DA  6E09               	movwf	(___xxtofl@val+3)^0,c
  2799   0021DC  0E01               	movlw	1
  2800   0021DE  EC2B  F00F         	call	___xxtofl
  2801   0021E2  C006  F014         	movff	?___xxtofl,___flmul@b
  2802   0021E6  C007  F015         	movff	?___xxtofl+1,___flmul@b+1
  2803   0021EA  C008  F016         	movff	?___xxtofl+2,___flmul@b+2
  2804   0021EE  C009  F017         	movff	?___xxtofl+3,___flmul@b+3
  2805   0021F2  EC60  F009         	call	___flmul	;wreg free
  2806   0021F6  C014  F031         	movff	?___flmul,___fladd@a
  2807   0021FA  C015  F032         	movff	?___flmul+1,___fladd@a+1
  2808   0021FE  C016  F033         	movff	?___flmul+2,___fladd@a+2
  2809   002202  C017  F034         	movff	?___flmul+3,___fladd@a+3
  2810   002206  C0E6  F006         	movff	calculate_angle@accY,___xxtofl@val
  2811   00220A  C0E7  F007         	movff	calculate_angle@accY+1,___xxtofl@val+1
  2812   00220E  0E00               	movlw	0
  2813   002210  BE07               	btfsc	(___xxtofl@val+1)^0,7,c
  2814   002212  0EFF               	movlw	-1
  2815   002214  6E08               	movwf	(___xxtofl@val+2)^0,c
  2816   002216  6E09               	movwf	(___xxtofl@val+3)^0,c
  2817   002218  0E01               	movlw	1
  2818   00221A  EC2B  F00F         	call	___xxtofl
  2819   00221E  C006  F018         	movff	?___xxtofl,___flmul@a
  2820   002222  C007  F019         	movff	?___xxtofl+1,___flmul@a+1
  2821   002226  C008  F01A         	movff	?___xxtofl+2,___flmul@a+2
  2822   00222A  C009  F01B         	movff	?___xxtofl+3,___flmul@a+3
  2823   00222E  C0E6  F006         	movff	calculate_angle@accY,___xxtofl@val
  2824   002232  C0E7  F007         	movff	calculate_angle@accY+1,___xxtofl@val+1
  2825   002236  0E00               	movlw	0
  2826   002238  BE07               	btfsc	(___xxtofl@val+1)^0,7,c
  2827   00223A  0EFF               	movlw	-1
  2828   00223C  6E08               	movwf	(___xxtofl@val+2)^0,c
  2829   00223E  6E09               	movwf	(___xxtofl@val+3)^0,c
  2830   002240  0E01               	movlw	1
  2831   002242  EC2B  F00F         	call	___xxtofl
  2832   002246  C006  F014         	movff	?___xxtofl,___flmul@b
  2833   00224A  C007  F015         	movff	?___xxtofl+1,___flmul@b+1
  2834   00224E  C008  F016         	movff	?___xxtofl+2,___flmul@b+2
  2835   002252  C009  F017         	movff	?___xxtofl+3,___flmul@b+3
  2836   002256  EC60  F009         	call	___flmul	;wreg free
  2837   00225A  C014  F02D         	movff	?___flmul,___fladd@b
  2838   00225E  C015  F02E         	movff	?___flmul+1,___fladd@b+1
  2839   002262  C016  F02F         	movff	?___flmul+2,___fladd@b+2
  2840   002266  C017  F030         	movff	?___flmul+3,___fladd@b+3
  2841   00226A  EC05  F007         	call	___fladd	;wreg free
  2842   00226E  C02D  F03D         	movff	?___fladd,sqrtf@x
  2843   002272  C02E  F03E         	movff	?___fladd+1,sqrtf@x+1
  2844   002276  C02F  F03F         	movff	?___fladd+2,sqrtf@x+2
  2845   00227A  C030  F040         	movff	?___fladd+3,sqrtf@x+3
  2846   00227E  EC73  F00B         	call	_sqrtf	;wreg free
  2847   002282  C03D  F0EA         	movff	?_sqrtf,_calculate_angle$1900
  2848   002286  C03E  F0EB         	movff	?_sqrtf+1,_calculate_angle$1900+1
  2849   00228A  C03F  F0EC         	movff	?_sqrtf+2,_calculate_angle$1900+2
  2850   00228E  C040  F0ED         	movff	?_sqrtf+3,_calculate_angle$1900+3
  2851   002292                     
  2852                           ;setting_hardaware/gyroscope.c: 84:     return atan2f((float)accX,sqrtf((float)accY * ac
      +                          cY + (float)accZ * accZ)) * 180.0 / 3.14159265358979323846;
  2853   002292  C0EA  F0BF         	movff	_calculate_angle$1900,atan2f@x
  2854   002296  C0EB  F0C0         	movff	_calculate_angle$1900+1,atan2f@x+1
  2855   00229A  C0EC  F0C1         	movff	_calculate_angle$1900+2,atan2f@x+2
  2856   00229E  C0ED  F0C2         	movff	_calculate_angle$1900+3,atan2f@x+3
  2857   0022A2  C0E4  F006         	movff	calculate_angle@accX,___xxtofl@val
  2858   0022A6  C0E5  F007         	movff	calculate_angle@accX+1,___xxtofl@val+1
  2859   0022AA  0E00               	movlw	0
  2860   0022AC  BE07               	btfsc	(___xxtofl@val+1)^0,7,c
  2861   0022AE  0EFF               	movlw	-1
  2862   0022B0  6E08               	movwf	(___xxtofl@val+2)^0,c
  2863   0022B2  6E09               	movwf	(___xxtofl@val+3)^0,c
  2864   0022B4  0E01               	movlw	1
  2865   0022B6  EC2B  F00F         	call	___xxtofl
  2866   0022BA  C006  F0BB         	movff	?___xxtofl,atan2f@y
  2867   0022BE  C007  F0BC         	movff	?___xxtofl+1,atan2f@y+1
  2868   0022C2  C008  F0BD         	movff	?___xxtofl+2,atan2f@y+2
  2869   0022C6  C009  F0BE         	movff	?___xxtofl+3,atan2f@y+3
  2870   0022CA  EC27  F004         	call	_atan2f	;wreg free
  2871   0022CE  C0BB  F0EE         	movff	?_atan2f,_calculate_angle$1901
  2872   0022D2  C0BC  F0EF         	movff	?_atan2f+1,_calculate_angle$1901+1
  2873   0022D6  C0BD  F0F0         	movff	?_atan2f+2,_calculate_angle$1901+2
  2874   0022DA  C0BE  F0F1         	movff	?_atan2f+3,_calculate_angle$1901+3
  2875   0022DE                     
  2876                           ;setting_hardaware/gyroscope.c: 84:     return atan2f((float)accX,sqrtf((float)accY * ac
      +                          cY + (float)accZ * accZ)) * 180.0 / 3.14159265358979323846;
  2877   0022DE  0E00               	movlw	0
  2878   0022E0  6E18               	movwf	___flmul@a^0,c
  2879   0022E2  0E00               	movlw	0
  2880   0022E4  6E19               	movwf	(___flmul@a+1)^0,c
  2881   0022E6  0E34               	movlw	52
  2882   0022E8  6E1A               	movwf	(___flmul@a+2)^0,c
  2883   0022EA  0E43               	movlw	67
  2884   0022EC  6E1B               	movwf	(___flmul@a+3)^0,c
  2885   0022EE  C0EE  F014         	movff	_calculate_angle$1901,___flmul@b
  2886   0022F2  C0EF  F015         	movff	_calculate_angle$1901+1,___flmul@b+1
  2887   0022F6  C0F0  F016         	movff	_calculate_angle$1901+2,___flmul@b+2
  2888   0022FA  C0F1  F017         	movff	_calculate_angle$1901+3,___flmul@b+3
  2889   0022FE  EC60  F009         	call	___flmul	;wreg free
  2890   002302  C014  F062         	movff	?___flmul,___fldiv@b
  2891   002306  C015  F063         	movff	?___flmul+1,___fldiv@b+1
  2892   00230A  C016  F064         	movff	?___flmul+2,___fldiv@b+2
  2893   00230E  C017  F065         	movff	?___flmul+3,___fldiv@b+3
  2894   002312  0EDB               	movlw	219
  2895   002314  6E66               	movwf	___fldiv@a^0,c
  2896   002316  0E0F               	movlw	15
  2897   002318  6E67               	movwf	(___fldiv@a+1)^0,c
  2898   00231A  0E49               	movlw	73
  2899   00231C  6E68               	movwf	(___fldiv@a+2)^0,c
  2900   00231E  0E40               	movlw	64
  2901   002320  6E69               	movwf	(___fldiv@a+3)^0,c
  2902   002322  EC62  F00D         	call	___fldiv	;wreg free
  2903   002326  C062  F0E4         	movff	?___fldiv,?_calculate_angle
  2904   00232A  C063  F0E5         	movff	?___fldiv+1,?_calculate_angle+1
  2905   00232E  C064  F0E6         	movff	?___fldiv+2,?_calculate_angle+2
  2906   002332  C065  F0E7         	movff	?___fldiv+3,?_calculate_angle+3
  2907   002336  0012               	return		;funcret
  2908   002338                     __end_of_calculate_angle:
  2909                           	callstack 0
  2910                           
  2911 ;; *************** function _sqrtf *****************
  2912 ;; Defined at:
  2913 ;;		line 24 in file "C:\Program Files\Microchip\xc8\v2.50\pic\sources\c99\common\sqrtf.c"
  2914 ;; Parameters:    Size  Location     Type
  2915 ;;  x               4   60[COMRAM] float 
  2916 ;; Auto vars:     Size  Location     Type
  2917 ;;  ix              4   93[COMRAM] struct .
  2918 ;;  r               4   89[COMRAM] unsigned long 
  2919 ;;  m               4   85[COMRAM] long 
  2920 ;;  t               4   81[COMRAM] long 
  2921 ;;  q               4   77[COMRAM] long 
  2922 ;;  i               4   73[COMRAM] long 
  2923 ;;  s               4   69[COMRAM] long 
  2924 ;;  z               4    0        float 
  2925 ;; Return value:  Size  Location     Type
  2926 ;;                  4   60[COMRAM] float 
  2927 ;; Registers used:
  2928 ;;		wreg, status,2, status,0
  2929 ;; Tracked objects:
  2930 ;;		On entry : 0/0
  2931 ;;		On exit  : 0/0
  2932 ;;		Unchanged: 0/0
  2933 ;; Data sizes:     COMRAM   BANK0   BANK1   BANK2   BANK3   BANK4   BANK5
  2934 ;;      Params:         4       0       0       0       0       0       0
  2935 ;;      Locals:        28       0       0       0       0       0       0
  2936 ;;      Temps:          5       0       0       0       0       0       0
  2937 ;;      Totals:        37       0       0       0       0       0       0
  2938 ;;Total ram usage:       37 bytes
  2939 ;; Hardware stack levels used: 1
  2940 ;; Hardware stack levels required when called: 1
  2941 ;; This function calls:
  2942 ;;		Nothing
  2943 ;; This function is called by:
  2944 ;;		_calculate_angle
  2945 ;; This function uses a non-reentrant model
  2946 ;;
  2947                           
  2948                           	psect	text11
  2949   0016E6                     __ptext11:
  2950                           	callstack 0
  2951   0016E6                     _sqrtf:
  2952                           	callstack 25
  2953   0016E6  C03D  F05E         	movff	sqrtf@x,sqrtf@ix
  2954   0016EA  C03E  F05F         	movff	sqrtf@x+1,sqrtf@ix+1
  2955   0016EE  C03F  F060         	movff	sqrtf@x+2,sqrtf@ix+2
  2956   0016F2  C040  F061         	movff	sqrtf@x+3,sqrtf@ix+3
  2957   0016F6  0E00               	movlw	0
  2958   0016F8  145E               	andwf	sqrtf@ix^0,w,c
  2959   0016FA  6E41               	movwf	??_sqrtf^0,c
  2960   0016FC  0E00               	movlw	0
  2961   0016FE  145F               	andwf	(sqrtf@ix+1)^0,w,c
  2962   001700  6E42               	movwf	(??_sqrtf+1)^0,c
  2963   001702  0E80               	movlw	128
  2964   001704  1460               	andwf	(sqrtf@ix+2)^0,w,c
  2965   001706  6E43               	movwf	(??_sqrtf+2)^0,c
  2966   001708  0E7F               	movlw	127
  2967   00170A  1461               	andwf	(sqrtf@ix+3)^0,w,c
  2968   00170C  6E44               	movwf	(??_sqrtf+3)^0,c
  2969   00170E  0E80               	movlw	128
  2970   001710  1843               	xorwf	(??_sqrtf+2)^0,w,c
  2971   001712  E109               	bnz	u4521
  2972   001714  0E7F               	movlw	127
  2973   001716  1844               	xorwf	(??_sqrtf+3)^0,w,c
  2974   001718  1041               	iorwf	??_sqrtf^0,w,c
  2975   00171A  1042               	iorwf	(??_sqrtf+1)^0,w,c
  2976   00171C  A4D8               	btfss	status,2,c
  2977   00171E  EF93  F00B         	goto	u4521
  2978   001722  EF95  F00B         	goto	u4520
  2979   001726                     u4521:
  2980   001726  EFC5  F00B         	goto	l3953
  2981   00172A                     u4520:
  2982   00172A  0EFF               	movlw	255
  2983   00172C  145E               	andwf	sqrtf@ix^0,w,c
  2984   00172E  6E41               	movwf	??_sqrtf^0,c
  2985   001730  0EFF               	movlw	255
  2986   001732  145F               	andwf	(sqrtf@ix+1)^0,w,c
  2987   001734  6E42               	movwf	(??_sqrtf+1)^0,c
  2988   001736  0E7F               	movlw	127
  2989   001738  1460               	andwf	(sqrtf@ix+2)^0,w,c
  2990   00173A  6E43               	movwf	(??_sqrtf+2)^0,c
  2991   00173C  0E00               	movlw	0
  2992   00173E  1461               	andwf	(sqrtf@ix+3)^0,w,c
  2993   001740  6E44               	movwf	(??_sqrtf+3)^0,c
  2994   001742  5041               	movf	??_sqrtf^0,w,c
  2995   001744  1042               	iorwf	(??_sqrtf+1)^0,w,c
  2996   001746  1043               	iorwf	(??_sqrtf+2)^0,w,c
  2997   001748  1044               	iorwf	(??_sqrtf+3)^0,w,c
  2998   00174A  A4D8               	btfss	status,2,c
  2999   00174C  EFAA  F00B         	goto	u4531
  3000   001750  EFAC  F00B         	goto	u4530
  3001   001754                     u4531:
  3002   001754  EFB3  F00B         	goto	l3947
  3003   001758                     u4530:
  3004   001758  BE61               	btfsc	(sqrtf@ix+3)^0,7,c
  3005   00175A  EFB3  F00B         	goto	u4540
  3006   00175E  EFB1  F00B         	goto	u4541
  3007   001762                     u4541:
  3008   001762  EFBB  F00B         	goto	l3949
  3009   001766                     u4540:
  3010   001766                     l3947:
  3011   001766  0EFF               	movlw	255
  3012   001768  125E               	iorwf	sqrtf@ix^0,f,c
  3013   00176A  0EFF               	movlw	255
  3014   00176C  125F               	iorwf	(sqrtf@ix+1)^0,f,c
  3015   00176E  0E7F               	movlw	127
  3016   001770  1260               	iorwf	(sqrtf@ix+2)^0,f,c
  3017   001772  0E00               	movlw	0
  3018   001774  1261               	iorwf	(sqrtf@ix+3)^0,f,c
  3019   001776                     l3949:
  3020   001776  C05E  F03D         	movff	sqrtf@ix,?_sqrtf
  3021   00177A  C05F  F03E         	movff	sqrtf@ix+1,?_sqrtf+1
  3022   00177E  C060  F03F         	movff	sqrtf@ix+2,?_sqrtf+2
  3023   001782  C061  F040         	movff	sqrtf@ix+3,?_sqrtf+3
  3024   001786  EF61  F00D         	goto	l1114
  3025   00178A                     l3953:
  3026   00178A  BE61               	btfsc	(sqrtf@ix+3)^0,7,c
  3027   00178C  EFD4  F00B         	goto	u4550
  3028   001790  5061               	movf	(sqrtf@ix+3)^0,w,c
  3029   001792  1060               	iorwf	(sqrtf@ix+2)^0,w,c
  3030   001794  105F               	iorwf	(sqrtf@ix+1)^0,w,c
  3031   001796  E106               	bnz	u4551
  3032   001798  045E               	decf	sqrtf@ix^0,w,c
  3033   00179A  B0D8               	btfsc	status,0,c
  3034   00179C  EFD2  F00B         	goto	u4551
  3035   0017A0  EFD4  F00B         	goto	u4550
  3036   0017A4                     u4551:
  3037   0017A4  EF0B  F00C         	goto	l3969
  3038   0017A8                     u4550:
  3039   0017A8  0EFF               	movlw	255
  3040   0017AA  145E               	andwf	sqrtf@ix^0,w,c
  3041   0017AC  6E41               	movwf	??_sqrtf^0,c
  3042   0017AE  0EFF               	movlw	255
  3043   0017B0  145F               	andwf	(sqrtf@ix+1)^0,w,c
  3044   0017B2  6E42               	movwf	(??_sqrtf+1)^0,c
  3045   0017B4  0EFF               	movlw	255
  3046   0017B6  1460               	andwf	(sqrtf@ix+2)^0,w,c
  3047   0017B8  6E43               	movwf	(??_sqrtf+2)^0,c
  3048   0017BA  0E7F               	movlw	127
  3049   0017BC  1461               	andwf	(sqrtf@ix+3)^0,w,c
  3050   0017BE  6E44               	movwf	(??_sqrtf+3)^0,c
  3051   0017C0  5041               	movf	??_sqrtf^0,w,c
  3052   0017C2  1042               	iorwf	(??_sqrtf+1)^0,w,c
  3053   0017C4  1043               	iorwf	(??_sqrtf+2)^0,w,c
  3054   0017C6  1044               	iorwf	(??_sqrtf+3)^0,w,c
  3055   0017C8  A4D8               	btfss	status,2,c
  3056   0017CA  EFE9  F00B         	goto	u4561
  3057   0017CE  EFEB  F00B         	goto	u4560
  3058   0017D2                     u4561:
  3059   0017D2  EFF5  F00B         	goto	l3961
  3060   0017D6                     u4560:
  3061   0017D6  0E00               	movlw	0
  3062   0017D8  6E3D               	movwf	?_sqrtf^0,c
  3063   0017DA  0E00               	movlw	0
  3064   0017DC  6E3E               	movwf	(?_sqrtf+1)^0,c
  3065   0017DE  0E00               	movlw	0
  3066   0017E0  6E3F               	movwf	(?_sqrtf+2)^0,c
  3067   0017E2  0E00               	movlw	0
  3068   0017E4  6E40               	movwf	(?_sqrtf+3)^0,c
  3069   0017E6  EF61  F00D         	goto	l1114
  3070   0017EA                     l3961:
  3071   0017EA  BE61               	btfsc	(sqrtf@ix+3)^0,7,c
  3072   0017EC  EFFC  F00B         	goto	u4570
  3073   0017F0  EFFA  F00B         	goto	u4571
  3074   0017F4                     u4571:
  3075   0017F4  EF0B  F00C         	goto	l3969
  3076   0017F8                     u4570:
  3077   0017F8  0E00               	movlw	0
  3078   0017FA  0101               	movlb	1	; () banked
  3079   0017FC  6F25               	movwf	(_errno+1)& (0+255),b
  3080   0017FE  0E21               	movlw	33
  3081   001800  6F24               	movwf	_errno& (0+255),b
  3082   001802  0EFF               	movlw	255
  3083   001804  6E5E               	movwf	sqrtf@ix^0,c
  3084   001806  0EFF               	movlw	255
  3085   001808  6E5F               	movwf	(sqrtf@ix+1)^0,c
  3086   00180A  0EFF               	movlw	255
  3087   00180C  6E60               	movwf	(sqrtf@ix+2)^0,c
  3088   00180E  0E7F               	movlw	127
  3089   001810  6E61               	movwf	(sqrtf@ix+3)^0,c
  3090   001812  EFBB  F00B         	goto	l3949
  3091   001816                     l3969:
  3092   001816  0E17               	movlw	23
  3093   001818  6E41               	movwf	??_sqrtf^0,c
  3094   00181A  C05E  F042         	movff	sqrtf@ix,??_sqrtf+1
  3095   00181E  C05F  F043         	movff	sqrtf@ix+1,??_sqrtf+2
  3096   001822  C060  F044         	movff	sqrtf@ix+2,??_sqrtf+3
  3097   001826  C061  F045         	movff	sqrtf@ix+3,??_sqrtf+4
  3098   00182A                     u4585:
  3099   00182A  6641               	tstfsz	??_sqrtf^0,c
  3100   00182C  EF1A  F00C         	goto	u4586
  3101   001830  EF22  F00C         	goto	u4587
  3102   001834                     u4586:
  3103   001834  3445               	rlcf	(??_sqrtf+4)^0,w,c
  3104   001836  3245               	rrcf	(??_sqrtf+4)^0,f,c
  3105   001838  3244               	rrcf	(??_sqrtf+3)^0,f,c
  3106   00183A  3243               	rrcf	(??_sqrtf+2)^0,f,c
  3107   00183C  3242               	rrcf	(??_sqrtf+1)^0,f,c
  3108   00183E  2E41               	decfsz	??_sqrtf^0,f,c
  3109   001840  EF15  F00C         	goto	u4585
  3110   001844                     u4587:
  3111   001844  C042  F056         	movff	??_sqrtf+1,sqrtf@m
  3112   001848  C043  F057         	movff	??_sqrtf+2,sqrtf@m+1
  3113   00184C  C044  F058         	movff	??_sqrtf+3,sqrtf@m+2
  3114   001850  C045  F059         	movff	??_sqrtf+4,sqrtf@m+3
  3115   001854  5056               	movf	sqrtf@m^0,w,c
  3116   001856  1057               	iorwf	(sqrtf@m+1)^0,w,c
  3117   001858  1058               	iorwf	(sqrtf@m+2)^0,w,c
  3118   00185A  1059               	iorwf	(sqrtf@m+3)^0,w,c
  3119   00185C  A4D8               	btfss	status,2,c
  3120   00185E  EF33  F00C         	goto	u4591
  3121   001862  EF35  F00C         	goto	u4590
  3122   001866                     u4591:
  3123   001866  EF65  F00C         	goto	l1118
  3124   00186A                     u4590:
  3125   00186A  0E00               	movlw	0
  3126   00186C  6E4A               	movwf	sqrtf@i^0,c
  3127   00186E  0E00               	movlw	0
  3128   001870  6E4B               	movwf	(sqrtf@i+1)^0,c
  3129   001872  0E00               	movlw	0
  3130   001874  6E4C               	movwf	(sqrtf@i+2)^0,c
  3131   001876  0E00               	movlw	0
  3132   001878  6E4D               	movwf	(sqrtf@i+3)^0,c
  3133   00187A  EF4A  F00C         	goto	l3977
  3134   00187E                     l3973:
  3135   00187E  90D8               	bcf	status,0,c
  3136   001880  365E               	rlcf	sqrtf@ix^0,f,c
  3137   001882  365F               	rlcf	(sqrtf@ix+1)^0,f,c
  3138   001884  3660               	rlcf	(sqrtf@ix+2)^0,f,c
  3139   001886  3661               	rlcf	(sqrtf@ix+3)^0,f,c
  3140   001888  0E01               	movlw	1
  3141   00188A  264A               	addwf	sqrtf@i^0,f,c
  3142   00188C  0E00               	movlw	0
  3143   00188E  224B               	addwfc	(sqrtf@i+1)^0,f,c
  3144   001890  224C               	addwfc	(sqrtf@i+2)^0,f,c
  3145   001892  224D               	addwfc	(sqrtf@i+3)^0,f,c
  3146   001894                     l3977:
  3147   001894  AE60               	btfss	(sqrtf@ix+2)^0,7,c
  3148   001896  EF4F  F00C         	goto	u4601
  3149   00189A  EF51  F00C         	goto	u4600
  3150   00189E                     u4601:
  3151   00189E  EF3F  F00C         	goto	l3973
  3152   0018A2                     u4600:
  3153   0018A2  0EFF               	movlw	255
  3154   0018A4  244A               	addwf	sqrtf@i^0,w,c
  3155   0018A6  6E41               	movwf	??_sqrtf^0,c
  3156   0018A8  0EFF               	movlw	255
  3157   0018AA  204B               	addwfc	(sqrtf@i+1)^0,w,c
  3158   0018AC  6E42               	movwf	(??_sqrtf+1)^0,c
  3159   0018AE  0EFF               	movlw	255
  3160   0018B0  204C               	addwfc	(sqrtf@i+2)^0,w,c
  3161   0018B2  6E43               	movwf	(??_sqrtf+2)^0,c
  3162   0018B4  0EFF               	movlw	255
  3163   0018B6  204D               	addwfc	(sqrtf@i+3)^0,w,c
  3164   0018B8  6E44               	movwf	(??_sqrtf+3)^0,c
  3165   0018BA  5041               	movf	??_sqrtf^0,w,c
  3166   0018BC  5E56               	subwf	sqrtf@m^0,f,c
  3167   0018BE  5042               	movf	(??_sqrtf+1)^0,w,c
  3168   0018C0  5A57               	subwfb	(sqrtf@m+1)^0,f,c
  3169   0018C2  5043               	movf	(??_sqrtf+2)^0,w,c
  3170   0018C4  5A58               	subwfb	(sqrtf@m+2)^0,f,c
  3171   0018C6  5044               	movf	(??_sqrtf+3)^0,w,c
  3172   0018C8  5A59               	subwfb	(sqrtf@m+3)^0,f,c
  3173   0018CA                     l1118:
  3174   0018CA  0E81               	movlw	129
  3175   0018CC  2656               	addwf	sqrtf@m^0,f,c
  3176   0018CE  0EFF               	movlw	255
  3177   0018D0  2257               	addwfc	(sqrtf@m+1)^0,f,c
  3178   0018D2  0EFF               	movlw	255
  3179   0018D4  2258               	addwfc	(sqrtf@m+2)^0,f,c
  3180   0018D6  0EFF               	movlw	255
  3181   0018D8  2259               	addwfc	(sqrtf@m+3)^0,f,c
  3182   0018DA  0EFF               	movlw	255
  3183   0018DC  145E               	andwf	sqrtf@ix^0,w,c
  3184   0018DE  6E41               	movwf	??_sqrtf^0,c
  3185   0018E0  0EFF               	movlw	255
  3186   0018E2  145F               	andwf	(sqrtf@ix+1)^0,w,c
  3187   0018E4  6E42               	movwf	(??_sqrtf+1)^0,c
  3188   0018E6  0E7F               	movlw	127
  3189   0018E8  1460               	andwf	(sqrtf@ix+2)^0,w,c
  3190   0018EA  6E43               	movwf	(??_sqrtf+2)^0,c
  3191   0018EC  0E00               	movlw	0
  3192   0018EE  1461               	andwf	(sqrtf@ix+3)^0,w,c
  3193   0018F0  6E44               	movwf	(??_sqrtf+3)^0,c
  3194   0018F2  0E00               	movlw	0
  3195   0018F4  1041               	iorwf	??_sqrtf^0,w,c
  3196   0018F6  6E5E               	movwf	sqrtf@ix^0,c
  3197   0018F8  0E00               	movlw	0
  3198   0018FA  1042               	iorwf	(??_sqrtf+1)^0,w,c
  3199   0018FC  6E5F               	movwf	(sqrtf@ix+1)^0,c
  3200   0018FE  0E80               	movlw	128
  3201   001900  1043               	iorwf	(??_sqrtf+2)^0,w,c
  3202   001902  6E60               	movwf	(sqrtf@ix+2)^0,c
  3203   001904  0E00               	movlw	0
  3204   001906  1044               	iorwf	(??_sqrtf+3)^0,w,c
  3205   001908  6E61               	movwf	(sqrtf@ix+3)^0,c
  3206   00190A  A056               	btfss	sqrtf@m^0,0,c
  3207   00190C  EF8A  F00C         	goto	u4611
  3208   001910  EF8C  F00C         	goto	u4610
  3209   001914                     u4611:
  3210   001914  EF94  F00C         	goto	l1122
  3211   001918                     u4610:
  3212   001918  505E               	movf	sqrtf@ix^0,w,c
  3213   00191A  265E               	addwf	sqrtf@ix^0,f,c
  3214   00191C  505F               	movf	(sqrtf@ix+1)^0,w,c
  3215   00191E  225F               	addwfc	(sqrtf@ix+1)^0,f,c
  3216   001920  5060               	movf	(sqrtf@ix+2)^0,w,c
  3217   001922  2260               	addwfc	(sqrtf@ix+2)^0,f,c
  3218   001924  5061               	movf	(sqrtf@ix+3)^0,w,c
  3219   001926  2261               	addwfc	(sqrtf@ix+3)^0,f,c
  3220   001928                     l1122:
  3221   001928  3459               	rlcf	(sqrtf@m+3)^0,w,c
  3222   00192A  3259               	rrcf	(sqrtf@m+3)^0,f,c
  3223   00192C  3258               	rrcf	(sqrtf@m+2)^0,f,c
  3224   00192E  3257               	rrcf	(sqrtf@m+1)^0,f,c
  3225   001930  3256               	rrcf	sqrtf@m^0,f,c
  3226   001932  505E               	movf	sqrtf@ix^0,w,c
  3227   001934  265E               	addwf	sqrtf@ix^0,f,c
  3228   001936  505F               	movf	(sqrtf@ix+1)^0,w,c
  3229   001938  225F               	addwfc	(sqrtf@ix+1)^0,f,c
  3230   00193A  5060               	movf	(sqrtf@ix+2)^0,w,c
  3231   00193C  2260               	addwfc	(sqrtf@ix+2)^0,f,c
  3232   00193E  5061               	movf	(sqrtf@ix+3)^0,w,c
  3233   001940  2261               	addwfc	(sqrtf@ix+3)^0,f,c
  3234   001942  0E00               	movlw	0
  3235   001944  6E46               	movwf	sqrtf@s^0,c
  3236   001946  0E00               	movlw	0
  3237   001948  6E47               	movwf	(sqrtf@s+1)^0,c
  3238   00194A  0E00               	movlw	0
  3239   00194C  6E48               	movwf	(sqrtf@s+2)^0,c
  3240   00194E  0E00               	movlw	0
  3241   001950  6E49               	movwf	(sqrtf@s+3)^0,c
  3242   001952  C046  F04E         	movff	sqrtf@s,sqrtf@q
  3243   001956  C047  F04F         	movff	sqrtf@s+1,sqrtf@q+1
  3244   00195A  C048  F050         	movff	sqrtf@s+2,sqrtf@q+2
  3245   00195E  C049  F051         	movff	sqrtf@s+3,sqrtf@q+3
  3246   001962  0E00               	movlw	0
  3247   001964  6E5A               	movwf	sqrtf@r^0,c
  3248   001966  0E00               	movlw	0
  3249   001968  6E5B               	movwf	(sqrtf@r+1)^0,c
  3250   00196A  0E00               	movlw	0
  3251   00196C  6E5C               	movwf	(sqrtf@r+2)^0,c
  3252   00196E  0E01               	movlw	1
  3253   001970  6E5D               	movwf	(sqrtf@r+3)^0,c
  3254   001972  EF03  F00D         	goto	l3995
  3255   001976                     l3989:
  3256   001976  5046               	movf	sqrtf@s^0,w,c
  3257   001978  245A               	addwf	sqrtf@r^0,w,c
  3258   00197A  6E52               	movwf	sqrtf@t^0,c
  3259   00197C  5047               	movf	(sqrtf@s+1)^0,w,c
  3260   00197E  205B               	addwfc	(sqrtf@r+1)^0,w,c
  3261   001980  6E53               	movwf	(sqrtf@t+1)^0,c
  3262   001982  5048               	movf	(sqrtf@s+2)^0,w,c
  3263   001984  205C               	addwfc	(sqrtf@r+2)^0,w,c
  3264   001986  6E54               	movwf	(sqrtf@t+2)^0,c
  3265   001988  5049               	movf	(sqrtf@s+3)^0,w,c
  3266   00198A  205D               	addwfc	(sqrtf@r+3)^0,w,c
  3267   00198C  6E55               	movwf	(sqrtf@t+3)^0,c
  3268   00198E  5052               	movf	sqrtf@t^0,w,c
  3269   001990  5C5E               	subwf	sqrtf@ix^0,w,c
  3270   001992  5053               	movf	(sqrtf@t+1)^0,w,c
  3271   001994  585F               	subwfb	(sqrtf@ix+1)^0,w,c
  3272   001996  5054               	movf	(sqrtf@t+2)^0,w,c
  3273   001998  5860               	subwfb	(sqrtf@ix+2)^0,w,c
  3274   00199A  5061               	movf	(sqrtf@ix+3)^0,w,c
  3275   00199C  0A80               	xorlw	128
  3276   00199E  6E41               	movwf	??_sqrtf^0,c
  3277   0019A0  5055               	movf	(sqrtf@t+3)^0,w,c
  3278   0019A2  0A80               	xorlw	128
  3279   0019A4  5841               	subwfb	??_sqrtf^0,w,c
  3280   0019A6  A0D8               	btfss	status,0,c
  3281   0019A8  EFD8  F00C         	goto	u4621
  3282   0019AC  EFDA  F00C         	goto	u4620
  3283   0019B0                     u4621:
  3284   0019B0  EFF6  F00C         	goto	l1125
  3285   0019B4                     u4620:
  3286   0019B4  5052               	movf	sqrtf@t^0,w,c
  3287   0019B6  245A               	addwf	sqrtf@r^0,w,c
  3288   0019B8  6E46               	movwf	sqrtf@s^0,c
  3289   0019BA  5053               	movf	(sqrtf@t+1)^0,w,c
  3290   0019BC  205B               	addwfc	(sqrtf@r+1)^0,w,c
  3291   0019BE  6E47               	movwf	(sqrtf@s+1)^0,c
  3292   0019C0  5054               	movf	(sqrtf@t+2)^0,w,c
  3293   0019C2  205C               	addwfc	(sqrtf@r+2)^0,w,c
  3294   0019C4  6E48               	movwf	(sqrtf@s+2)^0,c
  3295   0019C6  5055               	movf	(sqrtf@t+3)^0,w,c
  3296   0019C8  205D               	addwfc	(sqrtf@r+3)^0,w,c
  3297   0019CA  6E49               	movwf	(sqrtf@s+3)^0,c
  3298   0019CC  5052               	movf	sqrtf@t^0,w,c
  3299   0019CE  5E5E               	subwf	sqrtf@ix^0,f,c
  3300   0019D0  5053               	movf	(sqrtf@t+1)^0,w,c
  3301   0019D2  5A5F               	subwfb	(sqrtf@ix+1)^0,f,c
  3302   0019D4  5054               	movf	(sqrtf@t+2)^0,w,c
  3303   0019D6  5A60               	subwfb	(sqrtf@ix+2)^0,f,c
  3304   0019D8  5055               	movf	(sqrtf@t+3)^0,w,c
  3305   0019DA  5A61               	subwfb	(sqrtf@ix+3)^0,f,c
  3306   0019DC  505A               	movf	sqrtf@r^0,w,c
  3307   0019DE  264E               	addwf	sqrtf@q^0,f,c
  3308   0019E0  505B               	movf	(sqrtf@r+1)^0,w,c
  3309   0019E2  224F               	addwfc	(sqrtf@q+1)^0,f,c
  3310   0019E4  505C               	movf	(sqrtf@r+2)^0,w,c
  3311   0019E6  2250               	addwfc	(sqrtf@q+2)^0,f,c
  3312   0019E8  505D               	movf	(sqrtf@r+3)^0,w,c
  3313   0019EA  2251               	addwfc	(sqrtf@q+3)^0,f,c
  3314   0019EC                     l1125:
  3315   0019EC  505E               	movf	sqrtf@ix^0,w,c
  3316   0019EE  265E               	addwf	sqrtf@ix^0,f,c
  3317   0019F0  505F               	movf	(sqrtf@ix+1)^0,w,c
  3318   0019F2  225F               	addwfc	(sqrtf@ix+1)^0,f,c
  3319   0019F4  5060               	movf	(sqrtf@ix+2)^0,w,c
  3320   0019F6  2260               	addwfc	(sqrtf@ix+2)^0,f,c
  3321   0019F8  5061               	movf	(sqrtf@ix+3)^0,w,c
  3322   0019FA  2261               	addwfc	(sqrtf@ix+3)^0,f,c
  3323   0019FC  90D8               	bcf	status,0,c
  3324   0019FE  325D               	rrcf	(sqrtf@r+3)^0,f,c
  3325   001A00  325C               	rrcf	(sqrtf@r+2)^0,f,c
  3326   001A02  325B               	rrcf	(sqrtf@r+1)^0,f,c
  3327   001A04  325A               	rrcf	sqrtf@r^0,f,c
  3328   001A06                     l3995:
  3329   001A06  505A               	movf	sqrtf@r^0,w,c
  3330   001A08  105B               	iorwf	(sqrtf@r+1)^0,w,c
  3331   001A0A  105C               	iorwf	(sqrtf@r+2)^0,w,c
  3332   001A0C  105D               	iorwf	(sqrtf@r+3)^0,w,c
  3333   001A0E  A4D8               	btfss	status,2,c
  3334   001A10  EF0C  F00D         	goto	u4631
  3335   001A14  EF0E  F00D         	goto	u4630
  3336   001A18                     u4631:
  3337   001A18  EFBB  F00C         	goto	l3989
  3338   001A1C                     u4630:
  3339   001A1C  505E               	movf	sqrtf@ix^0,w,c
  3340   001A1E  105F               	iorwf	(sqrtf@ix+1)^0,w,c
  3341   001A20  1060               	iorwf	(sqrtf@ix+2)^0,w,c
  3342   001A22  1061               	iorwf	(sqrtf@ix+3)^0,w,c
  3343   001A24  B4D8               	btfsc	status,2,c
  3344   001A26  EF17  F00D         	goto	u4641
  3345   001A2A  EF19  F00D         	goto	u4640
  3346   001A2E                     u4641:
  3347   001A2E  EF2D  F00D         	goto	l1127
  3348   001A32                     u4640:
  3349   001A32  0E01               	movlw	1
  3350   001A34  144E               	andwf	sqrtf@q^0,w,c
  3351   001A36  6E41               	movwf	??_sqrtf^0,c
  3352   001A38  0E00               	movlw	0
  3353   001A3A  144F               	andwf	(sqrtf@q+1)^0,w,c
  3354   001A3C  6E42               	movwf	(??_sqrtf+1)^0,c
  3355   001A3E  0E00               	movlw	0
  3356   001A40  1450               	andwf	(sqrtf@q+2)^0,w,c
  3357   001A42  6E43               	movwf	(??_sqrtf+2)^0,c
  3358   001A44  0E00               	movlw	0
  3359   001A46  1451               	andwf	(sqrtf@q+3)^0,w,c
  3360   001A48  6E44               	movwf	(??_sqrtf+3)^0,c
  3361   001A4A  5041               	movf	??_sqrtf^0,w,c
  3362   001A4C  264E               	addwf	sqrtf@q^0,f,c
  3363   001A4E  5042               	movf	(??_sqrtf+1)^0,w,c
  3364   001A50  224F               	addwfc	(sqrtf@q+1)^0,f,c
  3365   001A52  5043               	movf	(??_sqrtf+2)^0,w,c
  3366   001A54  2250               	addwfc	(sqrtf@q+2)^0,f,c
  3367   001A56  5044               	movf	(??_sqrtf+3)^0,w,c
  3368   001A58  2251               	addwfc	(sqrtf@q+3)^0,f,c
  3369   001A5A                     l1127:
  3370   001A5A  C04E  F041         	movff	sqrtf@q,??_sqrtf
  3371   001A5E  C04F  F042         	movff	sqrtf@q+1,??_sqrtf+1
  3372   001A62  C050  F043         	movff	sqrtf@q+2,??_sqrtf+2
  3373   001A66  C051  F044         	movff	sqrtf@q+3,??_sqrtf+3
  3374   001A6A  3444               	rlcf	(??_sqrtf+3)^0,w,c
  3375   001A6C  3244               	rrcf	(??_sqrtf+3)^0,f,c
  3376   001A6E  3243               	rrcf	(??_sqrtf+2)^0,f,c
  3377   001A70  3242               	rrcf	(??_sqrtf+1)^0,f,c
  3378   001A72  3241               	rrcf	??_sqrtf^0,f,c
  3379   001A74  0E00               	movlw	0
  3380   001A76  2441               	addwf	??_sqrtf^0,w,c
  3381   001A78  6E5E               	movwf	sqrtf@ix^0,c
  3382   001A7A  0E00               	movlw	0
  3383   001A7C  2042               	addwfc	(??_sqrtf+1)^0,w,c
  3384   001A7E  6E5F               	movwf	(sqrtf@ix+1)^0,c
  3385   001A80  0E00               	movlw	0
  3386   001A82  2043               	addwfc	(??_sqrtf+2)^0,w,c
  3387   001A84  6E60               	movwf	(sqrtf@ix+2)^0,c
  3388   001A86  0E3F               	movlw	63
  3389   001A88  2044               	addwfc	(??_sqrtf+3)^0,w,c
  3390   001A8A  6E61               	movwf	(sqrtf@ix+3)^0,c
  3391   001A8C  C056  F041         	movff	sqrtf@m,??_sqrtf
  3392   001A90  C057  F042         	movff	sqrtf@m+1,??_sqrtf+1
  3393   001A94  C058  F043         	movff	sqrtf@m+2,??_sqrtf+2
  3394   001A98  C059  F044         	movff	sqrtf@m+3,??_sqrtf+3
  3395   001A9C  0E17               	movlw	23
  3396   001A9E                     u4655:
  3397   001A9E  90D8               	bcf	status,0,c
  3398   001AA0  3641               	rlcf	??_sqrtf^0,f,c
  3399   001AA2  3642               	rlcf	(??_sqrtf+1)^0,f,c
  3400   001AA4  3643               	rlcf	(??_sqrtf+2)^0,f,c
  3401   001AA6  3644               	rlcf	(??_sqrtf+3)^0,f,c
  3402   001AA8  2EE8               	decfsz	wreg,f,c
  3403   001AAA  EF4F  F00D         	goto	u4655
  3404   001AAE  5041               	movf	??_sqrtf^0,w,c
  3405   001AB0  265E               	addwf	sqrtf@ix^0,f,c
  3406   001AB2  5042               	movf	(??_sqrtf+1)^0,w,c
  3407   001AB4  225F               	addwfc	(sqrtf@ix+1)^0,f,c
  3408   001AB6  5043               	movf	(??_sqrtf+2)^0,w,c
  3409   001AB8  2260               	addwfc	(sqrtf@ix+2)^0,f,c
  3410   001ABA  5044               	movf	(??_sqrtf+3)^0,w,c
  3411   001ABC  2261               	addwfc	(sqrtf@ix+3)^0,f,c
  3412   001ABE  EFBB  F00B         	goto	l3949
  3413   001AC2                     l1114:
  3414   001AC2  0012               	return		;funcret
  3415   001AC4                     __end_of_sqrtf:
  3416                           	callstack 0
  3417                           
  3418 ;; *************** function _atan2f *****************
  3419 ;; Defined at:
  3420 ;;		line 22 in file "C:\Program Files\Microchip\xc8\v2.50\pic\sources\c99\common\atan2f.c"
  3421 ;; Parameters:    Size  Location     Type
  3422 ;;  y               4   59[BANK0 ] float 
  3423 ;;  x               4   63[BANK0 ] float 
  3424 ;; Auto vars:     Size  Location     Type
  3425 ;;  iy              4   95[BANK0 ] struct .
  3426 ;;  ix              4   91[BANK0 ] struct .
  3427 ;;  z               4   87[BANK0 ] float 
  3428 ;;  m               1   99[BANK0 ] unsigned char 
  3429 ;; Return value:  Size  Location     Type
  3430 ;;                  4   59[BANK0 ] float 
  3431 ;; Registers used:
  3432 ;;		wreg, status,2, status,0, tblptrl, tblptrh, tblptru, prodl, prodh, cstack
  3433 ;; Tracked objects:
  3434 ;;		On entry : 0/0
  3435 ;;		On exit  : 0/0
  3436 ;;		Unchanged: 0/0
  3437 ;; Data sizes:     COMRAM   BANK0   BANK1   BANK2   BANK3   BANK4   BANK5
  3438 ;;      Params:         0       8       0       0       0       0       0
  3439 ;;      Locals:         0      25       0       0       0       0       0
  3440 ;;      Temps:          0       8       0       0       0       0       0
  3441 ;;      Totals:         0      41       0       0       0       0       0
  3442 ;;Total ram usage:       41 bytes
  3443 ;; Hardware stack levels used: 1
  3444 ;; Hardware stack levels required when called: 4
  3445 ;; This function calls:
  3446 ;;		___fladd
  3447 ;;		___fldiv
  3448 ;;		___flneg
  3449 ;;		___flsub
  3450 ;;		___fpclassifyf
  3451 ;;		_atanf
  3452 ;;		_fabsf
  3453 ;; This function is called by:
  3454 ;;		_calculate_angle
  3455 ;; This function uses a non-reentrant model
  3456 ;;
  3457                           
  3458                           	psect	text12
  3459   00084E                     __ptext12:
  3460                           	callstack 0
  3461   00084E                     _atan2f:
  3462                           	callstack 22
  3463   00084E  C0BF  F006         	movff	atan2f@x,___fpclassifyf@x
  3464   000852  C0C0  F007         	movff	atan2f@x+1,___fpclassifyf@x+1
  3465   000856  C0C1  F008         	movff	atan2f@x+2,___fpclassifyf@x+2
  3466   00085A  C0C2  F009         	movff	atan2f@x+3,___fpclassifyf@x+3
  3467   00085E  EC1E  F012         	call	___fpclassifyf	;wreg free
  3468   000862  5006               	movf	?___fpclassifyf^0,w,c
  3469   000864  1007               	iorwf	(?___fpclassifyf+1)^0,w,c
  3470   000866  B4D8               	btfsc	status,2,c
  3471   000868  EF38  F004         	goto	u4661
  3472   00086C  EF3A  F004         	goto	u4660
  3473   000870                     u4661:
  3474   000870  EF4D  F004         	goto	l4009
  3475   000874                     u4660:
  3476   000874  C0BB  F006         	movff	atan2f@y,___fpclassifyf@x
  3477   000878  C0BC  F007         	movff	atan2f@y+1,___fpclassifyf@x+1
  3478   00087C  C0BD  F008         	movff	atan2f@y+2,___fpclassifyf@x+2
  3479   000880  C0BE  F009         	movff	atan2f@y+3,___fpclassifyf@x+3
  3480   000884  EC1E  F012         	call	___fpclassifyf	;wreg free
  3481   000888  5006               	movf	?___fpclassifyf^0,w,c
  3482   00088A  1007               	iorwf	(?___fpclassifyf+1)^0,w,c
  3483   00088C  A4D8               	btfss	status,2,c
  3484   00088E  EF4B  F004         	goto	u4671
  3485   000892  EF4D  F004         	goto	u4670
  3486   000896                     u4671:
  3487   000896  EF69  F004         	goto	l1001
  3488   00089A                     u4670:
  3489   00089A                     l4009:
  3490   00089A  C0BF  F02D         	movff	atan2f@x,___fladd@b
  3491   00089E  C0C0  F02E         	movff	atan2f@x+1,___fladd@b+1
  3492   0008A2  C0C1  F02F         	movff	atan2f@x+2,___fladd@b+2
  3493   0008A6  C0C2  F030         	movff	atan2f@x+3,___fladd@b+3
  3494   0008AA  C0BB  F031         	movff	atan2f@y,___fladd@a
  3495   0008AE  C0BC  F032         	movff	atan2f@y+1,___fladd@a+1
  3496   0008B2  C0BD  F033         	movff	atan2f@y+2,___fladd@a+2
  3497   0008B6  C0BE  F034         	movff	atan2f@y+3,___fladd@a+3
  3498   0008BA  EC05  F007         	call	___fladd	;wreg free
  3499   0008BE  C02D  F0BB         	movff	?___fladd,?_atan2f
  3500   0008C2  C02E  F0BC         	movff	?___fladd+1,?_atan2f+1
  3501   0008C6  C02F  F0BD         	movff	?___fladd+2,?_atan2f+2
  3502   0008CA  C030  F0BE         	movff	?___fladd+3,?_atan2f+3
  3503   0008CE  EF04  F007         	goto	l1004
  3504   0008D2                     l1001:
  3505   0008D2  C0BF  F0DB         	movff	atan2f@x,atan2f@ix
  3506   0008D6  C0C0  F0DC         	movff	atan2f@x+1,atan2f@ix+1
  3507   0008DA  C0C1  F0DD         	movff	atan2f@x+2,atan2f@ix+2
  3508   0008DE  C0C2  F0DE         	movff	atan2f@x+3,atan2f@ix+3
  3509   0008E2  C0BB  F0DF         	movff	atan2f@y,atan2f@iy
  3510   0008E6  C0BC  F0E0         	movff	atan2f@y+1,atan2f@iy+1
  3511   0008EA  C0BD  F0E1         	movff	atan2f@y+2,atan2f@iy+2
  3512   0008EE  C0BE  F0E2         	movff	atan2f@y+3,atan2f@iy+3
  3513   0008F2  0E80               	movlw	128
  3514   0008F4  0100               	movlb	0	; () banked
  3515   0008F6  19DD               	xorwf	(atan2f@ix+2)& (0+255),w,b
  3516   0008F8  E109               	bnz	u4681
  3517   0008FA  0E3F               	movlw	63
  3518   0008FC  19DE               	xorwf	(atan2f@ix+3)& (0+255),w,b
  3519   0008FE  11DB               	iorwf	atan2f@ix& (0+255),w,b
  3520   000900  11DC               	iorwf	(atan2f@ix+1)& (0+255),w,b
  3521   000902  A4D8               	btfss	status,2,c
  3522   000904  EF86  F004         	goto	u4681
  3523   000908  EF88  F004         	goto	u4680
  3524   00090C                     u4681:
  3525   00090C  EF9C  F004         	goto	l4019
  3526   000910                     u4680:
  3527   000910                     
  3528                           ; BSR set to: 0
  3529   000910  C0BB  F08D         	movff	atan2f@y,atanf@x
  3530   000914  C0BC  F08E         	movff	atan2f@y+1,atanf@x+1
  3531   000918  C0BD  F08F         	movff	atan2f@y+2,atanf@x+2
  3532   00091C  C0BE  F090         	movff	atan2f@y+3,atanf@x+3
  3533   000920  EC72  F000         	call	_atanf	;wreg free
  3534   000924  C08D  F0BB         	movff	?_atanf,?_atan2f
  3535   000928  C08E  F0BC         	movff	?_atanf+1,?_atan2f+1
  3536   00092C  C08F  F0BD         	movff	?_atanf+2,?_atan2f+2
  3537   000930  C090  F0BE         	movff	?_atanf+3,?_atan2f+3
  3538   000934  EF04  F007         	goto	l1004
  3539   000938                     l4019:
  3540                           
  3541                           ; BSR set to: 0
  3542   000938  C0DB  F0C3         	movff	atan2f@ix,??_atan2f
  3543   00093C  C0DC  F0C4         	movff	atan2f@ix+1,??_atan2f+1
  3544   000940  C0DD  F0C5         	movff	atan2f@ix+2,??_atan2f+2
  3545   000944  C0DE  F0C6         	movff	atan2f@ix+3,??_atan2f+3
  3546   000948  0E1F               	movlw	31
  3547   00094A  EFAC  F004         	goto	u4690
  3548   00094E                     u4695:
  3549   00094E  90D8               	bcf	status,0,c
  3550   000950  33C6               	rrcf	(??_atan2f+3)& (0+255),f,b
  3551   000952  33C5               	rrcf	(??_atan2f+2)& (0+255),f,b
  3552   000954  33C4               	rrcf	(??_atan2f+1)& (0+255),f,b
  3553   000956  33C3               	rrcf	??_atan2f& (0+255),f,b
  3554   000958                     u4690:
  3555   000958  2EE8               	decfsz	wreg,f,c
  3556   00095A  EFA7  F004         	goto	u4695
  3557   00095E  0E02               	movlw	2
  3558   000960  17C3               	andwf	??_atan2f& (0+255),f,b
  3559   000962  C0DF  F0C7         	movff	atan2f@iy,??_atan2f+4
  3560   000966  C0E0  F0C8         	movff	atan2f@iy+1,??_atan2f+5
  3561   00096A  C0E1  F0C9         	movff	atan2f@iy+2,??_atan2f+6
  3562   00096E  C0E2  F0CA         	movff	atan2f@iy+3,??_atan2f+7
  3563   000972  0E20               	movlw	32
  3564   000974  EFC1  F004         	goto	u4700
  3565   000978                     u4705:
  3566   000978  90D8               	bcf	status,0,c
  3567   00097A  33CA               	rrcf	(??_atan2f+7)& (0+255),f,b
  3568   00097C  33C9               	rrcf	(??_atan2f+6)& (0+255),f,b
  3569   00097E  33C8               	rrcf	(??_atan2f+5)& (0+255),f,b
  3570   000980  33C7               	rrcf	(??_atan2f+4)& (0+255),f,b
  3571   000982                     u4700:
  3572   000982  2EE8               	decfsz	wreg,f,c
  3573   000984  EFBC  F004         	goto	u4705
  3574   000988  51C7               	movf	(??_atan2f+4)& (0+255),w,b
  3575   00098A  0B01               	andlw	1
  3576   00098C  11C3               	iorwf	??_atan2f& (0+255),w,b
  3577   00098E  6FE3               	movwf	atan2f@m& (0+255),b
  3578   000990                     
  3579                           ; BSR set to: 0
  3580   000990  9FDE               	bcf	(atan2f@ix+3)& (0+255),7,b
  3581   000992                     
  3582                           ; BSR set to: 0
  3583   000992  9FE2               	bcf	(atan2f@iy+3)& (0+255),7,b
  3584   000994  51DF               	movf	atan2f@iy& (0+255),w,b
  3585   000996  11E0               	iorwf	(atan2f@iy+1)& (0+255),w,b
  3586   000998  11E1               	iorwf	(atan2f@iy+2)& (0+255),w,b
  3587   00099A  11E2               	iorwf	(atan2f@iy+3)& (0+255),w,b
  3588   00099C  A4D8               	btfss	status,2,c
  3589   00099E  EFD3  F004         	goto	u4711
  3590   0009A2  EFD5  F004         	goto	u4710
  3591   0009A6                     u4711:
  3592   0009A6  EF08  F005         	goto	l4039
  3593   0009AA                     u4710:
  3594   0009AA  EFF5  F004         	goto	l4037
  3595   0009AE                     l1009:
  3596                           
  3597                           ; BSR set to: 0
  3598   0009AE  C0BB  F0BB         	movff	atan2f@y,?_atan2f
  3599   0009B2  C0BC  F0BC         	movff	atan2f@y+1,?_atan2f+1
  3600   0009B6  C0BD  F0BD         	movff	atan2f@y+2,?_atan2f+2
  3601   0009BA  C0BE  F0BE         	movff	atan2f@y+3,?_atan2f+3
  3602   0009BE  EF04  F007         	goto	l1004
  3603   0009C2                     l4027:
  3604                           
  3605                           ; BSR set to: 0
  3606   0009C2  0EDB               	movlw	219
  3607   0009C4  6FBB               	movwf	?_atan2f& (0+255),b
  3608   0009C6  0E0F               	movlw	15
  3609   0009C8  6FBC               	movwf	(?_atan2f+1)& (0+255),b
  3610   0009CA  0E49               	movlw	73
  3611   0009CC  6FBD               	movwf	(?_atan2f+2)& (0+255),b
  3612   0009CE  0E40               	movlw	64
  3613   0009D0  6FBE               	movwf	(?_atan2f+3)& (0+255),b
  3614   0009D2  EF04  F007         	goto	l1004
  3615   0009D6                     l4031:
  3616                           
  3617                           ; BSR set to: 0
  3618   0009D6  0EDB               	movlw	219
  3619   0009D8  6FBB               	movwf	?_atan2f& (0+255),b
  3620   0009DA  0E0F               	movlw	15
  3621   0009DC  6FBC               	movwf	(?_atan2f+1)& (0+255),b
  3622   0009DE  0E49               	movlw	73
  3623   0009E0  6FBD               	movwf	(?_atan2f+2)& (0+255),b
  3624   0009E2  0EC0               	movlw	192
  3625   0009E4  6FBE               	movwf	(?_atan2f+3)& (0+255),b
  3626   0009E6  EF04  F007         	goto	l1004
  3627   0009EA                     l4037:
  3628                           
  3629                           ; BSR set to: 0
  3630   0009EA  51E3               	movf	atan2f@m& (0+255),w,b
  3631                           
  3632                           ; Switch size 1, requested type "simple"
  3633                           ; Number of cases is 4, Range of values is 0 to 3
  3634                           ; switch strategies available:
  3635                           ; Name         Instructions Cycles
  3636                           ; simple_byte           13     7 (average)
  3637                           ;	Chosen strategy is simple_byte
  3638   0009EC  0A00               	xorlw	0	; case 0
  3639   0009EE  B4D8               	btfsc	status,2,c
  3640   0009F0  EFD7  F004         	goto	l1009
  3641   0009F4  0A01               	xorlw	1	; case 1
  3642   0009F6  B4D8               	btfsc	status,2,c
  3643   0009F8  EFD7  F004         	goto	l1009
  3644   0009FC  0A03               	xorlw	3	; case 2
  3645   0009FE  B4D8               	btfsc	status,2,c
  3646   000A00  EFE1  F004         	goto	l4027
  3647   000A04  0A01               	xorlw	1	; case 3
  3648   000A06  B4D8               	btfsc	status,2,c
  3649   000A08  EFEB  F004         	goto	l4031
  3650   000A0C  EF08  F005         	goto	l4039
  3651   000A10                     l4039:
  3652                           
  3653                           ; BSR set to: 0
  3654   000A10  51DB               	movf	atan2f@ix& (0+255),w,b
  3655   000A12  11DC               	iorwf	(atan2f@ix+1)& (0+255),w,b
  3656   000A14  11DD               	iorwf	(atan2f@ix+2)& (0+255),w,b
  3657   000A16  11DE               	iorwf	(atan2f@ix+3)& (0+255),w,b
  3658   000A18  A4D8               	btfss	status,2,c
  3659   000A1A  EF11  F005         	goto	u4721
  3660   000A1E  EF13  F005         	goto	u4720
  3661   000A22                     u4721:
  3662   000A22  EF2E  F005         	goto	l4049
  3663   000A26                     u4720:
  3664   000A26                     
  3665                           ; BSR set to: 0
  3666   000A26  B1E3               	btfsc	atan2f@m& (0+255),0,b
  3667   000A28  EF18  F005         	goto	u4731
  3668   000A2C  EF1A  F005         	goto	u4730
  3669   000A30                     u4731:
  3670   000A30  EF24  F005         	goto	l4045
  3671   000A34                     u4730:
  3672   000A34                     
  3673                           ; BSR set to: 0
  3674   000A34  0EDB               	movlw	219
  3675   000A36  6FBB               	movwf	?_atan2f& (0+255),b
  3676   000A38  0E0F               	movlw	15
  3677   000A3A  6FBC               	movwf	(?_atan2f+1)& (0+255),b
  3678   000A3C  0EC9               	movlw	201
  3679   000A3E  6FBD               	movwf	(?_atan2f+2)& (0+255),b
  3680   000A40  0E3F               	movlw	63
  3681   000A42  6FBE               	movwf	(?_atan2f+3)& (0+255),b
  3682   000A44  EF04  F007         	goto	l1004
  3683   000A48                     l4045:
  3684                           
  3685                           ; BSR set to: 0
  3686   000A48  0EDB               	movlw	219
  3687   000A4A  6FBB               	movwf	?_atan2f& (0+255),b
  3688   000A4C  0E0F               	movlw	15
  3689   000A4E  6FBC               	movwf	(?_atan2f+1)& (0+255),b
  3690   000A50  0EC9               	movlw	201
  3691   000A52  6FBD               	movwf	(?_atan2f+2)& (0+255),b
  3692   000A54  0EBF               	movlw	191
  3693   000A56  6FBE               	movwf	(?_atan2f+3)& (0+255),b
  3694   000A58  EF04  F007         	goto	l1004
  3695   000A5C                     l4049:
  3696                           
  3697                           ; BSR set to: 0
  3698   000A5C  0E80               	movlw	128
  3699   000A5E  19DD               	xorwf	(atan2f@ix+2)& (0+255),w,b
  3700   000A60  E109               	bnz	u4741
  3701   000A62  0E7F               	movlw	127
  3702   000A64  19DE               	xorwf	(atan2f@ix+3)& (0+255),w,b
  3703   000A66  11DB               	iorwf	atan2f@ix& (0+255),w,b
  3704   000A68  11DC               	iorwf	(atan2f@ix+1)& (0+255),w,b
  3705   000A6A  A4D8               	btfss	status,2,c
  3706   000A6C  EF3A  F005         	goto	u4741
  3707   000A70  EF3C  F005         	goto	u4740
  3708   000A74                     u4741:
  3709   000A74  EFC2  F005         	goto	l4095
  3710   000A78                     u4740:
  3711   000A78                     
  3712                           ; BSR set to: 0
  3713   000A78  0E80               	movlw	128
  3714   000A7A  19E1               	xorwf	(atan2f@iy+2)& (0+255),w,b
  3715   000A7C  E109               	bnz	u4751
  3716   000A7E  0E7F               	movlw	127
  3717   000A80  19E2               	xorwf	(atan2f@iy+3)& (0+255),w,b
  3718   000A82  11DF               	iorwf	atan2f@iy& (0+255),w,b
  3719   000A84  11E0               	iorwf	(atan2f@iy+1)& (0+255),w,b
  3720   000A86  A4D8               	btfss	status,2,c
  3721   000A88  EF48  F005         	goto	u4751
  3722   000A8C  EF4A  F005         	goto	u4750
  3723   000A90                     u4751:
  3724   000A90  EFAF  F005         	goto	l4093
  3725   000A94                     u4750:
  3726   000A94  EF74  F005         	goto	l4073
  3727   000A98                     l4055:
  3728                           
  3729                           ; BSR set to: 0
  3730   000A98  0EDB               	movlw	219
  3731   000A9A  6FBB               	movwf	?_atan2f& (0+255),b
  3732   000A9C  0E0F               	movlw	15
  3733   000A9E  6FBC               	movwf	(?_atan2f+1)& (0+255),b
  3734   000AA0  0E49               	movlw	73
  3735   000AA2  6FBD               	movwf	(?_atan2f+2)& (0+255),b
  3736   000AA4  0E3F               	movlw	63
  3737   000AA6  6FBE               	movwf	(?_atan2f+3)& (0+255),b
  3738   000AA8  EF04  F007         	goto	l1004
  3739   000AAC                     l4059:
  3740                           
  3741                           ; BSR set to: 0
  3742   000AAC  0EDB               	movlw	219
  3743   000AAE  6FBB               	movwf	?_atan2f& (0+255),b
  3744   000AB0  0E0F               	movlw	15
  3745   000AB2  6FBC               	movwf	(?_atan2f+1)& (0+255),b
  3746   000AB4  0E49               	movlw	73
  3747   000AB6  6FBD               	movwf	(?_atan2f+2)& (0+255),b
  3748   000AB8  0EBF               	movlw	191
  3749   000ABA  6FBE               	movwf	(?_atan2f+3)& (0+255),b
  3750   000ABC  EF04  F007         	goto	l1004
  3751   000AC0                     l4063:
  3752                           
  3753                           ; BSR set to: 0
  3754   000AC0  0EE4               	movlw	228
  3755   000AC2  6FBB               	movwf	?_atan2f& (0+255),b
  3756   000AC4  0ECB               	movlw	203
  3757   000AC6  6FBC               	movwf	(?_atan2f+1)& (0+255),b
  3758   000AC8  0E16               	movlw	22
  3759   000ACA  6FBD               	movwf	(?_atan2f+2)& (0+255),b
  3760   000ACC  0E40               	movlw	64
  3761   000ACE  6FBE               	movwf	(?_atan2f+3)& (0+255),b
  3762   000AD0  EF04  F007         	goto	l1004
  3763   000AD4                     l4067:
  3764                           
  3765                           ; BSR set to: 0
  3766   000AD4  0EE4               	movlw	228
  3767   000AD6  6FBB               	movwf	?_atan2f& (0+255),b
  3768   000AD8  0ECB               	movlw	203
  3769   000ADA  6FBC               	movwf	(?_atan2f+1)& (0+255),b
  3770   000ADC  0E16               	movlw	22
  3771   000ADE  6FBD               	movwf	(?_atan2f+2)& (0+255),b
  3772   000AE0  0EC0               	movlw	192
  3773   000AE2  6FBE               	movwf	(?_atan2f+3)& (0+255),b
  3774   000AE4  EF04  F007         	goto	l1004
  3775   000AE8                     l4073:
  3776                           
  3777                           ; BSR set to: 0
  3778   000AE8  51E3               	movf	atan2f@m& (0+255),w,b
  3779                           
  3780                           ; Switch size 1, requested type "simple"
  3781                           ; Number of cases is 4, Range of values is 0 to 3
  3782                           ; switch strategies available:
  3783                           ; Name         Instructions Cycles
  3784                           ; simple_byte           13     7 (average)
  3785                           ;	Chosen strategy is simple_byte
  3786   000AEA  0A00               	xorlw	0	; case 0
  3787   000AEC  B4D8               	btfsc	status,2,c
  3788   000AEE  EF4C  F005         	goto	l4055
  3789   000AF2  0A01               	xorlw	1	; case 1
  3790   000AF4  B4D8               	btfsc	status,2,c
  3791   000AF6  EF56  F005         	goto	l4059
  3792   000AFA  0A03               	xorlw	3	; case 2
  3793   000AFC  B4D8               	btfsc	status,2,c
  3794   000AFE  EF60  F005         	goto	l4063
  3795   000B02  0A01               	xorlw	1	; case 3
  3796   000B04  B4D8               	btfsc	status,2,c
  3797   000B06  EF6A  F005         	goto	l4067
  3798   000B0A  EFC2  F005         	goto	l4095
  3799   000B0E                     l4075:
  3800                           
  3801                           ; BSR set to: 0
  3802   000B0E  0E00               	movlw	0
  3803   000B10  6FBB               	movwf	?_atan2f& (0+255),b
  3804   000B12  0E00               	movlw	0
  3805   000B14  6FBC               	movwf	(?_atan2f+1)& (0+255),b
  3806   000B16  0E00               	movlw	0
  3807   000B18  6FBD               	movwf	(?_atan2f+2)& (0+255),b
  3808   000B1A  0E00               	movlw	0
  3809   000B1C  6FBE               	movwf	(?_atan2f+3)& (0+255),b
  3810   000B1E  EF04  F007         	goto	l1004
  3811   000B22                     l4079:
  3812                           
  3813                           ; BSR set to: 0
  3814   000B22  0E00               	movlw	0
  3815   000B24  6FBB               	movwf	?_atan2f& (0+255),b
  3816   000B26  0E00               	movlw	0
  3817   000B28  6FBC               	movwf	(?_atan2f+1)& (0+255),b
  3818   000B2A  0E00               	movlw	0
  3819   000B2C  6FBD               	movwf	(?_atan2f+2)& (0+255),b
  3820   000B2E  0E80               	movlw	128
  3821   000B30  6FBE               	movwf	(?_atan2f+3)& (0+255),b
  3822   000B32  EF04  F007         	goto	l1004
  3823   000B36                     l4083:
  3824                           
  3825                           ; BSR set to: 0
  3826   000B36  0EDB               	movlw	219
  3827   000B38  6FBB               	movwf	?_atan2f& (0+255),b
  3828   000B3A  0E0F               	movlw	15
  3829   000B3C  6FBC               	movwf	(?_atan2f+1)& (0+255),b
  3830   000B3E  0E49               	movlw	73
  3831   000B40  6FBD               	movwf	(?_atan2f+2)& (0+255),b
  3832   000B42  0E40               	movlw	64
  3833   000B44  6FBE               	movwf	(?_atan2f+3)& (0+255),b
  3834   000B46  EF04  F007         	goto	l1004
  3835   000B4A                     l4087:
  3836                           
  3837                           ; BSR set to: 0
  3838   000B4A  0EDB               	movlw	219
  3839   000B4C  6FBB               	movwf	?_atan2f& (0+255),b
  3840   000B4E  0E0F               	movlw	15
  3841   000B50  6FBC               	movwf	(?_atan2f+1)& (0+255),b
  3842   000B52  0E49               	movlw	73
  3843   000B54  6FBD               	movwf	(?_atan2f+2)& (0+255),b
  3844   000B56  0EC0               	movlw	192
  3845   000B58  6FBE               	movwf	(?_atan2f+3)& (0+255),b
  3846   000B5A  EF04  F007         	goto	l1004
  3847   000B5E                     l4093:
  3848                           
  3849                           ; BSR set to: 0
  3850   000B5E  51E3               	movf	atan2f@m& (0+255),w,b
  3851                           
  3852                           ; Switch size 1, requested type "simple"
  3853                           ; Number of cases is 4, Range of values is 0 to 3
  3854                           ; switch strategies available:
  3855                           ; Name         Instructions Cycles
  3856                           ; simple_byte           13     7 (average)
  3857                           ;	Chosen strategy is simple_byte
  3858   000B60  0A00               	xorlw	0	; case 0
  3859   000B62  B4D8               	btfsc	status,2,c
  3860   000B64  EF87  F005         	goto	l4075
  3861   000B68  0A01               	xorlw	1	; case 1
  3862   000B6A  B4D8               	btfsc	status,2,c
  3863   000B6C  EF91  F005         	goto	l4079
  3864   000B70  0A03               	xorlw	3	; case 2
  3865   000B72  B4D8               	btfsc	status,2,c
  3866   000B74  EF9B  F005         	goto	l4083
  3867   000B78  0A01               	xorlw	1	; case 3
  3868   000B7A  B4D8               	btfsc	status,2,c
  3869   000B7C  EFA5  F005         	goto	l4087
  3870   000B80  EFC2  F005         	goto	l4095
  3871   000B84                     l4095:
  3872                           
  3873                           ; BSR set to: 0
  3874   000B84  0E00               	movlw	0
  3875   000B86  25DB               	addwf	atan2f@ix& (0+255),w,b
  3876   000B88  6FC3               	movwf	??_atan2f& (0+255),b
  3877   000B8A  0E00               	movlw	0
  3878   000B8C  21DC               	addwfc	(atan2f@ix+1)& (0+255),w,b
  3879   000B8E  6FC4               	movwf	(??_atan2f+1)& (0+255),b
  3880   000B90  0E00               	movlw	0
  3881   000B92  21DD               	addwfc	(atan2f@ix+2)& (0+255),w,b
  3882   000B94  6FC5               	movwf	(??_atan2f+2)& (0+255),b
  3883   000B96  0E0D               	movlw	13
  3884   000B98  21DE               	addwfc	(atan2f@ix+3)& (0+255),w,b
  3885   000B9A  6FC6               	movwf	(??_atan2f+3)& (0+255),b
  3886   000B9C  51DF               	movf	atan2f@iy& (0+255),w,b
  3887   000B9E  5DC3               	subwf	??_atan2f& (0+255),w,b
  3888   000BA0  51E0               	movf	(atan2f@iy+1)& (0+255),w,b
  3889   000BA2  59C4               	subwfb	(??_atan2f+1)& (0+255),w,b
  3890   000BA4  51E1               	movf	(atan2f@iy+2)& (0+255),w,b
  3891   000BA6  59C5               	subwfb	(??_atan2f+2)& (0+255),w,b
  3892   000BA8  51E2               	movf	(atan2f@iy+3)& (0+255),w,b
  3893   000BAA  59C6               	subwfb	(??_atan2f+3)& (0+255),w,b
  3894   000BAC  A0D8               	btfss	status,0,c
  3895   000BAE  EFDB  F005         	goto	u4761
  3896   000BB2  EFDD  F005         	goto	u4760
  3897   000BB6                     u4761:
  3898   000BB6  EFEB  F005         	goto	l1035
  3899   000BBA                     u4760:
  3900   000BBA                     
  3901                           ; BSR set to: 0
  3902   000BBA  0E80               	movlw	128
  3903   000BBC  19E1               	xorwf	(atan2f@iy+2)& (0+255),w,b
  3904   000BBE  E109               	bnz	u4771
  3905   000BC0  0E7F               	movlw	127
  3906   000BC2  19E2               	xorwf	(atan2f@iy+3)& (0+255),w,b
  3907   000BC4  11DF               	iorwf	atan2f@iy& (0+255),w,b
  3908   000BC6  11E0               	iorwf	(atan2f@iy+1)& (0+255),w,b
  3909   000BC8  A4D8               	btfss	status,2,c
  3910   000BCA  EFE9  F005         	goto	u4771
  3911   000BCE  EFEB  F005         	goto	u4770
  3912   000BD2                     u4771:
  3913   000BD2  EF06  F006         	goto	l1033
  3914   000BD6                     u4770:
  3915   000BD6                     l1035:
  3916                           
  3917                           ; BSR set to: 0
  3918   000BD6  B1E3               	btfsc	atan2f@m& (0+255),0,b
  3919   000BD8  EFF0  F005         	goto	u4781
  3920   000BDC  EFF2  F005         	goto	u4780
  3921   000BE0                     u4781:
  3922   000BE0  EFFC  F005         	goto	l4101
  3923   000BE4                     u4780:
  3924   000BE4                     
  3925                           ; BSR set to: 0
  3926   000BE4  0EDB               	movlw	219
  3927   000BE6  6FBB               	movwf	?_atan2f& (0+255),b
  3928   000BE8  0E0F               	movlw	15
  3929   000BEA  6FBC               	movwf	(?_atan2f+1)& (0+255),b
  3930   000BEC  0EC9               	movlw	201
  3931   000BEE  6FBD               	movwf	(?_atan2f+2)& (0+255),b
  3932   000BF0  0E3F               	movlw	63
  3933   000BF2  6FBE               	movwf	(?_atan2f+3)& (0+255),b
  3934   000BF4  EF04  F007         	goto	l1004
  3935   000BF8                     l4101:
  3936                           
  3937                           ; BSR set to: 0
  3938   000BF8  0EDB               	movlw	219
  3939   000BFA  6FBB               	movwf	?_atan2f& (0+255),b
  3940   000BFC  0E0F               	movlw	15
  3941   000BFE  6FBC               	movwf	(?_atan2f+1)& (0+255),b
  3942   000C00  0EC9               	movlw	201
  3943   000C02  6FBD               	movwf	(?_atan2f+2)& (0+255),b
  3944   000C04  0EBF               	movlw	191
  3945   000C06  6FBE               	movwf	(?_atan2f+3)& (0+255),b
  3946   000C08  EF04  F007         	goto	l1004
  3947   000C0C                     l1033:
  3948                           
  3949                           ; BSR set to: 0
  3950   000C0C  A3E3               	btfss	atan2f@m& (0+255),1,b
  3951   000C0E  EF0B  F006         	goto	u4791
  3952   000C12  EF0D  F006         	goto	u4790
  3953   000C16                     u4791:
  3954   000C16  EF32  F006         	goto	l4109
  3955   000C1A                     u4790:
  3956   000C1A                     
  3957                           ; BSR set to: 0
  3958   000C1A  0E00               	movlw	0
  3959   000C1C  25DF               	addwf	atan2f@iy& (0+255),w,b
  3960   000C1E  6FC3               	movwf	??_atan2f& (0+255),b
  3961   000C20  0E00               	movlw	0
  3962   000C22  21E0               	addwfc	(atan2f@iy+1)& (0+255),w,b
  3963   000C24  6FC4               	movwf	(??_atan2f+1)& (0+255),b
  3964   000C26  0E00               	movlw	0
  3965   000C28  21E1               	addwfc	(atan2f@iy+2)& (0+255),w,b
  3966   000C2A  6FC5               	movwf	(??_atan2f+2)& (0+255),b
  3967   000C2C  0E0D               	movlw	13
  3968   000C2E  21E2               	addwfc	(atan2f@iy+3)& (0+255),w,b
  3969   000C30  6FC6               	movwf	(??_atan2f+3)& (0+255),b
  3970   000C32  51DB               	movf	atan2f@ix& (0+255),w,b
  3971   000C34  5DC3               	subwf	??_atan2f& (0+255),w,b
  3972   000C36  51DC               	movf	(atan2f@ix+1)& (0+255),w,b
  3973   000C38  59C4               	subwfb	(??_atan2f+1)& (0+255),w,b
  3974   000C3A  51DD               	movf	(atan2f@ix+2)& (0+255),w,b
  3975   000C3C  59C5               	subwfb	(??_atan2f+2)& (0+255),w,b
  3976   000C3E  51DE               	movf	(atan2f@ix+3)& (0+255),w,b
  3977   000C40  59C6               	subwfb	(??_atan2f+3)& (0+255),w,b
  3978   000C42  B0D8               	btfsc	status,0,c
  3979   000C44  EF26  F006         	goto	u4801
  3980   000C48  EF28  F006         	goto	u4800
  3981   000C4C                     u4801:
  3982   000C4C  EF32  F006         	goto	l4109
  3983   000C50                     u4800:
  3984   000C50                     
  3985                           ; BSR set to: 0
  3986   000C50  0E00               	movlw	0
  3987   000C52  6FD7               	movwf	atan2f@z& (0+255),b
  3988   000C54  0E00               	movlw	0
  3989   000C56  6FD8               	movwf	(atan2f@z+1)& (0+255),b
  3990   000C58  0E00               	movlw	0
  3991   000C5A  6FD9               	movwf	(atan2f@z+2)& (0+255),b
  3992   000C5C  0E00               	movlw	0
  3993   000C5E  6FDA               	movwf	(atan2f@z+3)& (0+255),b
  3994   000C60  EFF4  F006         	goto	l4127
  3995   000C64                     l4109:
  3996                           
  3997                           ; BSR set to: 0
  3998   000C64  C0BB  F062         	movff	atan2f@y,___fldiv@b
  3999   000C68  C0BC  F063         	movff	atan2f@y+1,___fldiv@b+1
  4000   000C6C  C0BD  F064         	movff	atan2f@y+2,___fldiv@b+2
  4001   000C70  C0BE  F065         	movff	atan2f@y+3,___fldiv@b+3
  4002   000C74  C0BF  F066         	movff	atan2f@x,___fldiv@a
  4003   000C78  C0C0  F067         	movff	atan2f@x+1,___fldiv@a+1
  4004   000C7C  C0C1  F068         	movff	atan2f@x+2,___fldiv@a+2
  4005   000C80  C0C2  F069         	movff	atan2f@x+3,___fldiv@a+3
  4006   000C84  EC62  F00D         	call	___fldiv	;wreg free
  4007   000C88  C062  F06E         	movff	?___fldiv,fabsf@x
  4008   000C8C  C063  F06F         	movff	?___fldiv+1,fabsf@x+1
  4009   000C90  C064  F070         	movff	?___fldiv+2,fabsf@x+2
  4010   000C94  C065  F071         	movff	?___fldiv+3,fabsf@x+3
  4011   000C98  ECED  F013         	call	_fabsf	;wreg free
  4012   000C9C  C06E  F0CB         	movff	?_fabsf,_atan2f$1902
  4013   000CA0  C06F  F0CC         	movff	?_fabsf+1,_atan2f$1902+1
  4014   000CA4  C070  F0CD         	movff	?_fabsf+2,_atan2f$1902+2
  4015   000CA8  C071  F0CE         	movff	?_fabsf+3,_atan2f$1902+3
  4016   000CAC  C0CB  F08D         	movff	_atan2f$1902,atanf@x
  4017   000CB0  C0CC  F08E         	movff	_atan2f$1902+1,atanf@x+1
  4018   000CB4  C0CD  F08F         	movff	_atan2f$1902+2,atanf@x+2
  4019   000CB8  C0CE  F090         	movff	_atan2f$1902+3,atanf@x+3
  4020   000CBC  EC72  F000         	call	_atanf	;wreg free
  4021   000CC0  C08D  F0D7         	movff	?_atanf,atan2f@z
  4022   000CC4  C08E  F0D8         	movff	?_atanf+1,atan2f@z+1
  4023   000CC8  C08F  F0D9         	movff	?_atanf+2,atan2f@z+2
  4024   000CCC  C090  F0DA         	movff	?_atanf+3,atan2f@z+3
  4025   000CD0  EFF4  F006         	goto	l4127
  4026   000CD4                     l1043:
  4027                           
  4028                           ; BSR set to: 0
  4029   000CD4  C0D7  F0BB         	movff	atan2f@z,?_atan2f
  4030   000CD8  C0D8  F0BC         	movff	atan2f@z+1,?_atan2f+1
  4031   000CDC  C0D9  F0BD         	movff	atan2f@z+2,?_atan2f+2
  4032   000CE0  C0DA  F0BE         	movff	atan2f@z+3,?_atan2f+3
  4033   000CE4  EF04  F007         	goto	l1004
  4034   000CE8                     l4113:
  4035                           
  4036                           ; BSR set to: 0
  4037   000CE8  C0D7  F006         	movff	atan2f@z,___flneg@f1
  4038   000CEC  C0D8  F007         	movff	atan2f@z+1,___flneg@f1+1
  4039   000CF0  C0D9  F008         	movff	atan2f@z+2,___flneg@f1+2
  4040   000CF4  C0DA  F009         	movff	atan2f@z+3,___flneg@f1+3
  4041   000CF8  ECD1  F013         	call	___flneg	;wreg free
  4042   000CFC  C006  F0BB         	movff	?___flneg,?_atan2f
  4043   000D00  C007  F0BC         	movff	?___flneg+1,?_atan2f+1
  4044   000D04  C008  F0BD         	movff	?___flneg+2,?_atan2f+2
  4045   000D08  C009  F0BE         	movff	?___flneg+3,?_atan2f+3
  4046   000D0C  EF04  F007         	goto	l1004
  4047   000D10                     l4117:
  4048                           
  4049                           ; BSR set to: 0
  4050   000D10  0E2E               	movlw	46
  4051   000D12  6E31               	movwf	___fladd@a^0,c
  4052   000D14  0EBD               	movlw	189
  4053   000D16  6E32               	movwf	(___fladd@a+1)^0,c
  4054   000D18  0EBB               	movlw	187
  4055   000D1A  6E33               	movwf	(___fladd@a+2)^0,c
  4056   000D1C  0E33               	movlw	51
  4057   000D1E  6E34               	movwf	(___fladd@a+3)^0,c
  4058   000D20  C0D7  F02D         	movff	atan2f@z,___fladd@b
  4059   000D24  C0D8  F02E         	movff	atan2f@z+1,___fladd@b+1
  4060   000D28  C0D9  F02F         	movff	atan2f@z+2,___fladd@b+2
  4061   000D2C  C0DA  F030         	movff	atan2f@z+3,___fladd@b+3
  4062   000D30  EC05  F007         	call	___fladd	;wreg free
  4063   000D34  C02D  F0CF         	movff	?___fladd,_atan2f$1903
  4064   000D38  C02E  F0D0         	movff	?___fladd+1,_atan2f$1903+1
  4065   000D3C  C02F  F0D1         	movff	?___fladd+2,_atan2f$1903+2
  4066   000D40  C030  F0D2         	movff	?___fladd+3,_atan2f$1903+3
  4067   000D44  0EDB               	movlw	219
  4068   000D46  6E3D               	movwf	___flsub@b^0,c
  4069   000D48  0E0F               	movlw	15
  4070   000D4A  6E3E               	movwf	(___flsub@b+1)^0,c
  4071   000D4C  0E49               	movlw	73
  4072   000D4E  6E3F               	movwf	(___flsub@b+2)^0,c
  4073   000D50  0E40               	movlw	64
  4074   000D52  6E40               	movwf	(___flsub@b+3)^0,c
  4075   000D54  C0CF  F041         	movff	_atan2f$1903,___flsub@a
  4076   000D58  C0D0  F042         	movff	_atan2f$1903+1,___flsub@a+1
  4077   000D5C  C0D1  F043         	movff	_atan2f$1903+2,___flsub@a+2
  4078   000D60  C0D2  F044         	movff	_atan2f$1903+3,___flsub@a+3
  4079   000D64  EC52  F013         	call	___flsub	;wreg free
  4080   000D68  C03D  F0BB         	movff	?___flsub,?_atan2f
  4081   000D6C  C03E  F0BC         	movff	?___flsub+1,?_atan2f+1
  4082   000D70  C03F  F0BD         	movff	?___flsub+2,?_atan2f+2
  4083   000D74  C040  F0BE         	movff	?___flsub+3,?_atan2f+3
  4084   000D78  EF04  F007         	goto	l1004
  4085   000D7C                     l4121:
  4086                           
  4087                           ; BSR set to: 0
  4088   000D7C  0E2E               	movlw	46
  4089   000D7E  6E31               	movwf	___fladd@a^0,c
  4090   000D80  0EBD               	movlw	189
  4091   000D82  6E32               	movwf	(___fladd@a+1)^0,c
  4092   000D84  0EBB               	movlw	187
  4093   000D86  6E33               	movwf	(___fladd@a+2)^0,c
  4094   000D88  0E33               	movlw	51
  4095   000D8A  6E34               	movwf	(___fladd@a+3)^0,c
  4096   000D8C  C0D7  F02D         	movff	atan2f@z,___fladd@b
  4097   000D90  C0D8  F02E         	movff	atan2f@z+1,___fladd@b+1
  4098   000D94  C0D9  F02F         	movff	atan2f@z+2,___fladd@b+2
  4099   000D98  C0DA  F030         	movff	atan2f@z+3,___fladd@b+3
  4100   000D9C  EC05  F007         	call	___fladd	;wreg free
  4101   000DA0  C02D  F0D3         	movff	?___fladd,_atan2f$1904
  4102   000DA4  C02E  F0D4         	movff	?___fladd+1,_atan2f$1904+1
  4103   000DA8  C02F  F0D5         	movff	?___fladd+2,_atan2f$1904+2
  4104   000DAC  C030  F0D6         	movff	?___fladd+3,_atan2f$1904+3
  4105   000DB0  C0D3  F02D         	movff	_atan2f$1904,___fladd@b
  4106   000DB4  C0D4  F02E         	movff	_atan2f$1904+1,___fladd@b+1
  4107   000DB8  C0D5  F02F         	movff	_atan2f$1904+2,___fladd@b+2
  4108   000DBC  C0D6  F030         	movff	_atan2f$1904+3,___fladd@b+3
  4109   000DC0  0EDB               	movlw	219
  4110   000DC2  6E31               	movwf	___fladd@a^0,c
  4111   000DC4  0E0F               	movlw	15
  4112   000DC6  6E32               	movwf	(___fladd@a+1)^0,c
  4113   000DC8  0E49               	movlw	73
  4114   000DCA  6E33               	movwf	(___fladd@a+2)^0,c
  4115   000DCC  0EC0               	movlw	192
  4116   000DCE  6E34               	movwf	(___fladd@a+3)^0,c
  4117   000DD0  EC05  F007         	call	___fladd	;wreg free
  4118   000DD4  C02D  F0BB         	movff	?___fladd,?_atan2f
  4119   000DD8  C02E  F0BC         	movff	?___fladd+1,?_atan2f+1
  4120   000DDC  C02F  F0BD         	movff	?___fladd+2,?_atan2f+2
  4121   000DE0  C030  F0BE         	movff	?___fladd+3,?_atan2f+3
  4122   000DE4  EF04  F007         	goto	l1004
  4123   000DE8                     l4127:
  4124   000DE8  0100               	movlb	0	; () banked
  4125   000DEA  51E3               	movf	atan2f@m& (0+255),w,b
  4126                           
  4127                           ; Switch size 1, requested type "simple"
  4128                           ; Number of cases is 3, Range of values is 0 to 2
  4129                           ; switch strategies available:
  4130                           ; Name         Instructions Cycles
  4131                           ; simple_byte           10     6 (average)
  4132                           ;	Chosen strategy is simple_byte
  4133   000DEC  0A00               	xorlw	0	; case 0
  4134   000DEE  B4D8               	btfsc	status,2,c
  4135   000DF0  EF6A  F006         	goto	l1043
  4136   000DF4  0A01               	xorlw	1	; case 1
  4137   000DF6  B4D8               	btfsc	status,2,c
  4138   000DF8  EF74  F006         	goto	l4113
  4139   000DFC  0A03               	xorlw	3	; case 2
  4140   000DFE  B4D8               	btfsc	status,2,c
  4141   000E00  EF88  F006         	goto	l4117
  4142   000E04  EFBE  F006         	goto	l4121
  4143   000E08                     l1004:
  4144   000E08  0012               	return		;funcret
  4145   000E0A                     __end_of_atan2f:
  4146                           	callstack 0
  4147                           
  4148 ;; *************** function _atanf *****************
  4149 ;; Defined at:
  4150 ;;		line 40 in file "C:\Program Files\Microchip\xc8\v2.50\pic\sources\c99\common\atanf.c"
  4151 ;; Parameters:    Size  Location     Type
  4152 ;;  x               4   13[BANK0 ] float 
  4153 ;; Auto vars:     Size  Location     Type
  4154 ;;  ix              4   55[BANK0 ] struct .
  4155 ;;  z               4   51[BANK0 ] float 
  4156 ;;  w               4   46[BANK0 ] float 
  4157 ;;  s2              4   33[BANK0 ] float 
  4158 ;;  s1              4   29[BANK0 ] float 
  4159 ;;  id              1   50[BANK0 ] char 
  4160 ;;  sign            1   45[BANK0 ] _Bool 
  4161 ;; Return value:  Size  Location     Type
  4162 ;;                  4   13[BANK0 ] float 
  4163 ;; Registers used:
  4164 ;;		wreg, status,2, status,0, tblptrl, tblptrh, tblptru, prodl, prodh, cstack
  4165 ;; Tracked objects:
  4166 ;;		On entry : 0/0
  4167 ;;		On exit  : 0/0
  4168 ;;		Unchanged: 0/0
  4169 ;; Data sizes:     COMRAM   BANK0   BANK1   BANK2   BANK3   BANK4   BANK5
  4170 ;;      Params:         0       4       0       0       0       0       0
  4171 ;;      Locals:         0      42       0       0       0       0       0
  4172 ;;      Temps:          0       0       0       0       0       0       0
  4173 ;;      Totals:         0      46       0       0       0       0       0
  4174 ;;Total ram usage:       46 bytes
  4175 ;; Hardware stack levels used: 1
  4176 ;; Hardware stack levels required when called: 3
  4177 ;; This function calls:
  4178 ;;		___fladd
  4179 ;;		___fldiv
  4180 ;;		___flmul
  4181 ;;		___flneg
  4182 ;;		___flsub
  4183 ;;		___fpclassifyf
  4184 ;;		_fabsf
  4185 ;; This function is called by:
  4186 ;;		_atan2f
  4187 ;; This function uses a non-reentrant model
  4188 ;;
  4189                           
  4190                           	psect	text13
  4191   0000E4                     __ptext13:
  4192                           	callstack 0
  4193   0000E4                     _atanf:
  4194                           	callstack 22
  4195   0000E4  C08D  F0B7         	movff	atanf@x,atanf@ix
  4196   0000E8  C08E  F0B8         	movff	atanf@x+1,atanf@ix+1
  4197   0000EC  C08F  F0B9         	movff	atanf@x+2,atanf@ix+2
  4198   0000F0  C090  F0BA         	movff	atanf@x+3,atanf@ix+3
  4199   0000F4  0100               	movlb	0	; () banked
  4200   0000F6  BFBA               	btfsc	(atanf@ix+3)& (0+255),7,b
  4201   0000F8  EF80  F000         	goto	u4401
  4202   0000FC  EF83  F000         	goto	u4400
  4203   000100                     u4401:
  4204   000100  0E01               	movlw	1
  4205   000102  EF84  F000         	goto	u4410
  4206   000106                     u4400:
  4207   000106  0E00               	movlw	0
  4208   000108                     u4410:
  4209   000108  6FAD               	movwf	atanf@sign& (0+255),b
  4210   00010A                     
  4211                           ; BSR set to: 0
  4212   00010A  9FBA               	bcf	(atanf@ix+3)& (0+255),7,b
  4213   00010C                     
  4214                           ; BSR set to: 0
  4215   00010C  0E80               	movlw	128
  4216   00010E  5DB9               	subwf	(atanf@ix+2)& (0+255),w,b
  4217   000110  0E4C               	movlw	76
  4218   000112  59BA               	subwfb	(atanf@ix+3)& (0+255),w,b
  4219   000114  A0D8               	btfss	status,0,c
  4220   000116  EF8F  F000         	goto	u4421
  4221   00011A  EF91  F000         	goto	u4420
  4222   00011E                     u4421:
  4223   00011E  EFF7  F000         	goto	l3871
  4224   000122                     u4420:
  4225   000122                     
  4226                           ; BSR set to: 0
  4227   000122  C08D  F006         	movff	atanf@x,___fpclassifyf@x
  4228   000126  C08E  F007         	movff	atanf@x+1,___fpclassifyf@x+1
  4229   00012A  C08F  F008         	movff	atanf@x+2,___fpclassifyf@x+2
  4230   00012E  C090  F009         	movff	atanf@x+3,___fpclassifyf@x+3
  4231   000132  EC1E  F012         	call	___fpclassifyf	;wreg free
  4232   000136  5006               	movf	?___fpclassifyf^0,w,c
  4233   000138  1007               	iorwf	(?___fpclassifyf+1)^0,w,c
  4234   00013A  A4D8               	btfss	status,2,c
  4235   00013C  EFA2  F000         	goto	u4431
  4236   000140  EFA4  F000         	goto	u4430
  4237   000144                     u4431:
  4238   000144  EFAE  F000         	goto	l3861
  4239   000148                     u4430:
  4240   000148                     l3859:
  4241   000148  C08D  F08D         	movff	atanf@x,?_atanf
  4242   00014C  C08E  F08E         	movff	atanf@x+1,?_atanf+1
  4243   000150  C08F  F08F         	movff	atanf@x+2,?_atanf+2
  4244   000154  C090  F090         	movff	atanf@x+3,?_atanf+3
  4245   000158  EF26  F004         	goto	l1081
  4246   00015C                     l3861:
  4247   00015C  0E0B               	movlw	low (_atanhi+12)
  4248   00015E  6EF6               	movwf	tblptrl,c
  4249   000160  0E7D               	movlw	high (_atanhi+12)
  4250   000162  6EF7               	movwf	tblptrh,c
  4251   000164                     	if	0	;tblptru may be non-zero
  4252   000164                     	endif
  4253   000164                     	if	0	;tblptru may be non-zero
  4254   000164                     	endif
  4255   000164  0009               	tblrd		*+
  4256   000166  CFF5 F02D          	movff	tablat,___fladd@b
  4257   00016A  0009               	tblrd		*+
  4258   00016C  CFF5 F02E          	movff	tablat,___fladd@b+1
  4259   000170  0009               	tblrd		*+
  4260   000172  CFF5 F02F          	movff	tablat,___fladd@b+2
  4261   000176  000A               	tblrd		*-
  4262   000178  CFF5 F030          	movff	tablat,___fladd@b+3
  4263   00017C  0E00               	movlw	0
  4264   00017E  6E31               	movwf	___fladd@a^0,c
  4265   000180  0E00               	movlw	0
  4266   000182  6E32               	movwf	(___fladd@a+1)^0,c
  4267   000184  0E80               	movlw	128
  4268   000186  6E33               	movwf	(___fladd@a+2)^0,c
  4269   000188  0E03               	movlw	3
  4270   00018A  6E34               	movwf	(___fladd@a+3)^0,c
  4271   00018C  EC05  F007         	call	___fladd	;wreg free
  4272   000190  C02D  F0B3         	movff	?___fladd,atanf@z
  4273   000194  C02E  F0B4         	movff	?___fladd+1,atanf@z+1
  4274   000198  C02F  F0B5         	movff	?___fladd+2,atanf@z+2
  4275   00019C  C030  F0B6         	movff	?___fladd+3,atanf@z+3
  4276   0001A0  0100               	movlb	0	; () banked
  4277   0001A2  51AD               	movf	atanf@sign& (0+255),w,b
  4278   0001A4  A4D8               	btfss	status,2,c
  4279   0001A6  EFD7  F000         	goto	u4441
  4280   0001AA  EFD9  F000         	goto	u4440
  4281   0001AE                     u4441:
  4282   0001AE  EFE3  F000         	goto	l3867
  4283   0001B2                     u4440:
  4284   0001B2                     l3865:
  4285                           
  4286                           ; BSR set to: 0
  4287   0001B2  C0B3  F08D         	movff	atanf@z,?_atanf
  4288   0001B6  C0B4  F08E         	movff	atanf@z+1,?_atanf+1
  4289   0001BA  C0B5  F08F         	movff	atanf@z+2,?_atanf+2
  4290   0001BE  C0B6  F090         	movff	atanf@z+3,?_atanf+3
  4291   0001C2  EF26  F004         	goto	l1081
  4292   0001C6                     l3867:
  4293                           
  4294                           ; BSR set to: 0
  4295   0001C6  C0B3  F006         	movff	atanf@z,___flneg@f1
  4296   0001CA  C0B4  F007         	movff	atanf@z+1,___flneg@f1+1
  4297   0001CE  C0B5  F008         	movff	atanf@z+2,___flneg@f1+2
  4298   0001D2  C0B6  F009         	movff	atanf@z+3,___flneg@f1+3
  4299   0001D6  ECD1  F013         	call	___flneg	;wreg free
  4300   0001DA  C006  F08D         	movff	?___flneg,?_atanf
  4301   0001DE  C007  F08E         	movff	?___flneg+1,?_atanf+1
  4302   0001E2  C008  F08F         	movff	?___flneg+2,?_atanf+2
  4303   0001E6  C009  F090         	movff	?___flneg+3,?_atanf+3
  4304   0001EA  EF26  F004         	goto	l1081
  4305   0001EE                     l3871:
  4306                           
  4307                           ; BSR set to: 0
  4308   0001EE  0EE0               	movlw	224
  4309   0001F0  5DB9               	subwf	(atanf@ix+2)& (0+255),w,b
  4310   0001F2  0E3E               	movlw	62
  4311   0001F4  59BA               	subwfb	(atanf@ix+3)& (0+255),w,b
  4312   0001F6  B0D8               	btfsc	status,0,c
  4313   0001F8  EF00  F001         	goto	u4451
  4314   0001FC  EF02  F001         	goto	u4450
  4315   000200                     u4451:
  4316   000200  EF12  F001         	goto	l3877
  4317   000204                     u4450:
  4318   000204                     
  4319                           ; BSR set to: 0
  4320   000204  0E80               	movlw	128
  4321   000206  5DB9               	subwf	(atanf@ix+2)& (0+255),w,b
  4322   000208  0E39               	movlw	57
  4323   00020A  59BA               	subwfb	(atanf@ix+3)& (0+255),w,b
  4324   00020C  B0D8               	btfsc	status,0,c
  4325   00020E  EF0B  F001         	goto	u4461
  4326   000212  EF0D  F001         	goto	u4460
  4327   000216                     u4461:
  4328   000216  EF0F  F001         	goto	l1087
  4329   00021A                     u4460:
  4330   00021A  EFA4  F000         	goto	l3859
  4331   00021E                     l1087:
  4332                           
  4333                           ; BSR set to: 0
  4334   00021E  69B2               	setf	atanf@id& (0+255),b
  4335   000220  EF4B  F002         	goto	l3901
  4336   000224                     l3877:
  4337                           
  4338                           ; BSR set to: 0
  4339   000224  C08D  F06E         	movff	atanf@x,fabsf@x
  4340   000228  C08E  F06F         	movff	atanf@x+1,fabsf@x+1
  4341   00022C  C08F  F070         	movff	atanf@x+2,fabsf@x+2
  4342   000230  C090  F071         	movff	atanf@x+3,fabsf@x+3
  4343   000234  ECED  F013         	call	_fabsf	;wreg free
  4344   000238  C06E  F08D         	movff	?_fabsf,atanf@x
  4345   00023C  C06F  F08E         	movff	?_fabsf+1,atanf@x+1
  4346   000240  C070  F08F         	movff	?_fabsf+2,atanf@x+2
  4347   000244  C071  F090         	movff	?_fabsf+3,atanf@x+3
  4348   000248  0E98               	movlw	152
  4349   00024A  0100               	movlb	0	; () banked
  4350   00024C  5DB9               	subwf	(atanf@ix+2)& (0+255),w,b
  4351   00024E  0E3F               	movlw	63
  4352   000250  59BA               	subwfb	(atanf@ix+3)& (0+255),w,b
  4353   000252  B0D8               	btfsc	status,0,c
  4354   000254  EF2E  F001         	goto	u4471
  4355   000258  EF30  F001         	goto	u4470
  4356   00025C                     u4471:
  4357   00025C  EFD0  F001         	goto	l3891
  4358   000260                     u4470:
  4359   000260                     
  4360                           ; BSR set to: 0
  4361   000260  0E30               	movlw	48
  4362   000262  5DB9               	subwf	(atanf@ix+2)& (0+255),w,b
  4363   000264  0E3F               	movlw	63
  4364   000266  59BA               	subwfb	(atanf@ix+3)& (0+255),w,b
  4365   000268  B0D8               	btfsc	status,0,c
  4366   00026A  EF39  F001         	goto	u4481
  4367   00026E  EF3B  F001         	goto	u4480
  4368   000272                     u4481:
  4369   000272  EF8E  F001         	goto	l3887
  4370   000276                     u4480:
  4371   000276                     
  4372                           ; BSR set to: 0
  4373   000276  6BB2               	clrf	atanf@id& (0+255),b
  4374   000278                     
  4375                           ; BSR set to: 0
  4376   000278  0E00               	movlw	0
  4377   00027A  6E31               	movwf	___fladd@a^0,c
  4378   00027C  0E00               	movlw	0
  4379   00027E  6E32               	movwf	(___fladd@a+1)^0,c
  4380   000280  0E80               	movlw	128
  4381   000282  6E33               	movwf	(___fladd@a+2)^0,c
  4382   000284  0EBF               	movlw	191
  4383   000286  6E34               	movwf	(___fladd@a+3)^0,c
  4384   000288  0E00               	movlw	0
  4385   00028A  6E18               	movwf	___flmul@a^0,c
  4386   00028C  0E00               	movlw	0
  4387   00028E  6E19               	movwf	(___flmul@a+1)^0,c
  4388   000290  0E00               	movlw	0
  4389   000292  6E1A               	movwf	(___flmul@a+2)^0,c
  4390   000294  0E40               	movlw	64
  4391   000296  6E1B               	movwf	(___flmul@a+3)^0,c
  4392   000298  C08D  F014         	movff	atanf@x,___flmul@b
  4393   00029C  C08E  F015         	movff	atanf@x+1,___flmul@b+1
  4394   0002A0  C08F  F016         	movff	atanf@x+2,___flmul@b+2
  4395   0002A4  C090  F017         	movff	atanf@x+3,___flmul@b+3
  4396   0002A8  EC60  F009         	call	___flmul	;wreg free
  4397   0002AC  C014  F02D         	movff	?___flmul,___fladd@b
  4398   0002B0  C015  F02E         	movff	?___flmul+1,___fladd@b+1
  4399   0002B4  C016  F02F         	movff	?___flmul+2,___fladd@b+2
  4400   0002B8  C017  F030         	movff	?___flmul+3,___fladd@b+3
  4401   0002BC  EC05  F007         	call	___fladd	;wreg free
  4402   0002C0  C02D  F062         	movff	?___fladd,___fldiv@b
  4403   0002C4  C02E  F063         	movff	?___fladd+1,___fldiv@b+1
  4404   0002C8  C02F  F064         	movff	?___fladd+2,___fldiv@b+2
  4405   0002CC  C030  F065         	movff	?___fladd+3,___fldiv@b+3
  4406   0002D0  0E00               	movlw	0
  4407   0002D2  6E31               	movwf	___fladd@a^0,c
  4408   0002D4  0E00               	movlw	0
  4409   0002D6  6E32               	movwf	(___fladd@a+1)^0,c
  4410   0002D8  0E00               	movlw	0
  4411   0002DA  6E33               	movwf	(___fladd@a+2)^0,c
  4412   0002DC  0E40               	movlw	64
  4413   0002DE  6E34               	movwf	(___fladd@a+3)^0,c
  4414   0002E0  C08D  F02D         	movff	atanf@x,___fladd@b
  4415   0002E4  C08E  F02E         	movff	atanf@x+1,___fladd@b+1
  4416   0002E8  C08F  F02F         	movff	atanf@x+2,___fladd@b+2
  4417   0002EC  C090  F030         	movff	atanf@x+3,___fladd@b+3
  4418   0002F0  EC05  F007         	call	___fladd	;wreg free
  4419   0002F4  C02D  F066         	movff	?___fladd,___fldiv@a
  4420   0002F8  C02E  F067         	movff	?___fladd+1,___fldiv@a+1
  4421   0002FC  C02F  F068         	movff	?___fladd+2,___fldiv@a+2
  4422   000300  C030  F069         	movff	?___fladd+3,___fldiv@a+3
  4423   000304  EC62  F00D         	call	___fldiv	;wreg free
  4424   000308  C062  F08D         	movff	?___fldiv,atanf@x
  4425   00030C  C063  F08E         	movff	?___fldiv+1,atanf@x+1
  4426   000310  C064  F08F         	movff	?___fldiv+2,atanf@x+2
  4427   000314  C065  F090         	movff	?___fldiv+3,atanf@x+3
  4428   000318  EF4B  F002         	goto	l3901
  4429   00031C                     l3887:
  4430                           
  4431                           ; BSR set to: 0
  4432   00031C  0E01               	movlw	1
  4433   00031E  6FB2               	movwf	atanf@id& (0+255),b
  4434   000320                     
  4435                           ; BSR set to: 0
  4436   000320  0E00               	movlw	0
  4437   000322  6E31               	movwf	___fladd@a^0,c
  4438   000324  0E00               	movlw	0
  4439   000326  6E32               	movwf	(___fladd@a+1)^0,c
  4440   000328  0E80               	movlw	128
  4441   00032A  6E33               	movwf	(___fladd@a+2)^0,c
  4442   00032C  0EBF               	movlw	191
  4443   00032E  6E34               	movwf	(___fladd@a+3)^0,c
  4444   000330  C08D  F02D         	movff	atanf@x,___fladd@b
  4445   000334  C08E  F02E         	movff	atanf@x+1,___fladd@b+1
  4446   000338  C08F  F02F         	movff	atanf@x+2,___fladd@b+2
  4447   00033C  C090  F030         	movff	atanf@x+3,___fladd@b+3
  4448   000340  EC05  F007         	call	___fladd	;wreg free
  4449   000344  C02D  F062         	movff	?___fladd,___fldiv@b
  4450   000348  C02E  F063         	movff	?___fladd+1,___fldiv@b+1
  4451   00034C  C02F  F064         	movff	?___fladd+2,___fldiv@b+2
  4452   000350  C030  F065         	movff	?___fladd+3,___fldiv@b+3
  4453   000354  0E00               	movlw	0
  4454   000356  6E31               	movwf	___fladd@a^0,c
  4455   000358  0E00               	movlw	0
  4456   00035A  6E32               	movwf	(___fladd@a+1)^0,c
  4457   00035C  0E80               	movlw	128
  4458   00035E  6E33               	movwf	(___fladd@a+2)^0,c
  4459   000360  0E3F               	movlw	63
  4460   000362  6E34               	movwf	(___fladd@a+3)^0,c
  4461   000364  C08D  F02D         	movff	atanf@x,___fladd@b
  4462   000368  C08E  F02E         	movff	atanf@x+1,___fladd@b+1
  4463   00036C  C08F  F02F         	movff	atanf@x+2,___fladd@b+2
  4464   000370  C090  F030         	movff	atanf@x+3,___fladd@b+3
  4465   000374  EC05  F007         	call	___fladd	;wreg free
  4466   000378  C02D  F066         	movff	?___fladd,___fldiv@a
  4467   00037C  C02E  F067         	movff	?___fladd+1,___fldiv@a+1
  4468   000380  C02F  F068         	movff	?___fladd+2,___fldiv@a+2
  4469   000384  C030  F069         	movff	?___fladd+3,___fldiv@a+3
  4470   000388  EC62  F00D         	call	___fldiv	;wreg free
  4471   00038C  C062  F08D         	movff	?___fldiv,atanf@x
  4472   000390  C063  F08E         	movff	?___fldiv+1,atanf@x+1
  4473   000394  C064  F08F         	movff	?___fldiv+2,atanf@x+2
  4474   000398  C065  F090         	movff	?___fldiv+3,atanf@x+3
  4475   00039C  EF4B  F002         	goto	l3901
  4476   0003A0                     l3891:
  4477                           
  4478                           ; BSR set to: 0
  4479   0003A0  0E1C               	movlw	28
  4480   0003A2  5DB9               	subwf	(atanf@ix+2)& (0+255),w,b
  4481   0003A4  0E40               	movlw	64
  4482   0003A6  59BA               	subwfb	(atanf@ix+3)& (0+255),w,b
  4483   0003A8  B0D8               	btfsc	status,0,c
  4484   0003AA  EFD9  F001         	goto	u4491
  4485   0003AE  EFDB  F001         	goto	u4490
  4486   0003B2                     u4491:
  4487   0003B2  EF2F  F002         	goto	l3897
  4488   0003B6                     u4490:
  4489   0003B6                     
  4490                           ; BSR set to: 0
  4491   0003B6  0E02               	movlw	2
  4492   0003B8  6FB2               	movwf	atanf@id& (0+255),b
  4493   0003BA                     
  4494                           ; BSR set to: 0
  4495   0003BA  0E00               	movlw	0
  4496   0003BC  6E31               	movwf	___fladd@a^0,c
  4497   0003BE  0E00               	movlw	0
  4498   0003C0  6E32               	movwf	(___fladd@a+1)^0,c
  4499   0003C2  0EC0               	movlw	192
  4500   0003C4  6E33               	movwf	(___fladd@a+2)^0,c
  4501   0003C6  0EBF               	movlw	191
  4502   0003C8  6E34               	movwf	(___fladd@a+3)^0,c
  4503   0003CA  C08D  F02D         	movff	atanf@x,___fladd@b
  4504   0003CE  C08E  F02E         	movff	atanf@x+1,___fladd@b+1
  4505   0003D2  C08F  F02F         	movff	atanf@x+2,___fladd@b+2
  4506   0003D6  C090  F030         	movff	atanf@x+3,___fladd@b+3
  4507   0003DA  EC05  F007         	call	___fladd	;wreg free
  4508   0003DE  C02D  F062         	movff	?___fladd,___fldiv@b
  4509   0003E2  C02E  F063         	movff	?___fladd+1,___fldiv@b+1
  4510   0003E6  C02F  F064         	movff	?___fladd+2,___fldiv@b+2
  4511   0003EA  C030  F065         	movff	?___fladd+3,___fldiv@b+3
  4512   0003EE  0E00               	movlw	0
  4513   0003F0  6E31               	movwf	___fladd@a^0,c
  4514   0003F2  0E00               	movlw	0
  4515   0003F4  6E32               	movwf	(___fladd@a+1)^0,c
  4516   0003F6  0E80               	movlw	128
  4517   0003F8  6E33               	movwf	(___fladd@a+2)^0,c
  4518   0003FA  0E3F               	movlw	63
  4519   0003FC  6E34               	movwf	(___fladd@a+3)^0,c
  4520   0003FE  0E00               	movlw	0
  4521   000400  6E18               	movwf	___flmul@a^0,c
  4522   000402  0E00               	movlw	0
  4523   000404  6E19               	movwf	(___flmul@a+1)^0,c
  4524   000406  0EC0               	movlw	192
  4525   000408  6E1A               	movwf	(___flmul@a+2)^0,c
  4526   00040A  0E3F               	movlw	63
  4527   00040C  6E1B               	movwf	(___flmul@a+3)^0,c
  4528   00040E  C08D  F014         	movff	atanf@x,___flmul@b
  4529   000412  C08E  F015         	movff	atanf@x+1,___flmul@b+1
  4530   000416  C08F  F016         	movff	atanf@x+2,___flmul@b+2
  4531   00041A  C090  F017         	movff	atanf@x+3,___flmul@b+3
  4532   00041E  EC60  F009         	call	___flmul	;wreg free
  4533   000422  C014  F02D         	movff	?___flmul,___fladd@b
  4534   000426  C015  F02E         	movff	?___flmul+1,___fladd@b+1
  4535   00042A  C016  F02F         	movff	?___flmul+2,___fladd@b+2
  4536   00042E  C017  F030         	movff	?___flmul+3,___fladd@b+3
  4537   000432  EC05  F007         	call	___fladd	;wreg free
  4538   000436  C02D  F066         	movff	?___fladd,___fldiv@a
  4539   00043A  C02E  F067         	movff	?___fladd+1,___fldiv@a+1
  4540   00043E  C02F  F068         	movff	?___fladd+2,___fldiv@a+2
  4541   000442  C030  F069         	movff	?___fladd+3,___fldiv@a+3
  4542   000446  EC62  F00D         	call	___fldiv	;wreg free
  4543   00044A  C062  F08D         	movff	?___fldiv,atanf@x
  4544   00044E  C063  F08E         	movff	?___fldiv+1,atanf@x+1
  4545   000452  C064  F08F         	movff	?___fldiv+2,atanf@x+2
  4546   000456  C065  F090         	movff	?___fldiv+3,atanf@x+3
  4547   00045A  EF4B  F002         	goto	l3901
  4548   00045E                     l3897:
  4549                           
  4550                           ; BSR set to: 0
  4551   00045E  0E03               	movlw	3
  4552   000460  6FB2               	movwf	atanf@id& (0+255),b
  4553   000462                     
  4554                           ; BSR set to: 0
  4555   000462  0E00               	movlw	0
  4556   000464  6E62               	movwf	___fldiv@b^0,c
  4557   000466  0E00               	movlw	0
  4558   000468  6E63               	movwf	(___fldiv@b+1)^0,c
  4559   00046A  0E80               	movlw	128
  4560   00046C  6E64               	movwf	(___fldiv@b+2)^0,c
  4561   00046E  0EBF               	movlw	191
  4562   000470  6E65               	movwf	(___fldiv@b+3)^0,c
  4563   000472  C08D  F066         	movff	atanf@x,___fldiv@a
  4564   000476  C08E  F067         	movff	atanf@x+1,___fldiv@a+1
  4565   00047A  C08F  F068         	movff	atanf@x+2,___fldiv@a+2
  4566   00047E  C090  F069         	movff	atanf@x+3,___fldiv@a+3
  4567   000482  EC62  F00D         	call	___fldiv	;wreg free
  4568   000486  C062  F08D         	movff	?___fldiv,atanf@x
  4569   00048A  C063  F08E         	movff	?___fldiv+1,atanf@x+1
  4570   00048E  C064  F08F         	movff	?___fldiv+2,atanf@x+2
  4571   000492  C065  F090         	movff	?___fldiv+3,atanf@x+3
  4572   000496                     l3901:
  4573   000496  C08D  F014         	movff	atanf@x,___flmul@b
  4574   00049A  C08E  F015         	movff	atanf@x+1,___flmul@b+1
  4575   00049E  C08F  F016         	movff	atanf@x+2,___flmul@b+2
  4576   0004A2  C090  F017         	movff	atanf@x+3,___flmul@b+3
  4577   0004A6  C08D  F018         	movff	atanf@x,___flmul@a
  4578   0004AA  C08E  F019         	movff	atanf@x+1,___flmul@a+1
  4579   0004AE  C08F  F01A         	movff	atanf@x+2,___flmul@a+2
  4580   0004B2  C090  F01B         	movff	atanf@x+3,___flmul@a+3
  4581   0004B6  EC60  F009         	call	___flmul	;wreg free
  4582   0004BA  C014  F0B3         	movff	?___flmul,atanf@z
  4583   0004BE  C015  F0B4         	movff	?___flmul+1,atanf@z+1
  4584   0004C2  C016  F0B5         	movff	?___flmul+2,atanf@z+2
  4585   0004C6  C017  F0B6         	movff	?___flmul+3,atanf@z+3
  4586   0004CA  C0B3  F014         	movff	atanf@z,___flmul@b
  4587   0004CE  C0B4  F015         	movff	atanf@z+1,___flmul@b+1
  4588   0004D2  C0B5  F016         	movff	atanf@z+2,___flmul@b+2
  4589   0004D6  C0B6  F017         	movff	atanf@z+3,___flmul@b+3
  4590   0004DA  C0B3  F018         	movff	atanf@z,___flmul@a
  4591   0004DE  C0B4  F019         	movff	atanf@z+1,___flmul@a+1
  4592   0004E2  C0B5  F01A         	movff	atanf@z+2,___flmul@a+2
  4593   0004E6  C0B6  F01B         	movff	atanf@z+3,___flmul@a+3
  4594   0004EA  EC60  F009         	call	___flmul	;wreg free
  4595   0004EE  C014  F0AE         	movff	?___flmul,atanf@w
  4596   0004F2  C015  F0AF         	movff	?___flmul+1,atanf@w+1
  4597   0004F6  C016  F0B0         	movff	?___flmul+2,atanf@w+2
  4598   0004FA  C017  F0B1         	movff	?___flmul+3,atanf@w+3
  4599   0004FE  0E0D               	movlw	13
  4600   000500  6E31               	movwf	___fladd@a^0,c
  4601   000502  0EF5               	movlw	245
  4602   000504  6E32               	movwf	(___fladd@a+1)^0,c
  4603   000506  0E11               	movlw	17
  4604   000508  6E33               	movwf	(___fladd@a+2)^0,c
  4605   00050A  0E3E               	movlw	62
  4606   00050C  6E34               	movwf	(___fladd@a+3)^0,c
  4607   00050E  0E25               	movlw	37
  4608   000510  6E18               	movwf	___flmul@a^0,c
  4609   000512  0EAC               	movlw	172
  4610   000514  6E19               	movwf	(___flmul@a+1)^0,c
  4611   000516  0E7C               	movlw	124
  4612   000518  6E1A               	movwf	(___flmul@a+2)^0,c
  4613   00051A  0E3D               	movlw	61
  4614   00051C  6E1B               	movwf	(___flmul@a+3)^0,c
  4615   00051E  C0AE  F014         	movff	atanf@w,___flmul@b
  4616   000522  C0AF  F015         	movff	atanf@w+1,___flmul@b+1
  4617   000526  C0B0  F016         	movff	atanf@w+2,___flmul@b+2
  4618   00052A  C0B1  F017         	movff	atanf@w+3,___flmul@b+3
  4619   00052E  EC60  F009         	call	___flmul	;wreg free
  4620   000532  C014  F02D         	movff	?___flmul,___fladd@b
  4621   000536  C015  F02E         	movff	?___flmul+1,___fladd@b+1
  4622   00053A  C016  F02F         	movff	?___flmul+2,___fladd@b+2
  4623   00053E  C017  F030         	movff	?___flmul+3,___fladd@b+3
  4624   000542  EC05  F007         	call	___fladd	;wreg free
  4625   000546  C02D  F0A5         	movff	?___fladd,_atanf$1905
  4626   00054A  C02E  F0A6         	movff	?___fladd+1,_atanf$1905+1
  4627   00054E  C02F  F0A7         	movff	?___fladd+2,_atanf$1905+2
  4628   000552  C030  F0A8         	movff	?___fladd+3,_atanf$1905+3
  4629   000556  0EA9               	movlw	169
  4630   000558  6E31               	movwf	___fladd@a^0,c
  4631   00055A  0EAA               	movlw	170
  4632   00055C  6E32               	movwf	(___fladd@a+1)^0,c
  4633   00055E  0EAA               	movlw	170
  4634   000560  6E33               	movwf	(___fladd@a+2)^0,c
  4635   000562  0E3E               	movlw	62
  4636   000564  6E34               	movwf	(___fladd@a+3)^0,c
  4637   000566  C0AE  F018         	movff	atanf@w,___flmul@a
  4638   00056A  C0AF  F019         	movff	atanf@w+1,___flmul@a+1
  4639   00056E  C0B0  F01A         	movff	atanf@w+2,___flmul@a+2
  4640   000572  C0B1  F01B         	movff	atanf@w+3,___flmul@a+3
  4641   000576  C0A5  F014         	movff	_atanf$1905,___flmul@b
  4642   00057A  C0A6  F015         	movff	_atanf$1905+1,___flmul@b+1
  4643   00057E  C0A7  F016         	movff	_atanf$1905+2,___flmul@b+2
  4644   000582  C0A8  F017         	movff	_atanf$1905+3,___flmul@b+3
  4645   000586  EC60  F009         	call	___flmul	;wreg free
  4646   00058A  C014  F02D         	movff	?___flmul,___fladd@b
  4647   00058E  C015  F02E         	movff	?___flmul+1,___fladd@b+1
  4648   000592  C016  F02F         	movff	?___flmul+2,___fladd@b+2
  4649   000596  C017  F030         	movff	?___flmul+3,___fladd@b+3
  4650   00059A  EC05  F007         	call	___fladd	;wreg free
  4651   00059E  C02D  F091         	movff	?___fladd,_atanf$1906
  4652   0005A2  C02E  F092         	movff	?___fladd+1,_atanf$1906+1
  4653   0005A6  C02F  F093         	movff	?___fladd+2,_atanf$1906+2
  4654   0005AA  C030  F094         	movff	?___fladd+3,_atanf$1906+3
  4655   0005AE  C091  F014         	movff	_atanf$1906,___flmul@b
  4656   0005B2  C092  F015         	movff	_atanf$1906+1,___flmul@b+1
  4657   0005B6  C093  F016         	movff	_atanf$1906+2,___flmul@b+2
  4658   0005BA  C094  F017         	movff	_atanf$1906+3,___flmul@b+3
  4659   0005BE  C0B3  F018         	movff	atanf@z,___flmul@a
  4660   0005C2  C0B4  F019         	movff	atanf@z+1,___flmul@a+1
  4661   0005C6  C0B5  F01A         	movff	atanf@z+2,___flmul@a+2
  4662   0005CA  C0B6  F01B         	movff	atanf@z+3,___flmul@a+3
  4663   0005CE  EC60  F009         	call	___flmul	;wreg free
  4664   0005D2  C014  F09D         	movff	?___flmul,atanf@s1
  4665   0005D6  C015  F09E         	movff	?___flmul+1,atanf@s1+1
  4666   0005DA  C016  F09F         	movff	?___flmul+2,atanf@s1+2
  4667   0005DE  C017  F0A0         	movff	?___flmul+3,atanf@s1+3
  4668   0005E2  0E98               	movlw	152
  4669   0005E4  6E31               	movwf	___fladd@a^0,c
  4670   0005E6  0ECA               	movlw	202
  4671   0005E8  6E32               	movwf	(___fladd@a+1)^0,c
  4672   0005EA  0E4C               	movlw	76
  4673   0005EC  6E33               	movwf	(___fladd@a+2)^0,c
  4674   0005EE  0EBE               	movlw	190
  4675   0005F0  6E34               	movwf	(___fladd@a+3)^0,c
  4676   0005F2  0E47               	movlw	71
  4677   0005F4  6E18               	movwf	___flmul@a^0,c
  4678   0005F6  0E12               	movlw	18
  4679   0005F8  6E19               	movwf	(___flmul@a+1)^0,c
  4680   0005FA  0EDA               	movlw	218
  4681   0005FC  6E1A               	movwf	(___flmul@a+2)^0,c
  4682   0005FE  0EBD               	movlw	189
  4683   000600  6E1B               	movwf	(___flmul@a+3)^0,c
  4684   000602  C0AE  F014         	movff	atanf@w,___flmul@b
  4685   000606  C0AF  F015         	movff	atanf@w+1,___flmul@b+1
  4686   00060A  C0B0  F016         	movff	atanf@w+2,___flmul@b+2
  4687   00060E  C0B1  F017         	movff	atanf@w+3,___flmul@b+3
  4688   000612  EC60  F009         	call	___flmul	;wreg free
  4689   000616  C014  F02D         	movff	?___flmul,___fladd@b
  4690   00061A  C015  F02E         	movff	?___flmul+1,___fladd@b+1
  4691   00061E  C016  F02F         	movff	?___flmul+2,___fladd@b+2
  4692   000622  C017  F030         	movff	?___flmul+3,___fladd@b+3
  4693   000626  EC05  F007         	call	___fladd	;wreg free
  4694   00062A  C02D  F0A5         	movff	?___fladd,_atanf$1905
  4695   00062E  C02E  F0A6         	movff	?___fladd+1,_atanf$1905+1
  4696   000632  C02F  F0A7         	movff	?___fladd+2,_atanf$1905+2
  4697   000636  C030  F0A8         	movff	?___fladd+3,_atanf$1905+3
  4698   00063A  C0A5  F014         	movff	_atanf$1905,___flmul@b
  4699   00063E  C0A6  F015         	movff	_atanf$1905+1,___flmul@b+1
  4700   000642  C0A7  F016         	movff	_atanf$1905+2,___flmul@b+2
  4701   000646  C0A8  F017         	movff	_atanf$1905+3,___flmul@b+3
  4702   00064A  C0AE  F018         	movff	atanf@w,___flmul@a
  4703   00064E  C0AF  F019         	movff	atanf@w+1,___flmul@a+1
  4704   000652  C0B0  F01A         	movff	atanf@w+2,___flmul@a+2
  4705   000656  C0B1  F01B         	movff	atanf@w+3,___flmul@a+3
  4706   00065A  EC60  F009         	call	___flmul	;wreg free
  4707   00065E  C014  F0A1         	movff	?___flmul,atanf@s2
  4708   000662  C015  F0A2         	movff	?___flmul+1,atanf@s2+1
  4709   000666  C016  F0A3         	movff	?___flmul+2,atanf@s2+2
  4710   00066A  C017  F0A4         	movff	?___flmul+3,atanf@s2+3
  4711   00066E  0100               	movlb	0	; () banked
  4712   000670  BFB2               	btfsc	atanf@id& (0+255),7,b
  4713   000672  EF3F  F003         	goto	u4500
  4714   000676  EF3D  F003         	goto	u4501
  4715   00067A                     u4501:
  4716   00067A  EF87  F003         	goto	l3923
  4717   00067E                     u4500:
  4718   00067E                     
  4719                           ; BSR set to: 0
  4720   00067E  C08D  F018         	movff	atanf@x,___flmul@a
  4721   000682  C08E  F019         	movff	atanf@x+1,___flmul@a+1
  4722   000686  C08F  F01A         	movff	atanf@x+2,___flmul@a+2
  4723   00068A  C090  F01B         	movff	atanf@x+3,___flmul@a+3
  4724   00068E  C0A1  F031         	movff	atanf@s2,___fladd@a
  4725   000692  C0A2  F032         	movff	atanf@s2+1,___fladd@a+1
  4726   000696  C0A3  F033         	movff	atanf@s2+2,___fladd@a+2
  4727   00069A  C0A4  F034         	movff	atanf@s2+3,___fladd@a+3
  4728   00069E  C09D  F02D         	movff	atanf@s1,___fladd@b
  4729   0006A2  C09E  F02E         	movff	atanf@s1+1,___fladd@b+1
  4730   0006A6  C09F  F02F         	movff	atanf@s1+2,___fladd@b+2
  4731   0006AA  C0A0  F030         	movff	atanf@s1+3,___fladd@b+3
  4732   0006AE  EC05  F007         	call	___fladd	;wreg free
  4733   0006B2  C02D  F014         	movff	?___fladd,___flmul@b
  4734   0006B6  C02E  F015         	movff	?___fladd+1,___flmul@b+1
  4735   0006BA  C02F  F016         	movff	?___fladd+2,___flmul@b+2
  4736   0006BE  C030  F017         	movff	?___fladd+3,___flmul@b+3
  4737   0006C2  EC60  F009         	call	___flmul	;wreg free
  4738   0006C6  C014  F0A9         	movff	?___flmul,_atanf$1907
  4739   0006CA  C015  F0AA         	movff	?___flmul+1,_atanf$1907+1
  4740   0006CE  C016  F0AB         	movff	?___flmul+2,_atanf$1907+2
  4741   0006D2  C017  F0AC         	movff	?___flmul+3,_atanf$1907+3
  4742   0006D6  C08D  F03D         	movff	atanf@x,___flsub@b
  4743   0006DA  C08E  F03E         	movff	atanf@x+1,___flsub@b+1
  4744   0006DE  C08F  F03F         	movff	atanf@x+2,___flsub@b+2
  4745   0006E2  C090  F040         	movff	atanf@x+3,___flsub@b+3
  4746   0006E6  C0A9  F041         	movff	_atanf$1907,___flsub@a
  4747   0006EA  C0AA  F042         	movff	_atanf$1907+1,___flsub@a+1
  4748   0006EE  C0AB  F043         	movff	_atanf$1907+2,___flsub@a+2
  4749   0006F2  C0AC  F044         	movff	_atanf$1907+3,___flsub@a+3
  4750   0006F6  EC52  F013         	call	___flsub	;wreg free
  4751   0006FA  C03D  F08D         	movff	?___flsub,?_atanf
  4752   0006FE  C03E  F08E         	movff	?___flsub+1,?_atanf+1
  4753   000702  C03F  F08F         	movff	?___flsub+2,?_atanf+2
  4754   000706  C040  F090         	movff	?___flsub+3,?_atanf+3
  4755   00070A  EF26  F004         	goto	l1081
  4756   00070E                     l3923:
  4757                           
  4758                           ; BSR set to: 0
  4759   00070E  C08D  F018         	movff	atanf@x,___flmul@a
  4760   000712  C08E  F019         	movff	atanf@x+1,___flmul@a+1
  4761   000716  C08F  F01A         	movff	atanf@x+2,___flmul@a+2
  4762   00071A  C090  F01B         	movff	atanf@x+3,___flmul@a+3
  4763   00071E  C0A1  F031         	movff	atanf@s2,___fladd@a
  4764   000722  C0A2  F032         	movff	atanf@s2+1,___fladd@a+1
  4765   000726  C0A3  F033         	movff	atanf@s2+2,___fladd@a+2
  4766   00072A  C0A4  F034         	movff	atanf@s2+3,___fladd@a+3
  4767   00072E  C09D  F02D         	movff	atanf@s1,___fladd@b
  4768   000732  C09E  F02E         	movff	atanf@s1+1,___fladd@b+1
  4769   000736  C09F  F02F         	movff	atanf@s1+2,___fladd@b+2
  4770   00073A  C0A0  F030         	movff	atanf@s1+3,___fladd@b+3
  4771   00073E  EC05  F007         	call	___fladd	;wreg free
  4772   000742  C02D  F014         	movff	?___fladd,___flmul@b
  4773   000746  C02E  F015         	movff	?___fladd+1,___flmul@b+1
  4774   00074A  C02F  F016         	movff	?___fladd+2,___flmul@b+2
  4775   00074E  C030  F017         	movff	?___fladd+3,___flmul@b+3
  4776   000752  EC60  F009         	call	___flmul	;wreg free
  4777   000756  C014  F0A9         	movff	?___flmul,_atanf$1907
  4778   00075A  C015  F0AA         	movff	?___flmul+1,_atanf$1907+1
  4779   00075E  C016  F0AB         	movff	?___flmul+2,_atanf$1907+2
  4780   000762  C017  F0AC         	movff	?___flmul+3,_atanf$1907+3
  4781   000766  0100               	movlb	0	; () banked
  4782   000768  51B2               	movf	atanf@id& (0+255),w,b
  4783   00076A  0D04               	mullw	4
  4784   00076C  0EEF               	movlw	low _atanlo
  4785   00076E  24F3               	addwf	243,w,c
  4786   000770  6EF6               	movwf	tblptrl,c
  4787   000772  0E7C               	movlw	high _atanlo
  4788   000774  20F4               	addwfc	244,w,c
  4789   000776  6EF7               	movwf	tblptrh,c
  4790   000778                     	if	0	;There are less than 3 active tblptr bytes
  4791   000778                     	endif
  4792   000778  0009               	tblrd		*+
  4793   00077A  CFF5 F041          	movff	tablat,___flsub@a
  4794   00077E  0009               	tblrd		*+
  4795   000780  CFF5 F042          	movff	tablat,___flsub@a+1
  4796   000784  0009               	tblrd		*+
  4797   000786  CFF5 F043          	movff	tablat,___flsub@a+2
  4798   00078A  000A               	tblrd		*-
  4799   00078C  CFF5 F044          	movff	tablat,___flsub@a+3
  4800   000790  C0A9  F03D         	movff	_atanf$1907,___flsub@b
  4801   000794  C0AA  F03E         	movff	_atanf$1907+1,___flsub@b+1
  4802   000798  C0AB  F03F         	movff	_atanf$1907+2,___flsub@b+2
  4803   00079C  C0AC  F040         	movff	_atanf$1907+3,___flsub@b+3
  4804   0007A0  EC52  F013         	call	___flsub	;wreg free
  4805   0007A4  C03D  F095         	movff	?___flsub,_atanf$1908
  4806   0007A8  C03E  F096         	movff	?___flsub+1,_atanf$1908+1
  4807   0007AC  C03F  F097         	movff	?___flsub+2,_atanf$1908+2
  4808   0007B0  C040  F098         	movff	?___flsub+3,_atanf$1908+3
  4809   0007B4  C08D  F041         	movff	atanf@x,___flsub@a
  4810   0007B8  C08E  F042         	movff	atanf@x+1,___flsub@a+1
  4811   0007BC  C08F  F043         	movff	atanf@x+2,___flsub@a+2
  4812   0007C0  C090  F044         	movff	atanf@x+3,___flsub@a+3
  4813   0007C4  C095  F03D         	movff	_atanf$1908,___flsub@b
  4814   0007C8  C096  F03E         	movff	_atanf$1908+1,___flsub@b+1
  4815   0007CC  C097  F03F         	movff	_atanf$1908+2,___flsub@b+2
  4816   0007D0  C098  F040         	movff	_atanf$1908+3,___flsub@b+3
  4817   0007D4  EC52  F013         	call	___flsub	;wreg free
  4818   0007D8  C03D  F099         	movff	?___flsub,_atanf$1909
  4819   0007DC  C03E  F09A         	movff	?___flsub+1,_atanf$1909+1
  4820   0007E0  C03F  F09B         	movff	?___flsub+2,_atanf$1909+2
  4821   0007E4  C040  F09C         	movff	?___flsub+3,_atanf$1909+3
  4822   0007E8  0100               	movlb	0	; () banked
  4823   0007EA  51B2               	movf	atanf@id& (0+255),w,b
  4824   0007EC  0D04               	mullw	4
  4825   0007EE  0EFF               	movlw	low _atanhi
  4826   0007F0  24F3               	addwf	243,w,c
  4827   0007F2  6EF6               	movwf	tblptrl,c
  4828   0007F4  0E7C               	movlw	high _atanhi
  4829   0007F6  20F4               	addwfc	244,w,c
  4830   0007F8  6EF7               	movwf	tblptrh,c
  4831   0007FA                     	if	0	;There are less than 3 active tblptr bytes
  4832   0007FA                     	endif
  4833   0007FA  0009               	tblrd		*+
  4834   0007FC  CFF5 F03D          	movff	tablat,___flsub@b
  4835   000800  0009               	tblrd		*+
  4836   000802  CFF5 F03E          	movff	tablat,___flsub@b+1
  4837   000806  0009               	tblrd		*+
  4838   000808  CFF5 F03F          	movff	tablat,___flsub@b+2
  4839   00080C  000A               	tblrd		*-
  4840   00080E  CFF5 F040          	movff	tablat,___flsub@b+3
  4841   000812  C099  F041         	movff	_atanf$1909,___flsub@a
  4842   000816  C09A  F042         	movff	_atanf$1909+1,___flsub@a+1
  4843   00081A  C09B  F043         	movff	_atanf$1909+2,___flsub@a+2
  4844   00081E  C09C  F044         	movff	_atanf$1909+3,___flsub@a+3
  4845   000822  EC52  F013         	call	___flsub	;wreg free
  4846   000826  C03D  F0B3         	movff	?___flsub,atanf@z
  4847   00082A  C03E  F0B4         	movff	?___flsub+1,atanf@z+1
  4848   00082E  C03F  F0B5         	movff	?___flsub+2,atanf@z+2
  4849   000832  C040  F0B6         	movff	?___flsub+3,atanf@z+3
  4850   000836  0100               	movlb	0	; () banked
  4851   000838  51AD               	movf	atanf@sign& (0+255),w,b
  4852   00083A  A4D8               	btfss	status,2,c
  4853   00083C  EF22  F004         	goto	u4511
  4854   000840  EF24  F004         	goto	u4510
  4855   000844                     u4511:
  4856   000844  EFE3  F000         	goto	l3867
  4857   000848                     u4510:
  4858   000848  EFD9  F000         	goto	l3865
  4859   00084C                     l1081:
  4860   00084C  0012               	return		;funcret
  4861   00084E                     __end_of_atanf:
  4862                           	callstack 0
  4863                           
  4864 ;; *************** function _fabsf *****************
  4865 ;; Defined at:
  4866 ;;		line 4 in file "C:\Program Files\Microchip\xc8\v2.50\pic\sources\c99\common\fabsf.c"
  4867 ;; Parameters:    Size  Location     Type
  4868 ;;  x               4  109[COMRAM] float 
  4869 ;; Auto vars:     Size  Location     Type
  4870 ;;  u               4  113[COMRAM] struct .
  4871 ;; Return value:  Size  Location     Type
  4872 ;;                  4  109[COMRAM] float 
  4873 ;; Registers used:
  4874 ;;		status,2, status,0
  4875 ;; Tracked objects:
  4876 ;;		On entry : 0/0
  4877 ;;		On exit  : 0/0
  4878 ;;		Unchanged: 0/0
  4879 ;; Data sizes:     COMRAM   BANK0   BANK1   BANK2   BANK3   BANK4   BANK5
  4880 ;;      Params:         4       0       0       0       0       0       0
  4881 ;;      Locals:         4       0       0       0       0       0       0
  4882 ;;      Temps:          0       0       0       0       0       0       0
  4883 ;;      Totals:         8       0       0       0       0       0       0
  4884 ;;Total ram usage:        8 bytes
  4885 ;; Hardware stack levels used: 1
  4886 ;; Hardware stack levels required when called: 1
  4887 ;; This function calls:
  4888 ;;		Nothing
  4889 ;; This function is called by:
  4890 ;;		_atan2f
  4891 ;;		_atanf
  4892 ;; This function uses a non-reentrant model
  4893 ;;
  4894                           
  4895                           	psect	text14
  4896   0027DA                     __ptext14:
  4897                           	callstack 0
  4898   0027DA                     _fabsf:
  4899                           	callstack 24
  4900   0027DA  C114  F072         	movff	fabsf@F465,fabsf@u
  4901   0027DE  C115  F073         	movff	fabsf@F465+1,fabsf@u+1
  4902   0027E2  C116  F074         	movff	fabsf@F465+2,fabsf@u+2
  4903   0027E6  C117  F075         	movff	fabsf@F465+3,fabsf@u+3
  4904   0027EA  C06E  F072         	movff	fabsf@x,fabsf@u
  4905   0027EE  C06F  F073         	movff	fabsf@x+1,fabsf@u+1
  4906   0027F2  C070  F074         	movff	fabsf@x+2,fabsf@u+2
  4907   0027F6  C071  F075         	movff	fabsf@x+3,fabsf@u+3
  4908   0027FA  9E75               	bcf	(fabsf@u+3)^0,7,c
  4909   0027FC  C072  F06E         	movff	fabsf@u,?_fabsf
  4910   002800  C073  F06F         	movff	fabsf@u+1,?_fabsf+1
  4911   002804  C074  F070         	movff	fabsf@u+2,?_fabsf+2
  4912   002808  C075  F071         	movff	fabsf@u+3,?_fabsf+3
  4913   00280C  0012               	return		;funcret
  4914   00280E                     __end_of_fabsf:
  4915                           	callstack 0
  4916                           
  4917 ;; *************** function ___fpclassifyf *****************
  4918 ;; Defined at:
  4919 ;;		line 4 in file "C:\Program Files\Microchip\xc8\v2.50\pic\sources\c99\common\__fpclassifyf.c"
  4920 ;; Parameters:    Size  Location     Type
  4921 ;;  x               4    5[COMRAM] float 
  4922 ;; Auto vars:     Size  Location     Type
  4923 ;;  u               4   15[COMRAM] struct .
  4924 ;;  e               2   13[COMRAM] int 
  4925 ;; Return value:  Size  Location     Type
  4926 ;;                  2    5[COMRAM] int 
  4927 ;; Registers used:
  4928 ;;		wreg, status,2, status,0
  4929 ;; Tracked objects:
  4930 ;;		On entry : 0/0
  4931 ;;		On exit  : 0/0
  4932 ;;		Unchanged: 0/0
  4933 ;; Data sizes:     COMRAM   BANK0   BANK1   BANK2   BANK3   BANK4   BANK5
  4934 ;;      Params:         4       0       0       0       0       0       0
  4935 ;;      Locals:         6       0       0       0       0       0       0
  4936 ;;      Temps:          4       0       0       0       0       0       0
  4937 ;;      Totals:        14       0       0       0       0       0       0
  4938 ;;Total ram usage:       14 bytes
  4939 ;; Hardware stack levels used: 1
  4940 ;; Hardware stack levels required when called: 1
  4941 ;; This function calls:
  4942 ;;		Nothing
  4943 ;; This function is called by:
  4944 ;;		_atan2f
  4945 ;;		_atanf
  4946 ;; This function uses a non-reentrant model
  4947 ;;
  4948                           
  4949                           	psect	text15
  4950   00243C                     __ptext15:
  4951                           	callstack 0
  4952   00243C                     ___fpclassifyf:
  4953                           	callstack 23
  4954   00243C  C118  F010         	movff	___fpclassifyf@F465,___fpclassifyf@u
  4955   002440  C119  F011         	movff	___fpclassifyf@F465+1,___fpclassifyf@u+1
  4956   002444  C11A  F012         	movff	___fpclassifyf@F465+2,___fpclassifyf@u+2
  4957   002448  C11B  F013         	movff	___fpclassifyf@F465+3,___fpclassifyf@u+3
  4958   00244C  C006  F010         	movff	___fpclassifyf@x,___fpclassifyf@u
  4959   002450  C007  F011         	movff	___fpclassifyf@x+1,___fpclassifyf@u+1
  4960   002454  C008  F012         	movff	___fpclassifyf@x+2,___fpclassifyf@u+2
  4961   002458  C009  F013         	movff	___fpclassifyf@x+3,___fpclassifyf@u+3
  4962   00245C  C010  F00A         	movff	___fpclassifyf@u,??___fpclassifyf
  4963   002460  C011  F00B         	movff	___fpclassifyf@u+1,??___fpclassifyf+1
  4964   002464  C012  F00C         	movff	___fpclassifyf@u+2,??___fpclassifyf+2
  4965   002468  C013  F00D         	movff	___fpclassifyf@u+3,??___fpclassifyf+3
  4966   00246C  0E18               	movlw	24
  4967   00246E  EF3E  F012         	goto	u4330
  4968   002472                     u4335:
  4969   002472  90D8               	bcf	status,0,c
  4970   002474  320D               	rrcf	(??___fpclassifyf+3)^0,f,c
  4971   002476  320C               	rrcf	(??___fpclassifyf+2)^0,f,c
  4972   002478  320B               	rrcf	(??___fpclassifyf+1)^0,f,c
  4973   00247A  320A               	rrcf	??___fpclassifyf^0,f,c
  4974   00247C                     u4330:
  4975   00247C  2EE8               	decfsz	wreg,f,c
  4976   00247E  EF39  F012         	goto	u4335
  4977   002482  500A               	movf	??___fpclassifyf^0,w,c
  4978   002484  6E0E               	movwf	___fpclassifyf@e^0,c
  4979   002486  6A0F               	clrf	(___fpclassifyf@e+1)^0,c
  4980   002488  500E               	movf	___fpclassifyf@e^0,w,c
  4981   00248A  100F               	iorwf	(___fpclassifyf@e+1)^0,w,c
  4982   00248C  A4D8               	btfss	status,2,c
  4983   00248E  EF4B  F012         	goto	u4341
  4984   002492  EF4D  F012         	goto	u4340
  4985   002496                     u4341:
  4986   002496  EF6D  F012         	goto	l3831
  4987   00249A                     u4340:
  4988   00249A  90D8               	bcf	status,0,c
  4989   00249C  3410               	rlcf	___fpclassifyf@u^0,w,c
  4990   00249E  6E0A               	movwf	??___fpclassifyf^0,c
  4991   0024A0  3411               	rlcf	(___fpclassifyf@u+1)^0,w,c
  4992   0024A2  6E0B               	movwf	(??___fpclassifyf+1)^0,c
  4993   0024A4  3412               	rlcf	(___fpclassifyf@u+2)^0,w,c
  4994   0024A6  6E0C               	movwf	(??___fpclassifyf+2)^0,c
  4995   0024A8  3413               	rlcf	(___fpclassifyf@u+3)^0,w,c
  4996   0024AA  6E0D               	movwf	(??___fpclassifyf+3)^0,c
  4997   0024AC  500A               	movf	??___fpclassifyf^0,w,c
  4998   0024AE  100B               	iorwf	(??___fpclassifyf+1)^0,w,c
  4999   0024B0  100C               	iorwf	(??___fpclassifyf+2)^0,w,c
  5000   0024B2  100D               	iorwf	(??___fpclassifyf+3)^0,w,c
  5001   0024B4  A4D8               	btfss	status,2,c
  5002   0024B6  EF5F  F012         	goto	u4351
  5003   0024BA  EF61  F012         	goto	u4350
  5004   0024BE                     u4351:
  5005   0024BE  EF67  F012         	goto	l3827
  5006   0024C2                     u4350:
  5007   0024C2  0E00               	movlw	0
  5008   0024C4  6E07               	movwf	(?___fpclassifyf+1)^0,c
  5009   0024C6  0E02               	movlw	2
  5010   0024C8  6E06               	movwf	?___fpclassifyf^0,c
  5011   0024CA  EF9C  F012         	goto	l1057
  5012   0024CE                     l3827:
  5013   0024CE  0E00               	movlw	0
  5014   0024D0  6E07               	movwf	(?___fpclassifyf+1)^0,c
  5015   0024D2  0E03               	movlw	3
  5016   0024D4  6E06               	movwf	?___fpclassifyf^0,c
  5017   0024D6  EF9C  F012         	goto	l1057
  5018   0024DA                     l3831:
  5019   0024DA  280E               	incf	___fpclassifyf@e^0,w,c
  5020   0024DC  100F               	iorwf	(___fpclassifyf@e+1)^0,w,c
  5021   0024DE  A4D8               	btfss	status,2,c
  5022   0024E0  EF74  F012         	goto	u4361
  5023   0024E4  EF76  F012         	goto	u4360
  5024   0024E8                     u4361:
  5025   0024E8  EF98  F012         	goto	l3837
  5026   0024EC                     u4360:
  5027   0024EC  C010  F00A         	movff	___fpclassifyf@u,??___fpclassifyf
  5028   0024F0  C011  F00B         	movff	___fpclassifyf@u+1,??___fpclassifyf+1
  5029   0024F4  C012  F00C         	movff	___fpclassifyf@u+2,??___fpclassifyf+2
  5030   0024F8  C013  F00D         	movff	___fpclassifyf@u+3,??___fpclassifyf+3
  5031   0024FC  0E09               	movlw	9
  5032   0024FE                     u4375:
  5033   0024FE  90D8               	bcf	status,0,c
  5034   002500  360A               	rlcf	??___fpclassifyf^0,f,c
  5035   002502  360B               	rlcf	(??___fpclassifyf+1)^0,f,c
  5036   002504  360C               	rlcf	(??___fpclassifyf+2)^0,f,c
  5037   002506  360D               	rlcf	(??___fpclassifyf+3)^0,f,c
  5038   002508  2EE8               	decfsz	wreg,f,c
  5039   00250A  EF7F  F012         	goto	u4375
  5040   00250E  500A               	movf	??___fpclassifyf^0,w,c
  5041   002510  100B               	iorwf	(??___fpclassifyf+1)^0,w,c
  5042   002512  100C               	iorwf	(??___fpclassifyf+2)^0,w,c
  5043   002514  100D               	iorwf	(??___fpclassifyf+3)^0,w,c
  5044   002516  B4D8               	btfsc	status,2,c
  5045   002518  EF90  F012         	goto	u4381
  5046   00251C  EF93  F012         	goto	u4380
  5047   002520                     u4381:
  5048   002520  0E01               	movlw	1
  5049   002522  EF94  F012         	goto	u4390
  5050   002526                     u4380:
  5051   002526  0E00               	movlw	0
  5052   002528                     u4390:
  5053   002528  6E06               	movwf	?___fpclassifyf^0,c
  5054   00252A  6A07               	clrf	(?___fpclassifyf+1)^0,c
  5055   00252C  EF9C  F012         	goto	l1057
  5056   002530                     l3837:
  5057   002530  0E00               	movlw	0
  5058   002532  6E07               	movwf	(?___fpclassifyf+1)^0,c
  5059   002534  0E04               	movlw	4
  5060   002536  6E06               	movwf	?___fpclassifyf^0,c
  5061   002538                     l1057:
  5062   002538  0012               	return		;funcret
  5063   00253A                     __end_of___fpclassifyf:
  5064                           	callstack 0
  5065                           
  5066 ;; *************** function ___flsub *****************
  5067 ;; Defined at:
  5068 ;;		line 245 in file "C:\Program Files\Microchip\xc8\v2.50\pic\sources\c99\common\sprcadd.c"
  5069 ;; Parameters:    Size  Location     Type
  5070 ;;  b               4   60[COMRAM] int 
  5071 ;;  a               4   64[COMRAM] int 
  5072 ;; Auto vars:     Size  Location     Type
  5073 ;;		None
  5074 ;; Return value:  Size  Location     Type
  5075 ;;                  4   60[COMRAM] int 
  5076 ;; Registers used:
  5077 ;;		wreg, status,2, status,0, cstack
  5078 ;; Tracked objects:
  5079 ;;		On entry : 0/0
  5080 ;;		On exit  : 0/0
  5081 ;;		Unchanged: 0/0
  5082 ;; Data sizes:     COMRAM   BANK0   BANK1   BANK2   BANK3   BANK4   BANK5
  5083 ;;      Params:         8       0       0       0       0       0       0
  5084 ;;      Locals:         0       0       0       0       0       0       0
  5085 ;;      Temps:          0       0       0       0       0       0       0
  5086 ;;      Totals:         8       0       0       0       0       0       0
  5087 ;;Total ram usage:        8 bytes
  5088 ;; Hardware stack levels used: 1
  5089 ;; Hardware stack levels required when called: 2
  5090 ;; This function calls:
  5091 ;;		___fladd
  5092 ;; This function is called by:
  5093 ;;		_Check_Gyroscope
  5094 ;;		_atan2f
  5095 ;;		_atanf
  5096 ;; This function uses a non-reentrant model
  5097 ;;
  5098                           
  5099                           	psect	text16
  5100   0026A4                     __ptext16:
  5101                           	callstack 0
  5102   0026A4                     ___flsub:
  5103                           	callstack 22
  5104   0026A4  0E00               	movlw	0
  5105   0026A6  1A41               	xorwf	___flsub@a^0,f,c
  5106   0026A8  0E00               	movlw	0
  5107   0026AA  1A42               	xorwf	(___flsub@a+1)^0,f,c
  5108   0026AC  0E00               	movlw	0
  5109   0026AE  1A43               	xorwf	(___flsub@a+2)^0,f,c
  5110   0026B0  0E80               	movlw	128
  5111   0026B2  1A44               	xorwf	(___flsub@a+3)^0,f,c
  5112   0026B4  C03D  F02D         	movff	___flsub@b,___fladd@b
  5113   0026B8  C03E  F02E         	movff	___flsub@b+1,___fladd@b+1
  5114   0026BC  C03F  F02F         	movff	___flsub@b+2,___fladd@b+2
  5115   0026C0  C040  F030         	movff	___flsub@b+3,___fladd@b+3
  5116   0026C4  C041  F031         	movff	___flsub@a,___fladd@a
  5117   0026C8  C042  F032         	movff	___flsub@a+1,___fladd@a+1
  5118   0026CC  C043  F033         	movff	___flsub@a+2,___fladd@a+2
  5119   0026D0  C044  F034         	movff	___flsub@a+3,___fladd@a+3
  5120   0026D4  EC05  F007         	call	___fladd	;wreg free
  5121   0026D8  C02D  F03D         	movff	?___fladd,?___flsub
  5122   0026DC  C02E  F03E         	movff	?___fladd+1,?___flsub+1
  5123   0026E0  C02F  F03F         	movff	?___fladd+2,?___flsub+2
  5124   0026E4  C030  F040         	movff	?___fladd+3,?___flsub+3
  5125   0026E8  0012               	return		;funcret
  5126   0026EA                     __end_of___flsub:
  5127                           	callstack 0
  5128                           
  5129 ;; *************** function ___fladd *****************
  5130 ;; Defined at:
  5131 ;;		line 10 in file "C:\Program Files\Microchip\xc8\v2.50\pic\sources\c99\common\sprcadd.c"
  5132 ;; Parameters:    Size  Location     Type
  5133 ;;  b               4   44[COMRAM] int 
  5134 ;;  a               4   48[COMRAM] int 
  5135 ;; Auto vars:     Size  Location     Type
  5136 ;;  grs             1   59[COMRAM] unsigned char 
  5137 ;;  bexp            1   58[COMRAM] unsigned char 
  5138 ;;  aexp            1   57[COMRAM] unsigned char 
  5139 ;;  signs           1   56[COMRAM] unsigned char 
  5140 ;; Return value:  Size  Location     Type
  5141 ;;                  4   44[COMRAM] unsigned char 
  5142 ;; Registers used:
  5143 ;;		wreg, status,2, status,0
  5144 ;; Tracked objects:
  5145 ;;		On entry : 0/0
  5146 ;;		On exit  : 0/0
  5147 ;;		Unchanged: 0/0
  5148 ;; Data sizes:     COMRAM   BANK0   BANK1   BANK2   BANK3   BANK4   BANK5
  5149 ;;      Params:         8       0       0       0       0       0       0
  5150 ;;      Locals:         4       0       0       0       0       0       0
  5151 ;;      Temps:          4       0       0       0       0       0       0
  5152 ;;      Totals:        16       0       0       0       0       0       0
  5153 ;;Total ram usage:       16 bytes
  5154 ;; Hardware stack levels used: 1
  5155 ;; Hardware stack levels required when called: 1
  5156 ;; This function calls:
  5157 ;;		Nothing
  5158 ;; This function is called by:
  5159 ;;		_calculate_angle
  5160 ;;		___flsub
  5161 ;;		_atan2f
  5162 ;;		_atanf
  5163 ;; This function uses a non-reentrant model
  5164 ;;
  5165                           
  5166                           	psect	text17
  5167   000E0A                     __ptext17:
  5168                           	callstack 0
  5169   000E0A                     ___fladd:
  5170                           	callstack 22
  5171   000E0A  5030               	movf	(___fladd@b+3)^0,w,c
  5172   000E0C  0B80               	andlw	128
  5173   000E0E  6E39               	movwf	___fladd@signs^0,c
  5174   000E10  5030               	movf	(___fladd@b+3)^0,w,c
  5175   000E12  2430               	addwf	(___fladd@b+3)^0,w,c
  5176   000E14  6E3B               	movwf	___fladd@bexp^0,c
  5177   000E16  AE2F               	btfss	(___fladd@b+2)^0,7,c
  5178   000E18  EF10  F007         	goto	u3511
  5179   000E1C  EF12  F007         	goto	u3510
  5180   000E20                     u3511:
  5181   000E20  EF13  F007         	goto	l3353
  5182   000E24                     u3510:
  5183   000E24  803B               	bsf	___fladd@bexp^0,0,c
  5184   000E26                     l3353:
  5185   000E26  503B               	movf	___fladd@bexp^0,w,c
  5186   000E28  B4D8               	btfsc	status,2,c
  5187   000E2A  EF19  F007         	goto	u3521
  5188   000E2E  EF1B  F007         	goto	u3520
  5189   000E32                     u3521:
  5190   000E32  EF2F  F007         	goto	l3363
  5191   000E36                     u3520:
  5192   000E36  283B               	incf	___fladd@bexp^0,w,c
  5193   000E38  A4D8               	btfss	status,2,c
  5194   000E3A  EF21  F007         	goto	u3531
  5195   000E3E  EF23  F007         	goto	u3530
  5196   000E42                     u3531:
  5197   000E42  EF2B  F007         	goto	l3359
  5198   000E46                     u3530:
  5199   000E46  0E00               	movlw	0
  5200   000E48  6E2D               	movwf	___fladd@b^0,c
  5201   000E4A  0E00               	movlw	0
  5202   000E4C  6E2E               	movwf	(___fladd@b+1)^0,c
  5203   000E4E  0E00               	movlw	0
  5204   000E50  6E2F               	movwf	(___fladd@b+2)^0,c
  5205   000E52  0E00               	movlw	0
  5206   000E54  6E30               	movwf	(___fladd@b+3)^0,c
  5207   000E56                     l3359:
  5208   000E56  8E2F               	bsf	(___fladd@b+2)^0,7,c
  5209   000E58  6A30               	clrf	(___fladd@b+3)^0,c
  5210   000E5A  EF37  F007         	goto	l3365
  5211   000E5E                     l3363:
  5212   000E5E  0E00               	movlw	0
  5213   000E60  6E2D               	movwf	___fladd@b^0,c
  5214   000E62  0E00               	movlw	0
  5215   000E64  6E2E               	movwf	(___fladd@b+1)^0,c
  5216   000E66  0E00               	movlw	0
  5217   000E68  6E2F               	movwf	(___fladd@b+2)^0,c
  5218   000E6A  0E00               	movlw	0
  5219   000E6C  6E30               	movwf	(___fladd@b+3)^0,c
  5220   000E6E                     l3365:
  5221   000E6E  5034               	movf	(___fladd@a+3)^0,w,c
  5222   000E70  0B80               	andlw	128
  5223   000E72  6E3A               	movwf	___fladd@aexp^0,c
  5224   000E74  5039               	movf	___fladd@signs^0,w,c
  5225   000E76  183A               	xorwf	___fladd@aexp^0,w,c
  5226   000E78  B4D8               	btfsc	status,2,c
  5227   000E7A  EF41  F007         	goto	u3541
  5228   000E7E  EF43  F007         	goto	u3540
  5229   000E82                     u3541:
  5230   000E82  EF44  F007         	goto	l3371
  5231   000E86                     u3540:
  5232   000E86  8C39               	bsf	___fladd@signs^0,6,c
  5233   000E88                     l3371:
  5234   000E88  5034               	movf	(___fladd@a+3)^0,w,c
  5235   000E8A  2434               	addwf	(___fladd@a+3)^0,w,c
  5236   000E8C  6E3A               	movwf	___fladd@aexp^0,c
  5237   000E8E  AE33               	btfss	(___fladd@a+2)^0,7,c
  5238   000E90  EF4C  F007         	goto	u3551
  5239   000E94  EF4E  F007         	goto	u3550
  5240   000E98                     u3551:
  5241   000E98  EF4F  F007         	goto	l3377
  5242   000E9C                     u3550:
  5243   000E9C  803A               	bsf	___fladd@aexp^0,0,c
  5244   000E9E                     l3377:
  5245   000E9E  503A               	movf	___fladd@aexp^0,w,c
  5246   000EA0  B4D8               	btfsc	status,2,c
  5247   000EA2  EF55  F007         	goto	u3561
  5248   000EA6  EF57  F007         	goto	u3560
  5249   000EAA                     u3561:
  5250   000EAA  EF6B  F007         	goto	l3387
  5251   000EAE                     u3560:
  5252   000EAE  283A               	incf	___fladd@aexp^0,w,c
  5253   000EB0  A4D8               	btfss	status,2,c
  5254   000EB2  EF5D  F007         	goto	u3571
  5255   000EB6  EF5F  F007         	goto	u3570
  5256   000EBA                     u3571:
  5257   000EBA  EF67  F007         	goto	l3383
  5258   000EBE                     u3570:
  5259   000EBE  0E00               	movlw	0
  5260   000EC0  6E31               	movwf	___fladd@a^0,c
  5261   000EC2  0E00               	movlw	0
  5262   000EC4  6E32               	movwf	(___fladd@a+1)^0,c
  5263   000EC6  0E00               	movlw	0
  5264   000EC8  6E33               	movwf	(___fladd@a+2)^0,c
  5265   000ECA  0E00               	movlw	0
  5266   000ECC  6E34               	movwf	(___fladd@a+3)^0,c
  5267   000ECE                     l3383:
  5268   000ECE  8E33               	bsf	(___fladd@a+2)^0,7,c
  5269   000ED0  6A34               	clrf	(___fladd@a+3)^0,c
  5270   000ED2  EF73  F007         	goto	l3389
  5271   000ED6                     l3387:
  5272   000ED6  0E00               	movlw	0
  5273   000ED8  6E31               	movwf	___fladd@a^0,c
  5274   000EDA  0E00               	movlw	0
  5275   000EDC  6E32               	movwf	(___fladd@a+1)^0,c
  5276   000EDE  0E00               	movlw	0
  5277   000EE0  6E33               	movwf	(___fladd@a+2)^0,c
  5278   000EE2  0E00               	movlw	0
  5279   000EE4  6E34               	movwf	(___fladd@a+3)^0,c
  5280   000EE6                     l3389:
  5281   000EE6  503B               	movf	___fladd@bexp^0,w,c
  5282   000EE8  5C3A               	subwf	___fladd@aexp^0,w,c
  5283   000EEA  B0D8               	btfsc	status,0,c
  5284   000EEC  EF7A  F007         	goto	u3581
  5285   000EF0  EF7C  F007         	goto	u3580
  5286   000EF4                     u3581:
  5287   000EF4  EFA3  F007         	goto	l3425
  5288   000EF8                     u3580:
  5289   000EF8  AC39               	btfss	___fladd@signs^0,6,c
  5290   000EFA  EF81  F007         	goto	u3591
  5291   000EFE  EF83  F007         	goto	u3590
  5292   000F02                     u3591:
  5293   000F02  EF85  F007         	goto	l3395
  5294   000F06                     u3590:
  5295   000F06  0E80               	movlw	128
  5296   000F08  1A39               	xorwf	___fladd@signs^0,f,c
  5297   000F0A                     l3395:
  5298   000F0A  C03B  F03C         	movff	___fladd@bexp,___fladd@grs
  5299   000F0E  C03A  F03B         	movff	___fladd@aexp,___fladd@bexp
  5300   000F12  C03C  F03A         	movff	___fladd@grs,___fladd@aexp
  5301   000F16  C02D  F03C         	movff	___fladd@b,___fladd@grs
  5302   000F1A  C031  F02D         	movff	___fladd@a,___fladd@b
  5303   000F1E  C03C  F031         	movff	___fladd@grs,___fladd@a
  5304   000F22  C02E  F03C         	movff	___fladd@b+1,___fladd@grs
  5305   000F26  C032  F02E         	movff	___fladd@a+1,___fladd@b+1
  5306   000F2A  C03C  F032         	movff	___fladd@grs,___fladd@a+1
  5307   000F2E  C02F  F03C         	movff	___fladd@b+2,___fladd@grs
  5308   000F32  C033  F02F         	movff	___fladd@a+2,___fladd@b+2
  5309   000F36  C03C  F033         	movff	___fladd@grs,___fladd@a+2
  5310   000F3A  C030  F03C         	movff	___fladd@b+3,___fladd@grs
  5311   000F3E  C034  F030         	movff	___fladd@a+3,___fladd@b+3
  5312   000F42  C03C  F034         	movff	___fladd@grs,___fladd@a+3
  5313   000F46                     l3425:
  5314   000F46  6A3C               	clrf	___fladd@grs^0,c
  5315   000F48  503B               	movf	___fladd@bexp^0,w,c
  5316   000F4A  C03A  F035         	movff	___fladd@aexp,??___fladd
  5317   000F4E  6A36               	clrf	(??___fladd+1)^0,c
  5318   000F50  5E35               	subwf	??___fladd^0,f,c
  5319   000F52  0E00               	movlw	0
  5320   000F54  5A36               	subwfb	(??___fladd+1)^0,f,c
  5321   000F56  BE36               	btfsc	(??___fladd+1)^0,7,c
  5322   000F58  EFB7  F007         	goto	u3601
  5323   000F5C  5036               	movf	(??___fladd+1)^0,w,c
  5324   000F5E  E109               	bnz	u3600
  5325   000F60  0E1A               	movlw	26
  5326   000F62  5C35               	subwf	??___fladd^0,w,c
  5327   000F64  A0D8               	btfss	status,0,c
  5328   000F66  EFB7  F007         	goto	u3601
  5329   000F6A  EFB9  F007         	goto	u3600
  5330   000F6E                     u3601:
  5331   000F6E  EFF0  F007         	goto	l846
  5332   000F72                     u3600:
  5333   000F72  502D               	movf	___fladd@b^0,w,c
  5334   000F74  102E               	iorwf	(___fladd@b+1)^0,w,c
  5335   000F76  102F               	iorwf	(___fladd@b+2)^0,w,c
  5336   000F78  1030               	iorwf	(___fladd@b+3)^0,w,c
  5337   000F7A  A4D8               	btfss	status,2,c
  5338   000F7C  EFC2  F007         	goto	u3611
  5339   000F80  EFC5  F007         	goto	u3610
  5340   000F84                     u3611:
  5341   000F84  0E01               	movlw	1
  5342   000F86  EFC6  F007         	goto	u3620
  5343   000F8A                     u3610:
  5344   000F8A  0E00               	movlw	0
  5345   000F8C                     u3620:
  5346   000F8C  6E3C               	movwf	___fladd@grs^0,c
  5347   000F8E  0E00               	movlw	0
  5348   000F90  6E2D               	movwf	___fladd@b^0,c
  5349   000F92  0E00               	movlw	0
  5350   000F94  6E2E               	movwf	(___fladd@b+1)^0,c
  5351   000F96  0E00               	movlw	0
  5352   000F98  6E2F               	movwf	(___fladd@b+2)^0,c
  5353   000F9A  0E00               	movlw	0
  5354   000F9C  6E30               	movwf	(___fladd@b+3)^0,c
  5355   000F9E  C03A  F03B         	movff	___fladd@aexp,___fladd@bexp
  5356   000FA2  EFF9  F007         	goto	l845
  5357   000FA6                     l847:
  5358   000FA6  A03C               	btfss	___fladd@grs^0,0,c
  5359   000FA8  EFD8  F007         	goto	u3631
  5360   000FAC  EFDA  F007         	goto	u3630
  5361   000FB0                     u3631:
  5362   000FB0  EFE0  F007         	goto	l3435
  5363   000FB4                     u3630:
  5364   000FB4  90D8               	bcf	status,0,c
  5365   000FB6  303C               	rrcf	___fladd@grs^0,w,c
  5366   000FB8  0901               	iorlw	1
  5367   000FBA  6E3C               	movwf	___fladd@grs^0,c
  5368   000FBC  EFE2  F007         	goto	l3437
  5369   000FC0                     l3435:
  5370   000FC0  90D8               	bcf	status,0,c
  5371   000FC2  323C               	rrcf	___fladd@grs^0,f,c
  5372   000FC4                     l3437:
  5373   000FC4  A02D               	btfss	___fladd@b^0,0,c
  5374   000FC6  EFE7  F007         	goto	u3641
  5375   000FCA  EFE9  F007         	goto	u3640
  5376   000FCE                     u3641:
  5377   000FCE  EFEA  F007         	goto	l3441
  5378   000FD2                     u3640:
  5379   000FD2  8E3C               	bsf	___fladd@grs^0,7,c
  5380   000FD4                     l3441:
  5381   000FD4  3430               	rlcf	(___fladd@b+3)^0,w,c
  5382   000FD6  3230               	rrcf	(___fladd@b+3)^0,f,c
  5383   000FD8  322F               	rrcf	(___fladd@b+2)^0,f,c
  5384   000FDA  322E               	rrcf	(___fladd@b+1)^0,f,c
  5385   000FDC  322D               	rrcf	___fladd@b^0,f,c
  5386   000FDE  2A3B               	incf	___fladd@bexp^0,f,c
  5387   000FE0                     l846:
  5388   000FE0  503A               	movf	___fladd@aexp^0,w,c
  5389   000FE2  5C3B               	subwf	___fladd@bexp^0,w,c
  5390   000FE4  A0D8               	btfss	status,0,c
  5391   000FE6  EFF7  F007         	goto	u3651
  5392   000FEA  EFF9  F007         	goto	u3650
  5393   000FEE                     u3651:
  5394   000FEE  EFD3  F007         	goto	l847
  5395   000FF2                     u3650:
  5396   000FF2                     l845:
  5397   000FF2  BC39               	btfsc	___fladd@signs^0,6,c
  5398   000FF4  EFFE  F007         	goto	u3661
  5399   000FF8  EF00  F008         	goto	u3660
  5400   000FFC                     u3661:
  5401   000FFC  EF40  F008         	goto	l3469
  5402   001000                     u3660:
  5403   001000  503B               	movf	___fladd@bexp^0,w,c
  5404   001002  A4D8               	btfss	status,2,c
  5405   001004  EF06  F008         	goto	u3671
  5406   001008  EF08  F008         	goto	u3670
  5407   00100C                     u3671:
  5408   00100C  EF12  F008         	goto	l3451
  5409   001010                     u3670:
  5410   001010  0E00               	movlw	0
  5411   001012  6E2D               	movwf	?___fladd^0,c
  5412   001014  0E00               	movlw	0
  5413   001016  6E2E               	movwf	(?___fladd+1)^0,c
  5414   001018  0E00               	movlw	0
  5415   00101A  6E2F               	movwf	(?___fladd+2)^0,c
  5416   00101C  0E00               	movlw	0
  5417   00101E  6E30               	movwf	(?___fladd+3)^0,c
  5418   001020  EF5F  F009         	goto	l854
  5419   001024                     l3451:
  5420   001024  5031               	movf	___fladd@a^0,w,c
  5421   001026  262D               	addwf	___fladd@b^0,f,c
  5422   001028  5032               	movf	(___fladd@a+1)^0,w,c
  5423   00102A  222E               	addwfc	(___fladd@b+1)^0,f,c
  5424   00102C  5033               	movf	(___fladd@a+2)^0,w,c
  5425   00102E  222F               	addwfc	(___fladd@b+2)^0,f,c
  5426   001030  5034               	movf	(___fladd@a+3)^0,w,c
  5427   001032  2230               	addwfc	(___fladd@b+3)^0,f,c
  5428   001034  A030               	btfss	(___fladd@b+3)^0,0,c
  5429   001036  EF1F  F008         	goto	u3681
  5430   00103A  EF21  F008         	goto	u3680
  5431   00103E                     u3681:
  5432   00103E  EFCD  F008         	goto	l859
  5433   001042                     u3680:
  5434   001042  A03C               	btfss	___fladd@grs^0,0,c
  5435   001044  EF26  F008         	goto	u3691
  5436   001048  EF28  F008         	goto	u3690
  5437   00104C                     u3691:
  5438   00104C  EF2E  F008         	goto	l3459
  5439   001050                     u3690:
  5440   001050  90D8               	bcf	status,0,c
  5441   001052  303C               	rrcf	___fladd@grs^0,w,c
  5442   001054  0901               	iorlw	1
  5443   001056  6E3C               	movwf	___fladd@grs^0,c
  5444   001058  EF30  F008         	goto	l3461
  5445   00105C                     l3459:
  5446   00105C  90D8               	bcf	status,0,c
  5447   00105E  323C               	rrcf	___fladd@grs^0,f,c
  5448   001060                     l3461:
  5449   001060  A02D               	btfss	___fladd@b^0,0,c
  5450   001062  EF35  F008         	goto	u3701
  5451   001066  EF37  F008         	goto	u3700
  5452   00106A                     u3701:
  5453   00106A  EF38  F008         	goto	l3465
  5454   00106E                     u3700:
  5455   00106E  8E3C               	bsf	___fladd@grs^0,7,c
  5456   001070                     l3465:
  5457   001070  3430               	rlcf	(___fladd@b+3)^0,w,c
  5458   001072  3230               	rrcf	(___fladd@b+3)^0,f,c
  5459   001074  322F               	rrcf	(___fladd@b+2)^0,f,c
  5460   001076  322E               	rrcf	(___fladd@b+1)^0,f,c
  5461   001078  322D               	rrcf	___fladd@b^0,f,c
  5462   00107A  2A3B               	incf	___fladd@bexp^0,f,c
  5463   00107C  EFCD  F008         	goto	l859
  5464   001080                     l3469:
  5465   001080  5031               	movf	___fladd@a^0,w,c
  5466   001082  5C2D               	subwf	___fladd@b^0,w,c
  5467   001084  5032               	movf	(___fladd@a+1)^0,w,c
  5468   001086  582E               	subwfb	(___fladd@b+1)^0,w,c
  5469   001088  5033               	movf	(___fladd@a+2)^0,w,c
  5470   00108A  582F               	subwfb	(___fladd@b+2)^0,w,c
  5471   00108C  5030               	movf	(___fladd@b+3)^0,w,c
  5472   00108E  0A80               	xorlw	128
  5473   001090  6E35               	movwf	??___fladd^0,c
  5474   001092  5034               	movf	(___fladd@a+3)^0,w,c
  5475   001094  0A80               	xorlw	128
  5476   001096  5835               	subwfb	??___fladd^0,w,c
  5477   001098  B0D8               	btfsc	status,0,c
  5478   00109A  EF51  F008         	goto	u3711
  5479   00109E  EF53  F008         	goto	u3710
  5480   0010A2                     u3711:
  5481   0010A2  EF7E  F008         	goto	l3479
  5482   0010A6                     u3710:
  5483   0010A6  502D               	movf	___fladd@b^0,w,c
  5484   0010A8  5C31               	subwf	___fladd@a^0,w,c
  5485   0010AA  6E35               	movwf	??___fladd^0,c
  5486   0010AC  502E               	movf	(___fladd@b+1)^0,w,c
  5487   0010AE  5832               	subwfb	(___fladd@a+1)^0,w,c
  5488   0010B0  6E36               	movwf	(??___fladd+1)^0,c
  5489   0010B2  502F               	movf	(___fladd@b+2)^0,w,c
  5490   0010B4  5833               	subwfb	(___fladd@a+2)^0,w,c
  5491   0010B6  6E37               	movwf	(??___fladd+2)^0,c
  5492   0010B8  5030               	movf	(___fladd@b+3)^0,w,c
  5493   0010BA  5834               	subwfb	(___fladd@a+3)^0,w,c
  5494   0010BC  6E38               	movwf	(??___fladd+3)^0,c
  5495   0010BE  0EFF               	movlw	255
  5496   0010C0  2435               	addwf	??___fladd^0,w,c
  5497   0010C2  6E2D               	movwf	___fladd@b^0,c
  5498   0010C4  0EFF               	movlw	255
  5499   0010C6  2036               	addwfc	(??___fladd+1)^0,w,c
  5500   0010C8  6E2E               	movwf	(___fladd@b+1)^0,c
  5501   0010CA  0EFF               	movlw	255
  5502   0010CC  2037               	addwfc	(??___fladd+2)^0,w,c
  5503   0010CE  6E2F               	movwf	(___fladd@b+2)^0,c
  5504   0010D0  0EFF               	movlw	255
  5505   0010D2  2038               	addwfc	(??___fladd+3)^0,w,c
  5506   0010D4  6E30               	movwf	(___fladd@b+3)^0,c
  5507   0010D6  0E80               	movlw	128
  5508   0010D8  1A39               	xorwf	___fladd@signs^0,f,c
  5509   0010DA  6C3C               	negf	___fladd@grs^0,c
  5510   0010DC  503C               	movf	___fladd@grs^0,w,c
  5511   0010DE  A4D8               	btfss	status,2,c
  5512   0010E0  EF74  F008         	goto	u3721
  5513   0010E4  EF76  F008         	goto	u3720
  5514   0010E8                     u3721:
  5515   0010E8  EF86  F008         	goto	l862
  5516   0010EC                     u3720:
  5517   0010EC  0E01               	movlw	1
  5518   0010EE  262D               	addwf	___fladd@b^0,f,c
  5519   0010F0  0E00               	movlw	0
  5520   0010F2  222E               	addwfc	(___fladd@b+1)^0,f,c
  5521   0010F4  222F               	addwfc	(___fladd@b+2)^0,f,c
  5522   0010F6  2230               	addwfc	(___fladd@b+3)^0,f,c
  5523   0010F8  EF86  F008         	goto	l862
  5524   0010FC                     l3479:
  5525   0010FC  5031               	movf	___fladd@a^0,w,c
  5526   0010FE  5E2D               	subwf	___fladd@b^0,f,c
  5527   001100  5032               	movf	(___fladd@a+1)^0,w,c
  5528   001102  5A2E               	subwfb	(___fladd@b+1)^0,f,c
  5529   001104  5033               	movf	(___fladd@a+2)^0,w,c
  5530   001106  5A2F               	subwfb	(___fladd@b+2)^0,f,c
  5531   001108  5034               	movf	(___fladd@a+3)^0,w,c
  5532   00110A  5A30               	subwfb	(___fladd@b+3)^0,f,c
  5533   00110C                     l862:
  5534   00110C  502D               	movf	___fladd@b^0,w,c
  5535   00110E  102E               	iorwf	(___fladd@b+1)^0,w,c
  5536   001110  102F               	iorwf	(___fladd@b+2)^0,w,c
  5537   001112  1030               	iorwf	(___fladd@b+3)^0,w,c
  5538   001114  A4D8               	btfss	status,2,c
  5539   001116  EF8F  F008         	goto	u3731
  5540   00111A  EF91  F008         	goto	u3730
  5541   00111E                     u3731:
  5542   00111E  EFC6  F008         	goto	l3503
  5543   001122                     u3730:
  5544   001122  503C               	movf	___fladd@grs^0,w,c
  5545   001124  A4D8               	btfss	status,2,c
  5546   001126  EF97  F008         	goto	u3741
  5547   00112A  EF99  F008         	goto	u3740
  5548   00112E                     u3741:
  5549   00112E  EFC6  F008         	goto	l3503
  5550   001132                     u3740:
  5551   001132  0E00               	movlw	0
  5552   001134  6E2D               	movwf	?___fladd^0,c
  5553   001136  0E00               	movlw	0
  5554   001138  6E2E               	movwf	(?___fladd+1)^0,c
  5555   00113A  0E00               	movlw	0
  5556   00113C  6E2F               	movwf	(?___fladd+2)^0,c
  5557   00113E  0E00               	movlw	0
  5558   001140  6E30               	movwf	(?___fladd+3)^0,c
  5559   001142  EF5F  F009         	goto	l854
  5560   001146                     l3487:
  5561   001146  90D8               	bcf	status,0,c
  5562   001148  362D               	rlcf	___fladd@b^0,f,c
  5563   00114A  362E               	rlcf	(___fladd@b+1)^0,f,c
  5564   00114C  362F               	rlcf	(___fladd@b+2)^0,f,c
  5565   00114E  3630               	rlcf	(___fladd@b+3)^0,f,c
  5566   001150  AE3C               	btfss	___fladd@grs^0,7,c
  5567   001152  EFAD  F008         	goto	u3751
  5568   001156  EFAF  F008         	goto	u3750
  5569   00115A                     u3751:
  5570   00115A  EFB0  F008         	goto	l3493
  5571   00115E                     u3750:
  5572   00115E  802D               	bsf	___fladd@b^0,0,c
  5573   001160                     l3493:
  5574   001160  A03C               	btfss	___fladd@grs^0,0,c
  5575   001162  EFB5  F008         	goto	u3761
  5576   001166  EFB7  F008         	goto	u3760
  5577   00116A                     u3761:
  5578   00116A  EFBB  F008         	goto	l3497
  5579   00116E                     u3760:
  5580   00116E  80D8               	bsf	status,0,c
  5581   001170  363C               	rlcf	___fladd@grs^0,f,c
  5582   001172  EFBD  F008         	goto	l3499
  5583   001176                     l3497:
  5584   001176  90D8               	bcf	status,0,c
  5585   001178  363C               	rlcf	___fladd@grs^0,f,c
  5586   00117A                     l3499:
  5587   00117A  503B               	movf	___fladd@bexp^0,w,c
  5588   00117C  B4D8               	btfsc	status,2,c
  5589   00117E  EFC3  F008         	goto	u3771
  5590   001182  EFC5  F008         	goto	u3770
  5591   001186                     u3771:
  5592   001186  EFC6  F008         	goto	l3503
  5593   00118A                     u3770:
  5594   00118A  063B               	decf	___fladd@bexp^0,f,c
  5595   00118C                     l3503:
  5596   00118C  AE2F               	btfss	(___fladd@b+2)^0,7,c
  5597   00118E  EFCB  F008         	goto	u3781
  5598   001192  EFCD  F008         	goto	u3780
  5599   001196                     u3781:
  5600   001196  EFA3  F008         	goto	l3487
  5601   00119A                     u3780:
  5602   00119A                     l859:
  5603   00119A  6A3A               	clrf	___fladd@aexp^0,c
  5604   00119C  AE3C               	btfss	___fladd@grs^0,7,c
  5605   00119E  EFD3  F008         	goto	u3791
  5606   0011A2  EFD5  F008         	goto	u3790
  5607   0011A6                     u3791:
  5608   0011A6  EFED  F008         	goto	l871
  5609   0011AA                     u3790:
  5610   0011AA  C03C  F035         	movff	___fladd@grs,??___fladd
  5611   0011AE  0E7F               	movlw	127
  5612   0011B0  1635               	andwf	??___fladd^0,f,c
  5613   0011B2  B4D8               	btfsc	status,2,c
  5614   0011B4  EFDE  F008         	goto	u3801
  5615   0011B8  EFE0  F008         	goto	u3800
  5616   0011BC                     u3801:
  5617   0011BC  EFE4  F008         	goto	l872
  5618   0011C0                     u3800:
  5619   0011C0                     l3507:
  5620   0011C0  0E01               	movlw	1
  5621   0011C2  6E3A               	movwf	___fladd@aexp^0,c
  5622   0011C4  EFED  F008         	goto	l871
  5623   0011C8                     l872:
  5624   0011C8  A02D               	btfss	___fladd@b^0,0,c
  5625   0011CA  EFE9  F008         	goto	u3811
  5626   0011CE  EFEB  F008         	goto	u3810
  5627   0011D2                     u3811:
  5628   0011D2  EFED  F008         	goto	l871
  5629   0011D6                     u3810:
  5630   0011D6  EFE0  F008         	goto	l3507
  5631   0011DA                     l871:
  5632   0011DA  503A               	movf	___fladd@aexp^0,w,c
  5633   0011DC  B4D8               	btfsc	status,2,c
  5634   0011DE  EFF3  F008         	goto	u3821
  5635   0011E2  EFF5  F008         	goto	u3820
  5636   0011E6                     u3821:
  5637   0011E6  EF20  F009         	goto	l3519
  5638   0011EA                     u3820:
  5639   0011EA  0E01               	movlw	1
  5640   0011EC  262D               	addwf	___fladd@b^0,f,c
  5641   0011EE  0E00               	movlw	0
  5642   0011F0  222E               	addwfc	(___fladd@b+1)^0,f,c
  5643   0011F2  222F               	addwfc	(___fladd@b+2)^0,f,c
  5644   0011F4  2230               	addwfc	(___fladd@b+3)^0,f,c
  5645   0011F6  A030               	btfss	(___fladd@b+3)^0,0,c
  5646   0011F8  EF00  F009         	goto	u3831
  5647   0011FC  EF02  F009         	goto	u3830
  5648   001200                     u3831:
  5649   001200  EF20  F009         	goto	l3519
  5650   001204                     u3830:
  5651   001204  C02D  F035         	movff	___fladd@b,??___fladd
  5652   001208  C02E  F036         	movff	___fladd@b+1,??___fladd+1
  5653   00120C  C02F  F037         	movff	___fladd@b+2,??___fladd+2
  5654   001210  C030  F038         	movff	___fladd@b+3,??___fladd+3
  5655   001214  3438               	rlcf	(??___fladd+3)^0,w,c
  5656   001216  3238               	rrcf	(??___fladd+3)^0,f,c
  5657   001218  3237               	rrcf	(??___fladd+2)^0,f,c
  5658   00121A  3236               	rrcf	(??___fladd+1)^0,f,c
  5659   00121C  3235               	rrcf	??___fladd^0,f,c
  5660   00121E  C035  F02D         	movff	??___fladd,___fladd@b
  5661   001222  C036  F02E         	movff	??___fladd+1,___fladd@b+1
  5662   001226  C037  F02F         	movff	??___fladd+2,___fladd@b+2
  5663   00122A  C038  F030         	movff	??___fladd+3,___fladd@b+3
  5664   00122E  283B               	incf	___fladd@bexp^0,w,c
  5665   001230  B4D8               	btfsc	status,2,c
  5666   001232  EF1D  F009         	goto	u3841
  5667   001236  EF1F  F009         	goto	u3840
  5668   00123A                     u3841:
  5669   00123A  EF20  F009         	goto	l3519
  5670   00123E                     u3840:
  5671   00123E  2A3B               	incf	___fladd@bexp^0,f,c
  5672   001240                     l3519:
  5673   001240  283B               	incf	___fladd@bexp^0,w,c
  5674   001242  B4D8               	btfsc	status,2,c
  5675   001244  EF26  F009         	goto	u3851
  5676   001248  EF28  F009         	goto	u3850
  5677   00124C                     u3851:
  5678   00124C  EF30  F009         	goto	l3523
  5679   001250                     u3850:
  5680   001250  503B               	movf	___fladd@bexp^0,w,c
  5681   001252  A4D8               	btfss	status,2,c
  5682   001254  EF2E  F009         	goto	u3861
  5683   001258  EF30  F009         	goto	u3860
  5684   00125C                     u3861:
  5685   00125C  EF41  F009         	goto	l878
  5686   001260                     u3860:
  5687   001260                     l3523:
  5688   001260  0E00               	movlw	0
  5689   001262  6E2D               	movwf	___fladd@b^0,c
  5690   001264  0E00               	movlw	0
  5691   001266  6E2E               	movwf	(___fladd@b+1)^0,c
  5692   001268  0E00               	movlw	0
  5693   00126A  6E2F               	movwf	(___fladd@b+2)^0,c
  5694   00126C  0E00               	movlw	0
  5695   00126E  6E30               	movwf	(___fladd@b+3)^0,c
  5696   001270  503B               	movf	___fladd@bexp^0,w,c
  5697   001272  A4D8               	btfss	status,2,c
  5698   001274  EF3E  F009         	goto	u3871
  5699   001278  EF40  F009         	goto	u3870
  5700   00127C                     u3871:
  5701   00127C  EF41  F009         	goto	l878
  5702   001280                     u3870:
  5703   001280  6A39               	clrf	___fladd@signs^0,c
  5704   001282                     l878:
  5705   001282  A03B               	btfss	___fladd@bexp^0,0,c
  5706   001284  EF46  F009         	goto	u3881
  5707   001288  EF48  F009         	goto	u3880
  5708   00128C                     u3881:
  5709   00128C  EF4B  F009         	goto	l3529
  5710   001290                     u3880:
  5711   001290  8E2F               	bsf	(___fladd@b+2)^0,7,c
  5712   001292  EF4C  F009         	goto	l3531
  5713   001296                     l3529:
  5714   001296  9E2F               	bcf	(___fladd@b+2)^0,7,c
  5715   001298                     l3531:
  5716   001298  90D8               	bcf	status,0,c
  5717   00129A  303B               	rrcf	___fladd@bexp^0,w,c
  5718   00129C  6E30               	movwf	(___fladd@b+3)^0,c
  5719   00129E  AE39               	btfss	___fladd@signs^0,7,c
  5720   0012A0  EF54  F009         	goto	u3891
  5721   0012A4  EF56  F009         	goto	u3890
  5722   0012A8                     u3891:
  5723   0012A8  EF57  F009         	goto	l3537
  5724   0012AC                     u3890:
  5725   0012AC  8E30               	bsf	(___fladd@b+3)^0,7,c
  5726   0012AE                     l3537:
  5727   0012AE  C02D  F02D         	movff	___fladd@b,?___fladd
  5728   0012B2  C02E  F02E         	movff	___fladd@b+1,?___fladd+1
  5729   0012B6  C02F  F02F         	movff	___fladd@b+2,?___fladd+2
  5730   0012BA  C030  F030         	movff	___fladd@b+3,?___fladd+3
  5731   0012BE                     l854:
  5732   0012BE  0012               	return		;funcret
  5733   0012C0                     __end_of___fladd:
  5734                           	callstack 0
  5735                           
  5736 ;; *************** function ___flneg *****************
  5737 ;; Defined at:
  5738 ;;		line 15 in file "C:\Program Files\Microchip\xc8\v2.50\pic\sources\c99\common\flneg.c"
  5739 ;; Parameters:    Size  Location     Type
  5740 ;;  f1              4    5[COMRAM] unsigned char 
  5741 ;; Auto vars:     Size  Location     Type
  5742 ;;		None
  5743 ;; Return value:  Size  Location     Type
  5744 ;;                  4    5[COMRAM] unsigned char 
  5745 ;; Registers used:
  5746 ;;		wreg, status,2, status,0
  5747 ;; Tracked objects:
  5748 ;;		On entry : 0/0
  5749 ;;		On exit  : 0/0
  5750 ;;		Unchanged: 0/0
  5751 ;; Data sizes:     COMRAM   BANK0   BANK1   BANK2   BANK3   BANK4   BANK5
  5752 ;;      Params:         4       0       0       0       0       0       0
  5753 ;;      Locals:         0       0       0       0       0       0       0
  5754 ;;      Temps:          0       0       0       0       0       0       0
  5755 ;;      Totals:         4       0       0       0       0       0       0
  5756 ;;Total ram usage:        4 bytes
  5757 ;; Hardware stack levels used: 1
  5758 ;; Hardware stack levels required when called: 1
  5759 ;; This function calls:
  5760 ;;		Nothing
  5761 ;; This function is called by:
  5762 ;;		_atan2f
  5763 ;;		_atanf
  5764 ;; This function uses a non-reentrant model
  5765 ;;
  5766                           
  5767                           	psect	text18
  5768   0027A2                     __ptext18:
  5769                           	callstack 0
  5770   0027A2                     ___flneg:
  5771                           	callstack 23
  5772   0027A2  5006               	movf	___flneg@f1^0,w,c
  5773   0027A4  1007               	iorwf	(___flneg@f1+1)^0,w,c
  5774   0027A6  1008               	iorwf	(___flneg@f1+2)^0,w,c
  5775   0027A8  1009               	iorwf	(___flneg@f1+3)^0,w,c
  5776   0027AA  B4D8               	btfsc	status,2,c
  5777   0027AC  EFDA  F013         	goto	u4321
  5778   0027B0  EFDC  F013         	goto	u4320
  5779   0027B4                     u4321:
  5780   0027B4  EFE4  F013         	goto	l3815
  5781   0027B8                     u4320:
  5782   0027B8  0E00               	movlw	0
  5783   0027BA  1A06               	xorwf	___flneg@f1^0,f,c
  5784   0027BC  0E00               	movlw	0
  5785   0027BE  1A07               	xorwf	(___flneg@f1+1)^0,f,c
  5786   0027C0  0E00               	movlw	0
  5787   0027C2  1A08               	xorwf	(___flneg@f1+2)^0,f,c
  5788   0027C4  0E80               	movlw	128
  5789   0027C6  1A09               	xorwf	(___flneg@f1+3)^0,f,c
  5790   0027C8                     l3815:
  5791   0027C8  C006  F006         	movff	___flneg@f1,?___flneg
  5792   0027CC  C007  F007         	movff	___flneg@f1+1,?___flneg+1
  5793   0027D0  C008  F008         	movff	___flneg@f1+2,?___flneg+2
  5794   0027D4  C009  F009         	movff	___flneg@f1+3,?___flneg+3
  5795   0027D8  0012               	return		;funcret
  5796   0027DA                     __end_of___flneg:
  5797                           	callstack 0
  5798                           
  5799 ;; *************** function ___flmul *****************
  5800 ;; Defined at:
  5801 ;;		line 8 in file "C:\Program Files\Microchip\xc8\v2.50\pic\sources\c99\common\sprcmul.c"
  5802 ;; Parameters:    Size  Location     Type
  5803 ;;  b               4   19[COMRAM] unsigned char 
  5804 ;;  a               4   23[COMRAM] unsigned char 
  5805 ;; Auto vars:     Size  Location     Type
  5806 ;;  prod            4   38[COMRAM] struct .
  5807 ;;  grs             4   33[COMRAM] unsigned long 
  5808 ;;  temp            2   42[COMRAM] struct .
  5809 ;;  bexp            1   37[COMRAM] unsigned char 
  5810 ;;  aexp            1   32[COMRAM] unsigned char 
  5811 ;;  sign            1   31[COMRAM] unsigned char 
  5812 ;; Return value:  Size  Location     Type
  5813 ;;                  4   19[COMRAM] unsigned char 
  5814 ;; Registers used:
  5815 ;;		wreg, status,2, status,0, prodl, prodh
  5816 ;; Tracked objects:
  5817 ;;		On entry : 0/0
  5818 ;;		On exit  : 0/0
  5819 ;;		Unchanged: 0/0
  5820 ;; Data sizes:     COMRAM   BANK0   BANK1   BANK2   BANK3   BANK4   BANK5
  5821 ;;      Params:         8       0       0       0       0       0       0
  5822 ;;      Locals:        13       0       0       0       0       0       0
  5823 ;;      Temps:          4       0       0       0       0       0       0
  5824 ;;      Totals:        25       0       0       0       0       0       0
  5825 ;;Total ram usage:       25 bytes
  5826 ;; Hardware stack levels used: 1
  5827 ;; Hardware stack levels required when called: 1
  5828 ;; This function calls:
  5829 ;;		Nothing
  5830 ;; This function is called by:
  5831 ;;		_calculate_angle
  5832 ;;		_atanf
  5833 ;; This function uses a non-reentrant model
  5834 ;;
  5835                           
  5836                           	psect	text19
  5837   0012C0                     __ptext19:
  5838                           	callstack 0
  5839   0012C0                     ___flmul:
  5840                           	callstack 23
  5841   0012C0  5017               	movf	(___flmul@b+3)^0,w,c
  5842   0012C2  0B80               	andlw	128
  5843   0012C4  6E20               	movwf	___flmul@sign^0,c
  5844   0012C6  5017               	movf	(___flmul@b+3)^0,w,c
  5845   0012C8  2417               	addwf	(___flmul@b+3)^0,w,c
  5846   0012CA  6E26               	movwf	___flmul@bexp^0,c
  5847   0012CC  AE16               	btfss	(___flmul@b+2)^0,7,c
  5848   0012CE  EF6B  F009         	goto	u4131
  5849   0012D2  EF6D  F009         	goto	u4130
  5850   0012D6                     u4131:
  5851   0012D6  EF6E  F009         	goto	l3683
  5852   0012DA                     u4130:
  5853   0012DA  8026               	bsf	___flmul@bexp^0,0,c
  5854   0012DC                     l3683:
  5855   0012DC  5026               	movf	___flmul@bexp^0,w,c
  5856   0012DE  B4D8               	btfsc	status,2,c
  5857   0012E0  EF74  F009         	goto	u4141
  5858   0012E4  EF76  F009         	goto	u4140
  5859   0012E8                     u4141:
  5860   0012E8  EF89  F009         	goto	l3691
  5861   0012EC                     u4140:
  5862   0012EC  2826               	incf	___flmul@bexp^0,w,c
  5863   0012EE  A4D8               	btfss	status,2,c
  5864   0012F0  EF7C  F009         	goto	u4151
  5865   0012F4  EF7E  F009         	goto	u4150
  5866   0012F8                     u4151:
  5867   0012F8  EF86  F009         	goto	l3689
  5868   0012FC                     u4150:
  5869   0012FC  0E00               	movlw	0
  5870   0012FE  6E14               	movwf	___flmul@b^0,c
  5871   001300  0E00               	movlw	0
  5872   001302  6E15               	movwf	(___flmul@b+1)^0,c
  5873   001304  0E00               	movlw	0
  5874   001306  6E16               	movwf	(___flmul@b+2)^0,c
  5875   001308  0E00               	movlw	0
  5876   00130A  6E17               	movwf	(___flmul@b+3)^0,c
  5877   00130C                     l3689:
  5878   00130C  8E16               	bsf	(___flmul@b+2)^0,7,c
  5879   00130E  EF91  F009         	goto	l3693
  5880   001312                     l3691:
  5881   001312  0E00               	movlw	0
  5882   001314  6E14               	movwf	___flmul@b^0,c
  5883   001316  0E00               	movlw	0
  5884   001318  6E15               	movwf	(___flmul@b+1)^0,c
  5885   00131A  0E00               	movlw	0
  5886   00131C  6E16               	movwf	(___flmul@b+2)^0,c
  5887   00131E  0E00               	movlw	0
  5888   001320  6E17               	movwf	(___flmul@b+3)^0,c
  5889   001322                     l3693:
  5890   001322  501B               	movf	(___flmul@a+3)^0,w,c
  5891   001324  0B80               	andlw	128
  5892   001326  1A20               	xorwf	___flmul@sign^0,f,c
  5893   001328  501B               	movf	(___flmul@a+3)^0,w,c
  5894   00132A  241B               	addwf	(___flmul@a+3)^0,w,c
  5895   00132C  6E21               	movwf	___flmul@aexp^0,c
  5896   00132E  AE1A               	btfss	(___flmul@a+2)^0,7,c
  5897   001330  EF9C  F009         	goto	u4161
  5898   001334  EF9E  F009         	goto	u4160
  5899   001338                     u4161:
  5900   001338  EF9F  F009         	goto	l3701
  5901   00133C                     u4160:
  5902   00133C  8021               	bsf	___flmul@aexp^0,0,c
  5903   00133E                     l3701:
  5904   00133E  5021               	movf	___flmul@aexp^0,w,c
  5905   001340  B4D8               	btfsc	status,2,c
  5906   001342  EFA5  F009         	goto	u4171
  5907   001346  EFA7  F009         	goto	u4170
  5908   00134A                     u4171:
  5909   00134A  EFBA  F009         	goto	l3709
  5910   00134E                     u4170:
  5911   00134E  2821               	incf	___flmul@aexp^0,w,c
  5912   001350  A4D8               	btfss	status,2,c
  5913   001352  EFAD  F009         	goto	u4181
  5914   001356  EFAF  F009         	goto	u4180
  5915   00135A                     u4181:
  5916   00135A  EFB7  F009         	goto	l3707
  5917   00135E                     u4180:
  5918   00135E  0E00               	movlw	0
  5919   001360  6E18               	movwf	___flmul@a^0,c
  5920   001362  0E00               	movlw	0
  5921   001364  6E19               	movwf	(___flmul@a+1)^0,c
  5922   001366  0E00               	movlw	0
  5923   001368  6E1A               	movwf	(___flmul@a+2)^0,c
  5924   00136A  0E00               	movlw	0
  5925   00136C  6E1B               	movwf	(___flmul@a+3)^0,c
  5926   00136E                     l3707:
  5927   00136E  8E1A               	bsf	(___flmul@a+2)^0,7,c
  5928   001370  EFC2  F009         	goto	l931
  5929   001374                     l3709:
  5930   001374  0E00               	movlw	0
  5931   001376  6E18               	movwf	___flmul@a^0,c
  5932   001378  0E00               	movlw	0
  5933   00137A  6E19               	movwf	(___flmul@a+1)^0,c
  5934   00137C  0E00               	movlw	0
  5935   00137E  6E1A               	movwf	(___flmul@a+2)^0,c
  5936   001380  0E00               	movlw	0
  5937   001382  6E1B               	movwf	(___flmul@a+3)^0,c
  5938   001384                     l931:
  5939   001384  5021               	movf	___flmul@aexp^0,w,c
  5940   001386  B4D8               	btfsc	status,2,c
  5941   001388  EFC8  F009         	goto	u4191
  5942   00138C  EFCA  F009         	goto	u4190
  5943   001390                     u4191:
  5944   001390  EFD2  F009         	goto	l3713
  5945   001394                     u4190:
  5946   001394  5026               	movf	___flmul@bexp^0,w,c
  5947   001396  A4D8               	btfss	status,2,c
  5948   001398  EFD0  F009         	goto	u4201
  5949   00139C  EFD2  F009         	goto	u4200
  5950   0013A0                     u4201:
  5951   0013A0  EFDC  F009         	goto	l3717
  5952   0013A4                     u4200:
  5953   0013A4                     l3713:
  5954   0013A4  0E00               	movlw	0
  5955   0013A6  6E14               	movwf	?___flmul^0,c
  5956   0013A8  0E00               	movlw	0
  5957   0013AA  6E15               	movwf	(?___flmul+1)^0,c
  5958   0013AC  0E00               	movlw	0
  5959   0013AE  6E16               	movwf	(?___flmul+2)^0,c
  5960   0013B0  0E00               	movlw	0
  5961   0013B2  6E17               	movwf	(?___flmul+3)^0,c
  5962   0013B4  EF72  F00B         	goto	l935
  5963   0013B8                     l3717:
  5964   0013B8  501A               	movf	(___flmul@a+2)^0,w,c
  5965   0013BA  0214               	mulwf	___flmul@b^0,c
  5966   0013BC  CFF3 F02B          	movff	prodl,___flmul@temp
  5967   0013C0  CFF4 F02C          	movff	prodh,___flmul@temp+1
  5968   0013C4  502B               	movf	___flmul@temp^0,w,c
  5969   0013C6  6E22               	movwf	___flmul@grs^0,c
  5970   0013C8  6A23               	clrf	(___flmul@grs+1)^0,c
  5971   0013CA  6A24               	clrf	(___flmul@grs+2)^0,c
  5972   0013CC  6A25               	clrf	(___flmul@grs+3)^0,c
  5973   0013CE  502C               	movf	(___flmul@temp+1)^0,w,c
  5974   0013D0  6E27               	movwf	___flmul@prod^0,c
  5975   0013D2  6A28               	clrf	(___flmul@prod+1)^0,c
  5976   0013D4  6A29               	clrf	(___flmul@prod+2)^0,c
  5977   0013D6  6A2A               	clrf	(___flmul@prod+3)^0,c
  5978   0013D8  5019               	movf	(___flmul@a+1)^0,w,c
  5979   0013DA  0215               	mulwf	(___flmul@b+1)^0,c
  5980   0013DC  CFF3 F02B          	movff	prodl,___flmul@temp
  5981   0013E0  CFF4 F02C          	movff	prodh,___flmul@temp+1
  5982   0013E4  502B               	movf	___flmul@temp^0,w,c
  5983   0013E6  2622               	addwf	___flmul@grs^0,f,c
  5984   0013E8  0E00               	movlw	0
  5985   0013EA  2223               	addwfc	(___flmul@grs+1)^0,f,c
  5986   0013EC  2224               	addwfc	(___flmul@grs+2)^0,f,c
  5987   0013EE  2225               	addwfc	(___flmul@grs+3)^0,f,c
  5988   0013F0  502C               	movf	(___flmul@temp+1)^0,w,c
  5989   0013F2  2627               	addwf	___flmul@prod^0,f,c
  5990   0013F4  0E00               	movlw	0
  5991   0013F6  2228               	addwfc	(___flmul@prod+1)^0,f,c
  5992   0013F8  2229               	addwfc	(___flmul@prod+2)^0,f,c
  5993   0013FA  222A               	addwfc	(___flmul@prod+3)^0,f,c
  5994   0013FC  5018               	movf	___flmul@a^0,w,c
  5995   0013FE  0216               	mulwf	(___flmul@b+2)^0,c
  5996   001400  CFF3 F02B          	movff	prodl,___flmul@temp
  5997   001404  CFF4 F02C          	movff	prodh,___flmul@temp+1
  5998   001408  502B               	movf	___flmul@temp^0,w,c
  5999   00140A  2622               	addwf	___flmul@grs^0,f,c
  6000   00140C  0E00               	movlw	0
  6001   00140E  2223               	addwfc	(___flmul@grs+1)^0,f,c
  6002   001410  2224               	addwfc	(___flmul@grs+2)^0,f,c
  6003   001412  2225               	addwfc	(___flmul@grs+3)^0,f,c
  6004   001414  502C               	movf	(___flmul@temp+1)^0,w,c
  6005   001416  2627               	addwf	___flmul@prod^0,f,c
  6006   001418  0E00               	movlw	0
  6007   00141A  2228               	addwfc	(___flmul@prod+1)^0,f,c
  6008   00141C  2229               	addwfc	(___flmul@prod+2)^0,f,c
  6009   00141E  222A               	addwfc	(___flmul@prod+3)^0,f,c
  6010   001420  C024  F025         	movff	___flmul@grs+2,___flmul@grs+3
  6011   001424  C023  F024         	movff	___flmul@grs+1,___flmul@grs+2
  6012   001428  C022  F023         	movff	___flmul@grs,___flmul@grs+1
  6013   00142C  6A22               	clrf	___flmul@grs^0,c
  6014   00142E  5018               	movf	___flmul@a^0,w,c
  6015   001430  0215               	mulwf	(___flmul@b+1)^0,c
  6016   001432  CFF3 F02B          	movff	prodl,___flmul@temp
  6017   001436  CFF4 F02C          	movff	prodh,___flmul@temp+1
  6018   00143A  502B               	movf	___flmul@temp^0,w,c
  6019   00143C  2622               	addwf	___flmul@grs^0,f,c
  6020   00143E  502C               	movf	(___flmul@temp+1)^0,w,c
  6021   001440  2223               	addwfc	(___flmul@grs+1)^0,f,c
  6022   001442  0E00               	movlw	0
  6023   001444  2224               	addwfc	(___flmul@grs+2)^0,f,c
  6024   001446  0E00               	movlw	0
  6025   001448  2225               	addwfc	(___flmul@grs+3)^0,f,c
  6026   00144A  5019               	movf	(___flmul@a+1)^0,w,c
  6027   00144C  0214               	mulwf	___flmul@b^0,c
  6028   00144E  CFF3 F02B          	movff	prodl,___flmul@temp
  6029   001452  CFF4 F02C          	movff	prodh,___flmul@temp+1
  6030   001456  502B               	movf	___flmul@temp^0,w,c
  6031   001458  2622               	addwf	___flmul@grs^0,f,c
  6032   00145A  502C               	movf	(___flmul@temp+1)^0,w,c
  6033   00145C  2223               	addwfc	(___flmul@grs+1)^0,f,c
  6034   00145E  0E00               	movlw	0
  6035   001460  2224               	addwfc	(___flmul@grs+2)^0,f,c
  6036   001462  0E00               	movlw	0
  6037   001464  2225               	addwfc	(___flmul@grs+3)^0,f,c
  6038   001466  C024  F025         	movff	___flmul@grs+2,___flmul@grs+3
  6039   00146A  C023  F024         	movff	___flmul@grs+1,___flmul@grs+2
  6040   00146E  C022  F023         	movff	___flmul@grs,___flmul@grs+1
  6041   001472  6A22               	clrf	___flmul@grs^0,c
  6042   001474  5018               	movf	___flmul@a^0,w,c
  6043   001476  0214               	mulwf	___flmul@b^0,c
  6044   001478  CFF3 F02B          	movff	prodl,___flmul@temp
  6045   00147C  CFF4 F02C          	movff	prodh,___flmul@temp+1
  6046   001480  502B               	movf	___flmul@temp^0,w,c
  6047   001482  2622               	addwf	___flmul@grs^0,f,c
  6048   001484  502C               	movf	(___flmul@temp+1)^0,w,c
  6049   001486  2223               	addwfc	(___flmul@grs+1)^0,f,c
  6050   001488  0E00               	movlw	0
  6051   00148A  2224               	addwfc	(___flmul@grs+2)^0,f,c
  6052   00148C  0E00               	movlw	0
  6053   00148E  2225               	addwfc	(___flmul@grs+3)^0,f,c
  6054   001490  501A               	movf	(___flmul@a+2)^0,w,c
  6055   001492  0215               	mulwf	(___flmul@b+1)^0,c
  6056   001494  CFF3 F02B          	movff	prodl,___flmul@temp
  6057   001498  CFF4 F02C          	movff	prodh,___flmul@temp+1
  6058   00149C  502B               	movf	___flmul@temp^0,w,c
  6059   00149E  2627               	addwf	___flmul@prod^0,f,c
  6060   0014A0  502C               	movf	(___flmul@temp+1)^0,w,c
  6061   0014A2  2228               	addwfc	(___flmul@prod+1)^0,f,c
  6062   0014A4  0E00               	movlw	0
  6063   0014A6  2229               	addwfc	(___flmul@prod+2)^0,f,c
  6064   0014A8  0E00               	movlw	0
  6065   0014AA  222A               	addwfc	(___flmul@prod+3)^0,f,c
  6066   0014AC  5019               	movf	(___flmul@a+1)^0,w,c
  6067   0014AE  0216               	mulwf	(___flmul@b+2)^0,c
  6068   0014B0  CFF3 F02B          	movff	prodl,___flmul@temp
  6069   0014B4  CFF4 F02C          	movff	prodh,___flmul@temp+1
  6070   0014B8  502B               	movf	___flmul@temp^0,w,c
  6071   0014BA  2627               	addwf	___flmul@prod^0,f,c
  6072   0014BC  502C               	movf	(___flmul@temp+1)^0,w,c
  6073   0014BE  2228               	addwfc	(___flmul@prod+1)^0,f,c
  6074   0014C0  0E00               	movlw	0
  6075   0014C2  2229               	addwfc	(___flmul@prod+2)^0,f,c
  6076   0014C4  0E00               	movlw	0
  6077   0014C6  222A               	addwfc	(___flmul@prod+3)^0,f,c
  6078   0014C8  501A               	movf	(___flmul@a+2)^0,w,c
  6079   0014CA  0216               	mulwf	(___flmul@b+2)^0,c
  6080   0014CC  CFF3 F02B          	movff	prodl,___flmul@temp
  6081   0014D0  CFF4 F02C          	movff	prodh,___flmul@temp+1
  6082   0014D4  502B               	movf	___flmul@temp^0,w,c
  6083   0014D6  6E1C               	movwf	??___flmul^0,c
  6084   0014D8  502C               	movf	(___flmul@temp+1)^0,w,c
  6085   0014DA  6E1D               	movwf	(??___flmul+1)^0,c
  6086   0014DC  6A1E               	clrf	(??___flmul+2)^0,c
  6087   0014DE  6A1F               	clrf	(??___flmul+3)^0,c
  6088   0014E0  C01E  F01F         	movff	??___flmul+2,??___flmul+3
  6089   0014E4  C01D  F01E         	movff	??___flmul+1,??___flmul+2
  6090   0014E8  C01C  F01D         	movff	??___flmul,??___flmul+1
  6091   0014EC  6A1C               	clrf	??___flmul^0,c
  6092   0014EE  501C               	movf	??___flmul^0,w,c
  6093   0014F0  2627               	addwf	___flmul@prod^0,f,c
  6094   0014F2  501D               	movf	(??___flmul+1)^0,w,c
  6095   0014F4  2228               	addwfc	(___flmul@prod+1)^0,f,c
  6096   0014F6  501E               	movf	(??___flmul+2)^0,w,c
  6097   0014F8  2229               	addwfc	(___flmul@prod+2)^0,f,c
  6098   0014FA  501F               	movf	(??___flmul+3)^0,w,c
  6099   0014FC  222A               	addwfc	(___flmul@prod+3)^0,f,c
  6100   0014FE  C022  F01C         	movff	___flmul@grs,??___flmul
  6101   001502  C023  F01D         	movff	___flmul@grs+1,??___flmul+1
  6102   001506  C024  F01E         	movff	___flmul@grs+2,??___flmul+2
  6103   00150A  C025  F01F         	movff	___flmul@grs+3,??___flmul+3
  6104   00150E  0E19               	movlw	25
  6105   001510  EF8F  F00A         	goto	u4210
  6106   001514                     u4215:
  6107   001514  90D8               	bcf	status,0,c
  6108   001516  321F               	rrcf	(??___flmul+3)^0,f,c
  6109   001518  321E               	rrcf	(??___flmul+2)^0,f,c
  6110   00151A  321D               	rrcf	(??___flmul+1)^0,f,c
  6111   00151C  321C               	rrcf	??___flmul^0,f,c
  6112   00151E                     u4210:
  6113   00151E  2EE8               	decfsz	wreg,f,c
  6114   001520  EF8A  F00A         	goto	u4215
  6115   001524  501C               	movf	??___flmul^0,w,c
  6116   001526  2627               	addwf	___flmul@prod^0,f,c
  6117   001528  501D               	movf	(??___flmul+1)^0,w,c
  6118   00152A  2228               	addwfc	(___flmul@prod+1)^0,f,c
  6119   00152C  501E               	movf	(??___flmul+2)^0,w,c
  6120   00152E  2229               	addwfc	(___flmul@prod+2)^0,f,c
  6121   001530  501F               	movf	(??___flmul+3)^0,w,c
  6122   001532  222A               	addwfc	(___flmul@prod+3)^0,f,c
  6123   001534  C024  F025         	movff	___flmul@grs+2,___flmul@grs+3
  6124   001538  C023  F024         	movff	___flmul@grs+1,___flmul@grs+2
  6125   00153C  C022  F023         	movff	___flmul@grs,___flmul@grs+1
  6126   001540  6A22               	clrf	___flmul@grs^0,c
  6127   001542  5021               	movf	___flmul@aexp^0,w,c
  6128   001544  C026  F01C         	movff	___flmul@bexp,??___flmul
  6129   001548  6A1D               	clrf	(??___flmul+1)^0,c
  6130   00154A  261C               	addwf	??___flmul^0,f,c
  6131   00154C  0E00               	movlw	0
  6132   00154E  221D               	addwfc	(??___flmul+1)^0,f,c
  6133   001550  0E82               	movlw	130
  6134   001552  241C               	addwf	??___flmul^0,w,c
  6135   001554  6E2B               	movwf	___flmul@temp^0,c
  6136   001556  0EFF               	movlw	255
  6137   001558  201D               	addwfc	(??___flmul+1)^0,w,c
  6138   00155A  6E2C               	movwf	(___flmul@temp+1)^0,c
  6139   00155C  EFC5  F00A         	goto	l3765
  6140   001560                     l3759:
  6141   001560  90D8               	bcf	status,0,c
  6142   001562  3627               	rlcf	___flmul@prod^0,f,c
  6143   001564  3628               	rlcf	(___flmul@prod+1)^0,f,c
  6144   001566  3629               	rlcf	(___flmul@prod+2)^0,f,c
  6145   001568  362A               	rlcf	(___flmul@prod+3)^0,f,c
  6146   00156A  AE25               	btfss	(___flmul@grs+3)^0,7,c
  6147   00156C  EFBA  F00A         	goto	u4221
  6148   001570  EFBC  F00A         	goto	u4220
  6149   001574                     u4221:
  6150   001574  EFBD  F00A         	goto	l938
  6151   001578                     u4220:
  6152   001578  8027               	bsf	___flmul@prod^0,0,c
  6153   00157A                     l938:
  6154   00157A  90D8               	bcf	status,0,c
  6155   00157C  3622               	rlcf	___flmul@grs^0,f,c
  6156   00157E  3623               	rlcf	(___flmul@grs+1)^0,f,c
  6157   001580  3624               	rlcf	(___flmul@grs+2)^0,f,c
  6158   001582  3625               	rlcf	(___flmul@grs+3)^0,f,c
  6159   001584  062B               	decf	___flmul@temp^0,f,c
  6160   001586  A0D8               	btfss	status,0,c
  6161   001588  062C               	decf	(___flmul@temp+1)^0,f,c
  6162   00158A                     l3765:
  6163   00158A  AE29               	btfss	(___flmul@prod+2)^0,7,c
  6164   00158C  EFCA  F00A         	goto	u4231
  6165   001590  EFCC  F00A         	goto	u4230
  6166   001594                     u4231:
  6167   001594  EFB0  F00A         	goto	l3759
  6168   001598                     u4230:
  6169   001598  6A21               	clrf	___flmul@aexp^0,c
  6170   00159A  AE25               	btfss	(___flmul@grs+3)^0,7,c
  6171   00159C  EFD2  F00A         	goto	u4241
  6172   0015A0  EFD4  F00A         	goto	u4240
  6173   0015A4                     u4241:
  6174   0015A4  EFF8  F00A         	goto	l940
  6175   0015A8                     u4240:
  6176   0015A8  0EFF               	movlw	255
  6177   0015AA  1422               	andwf	___flmul@grs^0,w,c
  6178   0015AC  6E1C               	movwf	??___flmul^0,c
  6179   0015AE  0EFF               	movlw	255
  6180   0015B0  1423               	andwf	(___flmul@grs+1)^0,w,c
  6181   0015B2  6E1D               	movwf	(??___flmul+1)^0,c
  6182   0015B4  0EFF               	movlw	255
  6183   0015B6  1424               	andwf	(___flmul@grs+2)^0,w,c
  6184   0015B8  6E1E               	movwf	(??___flmul+2)^0,c
  6185   0015BA  0E7F               	movlw	127
  6186   0015BC  1425               	andwf	(___flmul@grs+3)^0,w,c
  6187   0015BE  6E1F               	movwf	(??___flmul+3)^0,c
  6188   0015C0  501C               	movf	??___flmul^0,w,c
  6189   0015C2  101D               	iorwf	(??___flmul+1)^0,w,c
  6190   0015C4  101E               	iorwf	(??___flmul+2)^0,w,c
  6191   0015C6  101F               	iorwf	(??___flmul+3)^0,w,c
  6192   0015C8  B4D8               	btfsc	status,2,c
  6193   0015CA  EFE9  F00A         	goto	u4251
  6194   0015CE  EFEB  F00A         	goto	u4250
  6195   0015D2                     u4251:
  6196   0015D2  EFEF  F00A         	goto	l941
  6197   0015D6                     u4250:
  6198   0015D6                     l3769:
  6199   0015D6  0E01               	movlw	1
  6200   0015D8  6E21               	movwf	___flmul@aexp^0,c
  6201   0015DA  EFF8  F00A         	goto	l940
  6202   0015DE                     l941:
  6203   0015DE  A027               	btfss	___flmul@prod^0,0,c
  6204   0015E0  EFF4  F00A         	goto	u4261
  6205   0015E4  EFF6  F00A         	goto	u4260
  6206   0015E8                     u4261:
  6207   0015E8  EFF8  F00A         	goto	l940
  6208   0015EC                     u4260:
  6209   0015EC  EFEB  F00A         	goto	l3769
  6210   0015F0                     l940:
  6211   0015F0  5021               	movf	___flmul@aexp^0,w,c
  6212   0015F2  B4D8               	btfsc	status,2,c
  6213   0015F4  EFFE  F00A         	goto	u4271
  6214   0015F8  EF00  F00B         	goto	u4270
  6215   0015FC                     u4271:
  6216   0015FC  EF24  F00B         	goto	l3781
  6217   001600                     u4270:
  6218   001600  0E01               	movlw	1
  6219   001602  2627               	addwf	___flmul@prod^0,f,c
  6220   001604  0E00               	movlw	0
  6221   001606  2228               	addwfc	(___flmul@prod+1)^0,f,c
  6222   001608  2229               	addwfc	(___flmul@prod+2)^0,f,c
  6223   00160A  222A               	addwfc	(___flmul@prod+3)^0,f,c
  6224   00160C  A02A               	btfss	(___flmul@prod+3)^0,0,c
  6225   00160E  EF0B  F00B         	goto	u4281
  6226   001612  EF0D  F00B         	goto	u4280
  6227   001616                     u4281:
  6228   001616  EF24  F00B         	goto	l3781
  6229   00161A                     u4280:
  6230   00161A  C027  F01C         	movff	___flmul@prod,??___flmul
  6231   00161E  C028  F01D         	movff	___flmul@prod+1,??___flmul+1
  6232   001622  C029  F01E         	movff	___flmul@prod+2,??___flmul+2
  6233   001626  C02A  F01F         	movff	___flmul@prod+3,??___flmul+3
  6234   00162A  341F               	rlcf	(??___flmul+3)^0,w,c
  6235   00162C  321F               	rrcf	(??___flmul+3)^0,f,c
  6236   00162E  321E               	rrcf	(??___flmul+2)^0,f,c
  6237   001630  321D               	rrcf	(??___flmul+1)^0,f,c
  6238   001632  321C               	rrcf	??___flmul^0,f,c
  6239   001634  C01C  F027         	movff	??___flmul,___flmul@prod
  6240   001638  C01D  F028         	movff	??___flmul+1,___flmul@prod+1
  6241   00163C  C01E  F029         	movff	??___flmul+2,___flmul@prod+2
  6242   001640  C01F  F02A         	movff	??___flmul+3,___flmul@prod+3
  6243   001644  4A2B               	infsnz	___flmul@temp^0,f,c
  6244   001646  2A2C               	incf	(___flmul@temp+1)^0,f,c
  6245   001648                     l3781:
  6246   001648  BE2C               	btfsc	(___flmul@temp+1)^0,7,c
  6247   00164A  EF2F  F00B         	goto	u4291
  6248   00164E  502C               	movf	(___flmul@temp+1)^0,w,c
  6249   001650  E108               	bnz	u4290
  6250   001652  282B               	incf	___flmul@temp^0,w,c
  6251   001654  A0D8               	btfss	status,0,c
  6252   001656  EF2F  F00B         	goto	u4291
  6253   00165A  EF31  F00B         	goto	u4290
  6254   00165E                     u4291:
  6255   00165E  EF3B  F00B         	goto	l3785
  6256   001662                     u4290:
  6257   001662  0E00               	movlw	0
  6258   001664  6E27               	movwf	___flmul@prod^0,c
  6259   001666  0E00               	movlw	0
  6260   001668  6E28               	movwf	(___flmul@prod+1)^0,c
  6261   00166A  0E80               	movlw	128
  6262   00166C  6E29               	movwf	(___flmul@prod+2)^0,c
  6263   00166E  0E7F               	movlw	127
  6264   001670  6E2A               	movwf	(___flmul@prod+3)^0,c
  6265   001672  EF68  F00B         	goto	l3799
  6266   001676                     l3785:
  6267   001676  BE2C               	btfsc	(___flmul@temp+1)^0,7,c
  6268   001678  EF48  F00B         	goto	u4300
  6269   00167C  502C               	movf	(___flmul@temp+1)^0,w,c
  6270   00167E  E106               	bnz	u4301
  6271   001680  042B               	decf	___flmul@temp^0,w,c
  6272   001682  B0D8               	btfsc	status,0,c
  6273   001684  EF46  F00B         	goto	u4301
  6274   001688  EF48  F00B         	goto	u4300
  6275   00168C                     u4301:
  6276   00168C  EF53  F00B         	goto	l948
  6277   001690                     u4300:
  6278   001690  0E00               	movlw	0
  6279   001692  6E27               	movwf	___flmul@prod^0,c
  6280   001694  0E00               	movlw	0
  6281   001696  6E28               	movwf	(___flmul@prod+1)^0,c
  6282   001698  0E00               	movlw	0
  6283   00169A  6E29               	movwf	(___flmul@prod+2)^0,c
  6284   00169C  0E00               	movlw	0
  6285   00169E  6E2A               	movwf	(___flmul@prod+3)^0,c
  6286   0016A0  6A20               	clrf	___flmul@sign^0,c
  6287   0016A2  EF68  F00B         	goto	l3799
  6288   0016A6                     l948:
  6289   0016A6  C02B  F026         	movff	___flmul@temp,___flmul@bexp
  6290   0016AA  0EFF               	movlw	255
  6291   0016AC  1627               	andwf	___flmul@prod^0,f,c
  6292   0016AE  0EFF               	movlw	255
  6293   0016B0  1628               	andwf	(___flmul@prod+1)^0,f,c
  6294   0016B2  0E7F               	movlw	127
  6295   0016B4  1629               	andwf	(___flmul@prod+2)^0,f,c
  6296   0016B6  0E00               	movlw	0
  6297   0016B8  162A               	andwf	(___flmul@prod+3)^0,f,c
  6298   0016BA  A026               	btfss	___flmul@bexp^0,0,c
  6299   0016BC  EF62  F00B         	goto	u4311
  6300   0016C0  EF64  F00B         	goto	u4310
  6301   0016C4                     u4311:
  6302   0016C4  EF65  F00B         	goto	l3797
  6303   0016C8                     u4310:
  6304   0016C8  8E29               	bsf	(___flmul@prod+2)^0,7,c
  6305   0016CA                     l3797:
  6306   0016CA  90D8               	bcf	status,0,c
  6307   0016CC  3026               	rrcf	___flmul@bexp^0,w,c
  6308   0016CE  6E2A               	movwf	(___flmul@prod+3)^0,c
  6309   0016D0                     l3799:
  6310   0016D0  5020               	movf	___flmul@sign^0,w,c
  6311   0016D2  122A               	iorwf	(___flmul@prod+3)^0,f,c
  6312   0016D4  C027  F014         	movff	___flmul@prod,?___flmul
  6313   0016D8  C028  F015         	movff	___flmul@prod+1,?___flmul+1
  6314   0016DC  C029  F016         	movff	___flmul@prod+2,?___flmul+2
  6315   0016E0  C02A  F017         	movff	___flmul@prod+3,?___flmul+3
  6316   0016E4                     l935:
  6317   0016E4  0012               	return		;funcret
  6318   0016E6                     __end_of___flmul:
  6319                           	callstack 0
  6320                           
  6321 ;; *************** function ___fldiv *****************
  6322 ;; Defined at:
  6323 ;;		line 11 in file "C:\Program Files\Microchip\xc8\v2.50\pic\sources\c99\common\sprcdiv.c"
  6324 ;; Parameters:    Size  Location     Type
  6325 ;;  b               4   97[COMRAM] unsigned char 
  6326 ;;  a               4  101[COMRAM] unsigned char 
  6327 ;; Auto vars:     Size  Location     Type
  6328 ;;  grs             4    7[BANK0 ] unsigned long 
  6329 ;;  rem             4    0[BANK0 ] unsigned long 
  6330 ;;  new_exp         2    5[BANK0 ] short 
  6331 ;;  aexp            1   12[BANK0 ] unsigned char 
  6332 ;;  bexp            1   11[BANK0 ] unsigned char 
  6333 ;;  sign            1    4[BANK0 ] unsigned char 
  6334 ;; Return value:  Size  Location     Type
  6335 ;;                  4   97[COMRAM] unsigned char 
  6336 ;; Registers used:
  6337 ;;		wreg, status,2, status,0
  6338 ;; Tracked objects:
  6339 ;;		On entry : 0/0
  6340 ;;		On exit  : 0/0
  6341 ;;		Unchanged: 0/0
  6342 ;; Data sizes:     COMRAM   BANK0   BANK1   BANK2   BANK3   BANK4   BANK5
  6343 ;;      Params:         8       0       0       0       0       0       0
  6344 ;;      Locals:         0      13       0       0       0       0       0
  6345 ;;      Temps:          4       0       0       0       0       0       0
  6346 ;;      Totals:        12      13       0       0       0       0       0
  6347 ;;Total ram usage:       25 bytes
  6348 ;; Hardware stack levels used: 1
  6349 ;; Hardware stack levels required when called: 1
  6350 ;; This function calls:
  6351 ;;		Nothing
  6352 ;; This function is called by:
  6353 ;;		_calculate_angle
  6354 ;;		_atan2f
  6355 ;;		_atanf
  6356 ;; This function uses a non-reentrant model
  6357 ;;
  6358                           
  6359                           	psect	text20
  6360   001AC4                     __ptext20:
  6361                           	callstack 0
  6362   001AC4                     ___fldiv:
  6363                           	callstack 23
  6364   001AC4  5065               	movf	(___fldiv@b+3)^0,w,c
  6365   001AC6  0B80               	andlw	128
  6366   001AC8  0100               	movlb	0	; () banked
  6367   001ACA  6F84               	movwf	___fldiv@sign& (0+255),b
  6368   001ACC  5065               	movf	(___fldiv@b+3)^0,w,c
  6369   001ACE  2465               	addwf	(___fldiv@b+3)^0,w,c
  6370   001AD0  6F8B               	movwf	___fldiv@bexp& (0+255),b
  6371   001AD2                     
  6372                           ; BSR set to: 0
  6373   001AD2  AE64               	btfss	(___fldiv@b+2)^0,7,c
  6374   001AD4  EF6E  F00D         	goto	u3901
  6375   001AD8  EF70  F00D         	goto	u3900
  6376   001ADC                     u3901:
  6377   001ADC  EF71  F00D         	goto	l3547
  6378   001AE0                     u3900:
  6379   001AE0                     
  6380                           ; BSR set to: 0
  6381   001AE0  818B               	bsf	___fldiv@bexp& (0+255),0,b
  6382   001AE2                     l3547:
  6383                           
  6384                           ; BSR set to: 0
  6385   001AE2  518B               	movf	___fldiv@bexp& (0+255),w,b
  6386   001AE4  B4D8               	btfsc	status,2,c
  6387   001AE6  EF77  F00D         	goto	u3911
  6388   001AEA  EF79  F00D         	goto	u3910
  6389   001AEE                     u3911:
  6390   001AEE  EF8D  F00D         	goto	l3557
  6391   001AF2                     u3910:
  6392   001AF2                     
  6393                           ; BSR set to: 0
  6394   001AF2  298B               	incf	___fldiv@bexp& (0+255),w,b
  6395   001AF4  A4D8               	btfss	status,2,c
  6396   001AF6  EF7F  F00D         	goto	u3921
  6397   001AFA  EF81  F00D         	goto	u3920
  6398   001AFE                     u3921:
  6399   001AFE  EF89  F00D         	goto	l3553
  6400   001B02                     u3920:
  6401   001B02                     
  6402                           ; BSR set to: 0
  6403   001B02  0E00               	movlw	0
  6404   001B04  6E62               	movwf	___fldiv@b^0,c
  6405   001B06  0E00               	movlw	0
  6406   001B08  6E63               	movwf	(___fldiv@b+1)^0,c
  6407   001B0A  0E00               	movlw	0
  6408   001B0C  6E64               	movwf	(___fldiv@b+2)^0,c
  6409   001B0E  0E00               	movlw	0
  6410   001B10  6E65               	movwf	(___fldiv@b+3)^0,c
  6411   001B12                     l3553:
  6412                           
  6413                           ; BSR set to: 0
  6414   001B12  8E64               	bsf	(___fldiv@b+2)^0,7,c
  6415   001B14                     
  6416                           ; BSR set to: 0
  6417   001B14  6A65               	clrf	(___fldiv@b+3)^0,c
  6418   001B16  EF95  F00D         	goto	l3559
  6419   001B1A                     l3557:
  6420                           
  6421                           ; BSR set to: 0
  6422   001B1A  0E00               	movlw	0
  6423   001B1C  6E62               	movwf	___fldiv@b^0,c
  6424   001B1E  0E00               	movlw	0
  6425   001B20  6E63               	movwf	(___fldiv@b+1)^0,c
  6426   001B22  0E00               	movlw	0
  6427   001B24  6E64               	movwf	(___fldiv@b+2)^0,c
  6428   001B26  0E00               	movlw	0
  6429   001B28  6E65               	movwf	(___fldiv@b+3)^0,c
  6430   001B2A                     l3559:
  6431                           
  6432                           ; BSR set to: 0
  6433   001B2A  5069               	movf	(___fldiv@a+3)^0,w,c
  6434   001B2C  0B80               	andlw	128
  6435   001B2E  1B84               	xorwf	___fldiv@sign& (0+255),f,b
  6436   001B30                     
  6437                           ; BSR set to: 0
  6438   001B30  5069               	movf	(___fldiv@a+3)^0,w,c
  6439   001B32  2469               	addwf	(___fldiv@a+3)^0,w,c
  6440   001B34  6F8C               	movwf	___fldiv@aexp& (0+255),b
  6441   001B36                     
  6442                           ; BSR set to: 0
  6443   001B36  AE68               	btfss	(___fldiv@a+2)^0,7,c
  6444   001B38  EFA0  F00D         	goto	u3931
  6445   001B3C  EFA2  F00D         	goto	u3930
  6446   001B40                     u3931:
  6447   001B40  EFA3  F00D         	goto	l3567
  6448   001B44                     u3930:
  6449   001B44                     
  6450                           ; BSR set to: 0
  6451   001B44  818C               	bsf	___fldiv@aexp& (0+255),0,b
  6452   001B46                     l3567:
  6453                           
  6454                           ; BSR set to: 0
  6455   001B46  518C               	movf	___fldiv@aexp& (0+255),w,b
  6456   001B48  B4D8               	btfsc	status,2,c
  6457   001B4A  EFA9  F00D         	goto	u3941
  6458   001B4E  EFAB  F00D         	goto	u3940
  6459   001B52                     u3941:
  6460   001B52  EFBF  F00D         	goto	l3577
  6461   001B56                     u3940:
  6462   001B56                     
  6463                           ; BSR set to: 0
  6464   001B56  298C               	incf	___fldiv@aexp& (0+255),w,b
  6465   001B58  A4D8               	btfss	status,2,c
  6466   001B5A  EFB1  F00D         	goto	u3951
  6467   001B5E  EFB3  F00D         	goto	u3950
  6468   001B62                     u3951:
  6469   001B62  EFBB  F00D         	goto	l3573
  6470   001B66                     u3950:
  6471   001B66                     
  6472                           ; BSR set to: 0
  6473   001B66  0E00               	movlw	0
  6474   001B68  6E66               	movwf	___fldiv@a^0,c
  6475   001B6A  0E00               	movlw	0
  6476   001B6C  6E67               	movwf	(___fldiv@a+1)^0,c
  6477   001B6E  0E00               	movlw	0
  6478   001B70  6E68               	movwf	(___fldiv@a+2)^0,c
  6479   001B72  0E00               	movlw	0
  6480   001B74  6E69               	movwf	(___fldiv@a+3)^0,c
  6481   001B76                     l3573:
  6482                           
  6483                           ; BSR set to: 0
  6484   001B76  8E68               	bsf	(___fldiv@a+2)^0,7,c
  6485   001B78                     
  6486                           ; BSR set to: 0
  6487   001B78  6A69               	clrf	(___fldiv@a+3)^0,c
  6488   001B7A  EFC7  F00D         	goto	l3579
  6489   001B7E                     l3577:
  6490                           
  6491                           ; BSR set to: 0
  6492   001B7E  0E00               	movlw	0
  6493   001B80  6E66               	movwf	___fldiv@a^0,c
  6494   001B82  0E00               	movlw	0
  6495   001B84  6E67               	movwf	(___fldiv@a+1)^0,c
  6496   001B86  0E00               	movlw	0
  6497   001B88  6E68               	movwf	(___fldiv@a+2)^0,c
  6498   001B8A  0E00               	movlw	0
  6499   001B8C  6E69               	movwf	(___fldiv@a+3)^0,c
  6500   001B8E                     l3579:
  6501                           
  6502                           ; BSR set to: 0
  6503   001B8E  5066               	movf	___fldiv@a^0,w,c
  6504   001B90  1067               	iorwf	(___fldiv@a+1)^0,w,c
  6505   001B92  1068               	iorwf	(___fldiv@a+2)^0,w,c
  6506   001B94  1069               	iorwf	(___fldiv@a+3)^0,w,c
  6507   001B96  A4D8               	btfss	status,2,c
  6508   001B98  EFD0  F00D         	goto	u3961
  6509   001B9C  EFD2  F00D         	goto	u3960
  6510   001BA0                     u3961:
  6511   001BA0  EFEA  F00D         	goto	l3591
  6512   001BA4                     u3960:
  6513   001BA4                     
  6514                           ; BSR set to: 0
  6515   001BA4  0E00               	movlw	0
  6516   001BA6  6E62               	movwf	___fldiv@b^0,c
  6517   001BA8  0E00               	movlw	0
  6518   001BAA  6E63               	movwf	(___fldiv@b+1)^0,c
  6519   001BAC  0E00               	movlw	0
  6520   001BAE  6E64               	movwf	(___fldiv@b+2)^0,c
  6521   001BB0  0E00               	movlw	0
  6522   001BB2  6E65               	movwf	(___fldiv@b+3)^0,c
  6523   001BB4                     
  6524                           ; BSR set to: 0
  6525   001BB4  0E80               	movlw	128
  6526   001BB6  1264               	iorwf	(___fldiv@b+2)^0,f,c
  6527   001BB8  0E7F               	movlw	127
  6528   001BBA  1265               	iorwf	(___fldiv@b+3)^0,f,c
  6529   001BBC                     l3585:
  6530                           
  6531                           ; BSR set to: 0
  6532   001BBC  5184               	movf	___fldiv@sign& (0+255),w,b
  6533   001BBE  1265               	iorwf	(___fldiv@b+3)^0,f,c
  6534   001BC0                     
  6535                           ; BSR set to: 0
  6536   001BC0  C062  F062         	movff	___fldiv@b,?___fldiv
  6537   001BC4  C063  F063         	movff	___fldiv@b+1,?___fldiv+1
  6538   001BC8  C064  F064         	movff	___fldiv@b+2,?___fldiv+2
  6539   001BCC  C065  F065         	movff	___fldiv@b+3,?___fldiv+3
  6540   001BD0  EF2A  F00F         	goto	l899
  6541   001BD4                     l3591:
  6542                           
  6543                           ; BSR set to: 0
  6544   001BD4  518B               	movf	___fldiv@bexp& (0+255),w,b
  6545   001BD6  A4D8               	btfss	status,2,c
  6546   001BD8  EFF0  F00D         	goto	u3971
  6547   001BDC  EFF2  F00D         	goto	u3970
  6548   001BE0                     u3971:
  6549   001BE0  EFFC  F00D         	goto	l3599
  6550   001BE4                     u3970:
  6551   001BE4                     
  6552                           ; BSR set to: 0
  6553   001BE4  0E00               	movlw	0
  6554   001BE6  6E62               	movwf	?___fldiv^0,c
  6555   001BE8  0E00               	movlw	0
  6556   001BEA  6E63               	movwf	(?___fldiv+1)^0,c
  6557   001BEC  0E00               	movlw	0
  6558   001BEE  6E64               	movwf	(?___fldiv+2)^0,c
  6559   001BF0  0E00               	movlw	0
  6560   001BF2  6E65               	movwf	(?___fldiv+3)^0,c
  6561   001BF4  EF2A  F00F         	goto	l899
  6562   001BF8                     l3599:
  6563                           
  6564                           ; BSR set to: 0
  6565   001BF8  518C               	movf	___fldiv@aexp& (0+255),w,b
  6566   001BFA  C08B  F06A         	movff	___fldiv@bexp,??___fldiv
  6567   001BFE  6A6B               	clrf	(??___fldiv+1)^0,c
  6568   001C00  5E6A               	subwf	??___fldiv^0,f,c
  6569   001C02  0E00               	movlw	0
  6570   001C04  5A6B               	subwfb	(??___fldiv+1)^0,f,c
  6571   001C06  0E7F               	movlw	127
  6572   001C08  246A               	addwf	??___fldiv^0,w,c
  6573   001C0A  6F85               	movwf	___fldiv@new_exp& (0+255),b
  6574   001C0C  0E00               	movlw	0
  6575   001C0E  206B               	addwfc	(??___fldiv+1)^0,w,c
  6576   001C10  6F86               	movwf	(___fldiv@new_exp+1)& (0+255),b
  6577   001C12                     
  6578                           ; BSR set to: 0
  6579   001C12  C062  F080         	movff	___fldiv@b,___fldiv@rem
  6580   001C16  C063  F081         	movff	___fldiv@b+1,___fldiv@rem+1
  6581   001C1A  C064  F082         	movff	___fldiv@b+2,___fldiv@rem+2
  6582   001C1E  C065  F083         	movff	___fldiv@b+3,___fldiv@rem+3
  6583   001C22                     
  6584                           ; BSR set to: 0
  6585   001C22  0E00               	movlw	0
  6586   001C24  6E62               	movwf	___fldiv@b^0,c
  6587   001C26  0E00               	movlw	0
  6588   001C28  6E63               	movwf	(___fldiv@b+1)^0,c
  6589   001C2A  0E00               	movlw	0
  6590   001C2C  6E64               	movwf	(___fldiv@b+2)^0,c
  6591   001C2E  0E00               	movlw	0
  6592   001C30  6E65               	movwf	(___fldiv@b+3)^0,c
  6593   001C32                     
  6594                           ; BSR set to: 0
  6595   001C32  0E00               	movlw	0
  6596   001C34  6F87               	movwf	___fldiv@grs& (0+255),b
  6597   001C36  0E00               	movlw	0
  6598   001C38  6F88               	movwf	(___fldiv@grs+1)& (0+255),b
  6599   001C3A  0E00               	movlw	0
  6600   001C3C  6F89               	movwf	(___fldiv@grs+2)& (0+255),b
  6601   001C3E  0E00               	movlw	0
  6602   001C40  6F8A               	movwf	(___fldiv@grs+3)& (0+255),b
  6603   001C42                     
  6604                           ; BSR set to: 0
  6605   001C42  6B8C               	clrf	___fldiv@aexp& (0+255),b
  6606   001C44  EF5C  F00E         	goto	l901
  6607   001C48                     l3609:
  6608                           
  6609                           ; BSR set to: 0
  6610   001C48  518C               	movf	___fldiv@aexp& (0+255),w,b
  6611   001C4A  B4D8               	btfsc	status,2,c
  6612   001C4C  EF2A  F00E         	goto	u3981
  6613   001C50  EF2C  F00E         	goto	u3980
  6614   001C54                     u3981:
  6615   001C54  EF43  F00E         	goto	l3617
  6616   001C58                     u3980:
  6617   001C58                     
  6618                           ; BSR set to: 0
  6619   001C58  90D8               	bcf	status,0,c
  6620   001C5A  3780               	rlcf	___fldiv@rem& (0+255),f,b
  6621   001C5C  3781               	rlcf	(___fldiv@rem+1)& (0+255),f,b
  6622   001C5E  3782               	rlcf	(___fldiv@rem+2)& (0+255),f,b
  6623   001C60  3783               	rlcf	(___fldiv@rem+3)& (0+255),f,b
  6624   001C62  90D8               	bcf	status,0,c
  6625   001C64  3662               	rlcf	___fldiv@b^0,f,c
  6626   001C66  3663               	rlcf	(___fldiv@b+1)^0,f,c
  6627   001C68  3664               	rlcf	(___fldiv@b+2)^0,f,c
  6628   001C6A  3665               	rlcf	(___fldiv@b+3)^0,f,c
  6629   001C6C                     
  6630                           ; BSR set to: 0
  6631   001C6C  AF8A               	btfss	(___fldiv@grs+3)& (0+255),7,b
  6632   001C6E  EF3B  F00E         	goto	u3991
  6633   001C72  EF3D  F00E         	goto	u3990
  6634   001C76                     u3991:
  6635   001C76  EF3E  F00E         	goto	l904
  6636   001C7A                     u3990:
  6637   001C7A                     
  6638                           ; BSR set to: 0
  6639   001C7A  8062               	bsf	___fldiv@b^0,0,c
  6640   001C7C                     l904:
  6641                           
  6642                           ; BSR set to: 0
  6643   001C7C  90D8               	bcf	status,0,c
  6644   001C7E  3787               	rlcf	___fldiv@grs& (0+255),f,b
  6645   001C80  3788               	rlcf	(___fldiv@grs+1)& (0+255),f,b
  6646   001C82  3789               	rlcf	(___fldiv@grs+2)& (0+255),f,b
  6647   001C84  378A               	rlcf	(___fldiv@grs+3)& (0+255),f,b
  6648   001C86                     l3617:
  6649                           
  6650                           ; BSR set to: 0
  6651   001C86  5066               	movf	___fldiv@a^0,w,c
  6652   001C88  5D80               	subwf	___fldiv@rem& (0+255),w,b
  6653   001C8A  5067               	movf	(___fldiv@a+1)^0,w,c
  6654   001C8C  5981               	subwfb	(___fldiv@rem+1)& (0+255),w,b
  6655   001C8E  5068               	movf	(___fldiv@a+2)^0,w,c
  6656   001C90  5982               	subwfb	(___fldiv@rem+2)& (0+255),w,b
  6657   001C92  5069               	movf	(___fldiv@a+3)^0,w,c
  6658   001C94  5983               	subwfb	(___fldiv@rem+3)& (0+255),w,b
  6659   001C96  A0D8               	btfss	status,0,c
  6660   001C98  EF50  F00E         	goto	u4001
  6661   001C9C  EF52  F00E         	goto	u4000
  6662   001CA0                     u4001:
  6663   001CA0  EF5B  F00E         	goto	l3623
  6664   001CA4                     u4000:
  6665   001CA4                     
  6666                           ; BSR set to: 0
  6667   001CA4  8D8A               	bsf	(___fldiv@grs+3)& (0+255),6,b
  6668   001CA6                     
  6669                           ; BSR set to: 0
  6670   001CA6  5066               	movf	___fldiv@a^0,w,c
  6671   001CA8  5F80               	subwf	___fldiv@rem& (0+255),f,b
  6672   001CAA  5067               	movf	(___fldiv@a+1)^0,w,c
  6673   001CAC  5B81               	subwfb	(___fldiv@rem+1)& (0+255),f,b
  6674   001CAE  5068               	movf	(___fldiv@a+2)^0,w,c
  6675   001CB0  5B82               	subwfb	(___fldiv@rem+2)& (0+255),f,b
  6676   001CB2  5069               	movf	(___fldiv@a+3)^0,w,c
  6677   001CB4  5B83               	subwfb	(___fldiv@rem+3)& (0+255),f,b
  6678   001CB6                     l3623:
  6679                           
  6680                           ; BSR set to: 0
  6681   001CB6  2B8C               	incf	___fldiv@aexp& (0+255),f,b
  6682   001CB8                     l901:
  6683                           
  6684                           ; BSR set to: 0
  6685   001CB8  0E19               	movlw	25
  6686   001CBA  658C               	cpfsgt	___fldiv@aexp& (0+255),b
  6687   001CBC  EF62  F00E         	goto	u4011
  6688   001CC0  EF64  F00E         	goto	u4010
  6689   001CC4                     u4011:
  6690   001CC4  EF24  F00E         	goto	l3609
  6691   001CC8                     u4010:
  6692   001CC8                     
  6693                           ; BSR set to: 0
  6694   001CC8  5180               	movf	___fldiv@rem& (0+255),w,b
  6695   001CCA  1181               	iorwf	(___fldiv@rem+1)& (0+255),w,b
  6696   001CCC  1182               	iorwf	(___fldiv@rem+2)& (0+255),w,b
  6697   001CCE  1183               	iorwf	(___fldiv@rem+3)& (0+255),w,b
  6698   001CD0  B4D8               	btfsc	status,2,c
  6699   001CD2  EF6D  F00E         	goto	u4021
  6700   001CD6  EF6F  F00E         	goto	u4020
  6701   001CDA                     u4021:
  6702   001CDA  EF87  F00E         	goto	l3635
  6703   001CDE                     u4020:
  6704   001CDE                     
  6705                           ; BSR set to: 0
  6706   001CDE  8187               	bsf	___fldiv@grs& (0+255),0,b
  6707   001CE0  EF87  F00E         	goto	l3635
  6708   001CE4                     l3629:
  6709                           
  6710                           ; BSR set to: 0
  6711   001CE4  90D8               	bcf	status,0,c
  6712   001CE6  3662               	rlcf	___fldiv@b^0,f,c
  6713   001CE8  3663               	rlcf	(___fldiv@b+1)^0,f,c
  6714   001CEA  3664               	rlcf	(___fldiv@b+2)^0,f,c
  6715   001CEC  3665               	rlcf	(___fldiv@b+3)^0,f,c
  6716   001CEE                     
  6717                           ; BSR set to: 0
  6718   001CEE  AF8A               	btfss	(___fldiv@grs+3)& (0+255),7,b
  6719   001CF0  EF7C  F00E         	goto	u4031
  6720   001CF4  EF7E  F00E         	goto	u4030
  6721   001CF8                     u4031:
  6722   001CF8  EF7F  F00E         	goto	l910
  6723   001CFC                     u4030:
  6724   001CFC                     
  6725                           ; BSR set to: 0
  6726   001CFC  8062               	bsf	___fldiv@b^0,0,c
  6727   001CFE                     l910:
  6728                           
  6729                           ; BSR set to: 0
  6730   001CFE  90D8               	bcf	status,0,c
  6731   001D00  3787               	rlcf	___fldiv@grs& (0+255),f,b
  6732   001D02  3788               	rlcf	(___fldiv@grs+1)& (0+255),f,b
  6733   001D04  3789               	rlcf	(___fldiv@grs+2)& (0+255),f,b
  6734   001D06  378A               	rlcf	(___fldiv@grs+3)& (0+255),f,b
  6735   001D08  0785               	decf	___fldiv@new_exp& (0+255),f,b
  6736   001D0A  A0D8               	btfss	status,0,c
  6737   001D0C  0786               	decf	(___fldiv@new_exp+1)& (0+255),f,b
  6738   001D0E                     l3635:
  6739                           
  6740                           ; BSR set to: 0
  6741   001D0E  AE64               	btfss	(___fldiv@b+2)^0,7,c
  6742   001D10  EF8C  F00E         	goto	u4041
  6743   001D14  EF8E  F00E         	goto	u4040
  6744   001D18                     u4041:
  6745   001D18  EF72  F00E         	goto	l3629
  6746   001D1C                     u4040:
  6747   001D1C                     
  6748                           ; BSR set to: 0
  6749   001D1C  6B8C               	clrf	___fldiv@aexp& (0+255),b
  6750   001D1E  AF8A               	btfss	(___fldiv@grs+3)& (0+255),7,b
  6751   001D20  EF94  F00E         	goto	u4051
  6752   001D24  EF96  F00E         	goto	u4050
  6753   001D28                     u4051:
  6754   001D28  EFBA  F00E         	goto	l912
  6755   001D2C                     u4050:
  6756   001D2C                     
  6757                           ; BSR set to: 0
  6758   001D2C  0EFF               	movlw	255
  6759   001D2E  1587               	andwf	___fldiv@grs& (0+255),w,b
  6760   001D30  6E6A               	movwf	??___fldiv^0,c
  6761   001D32  0EFF               	movlw	255
  6762   001D34  1588               	andwf	(___fldiv@grs+1)& (0+255),w,b
  6763   001D36  6E6B               	movwf	(??___fldiv+1)^0,c
  6764   001D38  0EFF               	movlw	255
  6765   001D3A  1589               	andwf	(___fldiv@grs+2)& (0+255),w,b
  6766   001D3C  6E6C               	movwf	(??___fldiv+2)^0,c
  6767   001D3E  0E7F               	movlw	127
  6768   001D40  158A               	andwf	(___fldiv@grs+3)& (0+255),w,b
  6769   001D42  6E6D               	movwf	(??___fldiv+3)^0,c
  6770   001D44  506A               	movf	??___fldiv^0,w,c
  6771   001D46  106B               	iorwf	(??___fldiv+1)^0,w,c
  6772   001D48  106C               	iorwf	(??___fldiv+2)^0,w,c
  6773   001D4A  106D               	iorwf	(??___fldiv+3)^0,w,c
  6774   001D4C  B4D8               	btfsc	status,2,c
  6775   001D4E  EFAB  F00E         	goto	u4061
  6776   001D52  EFAD  F00E         	goto	u4060
  6777   001D56                     u4061:
  6778   001D56  EFB1  F00E         	goto	l913
  6779   001D5A                     u4060:
  6780   001D5A                     l3639:
  6781                           
  6782                           ; BSR set to: 0
  6783   001D5A  0E01               	movlw	1
  6784   001D5C  6F8C               	movwf	___fldiv@aexp& (0+255),b
  6785   001D5E  EFBA  F00E         	goto	l912
  6786   001D62                     l913:
  6787                           
  6788                           ; BSR set to: 0
  6789   001D62  A062               	btfss	___fldiv@b^0,0,c
  6790   001D64  EFB6  F00E         	goto	u4071
  6791   001D68  EFB8  F00E         	goto	u4070
  6792   001D6C                     u4071:
  6793   001D6C  EFBA  F00E         	goto	l912
  6794   001D70                     u4070:
  6795   001D70  EFAD  F00E         	goto	l3639
  6796   001D74                     l912:
  6797                           
  6798                           ; BSR set to: 0
  6799   001D74  518C               	movf	___fldiv@aexp& (0+255),w,b
  6800   001D76  B4D8               	btfsc	status,2,c
  6801   001D78  EFC0  F00E         	goto	u4081
  6802   001D7C  EFC2  F00E         	goto	u4080
  6803   001D80                     u4081:
  6804   001D80  EFE6  F00E         	goto	l3651
  6805   001D84                     u4080:
  6806   001D84                     
  6807                           ; BSR set to: 0
  6808   001D84  0E01               	movlw	1
  6809   001D86  2662               	addwf	___fldiv@b^0,f,c
  6810   001D88  0E00               	movlw	0
  6811   001D8A  2263               	addwfc	(___fldiv@b+1)^0,f,c
  6812   001D8C  2264               	addwfc	(___fldiv@b+2)^0,f,c
  6813   001D8E  2265               	addwfc	(___fldiv@b+3)^0,f,c
  6814   001D90                     
  6815                           ; BSR set to: 0
  6816   001D90  A065               	btfss	(___fldiv@b+3)^0,0,c
  6817   001D92  EFCD  F00E         	goto	u4091
  6818   001D96  EFCF  F00E         	goto	u4090
  6819   001D9A                     u4091:
  6820   001D9A  EFE6  F00E         	goto	l3651
  6821   001D9E                     u4090:
  6822   001D9E                     
  6823                           ; BSR set to: 0
  6824   001D9E  C062  F06A         	movff	___fldiv@b,??___fldiv
  6825   001DA2  C063  F06B         	movff	___fldiv@b+1,??___fldiv+1
  6826   001DA6  C064  F06C         	movff	___fldiv@b+2,??___fldiv+2
  6827   001DAA  C065  F06D         	movff	___fldiv@b+3,??___fldiv+3
  6828   001DAE  346D               	rlcf	(??___fldiv+3)^0,w,c
  6829   001DB0  326D               	rrcf	(??___fldiv+3)^0,f,c
  6830   001DB2  326C               	rrcf	(??___fldiv+2)^0,f,c
  6831   001DB4  326B               	rrcf	(??___fldiv+1)^0,f,c
  6832   001DB6  326A               	rrcf	??___fldiv^0,f,c
  6833   001DB8  C06A  F062         	movff	??___fldiv,___fldiv@b
  6834   001DBC  C06B  F063         	movff	??___fldiv+1,___fldiv@b+1
  6835   001DC0  C06C  F064         	movff	??___fldiv+2,___fldiv@b+2
  6836   001DC4  C06D  F065         	movff	??___fldiv+3,___fldiv@b+3
  6837   001DC8                     
  6838                           ; BSR set to: 0
  6839   001DC8  4B85               	infsnz	___fldiv@new_exp& (0+255),f,b
  6840   001DCA  2B86               	incf	(___fldiv@new_exp+1)& (0+255),f,b
  6841   001DCC                     l3651:
  6842                           
  6843                           ; BSR set to: 0
  6844   001DCC  BF86               	btfsc	(___fldiv@new_exp+1)& (0+255),7,b
  6845   001DCE  EFF1  F00E         	goto	u4101
  6846   001DD2  5186               	movf	(___fldiv@new_exp+1)& (0+255),w,b
  6847   001DD4  E108               	bnz	u4100
  6848   001DD6  2985               	incf	___fldiv@new_exp& (0+255),w,b
  6849   001DD8  A0D8               	btfss	status,0,c
  6850   001DDA  EFF1  F00E         	goto	u4101
  6851   001DDE  EFF3  F00E         	goto	u4100
  6852   001DE2                     u4101:
  6853   001DE2  EFFE  F00E         	goto	l3655
  6854   001DE6                     u4100:
  6855   001DE6                     
  6856                           ; BSR set to: 0
  6857   001DE6  0E00               	movlw	0
  6858   001DE8  6F86               	movwf	(___fldiv@new_exp+1)& (0+255),b
  6859   001DEA  6985               	setf	___fldiv@new_exp& (0+255),b
  6860   001DEC  0E00               	movlw	0
  6861   001DEE  6E62               	movwf	___fldiv@b^0,c
  6862   001DF0  0E00               	movlw	0
  6863   001DF2  6E63               	movwf	(___fldiv@b+1)^0,c
  6864   001DF4  0E00               	movlw	0
  6865   001DF6  6E64               	movwf	(___fldiv@b+2)^0,c
  6866   001DF8  0E00               	movlw	0
  6867   001DFA  6E65               	movwf	(___fldiv@b+3)^0,c
  6868   001DFC                     l3655:
  6869                           
  6870                           ; BSR set to: 0
  6871   001DFC  BF86               	btfsc	(___fldiv@new_exp+1)& (0+255),7,b
  6872   001DFE  EF0B  F00F         	goto	u4110
  6873   001E02  5186               	movf	(___fldiv@new_exp+1)& (0+255),w,b
  6874   001E04  E106               	bnz	u4111
  6875   001E06  0585               	decf	___fldiv@new_exp& (0+255),w,b
  6876   001E08  B0D8               	btfsc	status,0,c
  6877   001E0A  EF09  F00F         	goto	u4111
  6878   001E0E  EF0B  F00F         	goto	u4110
  6879   001E12                     u4111:
  6880   001E12  EF18  F00F         	goto	l3661
  6881   001E16                     u4110:
  6882   001E16                     
  6883                           ; BSR set to: 0
  6884   001E16  0E00               	movlw	0
  6885   001E18  6F86               	movwf	(___fldiv@new_exp+1)& (0+255),b
  6886   001E1A  0E00               	movlw	0
  6887   001E1C  6F85               	movwf	___fldiv@new_exp& (0+255),b
  6888   001E1E  0E00               	movlw	0
  6889   001E20  6E62               	movwf	___fldiv@b^0,c
  6890   001E22  0E00               	movlw	0
  6891   001E24  6E63               	movwf	(___fldiv@b+1)^0,c
  6892   001E26  0E00               	movlw	0
  6893   001E28  6E64               	movwf	(___fldiv@b+2)^0,c
  6894   001E2A  0E00               	movlw	0
  6895   001E2C  6E65               	movwf	(___fldiv@b+3)^0,c
  6896   001E2E                     
  6897                           ; BSR set to: 0
  6898   001E2E  6B84               	clrf	___fldiv@sign& (0+255),b
  6899   001E30                     l3661:
  6900                           
  6901                           ; BSR set to: 0
  6902   001E30  C085  F08B         	movff	___fldiv@new_exp,___fldiv@bexp
  6903   001E34                     
  6904                           ; BSR set to: 0
  6905   001E34  A18B               	btfss	___fldiv@bexp& (0+255),0,b
  6906   001E36  EF1F  F00F         	goto	u4121
  6907   001E3A  EF21  F00F         	goto	u4120
  6908   001E3E                     u4121:
  6909   001E3E  EF24  F00F         	goto	l3667
  6910   001E42                     u4120:
  6911   001E42                     
  6912                           ; BSR set to: 0
  6913   001E42  8E64               	bsf	(___fldiv@b+2)^0,7,c
  6914   001E44  EF25  F00F         	goto	l3669
  6915   001E48                     l3667:
  6916                           
  6917                           ; BSR set to: 0
  6918   001E48  9E64               	bcf	(___fldiv@b+2)^0,7,c
  6919   001E4A                     l3669:
  6920                           
  6921                           ; BSR set to: 0
  6922   001E4A  90D8               	bcf	status,0,c
  6923   001E4C  318B               	rrcf	___fldiv@bexp& (0+255),w,b
  6924   001E4E  6E65               	movwf	(___fldiv@b+3)^0,c
  6925   001E50  EFDE  F00D         	goto	l3585
  6926   001E54                     l899:
  6927                           
  6928                           ; BSR set to: 0
  6929   001E54  0012               	return		;funcret
  6930   001E56                     __end_of___fldiv:
  6931                           	callstack 0
  6932                           
  6933 ;; *************** function ___xxtofl *****************
  6934 ;; Defined at:
  6935 ;;		line 10 in file "C:\Program Files\Microchip\xc8\v2.50\pic\sources\c99\common\xxtofl.c"
  6936 ;; Parameters:    Size  Location     Type
  6937 ;;  sign            1    wreg     unsigned char 
  6938 ;;  val             4    5[COMRAM] long 
  6939 ;; Auto vars:     Size  Location     Type
  6940 ;;  sign            1   13[COMRAM] unsigned char 
  6941 ;;  arg             4   15[COMRAM] unsigned long 
  6942 ;;  exp             1   14[COMRAM] unsigned char 
  6943 ;; Return value:  Size  Location     Type
  6944 ;;                  4    5[COMRAM] unsigned char 
  6945 ;; Registers used:
  6946 ;;		wreg, status,2, status,0
  6947 ;; Tracked objects:
  6948 ;;		On entry : 0/0
  6949 ;;		On exit  : 0/0
  6950 ;;		Unchanged: 0/0
  6951 ;; Data sizes:     COMRAM   BANK0   BANK1   BANK2   BANK3   BANK4   BANK5
  6952 ;;      Params:         4       0       0       0       0       0       0
  6953 ;;      Locals:         6       0       0       0       0       0       0
  6954 ;;      Temps:          4       0       0       0       0       0       0
  6955 ;;      Totals:        14       0       0       0       0       0       0
  6956 ;;Total ram usage:       14 bytes
  6957 ;; Hardware stack levels used: 1
  6958 ;; Hardware stack levels required when called: 1
  6959 ;; This function calls:
  6960 ;;		Nothing
  6961 ;; This function is called by:
  6962 ;;		_calculate_angle
  6963 ;; This function uses a non-reentrant model
  6964 ;;
  6965                           
  6966                           	psect	text21
  6967   001E56                     __ptext21:
  6968                           	callstack 0
  6969   001E56                     ___xxtofl:
  6970                           	callstack 25
  6971                           
  6972                           ; BSR set to: 0
  6973                           ;incstack = 0
  6974                           ;___xxtofl@sign stored from wreg
  6975   001E56  6E0E               	movwf	___xxtofl@sign^0,c
  6976   001E58  500E               	movf	___xxtofl@sign^0,w,c
  6977   001E5A  B4D8               	btfsc	status,2,c
  6978   001E5C  EF32  F00F         	goto	u4811
  6979   001E60  EF34  F00F         	goto	u4810
  6980   001E64                     u4811:
  6981   001E64  EF56  F00F         	goto	l972
  6982   001E68                     u4810:
  6983   001E68  BE09               	btfsc	(___xxtofl@val+3)^0,7,c
  6984   001E6A  EF3B  F00F         	goto	u4820
  6985   001E6E  EF39  F00F         	goto	u4821
  6986   001E72                     u4821:
  6987   001E72  EF56  F00F         	goto	l972
  6988   001E76                     u4820:
  6989   001E76  C006  F00A         	movff	___xxtofl@val,??___xxtofl
  6990   001E7A  C007  F00B         	movff	___xxtofl@val+1,??___xxtofl+1
  6991   001E7E  C008  F00C         	movff	___xxtofl@val+2,??___xxtofl+2
  6992   001E82  C009  F00D         	movff	___xxtofl@val+3,??___xxtofl+3
  6993   001E86  1E0A               	comf	??___xxtofl^0,f,c
  6994   001E88  1E0B               	comf	(??___xxtofl+1)^0,f,c
  6995   001E8A  1E0C               	comf	(??___xxtofl+2)^0,f,c
  6996   001E8C  1E0D               	comf	(??___xxtofl+3)^0,f,c
  6997   001E8E  2A0A               	incf	??___xxtofl^0,f,c
  6998   001E90  0E00               	movlw	0
  6999   001E92  220B               	addwfc	(??___xxtofl+1)^0,f,c
  7000   001E94  220C               	addwfc	(??___xxtofl+2)^0,f,c
  7001   001E96  220D               	addwfc	(??___xxtofl+3)^0,f,c
  7002   001E98  C00A  F010         	movff	??___xxtofl,___xxtofl@arg
  7003   001E9C  C00B  F011         	movff	??___xxtofl+1,___xxtofl@arg+1
  7004   001EA0  C00C  F012         	movff	??___xxtofl+2,___xxtofl@arg+2
  7005   001EA4  C00D  F013         	movff	??___xxtofl+3,___xxtofl@arg+3
  7006   001EA8  EF5E  F00F         	goto	l4135
  7007   001EAC                     l972:
  7008   001EAC  C006  F010         	movff	___xxtofl@val,___xxtofl@arg
  7009   001EB0  C007  F011         	movff	___xxtofl@val+1,___xxtofl@arg+1
  7010   001EB4  C008  F012         	movff	___xxtofl@val+2,___xxtofl@arg+2
  7011   001EB8  C009  F013         	movff	___xxtofl@val+3,___xxtofl@arg+3
  7012   001EBC                     l4135:
  7013   001EBC  5006               	movf	___xxtofl@val^0,w,c
  7014   001EBE  1007               	iorwf	(___xxtofl@val+1)^0,w,c
  7015   001EC0  1008               	iorwf	(___xxtofl@val+2)^0,w,c
  7016   001EC2  1009               	iorwf	(___xxtofl@val+3)^0,w,c
  7017   001EC4  A4D8               	btfss	status,2,c
  7018   001EC6  EF67  F00F         	goto	u4831
  7019   001ECA  EF69  F00F         	goto	u4830
  7020   001ECE                     u4831:
  7021   001ECE  EF73  F00F         	goto	l4141
  7022   001ED2                     u4830:
  7023   001ED2  0E00               	movlw	0
  7024   001ED4  6E06               	movwf	?___xxtofl^0,c
  7025   001ED6  0E00               	movlw	0
  7026   001ED8  6E07               	movwf	(?___xxtofl+1)^0,c
  7027   001EDA  0E00               	movlw	0
  7028   001EDC  6E08               	movwf	(?___xxtofl+2)^0,c
  7029   001EDE  0E00               	movlw	0
  7030   001EE0  6E09               	movwf	(?___xxtofl+3)^0,c
  7031   001EE2  EF04  F010         	goto	l975
  7032   001EE6                     l4141:
  7033   001EE6  0E96               	movlw	150
  7034   001EE8  6E0F               	movwf	___xxtofl@exp^0,c
  7035   001EEA  EF7D  F00F         	goto	l4145
  7036   001EEE                     l4143:
  7037   001EEE  2A0F               	incf	___xxtofl@exp^0,f,c
  7038   001EF0  90D8               	bcf	status,0,c
  7039   001EF2  3213               	rrcf	(___xxtofl@arg+3)^0,f,c
  7040   001EF4  3212               	rrcf	(___xxtofl@arg+2)^0,f,c
  7041   001EF6  3211               	rrcf	(___xxtofl@arg+1)^0,f,c
  7042   001EF8  3210               	rrcf	___xxtofl@arg^0,f,c
  7043   001EFA                     l4145:
  7044   001EFA  0E00               	movlw	0
  7045   001EFC  1410               	andwf	___xxtofl@arg^0,w,c
  7046   001EFE  6E0A               	movwf	??___xxtofl^0,c
  7047   001F00  0E00               	movlw	0
  7048   001F02  1411               	andwf	(___xxtofl@arg+1)^0,w,c
  7049   001F04  6E0B               	movwf	(??___xxtofl+1)^0,c
  7050   001F06  0E00               	movlw	0
  7051   001F08  1412               	andwf	(___xxtofl@arg+2)^0,w,c
  7052   001F0A  6E0C               	movwf	(??___xxtofl+2)^0,c
  7053   001F0C  0EFE               	movlw	254
  7054   001F0E  1413               	andwf	(___xxtofl@arg+3)^0,w,c
  7055   001F10  6E0D               	movwf	(??___xxtofl+3)^0,c
  7056   001F12  500A               	movf	??___xxtofl^0,w,c
  7057   001F14  100B               	iorwf	(??___xxtofl+1)^0,w,c
  7058   001F16  100C               	iorwf	(??___xxtofl+2)^0,w,c
  7059   001F18  100D               	iorwf	(??___xxtofl+3)^0,w,c
  7060   001F1A  A4D8               	btfss	status,2,c
  7061   001F1C  EF92  F00F         	goto	u4841
  7062   001F20  EF94  F00F         	goto	u4840
  7063   001F24                     u4841:
  7064   001F24  EF77  F00F         	goto	l4143
  7065   001F28                     u4840:
  7066   001F28  EFA2  F00F         	goto	l979
  7067   001F2C                     l4147:
  7068   001F2C  2A0F               	incf	___xxtofl@exp^0,f,c
  7069   001F2E  0E01               	movlw	1
  7070   001F30  2610               	addwf	___xxtofl@arg^0,f,c
  7071   001F32  0E00               	movlw	0
  7072   001F34  2211               	addwfc	(___xxtofl@arg+1)^0,f,c
  7073   001F36  2212               	addwfc	(___xxtofl@arg+2)^0,f,c
  7074   001F38  2213               	addwfc	(___xxtofl@arg+3)^0,f,c
  7075   001F3A  90D8               	bcf	status,0,c
  7076   001F3C  3213               	rrcf	(___xxtofl@arg+3)^0,f,c
  7077   001F3E  3212               	rrcf	(___xxtofl@arg+2)^0,f,c
  7078   001F40  3211               	rrcf	(___xxtofl@arg+1)^0,f,c
  7079   001F42  3210               	rrcf	___xxtofl@arg^0,f,c
  7080   001F44                     l979:
  7081   001F44  0E00               	movlw	0
  7082   001F46  1410               	andwf	___xxtofl@arg^0,w,c
  7083   001F48  6E0A               	movwf	??___xxtofl^0,c
  7084   001F4A  0E00               	movlw	0
  7085   001F4C  1411               	andwf	(___xxtofl@arg+1)^0,w,c
  7086   001F4E  6E0B               	movwf	(??___xxtofl+1)^0,c
  7087   001F50  0E00               	movlw	0
  7088   001F52  1412               	andwf	(___xxtofl@arg+2)^0,w,c
  7089   001F54  6E0C               	movwf	(??___xxtofl+2)^0,c
  7090   001F56  0EFF               	movlw	255
  7091   001F58  1413               	andwf	(___xxtofl@arg+3)^0,w,c
  7092   001F5A  6E0D               	movwf	(??___xxtofl+3)^0,c
  7093   001F5C  500A               	movf	??___xxtofl^0,w,c
  7094   001F5E  100B               	iorwf	(??___xxtofl+1)^0,w,c
  7095   001F60  100C               	iorwf	(??___xxtofl+2)^0,w,c
  7096   001F62  100D               	iorwf	(??___xxtofl+3)^0,w,c
  7097   001F64  A4D8               	btfss	status,2,c
  7098   001F66  EFB7  F00F         	goto	u4851
  7099   001F6A  EFB9  F00F         	goto	u4850
  7100   001F6E                     u4851:
  7101   001F6E  EF96  F00F         	goto	l4147
  7102   001F72                     u4850:
  7103   001F72  EFC1  F00F         	goto	l4155
  7104   001F76                     l4153:
  7105   001F76  060F               	decf	___xxtofl@exp^0,f,c
  7106   001F78  90D8               	bcf	status,0,c
  7107   001F7A  3610               	rlcf	___xxtofl@arg^0,f,c
  7108   001F7C  3611               	rlcf	(___xxtofl@arg+1)^0,f,c
  7109   001F7E  3612               	rlcf	(___xxtofl@arg+2)^0,f,c
  7110   001F80  3613               	rlcf	(___xxtofl@arg+3)^0,f,c
  7111   001F82                     l4155:
  7112   001F82  BE12               	btfsc	(___xxtofl@arg+2)^0,7,c
  7113   001F84  EFC6  F00F         	goto	u4861
  7114   001F88  EFC8  F00F         	goto	u4860
  7115   001F8C                     u4861:
  7116   001F8C  EFD0  F00F         	goto	l986
  7117   001F90                     u4860:
  7118   001F90  0E02               	movlw	2
  7119   001F92  600F               	cpfslt	___xxtofl@exp^0,c
  7120   001F94  EFCE  F00F         	goto	u4871
  7121   001F98  EFD0  F00F         	goto	u4870
  7122   001F9C                     u4871:
  7123   001F9C  EFBB  F00F         	goto	l4153
  7124   001FA0                     u4870:
  7125   001FA0                     l986:
  7126   001FA0  B00F               	btfsc	___xxtofl@exp^0,0,c
  7127   001FA2  EFD5  F00F         	goto	u4881
  7128   001FA6  EFD7  F00F         	goto	u4880
  7129   001FAA                     u4881:
  7130   001FAA  EFD8  F00F         	goto	l4161
  7131   001FAE                     u4880:
  7132   001FAE  9E12               	bcf	(___xxtofl@arg+2)^0,7,c
  7133   001FB0                     l4161:
  7134   001FB0  90D8               	bcf	status,0,c
  7135   001FB2  320F               	rrcf	___xxtofl@exp^0,f,c
  7136   001FB4  C00F  F00A         	movff	___xxtofl@exp,??___xxtofl
  7137   001FB8  6A0B               	clrf	(??___xxtofl+1)^0,c
  7138   001FBA  6A0C               	clrf	(??___xxtofl+2)^0,c
  7139   001FBC  6A0D               	clrf	(??___xxtofl+3)^0,c
  7140   001FBE  C00A  F00D         	movff	??___xxtofl,??___xxtofl+3
  7141   001FC2  6A0C               	clrf	(??___xxtofl+2)^0,c
  7142   001FC4  6A0B               	clrf	(??___xxtofl+1)^0,c
  7143   001FC6  6A0A               	clrf	??___xxtofl^0,c
  7144   001FC8  500A               	movf	??___xxtofl^0,w,c
  7145   001FCA  1210               	iorwf	___xxtofl@arg^0,f,c
  7146   001FCC  500B               	movf	(??___xxtofl+1)^0,w,c
  7147   001FCE  1211               	iorwf	(___xxtofl@arg+1)^0,f,c
  7148   001FD0  500C               	movf	(??___xxtofl+2)^0,w,c
  7149   001FD2  1212               	iorwf	(___xxtofl@arg+2)^0,f,c
  7150   001FD4  500D               	movf	(??___xxtofl+3)^0,w,c
  7151   001FD6  1213               	iorwf	(___xxtofl@arg+3)^0,f,c
  7152   001FD8  500E               	movf	___xxtofl@sign^0,w,c
  7153   001FDA  B4D8               	btfsc	status,2,c
  7154   001FDC  EFF2  F00F         	goto	u4891
  7155   001FE0  EFF4  F00F         	goto	u4890
  7156   001FE4                     u4891:
  7157   001FE4  EFFC  F00F         	goto	l4171
  7158   001FE8                     u4890:
  7159   001FE8  BE09               	btfsc	(___xxtofl@val+3)^0,7,c
  7160   001FEA  EFFB  F00F         	goto	u4900
  7161   001FEE  EFF9  F00F         	goto	u4901
  7162   001FF2                     u4901:
  7163   001FF2  EFFC  F00F         	goto	l4171
  7164   001FF6                     u4900:
  7165   001FF6  8E13               	bsf	(___xxtofl@arg+3)^0,7,c
  7166   001FF8                     l4171:
  7167   001FF8  C010  F006         	movff	___xxtofl@arg,?___xxtofl
  7168   001FFC  C011  F007         	movff	___xxtofl@arg+1,?___xxtofl+1
  7169   002000  C012  F008         	movff	___xxtofl@arg+2,?___xxtofl+2
  7170   002004  C013  F009         	movff	___xxtofl@arg+3,?___xxtofl+3
  7171   002008                     l975:
  7172   002008  0012               	return		;funcret
  7173   00200A                     __end_of___xxtofl:
  7174                           	callstack 0
  7175                           
  7176 ;; *************** function ___flge *****************
  7177 ;; Defined at:
  7178 ;;		line 4 in file "C:\Program Files\Microchip\xc8\v2.50\pic\sources\c99\common\flge.c"
  7179 ;; Parameters:    Size  Location     Type
  7180 ;;  ff1             4    5[COMRAM] unsigned char 
  7181 ;;  ff2             4    9[COMRAM] unsigned char 
  7182 ;; Auto vars:     Size  Location     Type
  7183 ;;		None
  7184 ;; Return value:  Size  Location     Type
  7185 ;;		None               void
  7186 ;; Registers used:
  7187 ;;		wreg, status,2, status,0
  7188 ;; Tracked objects:
  7189 ;;		On entry : 0/0
  7190 ;;		On exit  : 0/0
  7191 ;;		Unchanged: 0/0
  7192 ;; Data sizes:     COMRAM   BANK0   BANK1   BANK2   BANK3   BANK4   BANK5
  7193 ;;      Params:         8       0       0       0       0       0       0
  7194 ;;      Locals:         0       0       0       0       0       0       0
  7195 ;;      Temps:          4       0       0       0       0       0       0
  7196 ;;      Totals:        12       0       0       0       0       0       0
  7197 ;;Total ram usage:       12 bytes
  7198 ;; Hardware stack levels used: 1
  7199 ;; Hardware stack levels required when called: 1
  7200 ;; This function calls:
  7201 ;;		Nothing
  7202 ;; This function is called by:
  7203 ;;		_Check_Gyroscope
  7204 ;; This function uses a non-reentrant model
  7205 ;;
  7206                           
  7207                           	psect	text22
  7208   002338                     __ptext22:
  7209                           	callstack 0
  7210   002338                     ___flge:
  7211                           	callstack 28
  7212   002338  0E00               	movlw	0
  7213   00233A  1406               	andwf	___flge@ff1^0,w,c
  7214   00233C  6E0E               	movwf	??___flge^0,c
  7215   00233E  0E00               	movlw	0
  7216   002340  1407               	andwf	(___flge@ff1+1)^0,w,c
  7217   002342  6E0F               	movwf	(??___flge+1)^0,c
  7218   002344  0E80               	movlw	128
  7219   002346  1408               	andwf	(___flge@ff1+2)^0,w,c
  7220   002348  6E10               	movwf	(??___flge+2)^0,c
  7221   00234A  0E7F               	movlw	127
  7222   00234C  1409               	andwf	(___flge@ff1+3)^0,w,c
  7223   00234E  6E11               	movwf	(??___flge+3)^0,c
  7224   002350  500E               	movf	??___flge^0,w,c
  7225   002352  100F               	iorwf	(??___flge+1)^0,w,c
  7226   002354  1010               	iorwf	(??___flge+2)^0,w,c
  7227   002356  1011               	iorwf	(??___flge+3)^0,w,c
  7228   002358  A4D8               	btfss	status,2,c
  7229   00235A  EFB1  F011         	goto	u5001
  7230   00235E  EFB3  F011         	goto	u5000
  7231   002362                     u5001:
  7232   002362  EFBB  F011         	goto	l4289
  7233   002366                     u5000:
  7234   002366  0E00               	movlw	0
  7235   002368  6E06               	movwf	___flge@ff1^0,c
  7236   00236A  0E00               	movlw	0
  7237   00236C  6E07               	movwf	(___flge@ff1+1)^0,c
  7238   00236E  0E00               	movlw	0
  7239   002370  6E08               	movwf	(___flge@ff1+2)^0,c
  7240   002372  0E00               	movlw	0
  7241   002374  6E09               	movwf	(___flge@ff1+3)^0,c
  7242   002376                     l4289:
  7243   002376  0E00               	movlw	0
  7244   002378  140A               	andwf	___flge@ff2^0,w,c
  7245   00237A  6E0E               	movwf	??___flge^0,c
  7246   00237C  0E00               	movlw	0
  7247   00237E  140B               	andwf	(___flge@ff2+1)^0,w,c
  7248   002380  6E0F               	movwf	(??___flge+1)^0,c
  7249   002382  0E80               	movlw	128
  7250   002384  140C               	andwf	(___flge@ff2+2)^0,w,c
  7251   002386  6E10               	movwf	(??___flge+2)^0,c
  7252   002388  0E7F               	movlw	127
  7253   00238A  140D               	andwf	(___flge@ff2+3)^0,w,c
  7254   00238C  6E11               	movwf	(??___flge+3)^0,c
  7255   00238E  500E               	movf	??___flge^0,w,c
  7256   002390  100F               	iorwf	(??___flge+1)^0,w,c
  7257   002392  1010               	iorwf	(??___flge+2)^0,w,c
  7258   002394  1011               	iorwf	(??___flge+3)^0,w,c
  7259   002396  A4D8               	btfss	status,2,c
  7260   002398  EFD0  F011         	goto	u5011
  7261   00239C  EFD2  F011         	goto	u5010
  7262   0023A0                     u5011:
  7263   0023A0  EFDA  F011         	goto	l4293
  7264   0023A4                     u5010:
  7265   0023A4  0E00               	movlw	0
  7266   0023A6  6E0A               	movwf	___flge@ff2^0,c
  7267   0023A8  0E00               	movlw	0
  7268   0023AA  6E0B               	movwf	(___flge@ff2+1)^0,c
  7269   0023AC  0E00               	movlw	0
  7270   0023AE  6E0C               	movwf	(___flge@ff2+2)^0,c
  7271   0023B0  0E00               	movlw	0
  7272   0023B2  6E0D               	movwf	(___flge@ff2+3)^0,c
  7273   0023B4                     l4293:
  7274   0023B4  AE09               	btfss	(___flge@ff1+3)^0,7,c
  7275   0023B6  EFDF  F011         	goto	u5021
  7276   0023BA  EFE1  F011         	goto	u5020
  7277   0023BE                     u5021:
  7278   0023BE  EFEA  F011         	goto	l4297
  7279   0023C2                     u5020:
  7280   0023C2  6C06               	negf	___flge@ff1^0,c
  7281   0023C4  1E07               	comf	(___flge@ff1+1)^0,f,c
  7282   0023C6  B0D8               	btfsc	status,0,c
  7283   0023C8  2A07               	incf	(___flge@ff1+1)^0,f,c
  7284   0023CA  1E08               	comf	(___flge@ff1+2)^0,f,c
  7285   0023CC  B0D8               	btfsc	status,0,c
  7286   0023CE  2A08               	incf	(___flge@ff1+2)^0,f,c
  7287   0023D0  0E80               	movlw	128
  7288   0023D2  5609               	subfwb	(___flge@ff1+3)^0,f,c
  7289   0023D4                     l4297:
  7290   0023D4  AE0D               	btfss	(___flge@ff2+3)^0,7,c
  7291   0023D6  EFEF  F011         	goto	u5031
  7292   0023DA  EFF1  F011         	goto	u5030
  7293   0023DE                     u5031:
  7294   0023DE  EFFA  F011         	goto	l582
  7295   0023E2                     u5030:
  7296   0023E2  6C0A               	negf	___flge@ff2^0,c
  7297   0023E4  1E0B               	comf	(___flge@ff2+1)^0,f,c
  7298   0023E6  B0D8               	btfsc	status,0,c
  7299   0023E8  2A0B               	incf	(___flge@ff2+1)^0,f,c
  7300   0023EA  1E0C               	comf	(___flge@ff2+2)^0,f,c
  7301   0023EC  B0D8               	btfsc	status,0,c
  7302   0023EE  2A0C               	incf	(___flge@ff2+2)^0,f,c
  7303   0023F0  0E80               	movlw	128
  7304   0023F2  560D               	subfwb	(___flge@ff2+3)^0,f,c
  7305   0023F4                     l582:
  7306   0023F4  0E00               	movlw	0
  7307   0023F6  1A06               	xorwf	___flge@ff1^0,f,c
  7308   0023F8  0E00               	movlw	0
  7309   0023FA  1A07               	xorwf	(___flge@ff1+1)^0,f,c
  7310   0023FC  0E00               	movlw	0
  7311   0023FE  1A08               	xorwf	(___flge@ff1+2)^0,f,c
  7312   002400  0E80               	movlw	128
  7313   002402  1A09               	xorwf	(___flge@ff1+3)^0,f,c
  7314   002404  0E00               	movlw	0
  7315   002406  1A0A               	xorwf	___flge@ff2^0,f,c
  7316   002408  0E00               	movlw	0
  7317   00240A  1A0B               	xorwf	(___flge@ff2+1)^0,f,c
  7318   00240C  0E00               	movlw	0
  7319   00240E  1A0C               	xorwf	(___flge@ff2+2)^0,f,c
  7320   002410  0E80               	movlw	128
  7321   002412  1A0D               	xorwf	(___flge@ff2+3)^0,f,c
  7322   002414  500A               	movf	___flge@ff2^0,w,c
  7323   002416  5C06               	subwf	___flge@ff1^0,w,c
  7324   002418  500B               	movf	(___flge@ff2+1)^0,w,c
  7325   00241A  5807               	subwfb	(___flge@ff1+1)^0,w,c
  7326   00241C  500C               	movf	(___flge@ff2+2)^0,w,c
  7327   00241E  5808               	subwfb	(___flge@ff1+2)^0,w,c
  7328   002420  500D               	movf	(___flge@ff2+3)^0,w,c
  7329   002422  5809               	subwfb	(___flge@ff1+3)^0,w,c
  7330   002424  B0D8               	btfsc	status,0,c
  7331   002426  EF17  F012         	goto	u5041
  7332   00242A  EF19  F012         	goto	u5040
  7333   00242E                     u5041:
  7334   00242E  EF1C  F012         	goto	l4303
  7335   002432                     u5040:
  7336   002432  90D8               	bcf	status,0,c
  7337   002434  EF1D  F012         	goto	l587
  7338   002438                     l4303:
  7339   002438  80D8               	bsf	status,0,c
  7340   00243A                     l587:
  7341   00243A  0012               	return		;funcret
  7342   00243C                     __end_of___flge:
  7343                           	callstack 0
  7344                           
  7345 ;; *************** function _I2C_Write *****************
  7346 ;; Defined at:
  7347 ;;		line 108 in file "setting_hardaware/gyroscope.c"
  7348 ;; Parameters:    Size  Location     Type
  7349 ;;  data            1    wreg     unsigned char 
  7350 ;; Auto vars:     Size  Location     Type
  7351 ;;  data            1    5[COMRAM] unsigned char 
  7352 ;; Return value:  Size  Location     Type
  7353 ;;                  1    wreg      void 
  7354 ;; Registers used:
  7355 ;;		wreg
  7356 ;; Tracked objects:
  7357 ;;		On entry : 0/0
  7358 ;;		On exit  : 0/0
  7359 ;;		Unchanged: 0/0
  7360 ;; Data sizes:     COMRAM   BANK0   BANK1   BANK2   BANK3   BANK4   BANK5
  7361 ;;      Params:         0       0       0       0       0       0       0
  7362 ;;      Locals:         1       0       0       0       0       0       0
  7363 ;;      Temps:          0       0       0       0       0       0       0
  7364 ;;      Totals:         1       0       0       0       0       0       0
  7365 ;;Total ram usage:        1 bytes
  7366 ;; Hardware stack levels used: 1
  7367 ;; Hardware stack levels required when called: 1
  7368 ;; This function calls:
  7369 ;;		Nothing
  7370 ;; This function is called by:
  7371 ;;		_Gyroscope_Initialize
  7372 ;;		_Check_Gyroscope
  7373 ;;		_Calibration
  7374 ;; This function uses a non-reentrant model
  7375 ;;
  7376                           
  7377                           	psect	text23
  7378   002868                     __ptext23:
  7379                           	callstack 0
  7380   002868                     _I2C_Write:
  7381                           	callstack 27
  7382                           
  7383                           ;incstack = 0
  7384                           ;I2C_Write@data stored from wreg
  7385   002868  6E06               	movwf	I2C_Write@data^0,c
  7386   00286A                     
  7387                           ;setting_hardaware/gyroscope.c: 109:     SSPBUF = data;
  7388   00286A  C006  FFC9         	movff	I2C_Write@data,4041	;volatile
  7389   00286E                     l285:
  7390   00286E  B0C7               	btfsc	4039,0,c	;volatile
  7391   002870  EF3C  F014         	goto	u4921
  7392   002874  EF3E  F014         	goto	u4920
  7393   002878                     u4921:
  7394   002878  EF37  F014         	goto	l285
  7395   00287C                     u4920:
  7396   00287C                     l288:
  7397   00287C  BCC5               	btfsc	197,6,c	;volatile
  7398   00287E  EF43  F014         	goto	u4931
  7399   002882  EF45  F014         	goto	u4930
  7400   002886                     u4931:
  7401   002886  EF3E  F014         	goto	l288
  7402   00288A                     u4930:
  7403   00288A  0012               	return		;funcret
  7404   00288C                     __end_of_I2C_Write:
  7405                           	callstack 0
  7406                           
  7407 ;; *************** function _I2C_Stop *****************
  7408 ;; Defined at:
  7409 ;;		line 103 in file "setting_hardaware/gyroscope.c"
  7410 ;; Parameters:    Size  Location     Type
  7411 ;;		None
  7412 ;; Auto vars:     Size  Location     Type
  7413 ;;		None
  7414 ;; Return value:  Size  Location     Type
  7415 ;;                  1    wreg      void 
  7416 ;; Registers used:
  7417 ;;		None
  7418 ;; Tracked objects:
  7419 ;;		On entry : 0/0
  7420 ;;		On exit  : 0/0
  7421 ;;		Unchanged: 0/0
  7422 ;; Data sizes:     COMRAM   BANK0   BANK1   BANK2   BANK3   BANK4   BANK5
  7423 ;;      Params:         0       0       0       0       0       0       0
  7424 ;;      Locals:         0       0       0       0       0       0       0
  7425 ;;      Temps:          0       0       0       0       0       0       0
  7426 ;;      Totals:         0       0       0       0       0       0       0
  7427 ;;Total ram usage:        0 bytes
  7428 ;; Hardware stack levels used: 1
  7429 ;; Hardware stack levels required when called: 1
  7430 ;; This function calls:
  7431 ;;		Nothing
  7432 ;; This function is called by:
  7433 ;;		_Gyroscope_Initialize
  7434 ;;		_Check_Gyroscope
  7435 ;;		_Calibration
  7436 ;; This function uses a non-reentrant model
  7437 ;;
  7438                           
  7439                           	psect	text24
  7440   0028D8                     __ptext24:
  7441                           	callstack 0
  7442   0028D8                     _I2C_Stop:
  7443                           	callstack 27
  7444   0028D8                     
  7445                           ;setting_hardaware/gyroscope.c: 104:     PEN = 1;
  7446   0028D8  84C5               	bsf	4037,2,c	;volatile
  7447   0028DA                     l279:
  7448   0028DA  B4C5               	btfsc	4037,2,c	;volatile
  7449   0028DC  EF72  F014         	goto	u4941
  7450   0028E0  EF74  F014         	goto	u4940
  7451   0028E4                     u4941:
  7452   0028E4  EF6D  F014         	goto	l279
  7453   0028E8                     u4940:
  7454   0028E8  0012               	return		;funcret
  7455   0028EA                     __end_of_I2C_Stop:
  7456                           	callstack 0
  7457                           
  7458 ;; *************** function _I2C_Start *****************
  7459 ;; Defined at:
  7460 ;;		line 97 in file "setting_hardaware/gyroscope.c"
  7461 ;; Parameters:    Size  Location     Type
  7462 ;;		None
  7463 ;; Auto vars:     Size  Location     Type
  7464 ;;		None
  7465 ;; Return value:  Size  Location     Type
  7466 ;;                  1    wreg      void 
  7467 ;; Registers used:
  7468 ;;		None
  7469 ;; Tracked objects:
  7470 ;;		On entry : 0/0
  7471 ;;		On exit  : 0/0
  7472 ;;		Unchanged: 0/0
  7473 ;; Data sizes:     COMRAM   BANK0   BANK1   BANK2   BANK3   BANK4   BANK5
  7474 ;;      Params:         0       0       0       0       0       0       0
  7475 ;;      Locals:         0       0       0       0       0       0       0
  7476 ;;      Temps:          0       0       0       0       0       0       0
  7477 ;;      Totals:         0       0       0       0       0       0       0
  7478 ;;Total ram usage:        0 bytes
  7479 ;; Hardware stack levels used: 1
  7480 ;; Hardware stack levels required when called: 1
  7481 ;; This function calls:
  7482 ;;		Nothing
  7483 ;; This function is called by:
  7484 ;;		_Gyroscope_Initialize
  7485 ;;		_Check_Gyroscope
  7486 ;;		_Calibration
  7487 ;; This function uses a non-reentrant model
  7488 ;;
  7489                           
  7490                           	psect	text25
  7491   0028EA                     __ptext25:
  7492                           	callstack 0
  7493   0028EA                     _I2C_Start:
  7494                           	callstack 27
  7495   0028EA                     
  7496                           ;setting_hardaware/gyroscope.c: 98:     SEN = 1;
  7497   0028EA  80C5               	bsf	4037,0,c	;volatile
  7498   0028EC                     l273:
  7499   0028EC  B0C5               	btfsc	4037,0,c	;volatile
  7500   0028EE  EF7B  F014         	goto	u4911
  7501   0028F2  EF7D  F014         	goto	u4910
  7502   0028F6                     u4911:
  7503   0028F6  EF76  F014         	goto	l273
  7504   0028FA                     u4910:
  7505   0028FA  0012               	return		;funcret
  7506   0028FC                     __end_of_I2C_Start:
  7507                           	callstack 0
  7508                           
  7509 ;; *************** function _I2C_Read *****************
  7510 ;; Defined at:
  7511 ;;		line 115 in file "setting_hardaware/gyroscope.c"
  7512 ;; Parameters:    Size  Location     Type
  7513 ;;  ack             1    wreg     unsigned char 
  7514 ;; Auto vars:     Size  Location     Type
  7515 ;;  ack             1    5[COMRAM] unsigned char 
  7516 ;;  data            1    6[COMRAM] unsigned char 
  7517 ;; Return value:  Size  Location     Type
  7518 ;;                  1    wreg      unsigned char 
  7519 ;; Registers used:
  7520 ;;		wreg, status,2
  7521 ;; Tracked objects:
  7522 ;;		On entry : 0/0
  7523 ;;		On exit  : 0/0
  7524 ;;		Unchanged: 0/0
  7525 ;; Data sizes:     COMRAM   BANK0   BANK1   BANK2   BANK3   BANK4   BANK5
  7526 ;;      Params:         0       0       0       0       0       0       0
  7527 ;;      Locals:         2       0       0       0       0       0       0
  7528 ;;      Temps:          0       0       0       0       0       0       0
  7529 ;;      Totals:         2       0       0       0       0       0       0
  7530 ;;Total ram usage:        2 bytes
  7531 ;; Hardware stack levels used: 1
  7532 ;; Hardware stack levels required when called: 1
  7533 ;; This function calls:
  7534 ;;		Nothing
  7535 ;; This function is called by:
  7536 ;;		_Check_Gyroscope
  7537 ;;		_Calibration
  7538 ;; This function uses a non-reentrant model
  7539 ;;
  7540                           
  7541                           	psect	text26
  7542   00272A                     __ptext26:
  7543                           	callstack 0
  7544   00272A                     _I2C_Read:
  7545                           	callstack 26
  7546                           
  7547                           ;incstack = 0
  7548                           ;I2C_Read@ack stored from wreg
  7549   00272A  6E06               	movwf	I2C_Read@ack^0,c
  7550   00272C                     
  7551                           ;setting_hardaware/gyroscope.c: 116:     uint8_t data;;setting_hardaware/gyroscope.c: 11
      +                          7:     RCEN = 1;
  7552   00272C  86C5               	bsf	4037,3,c	;volatile
  7553   00272E                     l294:
  7554   00272E  A0C7               	btfss	4039,0,c	;volatile
  7555   002730  EF9C  F013         	goto	u4951
  7556   002734  EF9E  F013         	goto	u4950
  7557   002738                     u4951:
  7558   002738  EF97  F013         	goto	l294
  7559   00273C                     u4950:
  7560   00273C                     
  7561                           ;setting_hardaware/gyroscope.c: 119:     data = SSPBUF;
  7562   00273C  CFC9 F007          	movff	4041,I2C_Read@data	;volatile
  7563   002740                     
  7564                           ;setting_hardaware/gyroscope.c: 122:     ACKDT = ack ? 0 : 1;
  7565   002740  5006               	movf	I2C_Read@ack^0,w,c
  7566   002742  B4D8               	btfsc	status,2,c
  7567   002744  EFA6  F013         	goto	u4961
  7568   002748  EFA9  F013         	goto	u4960
  7569   00274C                     u4961:
  7570   00274C  8AC5               	bsf	4037,5,c	;volatile
  7571   00274E  EFAA  F013         	goto	u4975
  7572   002752                     u4960:
  7573   002752  9AC5               	bcf	4037,5,c	;volatile
  7574   002754                     u4975:
  7575   002754                     
  7576                           ;setting_hardaware/gyroscope.c: 123:     ACKEN = 1;
  7577   002754  88C5               	bsf	4037,4,c	;volatile
  7578   002756                     l297:
  7579   002756  B8C5               	btfsc	4037,4,c	;volatile
  7580   002758  EFB0  F013         	goto	u4981
  7581   00275C  EFB2  F013         	goto	u4980
  7582   002760                     u4981:
  7583   002760  EFAB  F013         	goto	l297
  7584   002764                     u4980:
  7585   002764                     
  7586                           ;setting_hardaware/gyroscope.c: 125:     return data;
  7587   002764  5007               	movf	I2C_Read@data^0,w,c
  7588   002766  0012               	return		;funcret
  7589   002768                     __end_of_I2C_Read:
  7590                           	callstack 0
  7591                           
  7592 ;; *************** function _Check_ADC *****************
  7593 ;; Defined at:
  7594 ;;		line 36 in file "setting_hardaware/adc.c"
  7595 ;; Parameters:    Size  Location     Type
  7596 ;;  prev_sensor_    2   11[COMRAM] int 
  7597 ;; Auto vars:     Size  Location     Type
  7598 ;;  bend_sensor_    2   16[COMRAM] int 
  7599 ;; Return value:  Size  Location     Type
  7600 ;;                  1    wreg      void 
  7601 ;; Registers used:
  7602 ;;		wreg, status,2, status,0, cstack
  7603 ;; Tracked objects:
  7604 ;;		On entry : 0/0
  7605 ;;		On exit  : 0/0
  7606 ;;		Unchanged: 0/0
  7607 ;; Data sizes:     COMRAM   BANK0   BANK1   BANK2   BANK3   BANK4   BANK5
  7608 ;;      Params:         2       0       0       0       0       0       0
  7609 ;;      Locals:         2       0       0       0       0       0       0
  7610 ;;      Temps:          3       0       0       0       0       0       0
  7611 ;;      Totals:         7       0       0       0       0       0       0
  7612 ;;Total ram usage:        7 bytes
  7613 ;; Hardware stack levels used: 1
  7614 ;; Hardware stack levels required when called: 2
  7615 ;; This function calls:
  7616 ;;		_ADC_Read
  7617 ;; This function is called by:
  7618 ;;		_main
  7619 ;; This function uses a non-reentrant model
  7620 ;;
  7621                           
  7622                           	psect	text27
  7623   00260E                     __ptext27:
  7624                           	callstack 0
  7625   00260E                     _Check_ADC:
  7626                           	callstack 28
  7627   00260E                     
  7628                           ;setting_hardaware/adc.c: 38:     int bend_sensor_val=ADC_Read(bend_sensor_val);
  7629   00260E  C011  F006         	movff	Check_ADC@bend_sensor_val,ADC_Read@channel
  7630   002612  C012  F007         	movff	Check_ADC@bend_sensor_val+1,ADC_Read@channel+1
  7631   002616  EC07  F014         	call	_ADC_Read	;wreg free
  7632   00261A  C006  F011         	movff	?_ADC_Read,Check_ADC@bend_sensor_val
  7633   00261E  C007  F012         	movff	?_ADC_Read+1,Check_ADC@bend_sensor_val+1
  7634   002622                     
  7635                           ;setting_hardaware/adc.c: 40:     if(prev_sensor_val<bend_sensor_val-5 || prev_sensor_va
      +                          l>bend_sensor_val+5)
  7636   002622  0EFB               	movlw	251
  7637   002624  2411               	addwf	Check_ADC@bend_sensor_val^0,w,c
  7638   002626  6E0E               	movwf	??_Check_ADC^0,c
  7639   002628  0EFF               	movlw	255
  7640   00262A  2012               	addwfc	(Check_ADC@bend_sensor_val+1)^0,w,c
  7641   00262C  6E0F               	movwf	(??_Check_ADC+1)^0,c
  7642   00262E  500E               	movf	??_Check_ADC^0,w,c
  7643   002630  5C0C               	subwf	Check_ADC@prev_sensor_val^0,w,c
  7644   002632  500D               	movf	(Check_ADC@prev_sensor_val+1)^0,w,c
  7645   002634  0A80               	xorlw	128
  7646   002636  6E10               	movwf	(??_Check_ADC+2)^0,c
  7647   002638  500F               	movf	(??_Check_ADC+1)^0,w,c
  7648   00263A  0A80               	xorlw	128
  7649   00263C  5810               	subwfb	(??_Check_ADC+2)^0,w,c
  7650   00263E  A0D8               	btfss	status,0,c
  7651   002640  EF24  F013         	goto	u5051
  7652   002644  EF26  F013         	goto	u5050
  7653   002648                     u5051:
  7654   002648  EF3B  F013         	goto	l30
  7655   00264C                     u5050:
  7656   00264C  0E05               	movlw	5
  7657   00264E  2411               	addwf	Check_ADC@bend_sensor_val^0,w,c
  7658   002650  6E0E               	movwf	??_Check_ADC^0,c
  7659   002652  0E00               	movlw	0
  7660   002654  2012               	addwfc	(Check_ADC@bend_sensor_val+1)^0,w,c
  7661   002656  6E0F               	movwf	(??_Check_ADC+1)^0,c
  7662   002658  500C               	movf	Check_ADC@prev_sensor_val^0,w,c
  7663   00265A  5C0E               	subwf	??_Check_ADC^0,w,c
  7664   00265C  500F               	movf	(??_Check_ADC+1)^0,w,c
  7665   00265E  0A80               	xorlw	128
  7666   002660  6E10               	movwf	(??_Check_ADC+2)^0,c
  7667   002662  500D               	movf	(Check_ADC@prev_sensor_val+1)^0,w,c
  7668   002664  0A80               	xorlw	128
  7669   002666  5810               	subwfb	(??_Check_ADC+2)^0,w,c
  7670   002668  B0D8               	btfsc	status,0,c
  7671   00266A  EF39  F013         	goto	u5061
  7672   00266E  EF3B  F013         	goto	u5060
  7673   002672                     u5061:
  7674   002672  EF3F  F013         	goto	l4313
  7675   002676                     u5060:
  7676   002676                     l30:
  7677                           
  7678                           ;setting_hardaware/adc.c: 41:     {;setting_hardaware/adc.c: 42:         prev_sensor_val
      +                          =bend_sensor_val;
  7679   002676  C011  F00C         	movff	Check_ADC@bend_sensor_val,Check_ADC@prev_sensor_val
  7680   00267A  C012  F00D         	movff	Check_ADC@bend_sensor_val+1,Check_ADC@prev_sensor_val+1
  7681   00267E                     l4313:
  7682                           
  7683                           ;setting_hardaware/adc.c: 45:     if(prev_sensor_val<=0x0130)
  7684   00267E  BE0D               	btfsc	(Check_ADC@prev_sensor_val+1)^0,7,c
  7685   002680  EF4D  F013         	goto	u5070
  7686   002684  0E31               	movlw	49
  7687   002686  5C0C               	subwf	Check_ADC@prev_sensor_val^0,w,c
  7688   002688  0E01               	movlw	1
  7689   00268A  580D               	subwfb	(Check_ADC@prev_sensor_val+1)^0,w,c
  7690   00268C  B0D8               	btfsc	status,0,c
  7691   00268E  EF4B  F013         	goto	u5071
  7692   002692  EF4D  F013         	goto	u5070
  7693   002696                     u5071:
  7694   002696  EF50  F013         	goto	l31
  7695   00269A                     u5070:
  7696   00269A                     
  7697                           ;setting_hardaware/adc.c: 46:     {;setting_hardaware/adc.c: 47:         LATAbits.LATA6 
      +                          = 1;;
  7698   00269A  8C89               	bsf	137,6,c	;volatile
  7699                           
  7700                           ;setting_hardaware/adc.c: 48:     }
  7701   00269C  EF51  F013         	goto	l33
  7702   0026A0                     l31:
  7703                           
  7704                           ;setting_hardaware/adc.c: 50:     {;setting_hardaware/adc.c: 51:         LATAbits.LATA6 
      +                          = 0;;
  7705   0026A0  9C89               	bcf	137,6,c	;volatile
  7706   0026A2                     l33:
  7707   0026A2  0012               	return		;funcret
  7708   0026A4                     __end_of_Check_ADC:
  7709                           	callstack 0
  7710                           
  7711 ;; *************** function _ADC_Read *****************
  7712 ;; Defined at:
  7713 ;;		line 22 in file "setting_hardaware/adc.c"
  7714 ;; Parameters:    Size  Location     Type
  7715 ;;  channel         2    5[COMRAM] int 
  7716 ;; Auto vars:     Size  Location     Type
  7717 ;;  digital         2    9[COMRAM] int 
  7718 ;; Return value:  Size  Location     Type
  7719 ;;                  2    5[COMRAM] int 
  7720 ;; Registers used:
  7721 ;;		wreg, status,2, status,0
  7722 ;; Tracked objects:
  7723 ;;		On entry : 0/0
  7724 ;;		On exit  : 0/0
  7725 ;;		Unchanged: 0/0
  7726 ;; Data sizes:     COMRAM   BANK0   BANK1   BANK2   BANK3   BANK4   BANK5
  7727 ;;      Params:         2       0       0       0       0       0       0
  7728 ;;      Locals:         2       0       0       0       0       0       0
  7729 ;;      Temps:          2       0       0       0       0       0       0
  7730 ;;      Totals:         6       0       0       0       0       0       0
  7731 ;;Total ram usage:        6 bytes
  7732 ;; Hardware stack levels used: 1
  7733 ;; Hardware stack levels required when called: 1
  7734 ;; This function calls:
  7735 ;;		Nothing
  7736 ;; This function is called by:
  7737 ;;		_Check_ADC
  7738 ;; This function uses a non-reentrant model
  7739 ;;
  7740                           
  7741                           	psect	text28
  7742   00280E                     __ptext28:
  7743                           	callstack 0
  7744   00280E                     _ADC_Read:
  7745                           	callstack 28
  7746   00280E                     
  7747                           ;setting_hardaware/adc.c: 22: int ADC_Read(int channel);setting_hardaware/adc.c: 23: {;s
      +                          etting_hardaware/adc.c: 24:     int digital;;setting_hardaware/adc.c: 26:     ADCON0bits
      +                          .ADON = 1;
  7748   00280E  80C2               	bsf	194,0,c	;volatile
  7749                           
  7750                           ;setting_hardaware/adc.c: 27:     ADCON0bits.GO = 1;
  7751   002810  82C2               	bsf	194,1,c	;volatile
  7752   002812                     l22:
  7753   002812  B2C2               	btfsc	194,1,c	;volatile
  7754   002814  EF0E  F014         	goto	u4991
  7755   002818  EF10  F014         	goto	u4990
  7756   00281C                     u4991:
  7757   00281C  EF09  F014         	goto	l22
  7758   002820                     u4990:
  7759   002820                     
  7760                           ;setting_hardaware/adc.c: 31:     digital = (ADRESH*256) | (ADRESL);
  7761   002820  50C3               	movf	195,w,c	;volatile
  7762   002822  CFC4 F008          	movff	4036,??_ADC_Read	;volatile
  7763   002826  6A09               	clrf	(??_ADC_Read+1)^0,c
  7764   002828  C008  F009         	movff	??_ADC_Read,??_ADC_Read+1
  7765   00282C  6A08               	clrf	??_ADC_Read^0,c
  7766   00282E  1008               	iorwf	??_ADC_Read^0,w,c
  7767   002830  6E0A               	movwf	ADC_Read@digital^0,c
  7768   002832  5009               	movf	(??_ADC_Read+1)^0,w,c
  7769   002834  6E0B               	movwf	(ADC_Read@digital+1)^0,c
  7770   002836                     
  7771                           ;setting_hardaware/adc.c: 33:     return(digital);
  7772   002836  C00A  F006         	movff	ADC_Read@digital,?_ADC_Read
  7773   00283A  C00B  F007         	movff	ADC_Read@digital+1,?_ADC_Read+1
  7774   00283E  0012               	return		;funcret
  7775   002840                     __end_of_ADC_Read:
  7776                           	callstack 0
  7777                           
  7778 ;; *************** function _Low_ISR *****************
  7779 ;; Defined at:
  7780 ;;		line 150 in file "setting_hardaware/gyroscope.c"
  7781 ;; Parameters:    Size  Location     Type
  7782 ;;		None
  7783 ;; Auto vars:     Size  Location     Type
  7784 ;;		None
  7785 ;; Return value:  Size  Location     Type
  7786 ;;                  1    wreg      void 
  7787 ;; Registers used:
  7788 ;;		wreg, status,2, status,0
  7789 ;; Tracked objects:
  7790 ;;		On entry : 0/0
  7791 ;;		On exit  : 0/0
  7792 ;;		Unchanged: 0/0
  7793 ;; Data sizes:     COMRAM   BANK0   BANK1   BANK2   BANK3   BANK4   BANK5
  7794 ;;      Params:         0       0       0       0       0       0       0
  7795 ;;      Locals:         0       0       0       0       0       0       0
  7796 ;;      Temps:          5       0       0       0       0       0       0
  7797 ;;      Totals:         5       0       0       0       0       0       0
  7798 ;;Total ram usage:        5 bytes
  7799 ;; Hardware stack levels used: 1
  7800 ;; This function calls:
  7801 ;;		Nothing
  7802 ;; This function is called by:
  7803 ;;		Interrupt level 1
  7804 ;; This function uses a non-reentrant model
  7805 ;;
  7806                           
  7807                           	psect	intcodelo
  7808   000018                     __pintcodelo:
  7809                           	callstack 0
  7810   000018                     _Low_ISR:
  7811                           	callstack 22
  7812                           
  7813                           ;incstack = 0
  7814   000018  807A               	bsf	int$flags,0,c	;set compiler interrupt flag (level 1)
  7815   00001A  CFD8 F003          	movff	status,??_Low_ISR+2
  7816   00001E  CFE8 F004          	movff	wreg,??_Low_ISR+3
  7817   000022  CFE0 F005          	movff	bsr,??_Low_ISR+4
  7818   000026                     
  7819                           ;setting_hardaware/gyroscope.c: 151:     if(TMR2IF){
  7820   000026  A29E               	btfss	3998,1,c	;volatile
  7821   000028  EF18  F000         	goto	i1u343_21
  7822   00002C  EF1A  F000         	goto	i1u343_20
  7823   000030                     i1u343_21:
  7824   000030  EF68  F000         	goto	i1l314
  7825   000034                     i1u343_20:
  7826   000034                     
  7827                           ;setting_hardaware/gyroscope.c: 152:         TMR2IF = 0;
  7828   000034  929E               	bcf	3998,1,c	;volatile
  7829   000036                     
  7830                           ;setting_hardaware/gyroscope.c: 153:         postpostscaler = (postpostscaler+1)%8;
  7831   000036  0E01               	movlw	1
  7832   000038  0101               	movlb	1	; () banked
  7833   00003A  2526               	addwf	_postpostscaler& (0+255),w,b
  7834   00003C  6E01               	movwf	??_Low_ISR^0,c
  7835   00003E  0E00               	movlw	0
  7836   000040  2127               	addwfc	(_postpostscaler+1)& (0+255),w,b
  7837   000042  6E02               	movwf	(??_Low_ISR+1)^0,c
  7838   000044  0E07               	movlw	7
  7839   000046  1401               	andwf	??_Low_ISR^0,w,c
  7840   000048  6F26               	movwf	_postpostscaler& (0+255),b
  7841   00004A  6B27               	clrf	(_postpostscaler+1)& (0+255),b
  7842                           
  7843                           ;setting_hardaware/gyroscope.c: 154:         if(!postpostscaler){
  7844   00004C  5126               	movf	_postpostscaler& (0+255),w,b
  7845   00004E  1127               	iorwf	(_postpostscaler+1)& (0+255),w,b
  7846   000050  A4D8               	btfss	status,2,c
  7847   000052  EF2D  F000         	goto	i1u344_21
  7848   000056  EF2F  F000         	goto	i1u344_20
  7849   00005A                     i1u344_21:
  7850   00005A  EF68  F000         	goto	i1l314
  7851   00005E                     i1u344_20:
  7852   00005E                     
  7853                           ; BSR set to: 1
  7854                           ;setting_hardaware/gyroscope.c: 155:             if(dir == -1){
  7855   00005E  2928               	incf	_dir& (0+255),w,b
  7856   000060  E106               	bnz	i1u345_21
  7857   000062  2929               	incf	(_dir+1)& (0+255),w,b
  7858   000064  A4D8               	btfss	status,2,c
  7859   000066  EF37  F000         	goto	i1u345_21
  7860   00006A  EF39  F000         	goto	i1u345_20
  7861   00006E                     i1u345_21:
  7862   00006E  EF4C  F000         	goto	i1l3343
  7863   000072                     i1u345_20:
  7864   000072                     
  7865                           ; BSR set to: 1
  7866                           ;setting_hardaware/gyroscope.c: 156:                 LATAbits.LATA5 = !LATAbits.LATA5;;
  7867   000072  AA89               	btfss	137,5,c	;volatile
  7868   000074  EF3E  F000         	goto	i1u346_21
  7869   000078  EF42  F000         	goto	i1u346_20
  7870   00007C                     i1u346_21:
  7871   00007C  6A01               	clrf	??_Low_ISR^0,c
  7872   00007E  2A01               	incf	??_Low_ISR^0,f,c
  7873   000080  EF43  F000         	goto	i1u347_28
  7874   000084                     i1u346_20:
  7875   000084  6A01               	clrf	??_Low_ISR^0,c
  7876   000086                     i1u347_28:
  7877   000086  3A01               	swapf	??_Low_ISR^0,f,c
  7878   000088  4601               	rlncf	??_Low_ISR^0,f,c
  7879   00008A  5089               	movf	137,w,c	;volatile
  7880   00008C  1801               	xorwf	??_Low_ISR^0,w,c
  7881   00008E  0BDF               	andlw	-33
  7882   000090  1801               	xorwf	??_Low_ISR^0,w,c
  7883   000092  6E89               	movwf	137,c	;volatile
  7884                           
  7885                           ;setting_hardaware/gyroscope.c: 157:             }else if(dir == 1){
  7886   000094  EF68  F000         	goto	i1l314
  7887   000098                     i1l3343:
  7888                           
  7889                           ; BSR set to: 1
  7890   000098  0528               	decf	_dir& (0+255),w,b
  7891   00009A  1129               	iorwf	(_dir+1)& (0+255),w,b
  7892   00009C  A4D8               	btfss	status,2,c
  7893   00009E  EF53  F000         	goto	i1u348_21
  7894   0000A2  EF55  F000         	goto	i1u348_20
  7895   0000A6                     i1u348_21:
  7896   0000A6  EF68  F000         	goto	i1l309
  7897   0000AA                     i1u348_20:
  7898   0000AA                     
  7899                           ; BSR set to: 1
  7900                           ;setting_hardaware/gyroscope.c: 158:                 LATAbits.LATA7 = !LATAbits.LATA7;;
  7901   0000AA  AE89               	btfss	137,7,c	;volatile
  7902   0000AC  EF5A  F000         	goto	i1u349_21
  7903   0000B0  EF5E  F000         	goto	i1u349_20
  7904   0000B4                     i1u349_21:
  7905   0000B4  6A01               	clrf	??_Low_ISR^0,c
  7906   0000B6  2A01               	incf	??_Low_ISR^0,f,c
  7907   0000B8  EF5F  F000         	goto	i1u350_28
  7908   0000BC                     i1u349_20:
  7909   0000BC  6A01               	clrf	??_Low_ISR^0,c
  7910   0000BE                     i1u350_28:
  7911   0000BE  3201               	rrcf	??_Low_ISR^0,f,c
  7912   0000C0  3201               	rrcf	??_Low_ISR^0,f,c
  7913   0000C2  5089               	movf	137,w,c	;volatile
  7914   0000C4  1801               	xorwf	??_Low_ISR^0,w,c
  7915   0000C6  0B7F               	andlw	-129
  7916   0000C8  1801               	xorwf	??_Low_ISR^0,w,c
  7917   0000CA  6E89               	movwf	137,c	;volatile
  7918                           
  7919                           ;setting_hardaware/gyroscope.c: 159:             }else{}
  7920   0000CC  EF68  F000         	goto	i1l314
  7921   0000D0                     i1l309:
  7922   0000D0                     i1l314:
  7923   0000D0  C005  FFE0         	movff	??_Low_ISR+4,bsr
  7924   0000D4  C004  FFE8         	movff	??_Low_ISR+3,wreg
  7925   0000D8  C003  FFD8         	movff	??_Low_ISR+2,status
  7926   0000DC  907A               	bcf	int$flags,0,c	;clear compiler interrupt flag (level 1)
  7927   0000DE  0010               	retfie	
  7928   0000E0                     __end_of_Low_ISR:
  7929                           	callstack 0
  7930                           
  7931                           	psect	rparam
  7932   000001                     ___rparam_used  equ	1
  7933   000000                     ___param_bank   equ	0
  7934   000000                     __Lparam        equ	__Lrparam
  7935   000000                     __Hparam        equ	__Hrparam
  7936                           
  7937                           	psect	temp
  7938   00007A                     btemp:
  7939                           	callstack 0
  7940   00007A                     	ds	1
  7941   00007A                     int$flags       set	btemp
  7942   00007B                     wtemp8          set	btemp+1
  7943   00007B                     ttemp5          set	btemp+1
  7944   00007E                     ttemp6          set	btemp+4
  7945   000082                     ttemp7          set	btemp+8
  7946                           
  7947                           	psect	idloc
  7948                           
  7949                           ;Config register IDLOC0 @ 0x200000
  7950                           ;	unspecified, using default values
  7951   200000                     	org	2097152
  7952   200000  FF                 	db	255
  7953                           
  7954                           ;Config register IDLOC1 @ 0x200001
  7955                           ;	unspecified, using default values
  7956   200001                     	org	2097153
  7957   200001  FF                 	db	255
  7958                           
  7959                           ;Config register IDLOC2 @ 0x200002
  7960                           ;	unspecified, using default values
  7961   200002                     	org	2097154
  7962   200002  FF                 	db	255
  7963                           
  7964                           ;Config register IDLOC3 @ 0x200003
  7965                           ;	unspecified, using default values
  7966   200003                     	org	2097155
  7967   200003  FF                 	db	255
  7968                           
  7969                           ;Config register IDLOC4 @ 0x200004
  7970                           ;	unspecified, using default values
  7971   200004                     	org	2097156
  7972   200004  FF                 	db	255
  7973                           
  7974                           ;Config register IDLOC5 @ 0x200005
  7975                           ;	unspecified, using default values
  7976   200005                     	org	2097157
  7977   200005  FF                 	db	255
  7978                           
  7979                           ;Config register IDLOC6 @ 0x200006
  7980                           ;	unspecified, using default values
  7981   200006                     	org	2097158
  7982   200006  FF                 	db	255
  7983                           
  7984                           ;Config register IDLOC7 @ 0x200007
  7985                           ;	unspecified, using default values
  7986   200007                     	org	2097159
  7987   200007  FF                 	db	255
  7988                           
  7989                           	psect	config
  7990                           
  7991                           ; Padding undefined space
  7992   300000                     	org	3145728
  7993   300000  FF                 	db	255
  7994                           
  7995                           ;Config register CONFIG1H @ 0x300001
  7996                           ;	Oscillator Selection bits
  7997                           ;	OSC = INTIO67, Internal oscillator block, port function on RA6 and RA7
  7998                           ;	Fail-Safe Clock Monitor Enable bit
  7999                           ;	FCMEN = OFF, Fail-Safe Clock Monitor disabled
  8000                           ;	Internal/External Oscillator Switchover bit
  8001                           ;	IESO = ON, Oscillator Switchover mode enabled
  8002   300001                     	org	3145729
  8003   300001  88                 	db	136
  8004                           
  8005                           ;Config register CONFIG2L @ 0x300002
  8006                           ;	Power-up Timer Enable bit
  8007                           ;	PWRT = OFF, PWRT disabled
  8008                           ;	Brown-out Reset Enable bits
  8009                           ;	BOREN = SBORDIS, Brown-out Reset enabled in hardware only (SBOREN is disabled)
  8010                           ;	Brown Out Reset Voltage bits
  8011                           ;	BORV = 3, Minimum setting
  8012   300002                     	org	3145730
  8013   300002  1F                 	db	31
  8014                           
  8015                           ;Config register CONFIG2H @ 0x300003
  8016                           ;	Watchdog Timer Enable bit
  8017                           ;	WDT = OFF, WDT disabled (control is placed on the SWDTEN bit)
  8018                           ;	Watchdog Timer Postscale Select bits
  8019                           ;	WDTPS = 1, 1:1
  8020   300003                     	org	3145731
  8021   300003  00                 	db	0
  8022                           
  8023                           ; Padding undefined space
  8024   300004                     	org	3145732
  8025   300004  FF                 	db	255
  8026                           
  8027                           ;Config register CONFIG3H @ 0x300005
  8028                           ;	CCP2 MUX bit
  8029                           ;	CCP2MX = PORTC, CCP2 input/output is multiplexed with RC1
  8030                           ;	PORTB A/D Enable bit
  8031                           ;	PBADEN = ON, PORTB<4:0> pins are configured as analog input channels on Reset
  8032                           ;	Low-Power Timer1 Oscillator Enable bit
  8033                           ;	LPT1OSC = OFF, Timer1 configured for higher power operation
  8034                           ;	MCLR Pin Enable bit
  8035                           ;	MCLRE = ON, MCLR pin enabled; RE3 input pin disabled
  8036   300005                     	org	3145733
  8037   300005  83                 	db	131
  8038                           
  8039                           ;Config register CONFIG4L @ 0x300006
  8040                           ;	Stack Full/Underflow Reset Enable bit
  8041                           ;	STVREN = ON, Stack full/underflow will cause Reset
  8042                           ;	Single-Supply ICSP Enable bit
  8043                           ;	LVP = OFF, Single-Supply ICSP disabled
  8044                           ;	Extended Instruction Set Enable bit
  8045                           ;	XINST = OFF, Instruction set extension and Indexed Addressing mode disabled (Legacy mo
      +                          de)
  8046                           ;	Background Debugger Enable bit
  8047                           ;	DEBUG = 0x1, unprogrammed default
  8048   300006                     	org	3145734
  8049   300006  81                 	db	129
  8050                           
  8051                           ; Padding undefined space
  8052   300007                     	org	3145735
  8053   300007  FF                 	db	255
  8054                           
  8055                           ;Config register CONFIG5L @ 0x300008
  8056                           ;	Code Protection bit
  8057                           ;	CP0 = OFF, Block 0 (000800-001FFFh) not code-protected
  8058                           ;	Code Protection bit
  8059                           ;	CP1 = OFF, Block 1 (002000-003FFFh) not code-protected
  8060                           ;	Code Protection bit
  8061                           ;	CP2 = OFF, Block 2 (004000-005FFFh) not code-protected
  8062                           ;	Code Protection bit
  8063                           ;	CP3 = OFF, Block 3 (006000-007FFFh) not code-protected
  8064   300008                     	org	3145736
  8065   300008  0F                 	db	15
  8066                           
  8067                           ;Config register CONFIG5H @ 0x300009
  8068                           ;	Boot Block Code Protection bit
  8069                           ;	CPB = OFF, Boot block (000000-0007FFh) not code-protected
  8070                           ;	Data EEPROM Code Protection bit
  8071                           ;	CPD = OFF, Data EEPROM not code-protected
  8072   300009                     	org	3145737
  8073   300009  C0                 	db	192
  8074                           
  8075                           ;Config register CONFIG6L @ 0x30000A
  8076                           ;	Write Protection bit
  8077                           ;	WRT0 = OFF, Block 0 (000800-001FFFh) not write-protected
  8078                           ;	Write Protection bit
  8079                           ;	WRT1 = OFF, Block 1 (002000-003FFFh) not write-protected
  8080                           ;	Write Protection bit
  8081                           ;	WRT2 = OFF, Block 2 (004000-005FFFh) not write-protected
  8082                           ;	Write Protection bit
  8083                           ;	WRT3 = OFF, Block 3 (006000-007FFFh) not write-protected
  8084   30000A                     	org	3145738
  8085   30000A  0F                 	db	15
  8086                           
  8087                           ;Config register CONFIG6H @ 0x30000B
  8088                           ;	Configuration Register Write Protection bit
  8089                           ;	WRTC = OFF, Configuration registers (300000-3000FFh) not write-protected
  8090                           ;	Boot Block Write Protection bit
  8091                           ;	WRTB = OFF, Boot block (000000-0007FFh) not write-protected
  8092                           ;	Data EEPROM Write Protection bit
  8093                           ;	WRTD = OFF, Data EEPROM not write-protected
  8094   30000B                     	org	3145739
  8095   30000B  E0                 	db	224
  8096                           
  8097                           ;Config register CONFIG7L @ 0x30000C
  8098                           ;	Table Read Protection bit
  8099                           ;	EBTR0 = OFF, Block 0 (000800-001FFFh) not protected from table reads executed in other
      +                           blocks
  8100                           ;	Table Read Protection bit
  8101                           ;	EBTR1 = OFF, Block 1 (002000-003FFFh) not protected from table reads executed in other
      +                           blocks
  8102                           ;	Table Read Protection bit
  8103                           ;	EBTR2 = OFF, Block 2 (004000-005FFFh) not protected from table reads executed in other
      +                           blocks
  8104                           ;	Table Read Protection bit
  8105                           ;	EBTR3 = OFF, Block 3 (006000-007FFFh) not protected from table reads executed in other
      +                           blocks
  8106   30000C                     	org	3145740
  8107   30000C  0F                 	db	15
  8108                           
  8109                           ;Config register CONFIG7H @ 0x30000D
  8110                           ;	Boot Block Table Read Protection bit
  8111                           ;	EBTRB = OFF, Boot block (000000-0007FFh) not protected from table reads executed in ot
      +                          her blocks
  8112   30000D                     	org	3145741
  8113   30000D  40                 	db	64
  8114                           tosu	equ	0xFFF
  8115                           tosh	equ	0xFFE
  8116                           tosl	equ	0xFFD
  8117                           stkptr	equ	0xFFC
  8118                           pclatu	equ	0xFFB
  8119                           pclath	equ	0xFFA
  8120                           pcl	equ	0xFF9
  8121                           tblptru	equ	0xFF8
  8122                           tblptrh	equ	0xFF7
  8123                           tblptrl	equ	0xFF6
  8124                           tablat	equ	0xFF5
  8125                           prodh	equ	0xFF4
  8126                           prodl	equ	0xFF3
  8127                           indf0	equ	0xFEF
  8128                           postinc0	equ	0xFEE
  8129                           postdec0	equ	0xFED
  8130                           preinc0	equ	0xFEC
  8131                           plusw0	equ	0xFEB
  8132                           fsr0h	equ	0xFEA
  8133                           fsr0l	equ	0xFE9
  8134                           wreg	equ	0xFE8
  8135                           indf1	equ	0xFE7
  8136                           postinc1	equ	0xFE6
  8137                           postdec1	equ	0xFE5
  8138                           preinc1	equ	0xFE4
  8139                           plusw1	equ	0xFE3
  8140                           fsr1h	equ	0xFE2
  8141                           fsr1l	equ	0xFE1
  8142                           bsr	equ	0xFE0
  8143                           indf2	equ	0xFDF
  8144                           postinc2	equ	0xFDE
  8145                           postdec2	equ	0xFDD
  8146                           preinc2	equ	0xFDC
  8147                           plusw2	equ	0xFDB
  8148                           fsr2h	equ	0xFDA
  8149                           fsr2l	equ	0xFD9
  8150                           status	equ	0xFD8

Data Sizes:
    Strings     3
    Constant    60
    Data        0
    BSS         82
    Persistent  0
    Stack       0

Auto Spaces:
    Space          Size  Autos    Used
    COMRAM          126    117     121
    BANK0           128    126     128
    BANK1           256      4      80
    BANK2           256      0       0
    BANK3           256      0       0
    BANK4           256      0       0
    BANK5           239      0       0

Pointer List with Targets:

    sp__GetString	PTR unsigned char  size(2) Largest target is 20
		 -> mystring(BANK1[20]), 


Critical Paths under _main in COMRAM

    _sqrtf->___fladd
    _atan2f->_fabsf
    _atanf->_fabsf
    _fabsf->___fldiv
    ___flsub->___fladd
    ___fladd->___flmul
    ___flmul->___xxtofl
    ___fldiv->_sqrtf
    _Check_ADC->_ADC_Read

Critical Paths under _Low_ISR in COMRAM

    None.

Critical Paths under _main in BANK0

    _SYSTEM_Initialize->_Gyroscope_Initialize
    _Gyroscope_Initialize->_Calibration
    _Calibration->_calculate_angle
    _Check_Gyroscope->_calculate_angle
    _calculate_angle->_atan2f
    _atan2f->_atanf
    _atanf->___fldiv
    _fabsf->___fldiv

Critical Paths under _Low_ISR in BANK0

    None.

Critical Paths under _main in BANK1

    None.

Critical Paths under _Low_ISR in BANK1

    None.

Critical Paths under _main in BANK2

    None.

Critical Paths under _Low_ISR in BANK2

    None.

Critical Paths under _main in BANK3

    None.

Critical Paths under _Low_ISR in BANK3

    None.

Critical Paths under _main in BANK4

    None.

Critical Paths under _Low_ISR in BANK4

    None.

Critical Paths under _main in BANK5

    None.

Critical Paths under _Low_ISR in BANK5

    None.

Call Graph Tables:

 ---------------------------------------------------------------------------------
 (Depth) Function   	        Calls       Base Space   Used Autos Params    Refs
 ---------------------------------------------------------------------------------
 (0) _main                                                 5     5      0   65473
                                            125 BANK0      1     1      0
                                              0 BANK1      4     4      0
                          _Check_ADC
                    _Check_Gyroscope
                  _SYSTEM_Initialize
 ---------------------------------------------------------------------------------
 (1) _SYSTEM_Initialize                                    0     0      0   30965
                     _ADC_Initialize
               _Gyroscope_Initialize
               _INTERRUPT_Initialize
              _OSCILLATOR_Initialize
                    _TMR2_Initialize
 ---------------------------------------------------------------------------------
 (2) _TMR2_Initialize                                      0     0      0       0
 ---------------------------------------------------------------------------------
 (2) _OSCILLATOR_Initialize                                0     0      0       0
 ---------------------------------------------------------------------------------
 (2) _INTERRUPT_Initialize                                 0     0      0       0
 ---------------------------------------------------------------------------------
 (2) _Gyroscope_Initialize                                 1     1      0   30965
                                            124 BANK0      1     1      0
                        _Calibration
                           _I2C_Init
                          _I2C_Start
                           _I2C_Stop
                          _I2C_Write
 ---------------------------------------------------------------------------------
 (3) _I2C_Init                                             0     0      0       0
 ---------------------------------------------------------------------------------
 (3) _Calibration                                         10    10      0   30918
                                            114 BANK0     10    10      0
                           _I2C_Read
                          _I2C_Start
                           _I2C_Stop
                          _I2C_Write
                    _calculate_angle
 ---------------------------------------------------------------------------------
 (2) _ADC_Initialize                                       0     0      0       0
 ---------------------------------------------------------------------------------
 (1) _Check_Gyroscope                                      8     6      2   34180
                                            114 BANK0      8     6      2
                           _I2C_Read
                          _I2C_Start
                           _I2C_Stop
                          _I2C_Write
                             ___flge
                            ___flsub
                    _calculate_angle
 ---------------------------------------------------------------------------------
 (4) _calculate_angle                                     14     8      6   30586
                                            100 BANK0     14     8      6
                            ___fladd
                            ___fldiv
                            ___flmul
                           ___xxtofl
                             _atan2f
                              _sqrtf
 ---------------------------------------------------------------------------------
 (5) _sqrtf                                               41    37      4    1070
                                             60 COMRAM    37    33      4
                            ___fladd (ARG)
                            ___flmul (ARG)
                           ___xxtofl (ARG)
 ---------------------------------------------------------------------------------
 (5) _atan2f                                              41    33      8   21706
                                             59 BANK0     41    33      8
                            ___fladd
                            ___fldiv
                            ___flneg
                            ___flsub
                      ___fpclassifyf
                           ___xxtofl (ARG)
                              _atanf
                              _fabsf
                              _sqrtf (ARG)
 ---------------------------------------------------------------------------------
 (6) _atanf                                               46    42      4   12279
                                             13 BANK0     46    42      4
                            ___fladd
                            ___fldiv
                            ___flmul
                            ___flneg
                            ___flsub
                      ___fpclassifyf
                              _fabsf
 ---------------------------------------------------------------------------------
 (6) _fabsf                                                8     4      4      77
                                            109 COMRAM     8     4      4
                            ___fldiv (ARG)
 ---------------------------------------------------------------------------------
 (7) ___fpclassifyf                                       14    10      4     204
                                              5 COMRAM    14    10      4
 ---------------------------------------------------------------------------------
 (7) ___flsub                                              8     0      8    3151
                                             60 COMRAM     8     0      8
                            ___fladd
                            ___flmul (ARG)
 ---------------------------------------------------------------------------------
 (8) ___fladd                                             16     8      8    3050
                                             44 COMRAM    16     8      8
                            ___flmul (ARG)
                           ___xxtofl (ARG)
 ---------------------------------------------------------------------------------
 (7) ___flneg                                              4     0      4      74
                                              5 COMRAM     4     0      4
 ---------------------------------------------------------------------------------
 (7) ___flmul                                             25    17      8    2277
                                             19 COMRAM    25    17      8
                           ___xxtofl (ARG)
 ---------------------------------------------------------------------------------
 (7) ___fldiv                                             25    17      8    1719
                                             97 COMRAM    12     4      8
                                              0 BANK0     13    13      0
                            ___fladd (ARG)
                            ___flmul (ARG)
                           ___xxtofl (ARG)
                              _sqrtf (ARG)
 ---------------------------------------------------------------------------------
 (5) ___xxtofl                                            14    10      4     523
                                              5 COMRAM    14    10      4
 ---------------------------------------------------------------------------------
 (2) ___flge                                              12     4      8     278
                                              5 COMRAM    12     4      8
 ---------------------------------------------------------------------------------
 (3) _I2C_Write                                            1     1      0      47
                                              5 COMRAM     1     1      0
 ---------------------------------------------------------------------------------
 (3) _I2C_Stop                                             0     0      0       0
 ---------------------------------------------------------------------------------
 (3) _I2C_Start                                            0     0      0       0
 ---------------------------------------------------------------------------------
 (4) _I2C_Read                                             2     2      0      81
                                              5 COMRAM     2     2      0
 ---------------------------------------------------------------------------------
 (1) _Check_ADC                                            7     5      2     263
                                             11 COMRAM     7     5      2
                           _ADC_Read
 ---------------------------------------------------------------------------------
 (2) _ADC_Read                                             6     4      2      37
                                              5 COMRAM     6     4      2
 ---------------------------------------------------------------------------------
 Estimated maximum stack depth 8
 ---------------------------------------------------------------------------------
 (Depth) Function   	        Calls       Base Space   Used Autos Params    Refs
 ---------------------------------------------------------------------------------
 (9) _Low_ISR                                              5     5      0       0
                                              0 COMRAM     5     5      0
 ---------------------------------------------------------------------------------
 Estimated maximum stack depth 9
 ---------------------------------------------------------------------------------

 Call Graph Graphs:

 _main (ROOT)
   _Check_ADC
     _ADC_Read
   _Check_Gyroscope
     _I2C_Read
     _I2C_Start
     _I2C_Stop
     _I2C_Write
     ___flge
     ___flsub
       ___fladd
         ___flmul (ARG)
           ___xxtofl (ARG)
         ___xxtofl (ARG)
       ___flmul (ARG)
     _calculate_angle
       ___fladd
       ___fldiv
         ___fladd (ARG)
         ___flmul (ARG)
         ___xxtofl (ARG)
         _sqrtf (ARG)
           ___fladd (ARG)
           ___flmul (ARG)
           ___xxtofl (ARG)
       ___flmul
       ___xxtofl
       _atan2f
         ___fladd
         ___fldiv
         ___flneg
         ___flsub
         ___fpclassifyf
         ___xxtofl (ARG)
         _atanf (ARG)
           ___fladd
           ___fldiv
           ___flmul
           ___flneg
           ___flsub
           ___fpclassifyf
           _fabsf
             ___fldiv (ARG)
         _fabsf (ARG)
         _sqrtf (ARG)
       _sqrtf
   _SYSTEM_Initialize
     _ADC_Initialize
     _Gyroscope_Initialize
       _Calibration
         _I2C_Read
         _I2C_Start
         _I2C_Stop
         _I2C_Write
         _calculate_angle
       _I2C_Init
       _I2C_Start
       _I2C_Stop
       _I2C_Write
     _INTERRUPT_Initialize
     _OSCILLATOR_Initialize
     _TMR2_Initialize

 _Low_ISR (ROOT)

Address spaces:
Name               Size   Autos  Total    Usage
BIGRAM            1518      0       0      0.0%
BITBANK4           256      0       0      0.0%
BANK4              256      0       0      0.0%
BITBANK3           256      0       0      0.0%
BANK3              256      0       0      0.0%
BITBANK2           256      0       0      0.0%
BANK2              256      0       0      0.0%
BITBANK1           256      0       0      0.0%
BANK1              256      4      80     31.2%
BITBANK5           239      0       0      0.0%
BANK5              239      0       0      0.0%
BITBANK0           128      0       0      0.0%
BANK0              128    126     128    100.0%
BITCOMRAM          126      0       0      0.0%
COMRAM             126    117     121     96.0%
BITBIGSFR_1h        38      0       0      0.0%
BITBIGSFRh          18      0       0      0.0%
BITBIGSFR_1lh       14      0       0      0.0%
BITBIGSFR_5h         9      0       0      0.0%
BITBIGSFRl           9      0       0      0.0%
BITBIGSFR_2          6      0       0      0.0%
BITBIGSFR_4          3      0       0      0.0%
BITBIGSFR_3          3      0       0      0.0%
BITBIGSFR_5l         2      0       0      0.0%
STACK                0      0       0      0.0%
DATA                 0      0     329      0.0%


Microchip Technology PIC18 Macro Assembler V2.50 build 20240725155939 
Symbol Table                                                                                   Tue Jan 14 20:14:58 2025

                 ___fldiv@aexp 008C                   ___fldiv@bexp 008B                   ___fldiv@sign 0084  
                           l22 2812                             l30 2676                             _BF 7E38  
                           l31 26A0                             l25 283E                             l33 26A2  
                           l19 28C0                             l63 28A6                             l92 28D6  
                           l95 291C                             l98 2914                             _pi 7D27  
                           bsr 0FE0                            l300 2766                            l303 260C  
                          l270 2908                            l264 21A0                            l273 28EC  
                          l257 27A0                            l282 28E8                            l291 288A  
                          l267 2336                            l276 28FA                            l285 286E  
                          l294 272E                            l279 28DA                            l296 273C  
                          l288 287C                            l297 2756                            l299 2764  
                          l901 1CB8                            l582 23F4                            l910 1CFE  
                          l911 1D1C                            l591 27D8                            l912 1D74  
                          l904 1C7C                            l913 1D62                            l587 243A  
                          l931 1384                            l940 15F0                            l941 15DE  
                          l845 0FF2                            l862 110C                            l854 12BE  
                          l846 0FE0                            l935 16E4                            l871 11DA  
                          l847 0FA6                            l872 11C8                            l938 157A  
                          l939 1598                            l859 119A                            l972 1EAC  
                          l948 16A6                            l878 1282                            l975 2008  
                          l887 26E8                            l986 1FA0                            l979 1F44  
                          l899 1E54                            _PR2 0FCB                            _PEN 7E2A  
                          _SEN 7E28                            _aT0 7D1F                            _aT1 7D1B  
                          _aT2 7D17                            _aT3 7D13                            _aT4 7D0F  
                          _dir 0128          ?_Gyroscope_Initialize 0001                            _str 0100  
              _TMR2_Initialize 290A                            wreg 0FE8                   ___flmul@aexp 0021  
     Check_ADC@prev_sensor_val 000C                   ___flmul@bexp 0026                   ___flmul@sign 0020  
                 ___flmul@temp 002B                   ___flmul@prod 0027                           l1001 08D2  
                         l1004 0E08                           l1105 280C                           l1033 0C0C  
                         l1009 09AE                           l1122 1928                           l1114 1AC2  
                         l1043 0CD4                           l1035 0BD6                           l1125 19EC  
                         l1118 18CA                           l1127 1A5A                           l1057 2538  
                         l1081 084C                           l1087 021E                           l4101 0BF8  
                         l4021 0990                           l4013 08F2                           l4005 084E  
                         l4111 0CAC                           l4031 09D6                           l4023 0992  
                         l4015 0910                           l4007 0874                           l3401 0F16  
                         l4121 0D7C                           l4113 0CE8                           l4105 0C1A  
                         l4041 0A26                           l4009 089A                           l4201 253A  
                         l4131 1E68                           l3411 0F2A                           l3403 0F1A  
                         l4107 0C50                           l4051 0A78                           l4043 0A34  
                         l4027 09C2                           l4019 0938                           l4211 255E  
                         l4203 253E                           l4301 2432                           l4141 1EE6  
                         l4133 1E76                           l3501 118A                           l3421 0F3E  
                         l3413 0F2E                           l3405 0F1E                           l4117 0D10  
                         l4109 0C64                           l4045 0A48                           l4037 09EA  
                         l4221 2590                           l4213 2568                           l4205 2544  
                         l4311 264C                           l4303 2438                           l4151 1F3A  
                         l4143 1EEE                           l4135 1EBC                           l3511 11EA  
                         l3503 118C                           l3431 0F9E                           l3423 0F42  
                         l3415 0F32                           l3407 0F22                           l3351 0E24  
                         l4127 0DE8                           l4063 0AC0                           l4055 0A98  
                         l4039 0A10                           l4231 28A8                           l4223 2594  
                         l4215 2572                           l4207 254E                           l4241 280E  
                         l4313 267E                           l4161 1FB0                           l4153 1F76  
                         l4145 1EFA                           l4137 1ED2                           l4129 1E58  
                         l3601 1C12                           l3521 1250                           l3513 11F6  
                         l3505 11AA                           l3441 0FD4                           l3433 0FB4  
                         l3417 0F36                           l3409 0F26                           l3425 0F46  
                         l3361 0E58                           l3353 0E26                           l4073 0AE8  
                         l4049 0A5C                           l4233 28AA                           l4225 25AC  
                         l4217 257C                           l4209 2554                           l4321 28CE  
                         l4243 2820                           l4315 269A                           l4307 260E  
                         l4171 1FF8                           l4163 1FB4                           l4155 1F82  
                         l4147 1F2C                           l3611 1C58                           l3603 1C22  
                         l3531 1298                           l3523 1260                           l3515 1204  
                         l3507 11C0                           l3451 1024                           l3443 0FDE  
                         l3435 0FC0                           l3427 0F72                           l3419 0F3A  
                         l3371 0E88                           l3355 0E36                           l3363 0E5E  
                         l3347 0E0A                           l4083 0B36                           l4075 0B0E  
                         l4067 0AD4                           l4059 0AAC                           l4331 201E  
                         l4235 28AE                           l4227 25C8                           l4219 2586  
                         l4251 2892                           l4323 28D2                           l4245 2836  
                         l4309 2622                           l4181 272C                           l4165 1FD8  
                         l4157 1F90                           l4149 1F2E                           l3621 1CA6  
                         l3613 1C6C                           l3605 1C32                           l3541 1AC4  
                         l3701 133E                           l3533 129E                           l3525 1280  
                         l3517 123E                           l3461 1060                           l3453 1034  
                         l3445 1000                           l3437 0FC4                           l3429 0F8E  
                         l3381 0EBE                           l3373 0E8E                           l3365 0E6E  
                         l3357 0E46                           l3349 0E16                           l4093 0B5E  
                         l4341 2048                           l4333 2024                           l4325 200A  
                         l4237 28BC                           l4229 25E0                           l4261 28A2  
                         l4253 2896                           l4317 28C2                           l4183 2740  
                         l4175 28EA                           l4167 1FE8                           l4159 1FAE  
                         l3631 1CEE                           l3623 1CB6                           l3615 1C7A  
                         l3607 1C42                           l3551 1B02                           l3543 1AD2  
                         l3711 1394                           l3703 134E                           l3535 12AC  
                         l3527 1290                           l3519 1240                           l3471 10A6  
                         l3463 106E                           l3455 1042                           l3447 1010  
                         l3439 0FD2                           l3391 0EF8                           l3383 0ECE  
                         l3375 0E9C                           l3367 0E74                           l3359 0E56  
                         l4087 0B4A                           l4079 0B22                           l4095 0B84  
                         l4191 22DE                           l4351 2098                           l4343 2050  
                         l4335 202C                           l4327 200E                           l4239 28BE  
                         l4271 276C                           l4263 28A4                           l4255 2898  
                         l4319 28CA                           l4185 2754                           l4177 286A  
                         l4169 1FF6                           l3633 1CFC                           l3625 1CC8  
                         l3617 1C86                           l3609 1C48                           l3561 1B30  
                         l3553 1B12                           l3545 1AE0                           l3801 16D4  
                         l3721 13CE                           l3713 13A4                           l3705 135E  
                         l3537 12AE                           l3529 1296                           l3481 1122  
                         l3473 10DA                           l3465 1070                           l3457 1050  
                         l3393 0F06                           l3385 0ED0                           l3377 0E9E  
                         l3369 0E86                           l4097 0BBA                           l4361 2152  
                         l4353 20B6                           l4345 2058                           l4337 2034  
                         l4329 2014                           l4281 2792                           l4273 2770  
                         l4257 289A                           l4249 288C                           l4265 2916  
                         l4179 28D8                           l4291 23A4                           l3643 1D84  
                         l3651 1DCC                           l3627 1CDE                           l3635 1D0E  
                         l3619 1CA4                           l3571 1B66                           l3563 1B36  
                         l3555 1B14                           l3547 1AE2                           l3731 1420  
                         l3723 13E4                           l3707 136E                           l3811 27A2  
                         l3491 115E                           l3483 1132                           l3475 10DC  
                         l3467 107A                           l3459 105C                           l3395 0F0A  
                         l3379 0EAE                           l3387 0ED6                           l4099 0BE4  
                         l4187 21A2                           l4363 2184                           l4355 20E2  
                         l4347 205C                           l4339 203E                           l4195 28FC  
                         l4283 279C                           l4275 2782                           l4259 28A0  
                         l4267 290A                           l4371 26EA                           l4293 23B4  
                         l4285 2338                           l3661 1E30                           l3653 1DE6  
                         l3645 1D90                           l3637 1D2C                           l3629 1CE4  
                         l3581 1BA4                           l3573 1B76                           l3565 1B44  
                         l3549 1AF2                           l3557 1B1A                           l3741 1466  
                         l3733 142E                           l3725 13F0                           l3717 13B8  
                         l3709 1374                           l3813 27B8                           l3493 1160  
                         l3477 10EC                           l3469 1080                           l3397 0F0E  
                         l3389 0EE6                           l3805 26A4                           l3821 245C  
                         l3901 0496                           l4189 2292                           l4365 2192  
                         l4357 2116                           l4349 207A                           l4197 2900  
                         l4277 2786                           l4269 2768                           l4373 26EE  
                         l4295 23C2                           l4287 2366                           l3663 1E34  
                         l3655 1DFC                           l3647 1D9E                           l3639 1D5A  
                         l3583 1BB4                           l3591 1BD4                           l3575 1B78  
                         l3567 1B46                           l3559 1B2A                           l3751 14D4  
                         l3743 1480                           l3735 143A                           l3727 1408  
                         l3719 13C4                           l3815 27C8                           l3495 116E  
                         l3487 1146                           l3479 10FC                           l3399 0F12  
                         l3807 26B4                           l3823 249A                           l3831 24DA  
                         l3911 05E2                           l3903 04CA                           l4367 219C  
                         l4359 2148                           l4199 2906                           l4279 278C  
                         l4375 26F8                           l4297 23D4                           l4289 2376  
                         l3665 1E42                           l3657 1E16                           l3649 1DC8  
                         l3593 1BE4                           l3585 1BBC                           l3569 1B56  
                         l3577 1B7E                           l3761 156A                           l3753 14FE  
                         l3745 1490                           l3737 144A                           l3729 1414  
                         l3681 12DA                           l3497 1176                           l3489 1150  
                         l3833 24EC                           l3825 24C2                           l3841 27DA  
                         l3913 063A                           l3905 04FE                           l4369 219E  
                         l4377 2704                           l4299 23E2                           l3667 1E48  
                         l3659 1E2E                           l3595 1BE4                           l3587 1BC0  
                         l3579 1B8E                           l3763 1578                           l3755 1534  
                         l3747 14AC                           l3739 1456                           l3691 1312  
                         l3683 12DC                           l3499 117A                           l3827 24CE  
                         l3819 243C                           l3843 27FA                           l3931 0836  
                         l3923 070E                           l3915 066E                           l3907 0556  
                         l3851 00F4                           l4379 2710                           l3669 1E4A  
                         l3773 1600                           l3781 1648                           l3765 158A  
                         l3757 1542                           l3749 14B8                           l3693 1322  
                         l3685 12EC                           l3677 12C0                           l3837 2530  
                         l3845 27FC                           l3925 0766                           l3917 067E  
                         l3909 05AE                           l3861 015C                           l3853 010A  
                         l3941 16F6                           l3599 1BF8                           l3791 16AA  
                         l3783 1662                           l3775 160C                           l3767 15A8  
                         l3759 1560                           l3695 1328                           l3687 12FC  
                         l3679 12CC                           l3927 07B4                           l3919 06D6  
                         l3863 01A0                           l3871 01EE                           l3855 010C  
                         l3943 172A                           l3793 16BA                           l3785 1676  
                         l3777 161A                           l3769 15D6                           l3697 132E  
                         l3689 130C                           l3929 07E8                           l3881 0260  
                         l3873 0204                           l3865 01B2                           l3857 0122  
                         l3849 00E4                           l3961 17EA                           l3945 1758  
                         l3953 178A                           l3795 16C8                           l3787 1690  
                         l3779 1644                           l3699 133C                           l3883 0276  
                         l3891 03A0                           l3867 01C6                           l3859 0148  
                         l3971 186A                           l3963 17F8                           l3955 17A8  
                         l3947 1766                           l3939 16E6                           l3797 16CA  
                         l3789 16A0                           l3893 03B6                           l3885 0278  
                         l3877 0224                           l3981 190A                           l3973 187E  
                         l3957 17D6                           l3949 1776                           l3799 16D0  
                         l3895 03BA                           l3887 031C                           l3879 0248  
                         l3991 19B4                           l3983 1918                           l3975 1888  
                         l3897 045E                           l3889 0320                           l3993 19FC  
                         l3985 1942                           l3977 1894                           l3969 1816  
                         _ADFM 7E07                           l3899 0462                           l3995 1A06  
                         l3987 1962                           l3979 18A2                           l3997 1A1C  
                         l3989 1976                           l3999 1A32                           STR_1 7D2B  
                         _LATA 0F89                           u4000 1CA4                           u4001 1CA0  
                         u4010 1CC8                           u4011 1CC4                           u4100 1DE6  
                         u4020 1CDE                           u4101 1DE2                           u4021 1CDA  
                         u4110 1E16                           u4030 1CFC                           u4111 1E12  
                         u4031 1CF8                           u5000 2366                           u4120 1E42  
                         u4040 1D1C                           u4200 13A4                           u5001 2362  
                         u4121 1E3E                           u4041 1D18                           u4201 13A0  
                         u5010 23A4                           u4050 1D2C                           u4210 151E  
                         u4130 12DA                           u5011 23A0                           u4051 1D28  
                         u4131 12D6                           u5020 23C2                           u4060 1D5A  
                         u4300 1690                           u4220 1578                           u4140 12EC  
                         u5021 23BE                           u4061 1D56                           u4301 168C  
                         u4221 1574                           u4141 12E8                           u5030 23E2  
                         u4070 1D70                           u4310 16C8                           u4230 1598  
                         u4150 12FC                           u3510 0E24                           u5031 23DE  
                         u4071 1D6C                           u4311 16C4                           u4231 1594  
                         u4215 1514                           u4151 12F8                           u3511 0E20  
                         u5040 2432                           u4080 1D84                           u4240 15A8  
                         u4160 133C                           u4320 27B8                           u3600 0F72  
                         u3520 0E36                           u4400 0106                           u5041 242E  
                         u4081 1D80                           u4241 15A4                           u4161 1338  
                         u4321 27B4                           u3601 0F6E                           u3521 0E32  
                         u4401 0100                           u5050 264C                           u4090 1D9E  
                         u4250 15D6                           u4170 134E                           u3610 0F8A  
                         u3530 0E46                           u4330 247C                           u4410 0108  
                         u5051 2648                           u4091 1D9A                           u4251 15D2  
                         u4171 134A                           u3611 0F84                           u3531 0E42  
                         u5107 2718              ??_Check_Gyroscope 00F4                           u5060 2676  
                         u4260 15EC                           u4180 135E                           u3700 106E  
                         u3620 0F8C                           u3540 0E86                           u4340 249A  
                         u4500 067E                           u4420 0122                           u5061 2672  
                         u4261 15E8                           u4181 135A                           u3701 106A  
                         u3541 0E82                           u4341 2496                           u4501 067A  
                         u4421 011E                           u5117 2778                           u5070 269A  
                         u4270 1600                           u4190 1394                           u3710 10A6  
                         u3630 0FB4                           u3550 0E9C                           u4350 24C2  
                         u4510 0848                           u4430 0148                           u5071 2696  
                         u4271 15FC                           u4191 1390                           u3711 10A2  
                         u3631 0FB0                           u3551 0E98                           u4351 24BE  
                         u4335 2472                           u4511 0844                           u4431 0144  
                         u4280 161A                           u3800 11C0                           u3720 10EC  
                         u3640 0FD2                           u3560 0EAE                           u4360 24EC  
                         u4440 01B2                           u4600 18A2                           u4520 172A  
                         u5080 2148                           u4281 1616                           u3801 11BC  
                         u3721 10E8                           u3641 0FCE                           u3561 0EAA  
                         u4361 24E8                           u4441 01AE                           u4601 189E  
                         u4521 1726                           u5081 2144                           u4290 1662  
                         u3810 11D6                           u3730 1122                           u3650 0FF2  
                         u3570 0EBE                           u4450 0204                           u4610 1918  
                         u4530 1758                           u5090 2184                           u4291 165E  
                         u3811 11D2                           u3731 111E                           u3651 0FEE  
                         u3571 0EBA                           u4451 0200                           u4611 1914  
                         u4531 1754                           u5091 2180                           u3900 1AE0  
                         u3820 11EA                           u3740 1132                           u3660 1000  
                         u3580 0EF8                           u4380 2526                           u4460 021A  
                         u4700 0982                           u4620 19B4                           u4540 1766  
                         u3901 1ADC                           u3821 11E6                           u3741 112E  
                         u3661 0FFC                           u3581 0EF4                           u4381 2520  
                         u4461 0216                           u4621 19B0                           u4541 1762  
                         u3910 1AF2                           u3830 1204                           u3750 115E  
                         u3670 1010                           u3590 0F06                           u4390 2528  
                         u4470 0260                           u4710 09AA                           u4630 1A1C  
                         u4550 17A8                           u3911 1AEE                           u3831 1200  
                         u3751 115A                           u3671 100C                           u3591 0F02  
                         u4375 24FE                           u4471 025C                           u4711 09A6  
                         u4631 1A18                           u4551 17A4                           u3920 1B02  
                         u3840 123E                           u3760 116E                           u3680 1042  
                         u4480 0276                           u4800 0C50                           u4720 0A26  
                         u4640 1A32                           u4560 17D6                           u3921 1AFE  
                         u3841 123A                           u3761 116A                           u3681 103E  
                         u4481 0272                           u4801 0C4C                           u4721 0A22  
                         u4705 0978                           u4641 1A2E                           u4561 17D2  
                         u4810 1E68                           u3930 1B44                           u3850 1250  
                         u3770 118A                           u3690 1050                           u4490 03B6  
                         u4730 0A34                           u4570 17F8                           u4811 1E64  
                         u3931 1B40                           u3851 124C                           u3771 1186  
                         u3691 104C                           u4491 03B2                           u4731 0A30  
                         u4571 17F4                           u4900 1FF6                           u4820 1E76  
                         u3940 1B56                           u3860 1260                           u3780 119A  
                         u4740 0A78                           u4660 0874                           _RCEN 7E2B  
                         u4901 1FF2                           u4821 1E72                           u3941 1B52  
                         u3861 125C                           u3781 1196                           u4741 0A74  
                         u4661 0870                           u4910 28FA                           u4830 1ED2  
                         u3950 1B66                           u3870 1280                           u3790 11AA  
                         u4750 0A94                           u4670 089A                           u4590 186A  
                         u4911 28F6                           u4831 1ECE                           u3951 1B62  
                         u3871 127C                           u3791 11A6                           u4751 0A90  
                         u4671 0896                           u4655 1A9E                           u4591 1866  
                         u4920 287C                           u4840 1F28                           u3960 1BA4  
                         u3880 1290                           u4760 0BBA                           u4680 0910  
                         u4921 2878                           u4841 1F24                           u3961 1BA0  
                         u3881 128C                           u4761 0BB6                           u4681 090C  
                         u4585 182A                           u4930 288A                           u4850 1F72  
                         u3970 1BE4                           u3890 12AC                           u4770 0BD6  
                         u4690 0958                           u4586 1834                           u4931 2886  
                         u4851 1F6E                           u3971 1BE0                           u3891 12A8  
                         u4771 0BD2                           u4587 1844                           u4940 28E8  
                         u4860 1F90                           u3980 1C58                           u4780 0BE4  
                         u4941 28E4                           u4861 1F8C                           u3981 1C54  
                         u4781 0BE0                           u4950 273C                           u4870 1FA0  
                         u3990 1C7A                           u4790 0C1A                           u4951 2738  
                         u4871 1F9C                           u3991 1C76                           u4791 0C16  
                         u4695 094E                           u4960 2752                           u4880 1FAE  
                         u4961 274C                           u4881 1FAA                           u4890 1FE8  
                         u4891 1FE4                           u4980 2764                           u4981 2760  
                         u4990 2820                           u4991 281C                           u4975 2754  
                         _accX 012E                           _accY 012C                           _accZ 012A  
                         _main 26EA               __end_of_I2C_Init 290A               __end_of_I2C_Read 2768  
                         btemp 007A               __end_of_I2C_Stop 28EA               __end_of_ADC_Read 2840  
                ___fpclassifyf 243C                           prodh 0FF4                           prodl 0FF3  
                         start 00E0                ___fldiv@new_exp 0085                   ___param_bank 0000  
                  _Calibration 253A                __end_of_Low_ISR 00E0  __end_of_OSCILLATOR_Initialize 291E  
              __end_of___fladd 12C0                          ?_main 0001                          _ACKEN 7E2C  
                        _ACKDT 7E2D                __end_of___fldiv 1E56               ?_calculate_angle 00E4  
              __end_of___flneg 27DA                __end_of___flmul 16E6                __end_of___flsub 26EA  
                        _T2CON 0FCA                          _IRCF0 7E9C                          _IRCF1 7E9D  
                        _IRCF2 7E9E                          i1l314 00D0                          i1l309 00D0  
                        _RCREG 0FAE                          _SPBRG 0FAF                          _TRISA 0F92  
                        _TRISB 0F93                          _TXREG 0FAD                          _fabsf 27DA  
                        _angle 011C                          _atanf 00E4                          _count 0134  
                        _errno 0124                          _pi_lo 7D23                          _sqrtf 16E6  
            __end_of_I2C_Start 28FC              __end_of_I2C_Write 288C                          tablat 0FF5  
                        ttemp5 007B                          ttemp6 007E                          ttemp7 0082  
                        status 0FD8                          wtemp8 007B                 ?___fpclassifyf 0006  
              __initialization 2840                   __end_of_main 272A        __end_of_TMR2_Initialize 2916  
                       ??_main 00FD         ??_Gyroscope_Initialize 00FC                  __activetblptr 0002  
               _postpostscaler 0126                         ?_fabsf 006E                         ?_atanf 008D  
                       _ADCON1 0FC1                         _ADRESH 0FC4                         _ADRESL 0FC3  
                       ?_sqrtf 003D                         i1l3341 0072                         i1l3333 0026  
                       i1l3343 0098                         i1l3335 0034                         i1l3345 00AA  
                       i1l3337 0036                         i1l3339 005E                         _OSCCON 0FD3  
                       _TMR2IF 7CF1                         _SSPADD 0FC8                         _SSPBUF 0FC9  
             __end_of___xxtofl 200A                      ??_Low_ISR 0001                         ___flge 2338  
                    ??___fladd 0035                      ??___fldiv 006A                      ??___flneg 000A  
                    ??___flmul 001C                         _atan2f 084E                      ??___flsub 0045  
                       _atanhi 7CFF                         _atanlo 7CEF                ADC_Read@channel 0006  
                       _lenStr 0136                         fabsf@u 0072                         fabsf@x 006E  
              ADC_Read@digital 000A                         clear_0 2846                         atanf@w 00AE  
                       atanf@x 008D                         atanf@z 00B3                         isa$std 0001  
                    ?_I2C_Init 0001                      ?_I2C_Read 0001                      ?_I2C_Stop 0001  
              ___fpclassifyf@e 000E                ___fpclassifyf@u 0010                      ?_ADC_Read 0006  
              ___fpclassifyf@x 0006           _Check_Gyroscope$1899 00F6                   __mediumconst 7CEE  
                       tblptrh 0FF7                         tblptrl 0FF6                         tblptru 0FF8  
            __end_of_Check_ADC 26A4                         sqrtf@i 004A                         sqrtf@m 0056  
                       sqrtf@q 004E                         sqrtf@r 005A                         sqrtf@s 0046  
                       sqrtf@t 0052                         sqrtf@x 003D                     ___flge@ff1 0006  
              ??___fpclassifyf 000A                     ___flge@ff2 000A                   ___xxtofl@arg 0010  
                 ___xxtofl@exp 000F              _SYSTEM_Initialize 28C2                   ___xxtofl@val 0006  
                   __accesstop 0080        __end_of__initialization 285A                     ___flneg@f1 0006  
           ?_SYSTEM_Initialize 0001                  ___rparam_used 0001                 __pcstackCOMRAM 0001  
          ??_SYSTEM_Initialize 0076                  __end_of_fabsf 280E                  __end_of_atanf 084E  
                __end_of_pi_lo 7D27                  __end_of_sqrtf 1AC4               ?_TMR2_Initialize 0001  
                   __end_of_pi 7D2B                _Check_Gyroscope 200A                     ??_I2C_Init 0006  
                   ??_I2C_Read 0006                     ??_I2C_Stop 0006                     ??_ADC_Read 0008  
              Calibration@accX 00F4                Calibration@accZ 00F6                        ??_fabsf 0072  
                      ??_atanf 0076      __end_of_SYSTEM_Initialize 28D8                        ??_sqrtf 0041  
                   __pbssBANK0 00FE                     __pbssBANK1 0100                     _atanf$1905 00A5  
                   _atanf$1906 0091                     _atanf$1907 00A9                     _atanf$1908 0095  
                   _atanf$1909 0099                   I2C_Read@data 0007                   ?_Calibration 0001  
                      ?___flge 0006                        ?_atan2f 00BB                        _CCP1CON 0FBD  
                    ?___xxtofl 0006                        _SSPCON1 0FC6                        _SSPCON2 0FC5  
                      _SSPSTAT 0FC7                      _I2C_Start 28EA                      _I2C_Write 2868  
                      _Low_ISR 0018                        __Hparam 0000                        __Lparam 0000  
                      ___fladd 0E0A        __end_of_Check_Gyroscope 21A2                        ___fldiv 1AC4  
                      ___flneg 27A2                        ___flmul 12C0                        ___flsub 26A4  
                      __pcinit 2840                        __ramtop 0600                        __ptext0 26EA  
                      __ptext1 28C2                        __ptext2 290A                        __ptext3 2916  
                      __ptext4 288C                        __ptext5 2768                        __ptext6 28FC  
                      __ptext7 253A                        __ptext8 28A8                        __ptext9 200A  
        _OSCILLATOR_Initialize 2916                        atan2f@m 00E3                        atan2f@x 00BF  
                      atan2f@y 00BB                        atan2f@z 00D7                     ??___xxtofl 000A  
                      atanf@s1 009D                        atanf@s2 00A1                        atanf@id 00B2  
                      atanf@ix 00B7           end_of_initialization 285A                  __Lmediumconst 7CEE  
                   ?_I2C_Start 0001                     ?_I2C_Write 0001                      _RCSTAbits 0FAB  
                      postinc0 0FEE                        sqrtf@ix 005E       Check_ADC@bend_sensor_val 0011  
                  ___fladd@grs 003C                  ___xxtofl@sign 000E                      _TRISAbits 0F92  
                    _TRISCbits 0F94                    ___fldiv@grs 0087                    ___fldiv@rem 0080  
                  ___flmul@grs 0022                      _Check_ADC 260E                      _TXSTAbits 0FAC  
 __end_of_INTERRUPT_Initialize 28A8               ?_Check_Gyroscope 00F2                 __end_of___flge 243C  
               __end_of_atan2f 0E0A                    _BAUDCONbits 0FB8                 __end_of_atanhi 7D0F  
               __end_of_atanlo 7CFF                 _ADC_Initialize 28A8         ?_OSCILLATOR_Initialize 0001  
          start_initialization 2840                    __end_of_aT0 7D23                    __end_of_aT1 7D1F  
                  __end_of_aT2 7D1B                    __end_of_aT3 7D17                    __end_of_aT4 7D13  
         Calibration@accX_high 00F8           Calibration@accZ_high 00FA                     ?_Check_ADC 000C  
        __end_of___fpclassifyf 253A                    ??_I2C_Start 0006              ??_calculate_angle 0076  
                  ??_I2C_Write 0006                       ??___flge 000E                       ??_atan2f 00C3  
       __end_of_ADC_Initialize 28C2                    _atan2f$1902 00CB                    _atan2f$1903 00CF  
                  _atan2f$1904 00D3                main@blinker_dir 014E                      ___fladd@a 0031  
                    ___fladd@b 002D                      ___fldiv@a 0066                      ___fldiv@b 0062  
                    _accX_high 0079                      _accY_high 00FF                      ___flmul@a 0018  
                    ___flmul@b 0014                      _accZ_high 0077                    __pbssCOMRAM 0076  
                    ___flsub@a 0041                      ___flsub@b 003D                  __pcstackBANK0 0080  
                __pcstackBANK1 014C                       ?_Low_ISR 0001                    I2C_Read@ack 0006  
                __pmediumconst 7CEE                       ?___fladd 002D                       ?___fldiv 0062  
                     ?___flneg 0006                       ?___flmul 0014                       ?___flsub 003D  
              ?_ADC_Initialize 0001       main@prev_bend_sensor_val 014C                    __pintcodelo 0018  
         _calculate_angle$1900 00EA           _calculate_angle$1901 00EE                      fabsf@F465 0114  
                     _I2C_Init 28FC                       _I2C_Read 272A                       _I2C_Stop 28D8  
                     _ADC_Read 280E           _INTERRUPT_Initialize 288C                    _isConnected 0132  
                  ??_Check_ADC 000E                       _LATAbits 0F89                       _LATBbits 0F8A  
                     _IPR1bits 0F9F                       _PIE1bits 0F9D                       i1u350_28 00BE  
                     i1u343_20 0034                       i1u343_21 0030                       i1u344_20 005E  
                     i1u344_21 005A                       i1u345_20 0072                       i1u345_21 006E  
                     i1u346_20 0084                       i1u346_21 007C                       i1u348_20 00AA  
                     i1u347_28 0086                       i1u348_21 00A6                       i1u349_20 00BC  
                     i1u349_21 00B4                       _PIR1bits 0F9E                      atanf@sign 00AD  
                     _RCONbits 0FD0                     _ADCON0bits 0FC2     Check_Gyroscope@blinker_dir 00F2  
                   _ADCON2bits 0FC0                    _needSendMsg 0130          ?_INTERRUPT_Initialize 0001  
            ??_TMR2_Initialize 0006            Calibration@accX_low 00F9            Calibration@accZ_low 00FB  
 __end_of_Gyroscope_Initialize 27A2                       __Hrparam 0000                       __Lrparam 0000  
                I2C_Write@data 0006        ??_OSCILLATOR_Initialize 0006                       _accX_low 0078  
                     _accY_low 00FE                       _accZ_low 0076             ___fpclassifyf@F465 0118  
                     ___xxtofl 1E56                _calculate_angle 21A2                   _pitch_offset 0120  
                     __ptext10 21A2                       __ptext11 16E6                       __ptext20 1AC4  
                     __ptext12 084E                       __ptext21 1E56                       __ptext13 00E4  
                     __ptext22 2338                       __ptext14 27DA                       __ptext23 2868  
                     __ptext15 243C                       __ptext24 28D8                       __ptext16 26A4  
                     __ptext25 28EA                       __ptext17 0E0A                       __ptext26 272A  
                     __ptext18 27A2                       __ptext27 260E                       __ptext19 12C0  
                     __ptext28 280E                       atan2f@ix 00DB                       atan2f@iy 00DF  
                ??_Calibration 00F2                       isa$xinst 0000                       int$flags 007A  
                     _mystring 0138                     _INTCONbits 0FF2         ??_INTERRUPT_Initialize 0006  
                     intlevel1 0000               ??_ADC_Initialize 0006        __end_of_calculate_angle 2338  
          __end_of_Calibration 260E           _Gyroscope_Initialize 2768                    _SSPCON2bits 0FC5  
                ___fladd@signs 0039                   ___fladd@aexp 003A                   ___fladd@bexp 003B  
          calculate_angle@accX 00E4            calculate_angle@accY 00E6            calculate_angle@accZ 00E8  
