

Microchip MPLAB XC8 Assembler V2.50 build 20240725155939 
                                                                                               Tue Jan 14 21:00:05 2025

Microchip MPLAB XC8 C Compiler v2.50 (Free license) build 20240725155939 Og1 
     1                           	processor	18F4520
     2                           	fnconf	rparam,??,?,0
     3                           	pagewidth 120
     4                           	opt	flic
     5                           	psect	mediumconst,global,reloc=2,class=MEDIUMCONST,space=0,delta=1,noexec
     6                           	psect	cinit,global,reloc=2,class=CODE,space=0,delta=1
     7                           	psect	bssCOMRAM,global,class=COMRAM,space=1,delta=1,lowdata,noexec
     8                           	psect	bssBANK0,global,class=BANK0,space=1,delta=1,lowdata,noexec
     9                           	psect	bssBANK1,global,class=BANK1,space=1,delta=1,lowdata,noexec
    10                           	psect	cstackBANK1,global,class=BANK1,space=1,delta=1,lowdata,noexec
    11                           	psect	cstackBANK0,global,class=BANK0,space=1,delta=1,lowdata,noexec
    12                           	psect	cstackCOMRAM,global,class=COMRAM,space=1,delta=1,lowdata,noexec
    13                           	psect	text0,global,reloc=2,class=CODE,space=0,delta=1
    14                           	psect	text1,global,reloc=2,class=CODE,space=0,delta=1
    15                           	psect	text2,global,reloc=2,class=CODE,space=0,delta=1
    16                           	psect	text3,global,reloc=2,class=CODE,space=0,delta=1
    17                           	psect	text4,global,reloc=2,class=CODE,space=0,delta=1
    18                           	psect	text5,global,reloc=2,class=CODE,space=0,delta=1
    19                           	psect	text6,global,reloc=2,class=CODE,space=0,delta=1
    20                           	psect	text7,global,reloc=2,class=CODE,space=0,delta=1
    21                           	psect	text8,global,reloc=2,class=CODE,space=0,delta=1
    22                           	psect	text9,global,reloc=2,class=CODE,space=0,delta=1
    23                           	psect	text10,global,reloc=2,class=CODE,space=0,delta=1
    24                           	psect	text11,global,reloc=2,class=CODE,space=0,delta=1,group=2
    25                           	psect	text12,global,reloc=2,class=CODE,space=0,delta=1,group=2
    26                           	psect	text13,global,reloc=2,class=CODE,space=0,delta=1,group=2
    27                           	psect	text14,global,reloc=2,class=CODE,space=0,delta=1,group=2
    28                           	psect	text15,global,reloc=2,class=CODE,space=0,delta=1,group=2
    29                           	psect	text16,global,reloc=2,class=CODE,space=0,delta=1,group=1
    30                           	psect	text17,global,reloc=2,class=CODE,space=0,delta=1,group=1
    31                           	psect	text18,global,reloc=2,class=CODE,space=0,delta=1,group=1
    32                           	psect	text19,global,reloc=2,class=CODE,space=0,delta=1,group=1
    33                           	psect	text20,global,reloc=2,class=CODE,space=0,delta=1,group=1
    34                           	psect	text21,global,reloc=2,class=CODE,space=0,delta=1,group=1
    35                           	psect	text22,global,reloc=2,class=CODE,space=0,delta=1,group=1
    36                           	psect	text23,global,reloc=2,class=CODE,space=0,delta=1
    37                           	psect	text24,global,reloc=2,class=CODE,space=0,delta=1
    38                           	psect	text25,global,reloc=2,class=CODE,space=0,delta=1
    39                           	psect	text26,global,reloc=2,class=CODE,space=0,delta=1
    40                           	psect	text27,global,reloc=2,class=CODE,space=0,delta=1
    41                           	psect	text28,global,reloc=2,class=CODE,space=0,delta=1
    42                           	psect	intcodelo,global,reloc=2,class=CODE,space=0,delta=1
    43                           	psect	intsave_regs,global,class=BIGRAM,space=1,delta=1,noexec
    44                           	psect	rparam,global,class=COMRAM,space=1,delta=1,noexec
    45                           	psect	temp,global,ovrld,common,class=COMRAM,space=1,delta=1,lowdata
    46                           	psect	idloc,global,abs,ovrld,class=IDLOC,space=5,delta=1,noexec
    47                           	psect	config,global,abs,ovrld,class=CONFIG,space=4,delta=1,noexec
    48   000000                     
    49                           ; Generated 25/07/2024 GMT
    50                           ; 
    51                           ; Copyright © 2024, Microchip Technology Inc. and its subsidiaries ("Microchip")
    52                           ; All rights reserved.
    53                           ; 
    54                           ; This software is developed by Microchip Technology Inc. and its subsidiaries ("Microch
      +                          ip").
    55                           ; 
    56                           ; Redistribution and use in source and binary forms, with or without modification, are
    57                           ; permitted provided that the following conditions are met:
    58                           ; 
    59                           ;     1. Redistributions of source code must retain the above copyright notice, this lis
      +                          t of
    60                           ;        conditions and the following disclaimer.
    61                           ; 
    62                           ;     2. Redistributions in binary form must reproduce the above copyright notice, this 
      +                          list
    63                           ;        of conditions and the following disclaimer in the documentation and/or other
    64                           ;        materials provided with the distribution. Publication is not required when
    65                           ;        this file is used in an embedded application.
    66                           ; 
    67                           ;     3. Microchip's name may not be used to endorse or promote products derived from th
      +                          is
    68                           ;        software without specific prior written permission.
    69                           ; 
    70                           ; THIS SOFTWARE IS PROVIDED BY MICROCHIP "AS IS" AND ANY EXPRESS OR IMPLIED WARRANTIES,
    71                           ; INCLUDING, BUT NOT LIMITED TO, THE IMPLIED WARRANTIES OF MERCHANTABILITY AND FITNESS F
      +                          OR
    72                           ; PURPOSE ARE DISCLAIMED.  IN NO EVENT SHALL MICROCHIP BE LIABLE FOR ANY DIRECT, INDIREC
      +                          T,
    73                           ; INCIDENTAL, SPECIAL, EXEMPLARY, OR CONSEQUENTIAL DAMAGES (INCLUDING BUT NOT LIMITED TO
    74                           ; PROCUREMENT OF SUBSTITUTE GOODS OR SERVICES; LOSS OF USE, DATA OR PROFITS; OR BUSINESS
    75                           ; INTERRUPTION) HOWSOEVER CAUSED AND ON ANY THEORY OF LIABILITY, WHETHER IN CONTRACT, ST
      +                          RICT
    76                           ; LIABILITY, OR TORT (INCLUDING NEGLIGENCE OR OTHERWISE) ARISING IN ANY WAY OUT OF THE U
      +                          SE OF
    77                           ; THIS SOFTWARE, EVEN IF ADVISED OF THE POSSIBILITY OF SUCH DAMAGE.
    78                           ; 
    79                           ; 
    80                           ; Code-generator required, PIC18F4520 Definitions
    81                           ; 
    82                           ; SFR Addresses
    83   000FE0                     bsr             equ	4064
    84   000FE9                     fsr0            equ	4073
    85   000FEA                     fsr0h           equ	4074
    86   000FE9                     fsr0l           equ	4073
    87   000FE1                     fsr1            equ	4065
    88   000FE2                     fsr1h           equ	4066
    89   000FE1                     fsr1l           equ	4065
    90   000FD9                     fsr2            equ	4057
    91   000FDA                     fsr2h           equ	4058
    92   000FD9                     fsr2l           equ	4057
    93   000FEF                     indf0           equ	4079
    94   000FE7                     indf1           equ	4071
    95   000FDF                     indf2           equ	4063
    96   000FF2                     intcon          equ	4082
    97   000000                     nvmcon          equ	0
    98   000FF9                     pcl             equ	4089
    99   000FFA                     pclath          equ	4090
   100   000FFB                     pclatu          equ	4091
   101   000FEB                     plusw0          equ	4075
   102   000FE3                     plusw1          equ	4067
   103   000FDB                     plusw2          equ	4059
   104   000FED                     postdec0        equ	4077
   105   000FE5                     postdec1        equ	4069
   106   000FDD                     postdec2        equ	4061
   107   000FEE                     postinc0        equ	4078
   108   000FE6                     postinc1        equ	4070
   109   000FDE                     postinc2        equ	4062
   110   000FEC                     preinc0         equ	4076
   111   000FE4                     preinc1         equ	4068
   112   000FDC                     preinc2         equ	4060
   113   000FF3                     prod            equ	4083
   114   000FF4                     prodh           equ	4084
   115   000FF3                     prodl           equ	4083
   116   000FD8                     status          equ	4056
   117   000FF5                     tablat          equ	4085
   118   000FF6                     tblptr          equ	4086
   119   000FF7                     tblptrh         equ	4087
   120   000FF6                     tblptrl         equ	4086
   121   000FF8                     tblptru         equ	4088
   122   000FFD                     tosl            equ	4093
   123   000FE8                     wreg            equ	4072
   124   000F80                     PORTA           equ	3968	;# 
   125   000F81                     PORTB           equ	3969	;# 
   126   000F82                     PORTC           equ	3970	;# 
   127   000F83                     PORTD           equ	3971	;# 
   128   000F84                     PORTE           equ	3972	;# 
   129   000F89                     LATA            equ	3977	;# 
   130   000F8A                     LATB            equ	3978	;# 
   131   000F8B                     LATC            equ	3979	;# 
   132   000F8C                     LATD            equ	3980	;# 
   133   000F8D                     LATE            equ	3981	;# 
   134   000F92                     TRISA           equ	3986	;# 
   135   000F92                     DDRA            equ	3986	;# 
   136   000F93                     TRISB           equ	3987	;# 
   137   000F93                     DDRB            equ	3987	;# 
   138   000F94                     TRISC           equ	3988	;# 
   139   000F94                     DDRC            equ	3988	;# 
   140   000F95                     TRISD           equ	3989	;# 
   141   000F95                     DDRD            equ	3989	;# 
   142   000F96                     TRISE           equ	3990	;# 
   143   000F96                     DDRE            equ	3990	;# 
   144   000F9B                     OSCTUNE         equ	3995	;# 
   145   000F9D                     PIE1            equ	3997	;# 
   146   000F9E                     PIR1            equ	3998	;# 
   147   000F9F                     IPR1            equ	3999	;# 
   148   000FA0                     PIE2            equ	4000	;# 
   149   000FA1                     PIR2            equ	4001	;# 
   150   000FA2                     IPR2            equ	4002	;# 
   151   000FA6                     EECON1          equ	4006	;# 
   152   000FA7                     EECON2          equ	4007	;# 
   153   000FA8                     EEDATA          equ	4008	;# 
   154   000FA9                     EEADR           equ	4009	;# 
   155   000FAB                     RCSTA           equ	4011	;# 
   156   000FAB                     RCSTA1          equ	4011	;# 
   157   000FAC                     TXSTA           equ	4012	;# 
   158   000FAC                     TXSTA1          equ	4012	;# 
   159   000FAD                     TXREG           equ	4013	;# 
   160   000FAD                     TXREG1          equ	4013	;# 
   161   000FAE                     RCREG           equ	4014	;# 
   162   000FAE                     RCREG1          equ	4014	;# 
   163   000FAF                     SPBRG           equ	4015	;# 
   164   000FAF                     SPBRG1          equ	4015	;# 
   165   000FB0                     SPBRGH          equ	4016	;# 
   166   000FB1                     T3CON           equ	4017	;# 
   167   000FB2                     TMR3            equ	4018	;# 
   168   000FB2                     TMR3L           equ	4018	;# 
   169   000FB3                     TMR3H           equ	4019	;# 
   170   000FB4                     CMCON           equ	4020	;# 
   171   000FB5                     CVRCON          equ	4021	;# 
   172   000FB6                     ECCP1AS         equ	4022	;# 
   173   000FB6                     ECCPAS          equ	4022	;# 
   174   000FB7                     PWM1CON         equ	4023	;# 
   175   000FB7                     ECCP1DEL        equ	4023	;# 
   176   000FB8                     BAUDCON         equ	4024	;# 
   177   000FB8                     BAUDCTL         equ	4024	;# 
   178   000FBA                     CCP2CON         equ	4026	;# 
   179   000FBB                     CCPR2           equ	4027	;# 
   180   000FBB                     CCPR2L          equ	4027	;# 
   181   000FBC                     CCPR2H          equ	4028	;# 
   182   000FBD                     CCP1CON         equ	4029	;# 
   183   000FBE                     CCPR1           equ	4030	;# 
   184   000FBE                     CCPR1L          equ	4030	;# 
   185   000FBF                     CCPR1H          equ	4031	;# 
   186   000FC0                     ADCON2          equ	4032	;# 
   187   000FC1                     ADCON1          equ	4033	;# 
   188   000FC2                     ADCON0          equ	4034	;# 
   189   000FC3                     ADRES           equ	4035	;# 
   190   000FC3                     ADRESL          equ	4035	;# 
   191   000FC4                     ADRESH          equ	4036	;# 
   192   000FC5                     SSPCON2         equ	4037	;# 
   193   000FC6                     SSPCON1         equ	4038	;# 
   194   000FC7                     SSPSTAT         equ	4039	;# 
   195   000FC8                     SSPADD          equ	4040	;# 
   196   000FC9                     SSPBUF          equ	4041	;# 
   197   000FCA                     T2CON           equ	4042	;# 
   198   000FCB                     PR2             equ	4043	;# 
   199   000FCB                     MEMCON          equ	4043	;# 
   200   000FCC                     TMR2            equ	4044	;# 
   201   000FCD                     T1CON           equ	4045	;# 
   202   000FCE                     TMR1            equ	4046	;# 
   203   000FCE                     TMR1L           equ	4046	;# 
   204   000FCF                     TMR1H           equ	4047	;# 
   205   000FD0                     RCON            equ	4048	;# 
   206   000FD1                     WDTCON          equ	4049	;# 
   207   000FD2                     HLVDCON         equ	4050	;# 
   208   000FD2                     LVDCON          equ	4050	;# 
   209   000FD3                     OSCCON          equ	4051	;# 
   210   000FD5                     T0CON           equ	4053	;# 
   211   000FD6                     TMR0            equ	4054	;# 
   212   000FD6                     TMR0L           equ	4054	;# 
   213   000FD7                     TMR0H           equ	4055	;# 
   214   000FD8                     STATUS          equ	4056	;# 
   215   000FD9                     FSR2            equ	4057	;# 
   216   000FD9                     FSR2L           equ	4057	;# 
   217   000FDA                     FSR2H           equ	4058	;# 
   218   000FDB                     PLUSW2          equ	4059	;# 
   219   000FDC                     PREINC2         equ	4060	;# 
   220   000FDD                     POSTDEC2        equ	4061	;# 
   221   000FDE                     POSTINC2        equ	4062	;# 
   222   000FDF                     INDF2           equ	4063	;# 
   223   000FE0                     BSR             equ	4064	;# 
   224   000FE1                     FSR1            equ	4065	;# 
   225   000FE1                     FSR1L           equ	4065	;# 
   226   000FE2                     FSR1H           equ	4066	;# 
   227   000FE3                     PLUSW1          equ	4067	;# 
   228   000FE4                     PREINC1         equ	4068	;# 
   229   000FE5                     POSTDEC1        equ	4069	;# 
   230   000FE6                     POSTINC1        equ	4070	;# 
   231   000FE7                     INDF1           equ	4071	;# 
   232   000FE8                     WREG            equ	4072	;# 
   233   000FE9                     FSR0            equ	4073	;# 
   234   000FE9                     FSR0L           equ	4073	;# 
   235   000FEA                     FSR0H           equ	4074	;# 
   236   000FEB                     PLUSW0          equ	4075	;# 
   237   000FEC                     PREINC0         equ	4076	;# 
   238   000FED                     POSTDEC0        equ	4077	;# 
   239   000FEE                     POSTINC0        equ	4078	;# 
   240   000FEF                     INDF0           equ	4079	;# 
   241   000FF0                     INTCON3         equ	4080	;# 
   242   000FF1                     INTCON2         equ	4081	;# 
   243   000FF2                     INTCON          equ	4082	;# 
   244   000FF3                     PROD            equ	4083	;# 
   245   000FF3                     PRODL           equ	4083	;# 
   246   000FF4                     PRODH           equ	4084	;# 
   247   000FF5                     TABLAT          equ	4085	;# 
   248   000FF6                     TBLPTR          equ	4086	;# 
   249   000FF6                     TBLPTRL         equ	4086	;# 
   250   000FF7                     TBLPTRH         equ	4087	;# 
   251   000FF8                     TBLPTRU         equ	4088	;# 
   252   000FF9                     PCLAT           equ	4089	;# 
   253   000FF9                     PC              equ	4089	;# 
   254   000FF9                     PCL             equ	4089	;# 
   255   000FFA                     PCLATH          equ	4090	;# 
   256   000FFB                     PCLATU          equ	4091	;# 
   257   000FFC                     STKPTR          equ	4092	;# 
   258   000FFD                     TOS             equ	4093	;# 
   259   000FFD                     TOSL            equ	4093	;# 
   260   000FFE                     TOSH            equ	4094	;# 
   261   000FFF                     TOSU            equ	4095	;# 
   262   000F80                     PORTA           equ	3968	;# 
   263   000F81                     PORTB           equ	3969	;# 
   264   000F82                     PORTC           equ	3970	;# 
   265   000F83                     PORTD           equ	3971	;# 
   266   000F84                     PORTE           equ	3972	;# 
   267   000F89                     LATA            equ	3977	;# 
   268   000F8A                     LATB            equ	3978	;# 
   269   000F8B                     LATC            equ	3979	;# 
   270   000F8C                     LATD            equ	3980	;# 
   271   000F8D                     LATE            equ	3981	;# 
   272   000F92                     TRISA           equ	3986	;# 
   273   000F92                     DDRA            equ	3986	;# 
   274   000F93                     TRISB           equ	3987	;# 
   275   000F93                     DDRB            equ	3987	;# 
   276   000F94                     TRISC           equ	3988	;# 
   277   000F94                     DDRC            equ	3988	;# 
   278   000F95                     TRISD           equ	3989	;# 
   279   000F95                     DDRD            equ	3989	;# 
   280   000F96                     TRISE           equ	3990	;# 
   281   000F96                     DDRE            equ	3990	;# 
   282   000F9B                     OSCTUNE         equ	3995	;# 
   283   000F9D                     PIE1            equ	3997	;# 
   284   000F9E                     PIR1            equ	3998	;# 
   285   000F9F                     IPR1            equ	3999	;# 
   286   000FA0                     PIE2            equ	4000	;# 
   287   000FA1                     PIR2            equ	4001	;# 
   288   000FA2                     IPR2            equ	4002	;# 
   289   000FA6                     EECON1          equ	4006	;# 
   290   000FA7                     EECON2          equ	4007	;# 
   291   000FA8                     EEDATA          equ	4008	;# 
   292   000FA9                     EEADR           equ	4009	;# 
   293   000FAB                     RCSTA           equ	4011	;# 
   294   000FAB                     RCSTA1          equ	4011	;# 
   295   000FAC                     TXSTA           equ	4012	;# 
   296   000FAC                     TXSTA1          equ	4012	;# 
   297   000FAD                     TXREG           equ	4013	;# 
   298   000FAD                     TXREG1          equ	4013	;# 
   299   000FAE                     RCREG           equ	4014	;# 
   300   000FAE                     RCREG1          equ	4014	;# 
   301   000FAF                     SPBRG           equ	4015	;# 
   302   000FAF                     SPBRG1          equ	4015	;# 
   303   000FB0                     SPBRGH          equ	4016	;# 
   304   000FB1                     T3CON           equ	4017	;# 
   305   000FB2                     TMR3            equ	4018	;# 
   306   000FB2                     TMR3L           equ	4018	;# 
   307   000FB3                     TMR3H           equ	4019	;# 
   308   000FB4                     CMCON           equ	4020	;# 
   309   000FB5                     CVRCON          equ	4021	;# 
   310   000FB6                     ECCP1AS         equ	4022	;# 
   311   000FB6                     ECCPAS          equ	4022	;# 
   312   000FB7                     PWM1CON         equ	4023	;# 
   313   000FB7                     ECCP1DEL        equ	4023	;# 
   314   000FB8                     BAUDCON         equ	4024	;# 
   315   000FB8                     BAUDCTL         equ	4024	;# 
   316   000FBA                     CCP2CON         equ	4026	;# 
   317   000FBB                     CCPR2           equ	4027	;# 
   318   000FBB                     CCPR2L          equ	4027	;# 
   319   000FBC                     CCPR2H          equ	4028	;# 
   320   000FBD                     CCP1CON         equ	4029	;# 
   321   000FBE                     CCPR1           equ	4030	;# 
   322   000FBE                     CCPR1L          equ	4030	;# 
   323   000FBF                     CCPR1H          equ	4031	;# 
   324   000FC0                     ADCON2          equ	4032	;# 
   325   000FC1                     ADCON1          equ	4033	;# 
   326   000FC2                     ADCON0          equ	4034	;# 
   327   000FC3                     ADRES           equ	4035	;# 
   328   000FC3                     ADRESL          equ	4035	;# 
   329   000FC4                     ADRESH          equ	4036	;# 
   330   000FC5                     SSPCON2         equ	4037	;# 
   331   000FC6                     SSPCON1         equ	4038	;# 
   332   000FC7                     SSPSTAT         equ	4039	;# 
   333   000FC8                     SSPADD          equ	4040	;# 
   334   000FC9                     SSPBUF          equ	4041	;# 
   335   000FCA                     T2CON           equ	4042	;# 
   336   000FCB                     PR2             equ	4043	;# 
   337   000FCB                     MEMCON          equ	4043	;# 
   338   000FCC                     TMR2            equ	4044	;# 
   339   000FCD                     T1CON           equ	4045	;# 
   340   000FCE                     TMR1            equ	4046	;# 
   341   000FCE                     TMR1L           equ	4046	;# 
   342   000FCF                     TMR1H           equ	4047	;# 
   343   000FD0                     RCON            equ	4048	;# 
   344   000FD1                     WDTCON          equ	4049	;# 
   345   000FD2                     HLVDCON         equ	4050	;# 
   346   000FD2                     LVDCON          equ	4050	;# 
   347   000FD3                     OSCCON          equ	4051	;# 
   348   000FD5                     T0CON           equ	4053	;# 
   349   000FD6                     TMR0            equ	4054	;# 
   350   000FD6                     TMR0L           equ	4054	;# 
   351   000FD7                     TMR0H           equ	4055	;# 
   352   000FD8                     STATUS          equ	4056	;# 
   353   000FD9                     FSR2            equ	4057	;# 
   354   000FD9                     FSR2L           equ	4057	;# 
   355   000FDA                     FSR2H           equ	4058	;# 
   356   000FDB                     PLUSW2          equ	4059	;# 
   357   000FDC                     PREINC2         equ	4060	;# 
   358   000FDD                     POSTDEC2        equ	4061	;# 
   359   000FDE                     POSTINC2        equ	4062	;# 
   360   000FDF                     INDF2           equ	4063	;# 
   361   000FE0                     BSR             equ	4064	;# 
   362   000FE1                     FSR1            equ	4065	;# 
   363   000FE1                     FSR1L           equ	4065	;# 
   364   000FE2                     FSR1H           equ	4066	;# 
   365   000FE3                     PLUSW1          equ	4067	;# 
   366   000FE4                     PREINC1         equ	4068	;# 
   367   000FE5                     POSTDEC1        equ	4069	;# 
   368   000FE6                     POSTINC1        equ	4070	;# 
   369   000FE7                     INDF1           equ	4071	;# 
   370   000FE8                     WREG            equ	4072	;# 
   371   000FE9                     FSR0            equ	4073	;# 
   372   000FE9                     FSR0L           equ	4073	;# 
   373   000FEA                     FSR0H           equ	4074	;# 
   374   000FEB                     PLUSW0          equ	4075	;# 
   375   000FEC                     PREINC0         equ	4076	;# 
   376   000FED                     POSTDEC0        equ	4077	;# 
   377   000FEE                     POSTINC0        equ	4078	;# 
   378   000FEF                     INDF0           equ	4079	;# 
   379   000FF0                     INTCON3         equ	4080	;# 
   380   000FF1                     INTCON2         equ	4081	;# 
   381   000FF2                     INTCON          equ	4082	;# 
   382   000FF3                     PROD            equ	4083	;# 
   383   000FF3                     PRODL           equ	4083	;# 
   384   000FF4                     PRODH           equ	4084	;# 
   385   000FF5                     TABLAT          equ	4085	;# 
   386   000FF6                     TBLPTR          equ	4086	;# 
   387   000FF6                     TBLPTRL         equ	4086	;# 
   388   000FF7                     TBLPTRH         equ	4087	;# 
   389   000FF8                     TBLPTRU         equ	4088	;# 
   390   000FF9                     PCLAT           equ	4089	;# 
   391   000FF9                     PC              equ	4089	;# 
   392   000FF9                     PCL             equ	4089	;# 
   393   000FFA                     PCLATH          equ	4090	;# 
   394   000FFB                     PCLATU          equ	4091	;# 
   395   000FFC                     STKPTR          equ	4092	;# 
   396   000FFD                     TOS             equ	4093	;# 
   397   000FFD                     TOSL            equ	4093	;# 
   398   000FFE                     TOSH            equ	4094	;# 
   399   000FFF                     TOSU            equ	4095	;# 
   400   000F80                     PORTA           equ	3968	;# 
   401   000F81                     PORTB           equ	3969	;# 
   402   000F82                     PORTC           equ	3970	;# 
   403   000F83                     PORTD           equ	3971	;# 
   404   000F84                     PORTE           equ	3972	;# 
   405   000F89                     LATA            equ	3977	;# 
   406   000F8A                     LATB            equ	3978	;# 
   407   000F8B                     LATC            equ	3979	;# 
   408   000F8C                     LATD            equ	3980	;# 
   409   000F8D                     LATE            equ	3981	;# 
   410   000F92                     TRISA           equ	3986	;# 
   411   000F92                     DDRA            equ	3986	;# 
   412   000F93                     TRISB           equ	3987	;# 
   413   000F93                     DDRB            equ	3987	;# 
   414   000F94                     TRISC           equ	3988	;# 
   415   000F94                     DDRC            equ	3988	;# 
   416   000F95                     TRISD           equ	3989	;# 
   417   000F95                     DDRD            equ	3989	;# 
   418   000F96                     TRISE           equ	3990	;# 
   419   000F96                     DDRE            equ	3990	;# 
   420   000F9B                     OSCTUNE         equ	3995	;# 
   421   000F9D                     PIE1            equ	3997	;# 
   422   000F9E                     PIR1            equ	3998	;# 
   423   000F9F                     IPR1            equ	3999	;# 
   424   000FA0                     PIE2            equ	4000	;# 
   425   000FA1                     PIR2            equ	4001	;# 
   426   000FA2                     IPR2            equ	4002	;# 
   427   000FA6                     EECON1          equ	4006	;# 
   428   000FA7                     EECON2          equ	4007	;# 
   429   000FA8                     EEDATA          equ	4008	;# 
   430   000FA9                     EEADR           equ	4009	;# 
   431   000FAB                     RCSTA           equ	4011	;# 
   432   000FAB                     RCSTA1          equ	4011	;# 
   433   000FAC                     TXSTA           equ	4012	;# 
   434   000FAC                     TXSTA1          equ	4012	;# 
   435   000FAD                     TXREG           equ	4013	;# 
   436   000FAD                     TXREG1          equ	4013	;# 
   437   000FAE                     RCREG           equ	4014	;# 
   438   000FAE                     RCREG1          equ	4014	;# 
   439   000FAF                     SPBRG           equ	4015	;# 
   440   000FAF                     SPBRG1          equ	4015	;# 
   441   000FB0                     SPBRGH          equ	4016	;# 
   442   000FB1                     T3CON           equ	4017	;# 
   443   000FB2                     TMR3            equ	4018	;# 
   444   000FB2                     TMR3L           equ	4018	;# 
   445   000FB3                     TMR3H           equ	4019	;# 
   446   000FB4                     CMCON           equ	4020	;# 
   447   000FB5                     CVRCON          equ	4021	;# 
   448   000FB6                     ECCP1AS         equ	4022	;# 
   449   000FB6                     ECCPAS          equ	4022	;# 
   450   000FB7                     PWM1CON         equ	4023	;# 
   451   000FB7                     ECCP1DEL        equ	4023	;# 
   452   000FB8                     BAUDCON         equ	4024	;# 
   453   000FB8                     BAUDCTL         equ	4024	;# 
   454   000FBA                     CCP2CON         equ	4026	;# 
   455   000FBB                     CCPR2           equ	4027	;# 
   456   000FBB                     CCPR2L          equ	4027	;# 
   457   000FBC                     CCPR2H          equ	4028	;# 
   458   000FBD                     CCP1CON         equ	4029	;# 
   459   000FBE                     CCPR1           equ	4030	;# 
   460   000FBE                     CCPR1L          equ	4030	;# 
   461   000FBF                     CCPR1H          equ	4031	;# 
   462   000FC0                     ADCON2          equ	4032	;# 
   463   000FC1                     ADCON1          equ	4033	;# 
   464   000FC2                     ADCON0          equ	4034	;# 
   465   000FC3                     ADRES           equ	4035	;# 
   466   000FC3                     ADRESL          equ	4035	;# 
   467   000FC4                     ADRESH          equ	4036	;# 
   468   000FC5                     SSPCON2         equ	4037	;# 
   469   000FC6                     SSPCON1         equ	4038	;# 
   470   000FC7                     SSPSTAT         equ	4039	;# 
   471   000FC8                     SSPADD          equ	4040	;# 
   472   000FC9                     SSPBUF          equ	4041	;# 
   473   000FCA                     T2CON           equ	4042	;# 
   474   000FCB                     PR2             equ	4043	;# 
   475   000FCB                     MEMCON          equ	4043	;# 
   476   000FCC                     TMR2            equ	4044	;# 
   477   000FCD                     T1CON           equ	4045	;# 
   478   000FCE                     TMR1            equ	4046	;# 
   479   000FCE                     TMR1L           equ	4046	;# 
   480   000FCF                     TMR1H           equ	4047	;# 
   481   000FD0                     RCON            equ	4048	;# 
   482   000FD1                     WDTCON          equ	4049	;# 
   483   000FD2                     HLVDCON         equ	4050	;# 
   484   000FD2                     LVDCON          equ	4050	;# 
   485   000FD3                     OSCCON          equ	4051	;# 
   486   000FD5                     T0CON           equ	4053	;# 
   487   000FD6                     TMR0            equ	4054	;# 
   488   000FD6                     TMR0L           equ	4054	;# 
   489   000FD7                     TMR0H           equ	4055	;# 
   490   000FD8                     STATUS          equ	4056	;# 
   491   000FD9                     FSR2            equ	4057	;# 
   492   000FD9                     FSR2L           equ	4057	;# 
   493   000FDA                     FSR2H           equ	4058	;# 
   494   000FDB                     PLUSW2          equ	4059	;# 
   495   000FDC                     PREINC2         equ	4060	;# 
   496   000FDD                     POSTDEC2        equ	4061	;# 
   497   000FDE                     POSTINC2        equ	4062	;# 
   498   000FDF                     INDF2           equ	4063	;# 
   499   000FE0                     BSR             equ	4064	;# 
   500   000FE1                     FSR1            equ	4065	;# 
   501   000FE1                     FSR1L           equ	4065	;# 
   502   000FE2                     FSR1H           equ	4066	;# 
   503   000FE3                     PLUSW1          equ	4067	;# 
   504   000FE4                     PREINC1         equ	4068	;# 
   505   000FE5                     POSTDEC1        equ	4069	;# 
   506   000FE6                     POSTINC1        equ	4070	;# 
   507   000FE7                     INDF1           equ	4071	;# 
   508   000FE8                     WREG            equ	4072	;# 
   509   000FE9                     FSR0            equ	4073	;# 
   510   000FE9                     FSR0L           equ	4073	;# 
   511   000FEA                     FSR0H           equ	4074	;# 
   512   000FEB                     PLUSW0          equ	4075	;# 
   513   000FEC                     PREINC0         equ	4076	;# 
   514   000FED                     POSTDEC0        equ	4077	;# 
   515   000FEE                     POSTINC0        equ	4078	;# 
   516   000FEF                     INDF0           equ	4079	;# 
   517   000FF0                     INTCON3         equ	4080	;# 
   518   000FF1                     INTCON2         equ	4081	;# 
   519   000FF2                     INTCON          equ	4082	;# 
   520   000FF3                     PROD            equ	4083	;# 
   521   000FF3                     PRODL           equ	4083	;# 
   522   000FF4                     PRODH           equ	4084	;# 
   523   000FF5                     TABLAT          equ	4085	;# 
   524   000FF6                     TBLPTR          equ	4086	;# 
   525   000FF6                     TBLPTRL         equ	4086	;# 
   526   000FF7                     TBLPTRH         equ	4087	;# 
   527   000FF8                     TBLPTRU         equ	4088	;# 
   528   000FF9                     PCLAT           equ	4089	;# 
   529   000FF9                     PC              equ	4089	;# 
   530   000FF9                     PCL             equ	4089	;# 
   531   000FFA                     PCLATH          equ	4090	;# 
   532   000FFB                     PCLATU          equ	4091	;# 
   533   000FFC                     STKPTR          equ	4092	;# 
   534   000FFD                     TOS             equ	4093	;# 
   535   000FFD                     TOSL            equ	4093	;# 
   536   000FFE                     TOSH            equ	4094	;# 
   537   000FFF                     TOSU            equ	4095	;# 
   538   000F80                     PORTA           equ	3968	;# 
   539   000F81                     PORTB           equ	3969	;# 
   540   000F82                     PORTC           equ	3970	;# 
   541   000F83                     PORTD           equ	3971	;# 
   542   000F84                     PORTE           equ	3972	;# 
   543   000F89                     LATA            equ	3977	;# 
   544   000F8A                     LATB            equ	3978	;# 
   545   000F8B                     LATC            equ	3979	;# 
   546   000F8C                     LATD            equ	3980	;# 
   547   000F8D                     LATE            equ	3981	;# 
   548   000F92                     TRISA           equ	3986	;# 
   549   000F92                     DDRA            equ	3986	;# 
   550   000F93                     TRISB           equ	3987	;# 
   551   000F93                     DDRB            equ	3987	;# 
   552   000F94                     TRISC           equ	3988	;# 
   553   000F94                     DDRC            equ	3988	;# 
   554   000F95                     TRISD           equ	3989	;# 
   555   000F95                     DDRD            equ	3989	;# 
   556   000F96                     TRISE           equ	3990	;# 
   557   000F96                     DDRE            equ	3990	;# 
   558   000F9B                     OSCTUNE         equ	3995	;# 
   559   000F9D                     PIE1            equ	3997	;# 
   560   000F9E                     PIR1            equ	3998	;# 
   561   000F9F                     IPR1            equ	3999	;# 
   562   000FA0                     PIE2            equ	4000	;# 
   563   000FA1                     PIR2            equ	4001	;# 
   564   000FA2                     IPR2            equ	4002	;# 
   565   000FA6                     EECON1          equ	4006	;# 
   566   000FA7                     EECON2          equ	4007	;# 
   567   000FA8                     EEDATA          equ	4008	;# 
   568   000FA9                     EEADR           equ	4009	;# 
   569   000FAB                     RCSTA           equ	4011	;# 
   570   000FAB                     RCSTA1          equ	4011	;# 
   571   000FAC                     TXSTA           equ	4012	;# 
   572   000FAC                     TXSTA1          equ	4012	;# 
   573   000FAD                     TXREG           equ	4013	;# 
   574   000FAD                     TXREG1          equ	4013	;# 
   575   000FAE                     RCREG           equ	4014	;# 
   576   000FAE                     RCREG1          equ	4014	;# 
   577   000FAF                     SPBRG           equ	4015	;# 
   578   000FAF                     SPBRG1          equ	4015	;# 
   579   000FB0                     SPBRGH          equ	4016	;# 
   580   000FB1                     T3CON           equ	4017	;# 
   581   000FB2                     TMR3            equ	4018	;# 
   582   000FB2                     TMR3L           equ	4018	;# 
   583   000FB3                     TMR3H           equ	4019	;# 
   584   000FB4                     CMCON           equ	4020	;# 
   585   000FB5                     CVRCON          equ	4021	;# 
   586   000FB6                     ECCP1AS         equ	4022	;# 
   587   000FB6                     ECCPAS          equ	4022	;# 
   588   000FB7                     PWM1CON         equ	4023	;# 
   589   000FB7                     ECCP1DEL        equ	4023	;# 
   590   000FB8                     BAUDCON         equ	4024	;# 
   591   000FB8                     BAUDCTL         equ	4024	;# 
   592   000FBA                     CCP2CON         equ	4026	;# 
   593   000FBB                     CCPR2           equ	4027	;# 
   594   000FBB                     CCPR2L          equ	4027	;# 
   595   000FBC                     CCPR2H          equ	4028	;# 
   596   000FBD                     CCP1CON         equ	4029	;# 
   597   000FBE                     CCPR1           equ	4030	;# 
   598   000FBE                     CCPR1L          equ	4030	;# 
   599   000FBF                     CCPR1H          equ	4031	;# 
   600   000FC0                     ADCON2          equ	4032	;# 
   601   000FC1                     ADCON1          equ	4033	;# 
   602   000FC2                     ADCON0          equ	4034	;# 
   603   000FC3                     ADRES           equ	4035	;# 
   604   000FC3                     ADRESL          equ	4035	;# 
   605   000FC4                     ADRESH          equ	4036	;# 
   606   000FC5                     SSPCON2         equ	4037	;# 
   607   000FC6                     SSPCON1         equ	4038	;# 
   608   000FC7                     SSPSTAT         equ	4039	;# 
   609   000FC8                     SSPADD          equ	4040	;# 
   610   000FC9                     SSPBUF          equ	4041	;# 
   611   000FCA                     T2CON           equ	4042	;# 
   612   000FCB                     PR2             equ	4043	;# 
   613   000FCB                     MEMCON          equ	4043	;# 
   614   000FCC                     TMR2            equ	4044	;# 
   615   000FCD                     T1CON           equ	4045	;# 
   616   000FCE                     TMR1            equ	4046	;# 
   617   000FCE                     TMR1L           equ	4046	;# 
   618   000FCF                     TMR1H           equ	4047	;# 
   619   000FD0                     RCON            equ	4048	;# 
   620   000FD1                     WDTCON          equ	4049	;# 
   621   000FD2                     HLVDCON         equ	4050	;# 
   622   000FD2                     LVDCON          equ	4050	;# 
   623   000FD3                     OSCCON          equ	4051	;# 
   624   000FD5                     T0CON           equ	4053	;# 
   625   000FD6                     TMR0            equ	4054	;# 
   626   000FD6                     TMR0L           equ	4054	;# 
   627   000FD7                     TMR0H           equ	4055	;# 
   628   000FD8                     STATUS          equ	4056	;# 
   629   000FD9                     FSR2            equ	4057	;# 
   630   000FD9                     FSR2L           equ	4057	;# 
   631   000FDA                     FSR2H           equ	4058	;# 
   632   000FDB                     PLUSW2          equ	4059	;# 
   633   000FDC                     PREINC2         equ	4060	;# 
   634   000FDD                     POSTDEC2        equ	4061	;# 
   635   000FDE                     POSTINC2        equ	4062	;# 
   636   000FDF                     INDF2           equ	4063	;# 
   637   000FE0                     BSR             equ	4064	;# 
   638   000FE1                     FSR1            equ	4065	;# 
   639   000FE1                     FSR1L           equ	4065	;# 
   640   000FE2                     FSR1H           equ	4066	;# 
   641   000FE3                     PLUSW1          equ	4067	;# 
   642   000FE4                     PREINC1         equ	4068	;# 
   643   000FE5                     POSTDEC1        equ	4069	;# 
   644   000FE6                     POSTINC1        equ	4070	;# 
   645   000FE7                     INDF1           equ	4071	;# 
   646   000FE8                     WREG            equ	4072	;# 
   647   000FE9                     FSR0            equ	4073	;# 
   648   000FE9                     FSR0L           equ	4073	;# 
   649   000FEA                     FSR0H           equ	4074	;# 
   650   000FEB                     PLUSW0          equ	4075	;# 
   651   000FEC                     PREINC0         equ	4076	;# 
   652   000FED                     POSTDEC0        equ	4077	;# 
   653   000FEE                     POSTINC0        equ	4078	;# 
   654   000FEF                     INDF0           equ	4079	;# 
   655   000FF0                     INTCON3         equ	4080	;# 
   656   000FF1                     INTCON2         equ	4081	;# 
   657   000FF2                     INTCON          equ	4082	;# 
   658   000FF3                     PROD            equ	4083	;# 
   659   000FF3                     PRODL           equ	4083	;# 
   660   000FF4                     PRODH           equ	4084	;# 
   661   000FF5                     TABLAT          equ	4085	;# 
   662   000FF6                     TBLPTR          equ	4086	;# 
   663   000FF6                     TBLPTRL         equ	4086	;# 
   664   000FF7                     TBLPTRH         equ	4087	;# 
   665   000FF8                     TBLPTRU         equ	4088	;# 
   666   000FF9                     PCLAT           equ	4089	;# 
   667   000FF9                     PC              equ	4089	;# 
   668   000FF9                     PCL             equ	4089	;# 
   669   000FFA                     PCLATH          equ	4090	;# 
   670   000FFB                     PCLATU          equ	4091	;# 
   671   000FFC                     STKPTR          equ	4092	;# 
   672   000FFD                     TOS             equ	4093	;# 
   673   000FFD                     TOSL            equ	4093	;# 
   674   000FFE                     TOSH            equ	4094	;# 
   675   000FFF                     TOSU            equ	4095	;# 
   676   000F80                     PORTA           equ	3968	;# 
   677   000F81                     PORTB           equ	3969	;# 
   678   000F82                     PORTC           equ	3970	;# 
   679   000F83                     PORTD           equ	3971	;# 
   680   000F84                     PORTE           equ	3972	;# 
   681   000F89                     LATA            equ	3977	;# 
   682   000F8A                     LATB            equ	3978	;# 
   683   000F8B                     LATC            equ	3979	;# 
   684   000F8C                     LATD            equ	3980	;# 
   685   000F8D                     LATE            equ	3981	;# 
   686   000F92                     TRISA           equ	3986	;# 
   687   000F92                     DDRA            equ	3986	;# 
   688   000F93                     TRISB           equ	3987	;# 
   689   000F93                     DDRB            equ	3987	;# 
   690   000F94                     TRISC           equ	3988	;# 
   691   000F94                     DDRC            equ	3988	;# 
   692   000F95                     TRISD           equ	3989	;# 
   693   000F95                     DDRD            equ	3989	;# 
   694   000F96                     TRISE           equ	3990	;# 
   695   000F96                     DDRE            equ	3990	;# 
   696   000F9B                     OSCTUNE         equ	3995	;# 
   697   000F9D                     PIE1            equ	3997	;# 
   698   000F9E                     PIR1            equ	3998	;# 
   699   000F9F                     IPR1            equ	3999	;# 
   700   000FA0                     PIE2            equ	4000	;# 
   701   000FA1                     PIR2            equ	4001	;# 
   702   000FA2                     IPR2            equ	4002	;# 
   703   000FA6                     EECON1          equ	4006	;# 
   704   000FA7                     EECON2          equ	4007	;# 
   705   000FA8                     EEDATA          equ	4008	;# 
   706   000FA9                     EEADR           equ	4009	;# 
   707   000FAB                     RCSTA           equ	4011	;# 
   708   000FAB                     RCSTA1          equ	4011	;# 
   709   000FAC                     TXSTA           equ	4012	;# 
   710   000FAC                     TXSTA1          equ	4012	;# 
   711   000FAD                     TXREG           equ	4013	;# 
   712   000FAD                     TXREG1          equ	4013	;# 
   713   000FAE                     RCREG           equ	4014	;# 
   714   000FAE                     RCREG1          equ	4014	;# 
   715   000FAF                     SPBRG           equ	4015	;# 
   716   000FAF                     SPBRG1          equ	4015	;# 
   717   000FB0                     SPBRGH          equ	4016	;# 
   718   000FB1                     T3CON           equ	4017	;# 
   719   000FB2                     TMR3            equ	4018	;# 
   720   000FB2                     TMR3L           equ	4018	;# 
   721   000FB3                     TMR3H           equ	4019	;# 
   722   000FB4                     CMCON           equ	4020	;# 
   723   000FB5                     CVRCON          equ	4021	;# 
   724   000FB6                     ECCP1AS         equ	4022	;# 
   725   000FB6                     ECCPAS          equ	4022	;# 
   726   000FB7                     PWM1CON         equ	4023	;# 
   727   000FB7                     ECCP1DEL        equ	4023	;# 
   728   000FB8                     BAUDCON         equ	4024	;# 
   729   000FB8                     BAUDCTL         equ	4024	;# 
   730   000FBA                     CCP2CON         equ	4026	;# 
   731   000FBB                     CCPR2           equ	4027	;# 
   732   000FBB                     CCPR2L          equ	4027	;# 
   733   000FBC                     CCPR2H          equ	4028	;# 
   734   000FBD                     CCP1CON         equ	4029	;# 
   735   000FBE                     CCPR1           equ	4030	;# 
   736   000FBE                     CCPR1L          equ	4030	;# 
   737   000FBF                     CCPR1H          equ	4031	;# 
   738   000FC0                     ADCON2          equ	4032	;# 
   739   000FC1                     ADCON1          equ	4033	;# 
   740   000FC2                     ADCON0          equ	4034	;# 
   741   000FC3                     ADRES           equ	4035	;# 
   742   000FC3                     ADRESL          equ	4035	;# 
   743   000FC4                     ADRESH          equ	4036	;# 
   744   000FC5                     SSPCON2         equ	4037	;# 
   745   000FC6                     SSPCON1         equ	4038	;# 
   746   000FC7                     SSPSTAT         equ	4039	;# 
   747   000FC8                     SSPADD          equ	4040	;# 
   748   000FC9                     SSPBUF          equ	4041	;# 
   749   000FCA                     T2CON           equ	4042	;# 
   750   000FCB                     PR2             equ	4043	;# 
   751   000FCB                     MEMCON          equ	4043	;# 
   752   000FCC                     TMR2            equ	4044	;# 
   753   000FCD                     T1CON           equ	4045	;# 
   754   000FCE                     TMR1            equ	4046	;# 
   755   000FCE                     TMR1L           equ	4046	;# 
   756   000FCF                     TMR1H           equ	4047	;# 
   757   000FD0                     RCON            equ	4048	;# 
   758   000FD1                     WDTCON          equ	4049	;# 
   759   000FD2                     HLVDCON         equ	4050	;# 
   760   000FD2                     LVDCON          equ	4050	;# 
   761   000FD3                     OSCCON          equ	4051	;# 
   762   000FD5                     T0CON           equ	4053	;# 
   763   000FD6                     TMR0            equ	4054	;# 
   764   000FD6                     TMR0L           equ	4054	;# 
   765   000FD7                     TMR0H           equ	4055	;# 
   766   000FD8                     STATUS          equ	4056	;# 
   767   000FD9                     FSR2            equ	4057	;# 
   768   000FD9                     FSR2L           equ	4057	;# 
   769   000FDA                     FSR2H           equ	4058	;# 
   770   000FDB                     PLUSW2          equ	4059	;# 
   771   000FDC                     PREINC2         equ	4060	;# 
   772   000FDD                     POSTDEC2        equ	4061	;# 
   773   000FDE                     POSTINC2        equ	4062	;# 
   774   000FDF                     INDF2           equ	4063	;# 
   775   000FE0                     BSR             equ	4064	;# 
   776   000FE1                     FSR1            equ	4065	;# 
   777   000FE1                     FSR1L           equ	4065	;# 
   778   000FE2                     FSR1H           equ	4066	;# 
   779   000FE3                     PLUSW1          equ	4067	;# 
   780   000FE4                     PREINC1         equ	4068	;# 
   781   000FE5                     POSTDEC1        equ	4069	;# 
   782   000FE6                     POSTINC1        equ	4070	;# 
   783   000FE7                     INDF1           equ	4071	;# 
   784   000FE8                     WREG            equ	4072	;# 
   785   000FE9                     FSR0            equ	4073	;# 
   786   000FE9                     FSR0L           equ	4073	;# 
   787   000FEA                     FSR0H           equ	4074	;# 
   788   000FEB                     PLUSW0          equ	4075	;# 
   789   000FEC                     PREINC0         equ	4076	;# 
   790   000FED                     POSTDEC0        equ	4077	;# 
   791   000FEE                     POSTINC0        equ	4078	;# 
   792   000FEF                     INDF0           equ	4079	;# 
   793   000FF0                     INTCON3         equ	4080	;# 
   794   000FF1                     INTCON2         equ	4081	;# 
   795   000FF2                     INTCON          equ	4082	;# 
   796   000FF3                     PROD            equ	4083	;# 
   797   000FF3                     PRODL           equ	4083	;# 
   798   000FF4                     PRODH           equ	4084	;# 
   799   000FF5                     TABLAT          equ	4085	;# 
   800   000FF6                     TBLPTR          equ	4086	;# 
   801   000FF6                     TBLPTRL         equ	4086	;# 
   802   000FF7                     TBLPTRH         equ	4087	;# 
   803   000FF8                     TBLPTRU         equ	4088	;# 
   804   000FF9                     PCLAT           equ	4089	;# 
   805   000FF9                     PC              equ	4089	;# 
   806   000FF9                     PCL             equ	4089	;# 
   807   000FFA                     PCLATH          equ	4090	;# 
   808   000FFB                     PCLATU          equ	4091	;# 
   809   000FFC                     STKPTR          equ	4092	;# 
   810   000FFD                     TOS             equ	4093	;# 
   811   000FFD                     TOSL            equ	4093	;# 
   812   000FFE                     TOSH            equ	4094	;# 
   813   000FFF                     TOSU            equ	4095	;# 
   814   000F80                     PORTA           equ	3968	;# 
   815   000F81                     PORTB           equ	3969	;# 
   816   000F82                     PORTC           equ	3970	;# 
   817   000F83                     PORTD           equ	3971	;# 
   818   000F84                     PORTE           equ	3972	;# 
   819   000F89                     LATA            equ	3977	;# 
   820   000F8A                     LATB            equ	3978	;# 
   821   000F8B                     LATC            equ	3979	;# 
   822   000F8C                     LATD            equ	3980	;# 
   823   000F8D                     LATE            equ	3981	;# 
   824   000F92                     TRISA           equ	3986	;# 
   825   000F92                     DDRA            equ	3986	;# 
   826   000F93                     TRISB           equ	3987	;# 
   827   000F93                     DDRB            equ	3987	;# 
   828   000F94                     TRISC           equ	3988	;# 
   829   000F94                     DDRC            equ	3988	;# 
   830   000F95                     TRISD           equ	3989	;# 
   831   000F95                     DDRD            equ	3989	;# 
   832   000F96                     TRISE           equ	3990	;# 
   833   000F96                     DDRE            equ	3990	;# 
   834   000F9B                     OSCTUNE         equ	3995	;# 
   835   000F9D                     PIE1            equ	3997	;# 
   836   000F9E                     PIR1            equ	3998	;# 
   837   000F9F                     IPR1            equ	3999	;# 
   838   000FA0                     PIE2            equ	4000	;# 
   839   000FA1                     PIR2            equ	4001	;# 
   840   000FA2                     IPR2            equ	4002	;# 
   841   000FA6                     EECON1          equ	4006	;# 
   842   000FA7                     EECON2          equ	4007	;# 
   843   000FA8                     EEDATA          equ	4008	;# 
   844   000FA9                     EEADR           equ	4009	;# 
   845   000FAB                     RCSTA           equ	4011	;# 
   846   000FAB                     RCSTA1          equ	4011	;# 
   847   000FAC                     TXSTA           equ	4012	;# 
   848   000FAC                     TXSTA1          equ	4012	;# 
   849   000FAD                     TXREG           equ	4013	;# 
   850   000FAD                     TXREG1          equ	4013	;# 
   851   000FAE                     RCREG           equ	4014	;# 
   852   000FAE                     RCREG1          equ	4014	;# 
   853   000FAF                     SPBRG           equ	4015	;# 
   854   000FAF                     SPBRG1          equ	4015	;# 
   855   000FB0                     SPBRGH          equ	4016	;# 
   856   000FB1                     T3CON           equ	4017	;# 
   857   000FB2                     TMR3            equ	4018	;# 
   858   000FB2                     TMR3L           equ	4018	;# 
   859   000FB3                     TMR3H           equ	4019	;# 
   860   000FB4                     CMCON           equ	4020	;# 
   861   000FB5                     CVRCON          equ	4021	;# 
   862   000FB6                     ECCP1AS         equ	4022	;# 
   863   000FB6                     ECCPAS          equ	4022	;# 
   864   000FB7                     PWM1CON         equ	4023	;# 
   865   000FB7                     ECCP1DEL        equ	4023	;# 
   866   000FB8                     BAUDCON         equ	4024	;# 
   867   000FB8                     BAUDCTL         equ	4024	;# 
   868   000FBA                     CCP2CON         equ	4026	;# 
   869   000FBB                     CCPR2           equ	4027	;# 
   870   000FBB                     CCPR2L          equ	4027	;# 
   871   000FBC                     CCPR2H          equ	4028	;# 
   872   000FBD                     CCP1CON         equ	4029	;# 
   873   000FBE                     CCPR1           equ	4030	;# 
   874   000FBE                     CCPR1L          equ	4030	;# 
   875   000FBF                     CCPR1H          equ	4031	;# 
   876   000FC0                     ADCON2          equ	4032	;# 
   877   000FC1                     ADCON1          equ	4033	;# 
   878   000FC2                     ADCON0          equ	4034	;# 
   879   000FC3                     ADRES           equ	4035	;# 
   880   000FC3                     ADRESL          equ	4035	;# 
   881   000FC4                     ADRESH          equ	4036	;# 
   882   000FC5                     SSPCON2         equ	4037	;# 
   883   000FC6                     SSPCON1         equ	4038	;# 
   884   000FC7                     SSPSTAT         equ	4039	;# 
   885   000FC8                     SSPADD          equ	4040	;# 
   886   000FC9                     SSPBUF          equ	4041	;# 
   887   000FCA                     T2CON           equ	4042	;# 
   888   000FCB                     PR2             equ	4043	;# 
   889   000FCB                     MEMCON          equ	4043	;# 
   890   000FCC                     TMR2            equ	4044	;# 
   891   000FCD                     T1CON           equ	4045	;# 
   892   000FCE                     TMR1            equ	4046	;# 
   893   000FCE                     TMR1L           equ	4046	;# 
   894   000FCF                     TMR1H           equ	4047	;# 
   895   000FD0                     RCON            equ	4048	;# 
   896   000FD1                     WDTCON          equ	4049	;# 
   897   000FD2                     HLVDCON         equ	4050	;# 
   898   000FD2                     LVDCON          equ	4050	;# 
   899   000FD3                     OSCCON          equ	4051	;# 
   900   000FD5                     T0CON           equ	4053	;# 
   901   000FD6                     TMR0            equ	4054	;# 
   902   000FD6                     TMR0L           equ	4054	;# 
   903   000FD7                     TMR0H           equ	4055	;# 
   904   000FD8                     STATUS          equ	4056	;# 
   905   000FD9                     FSR2            equ	4057	;# 
   906   000FD9                     FSR2L           equ	4057	;# 
   907   000FDA                     FSR2H           equ	4058	;# 
   908   000FDB                     PLUSW2          equ	4059	;# 
   909   000FDC                     PREINC2         equ	4060	;# 
   910   000FDD                     POSTDEC2        equ	4061	;# 
   911   000FDE                     POSTINC2        equ	4062	;# 
   912   000FDF                     INDF2           equ	4063	;# 
   913   000FE0                     BSR             equ	4064	;# 
   914   000FE1                     FSR1            equ	4065	;# 
   915   000FE1                     FSR1L           equ	4065	;# 
   916   000FE2                     FSR1H           equ	4066	;# 
   917   000FE3                     PLUSW1          equ	4067	;# 
   918   000FE4                     PREINC1         equ	4068	;# 
   919   000FE5                     POSTDEC1        equ	4069	;# 
   920   000FE6                     POSTINC1        equ	4070	;# 
   921   000FE7                     INDF1           equ	4071	;# 
   922   000FE8                     WREG            equ	4072	;# 
   923   000FE9                     FSR0            equ	4073	;# 
   924   000FE9                     FSR0L           equ	4073	;# 
   925   000FEA                     FSR0H           equ	4074	;# 
   926   000FEB                     PLUSW0          equ	4075	;# 
   927   000FEC                     PREINC0         equ	4076	;# 
   928   000FED                     POSTDEC0        equ	4077	;# 
   929   000FEE                     POSTINC0        equ	4078	;# 
   930   000FEF                     INDF0           equ	4079	;# 
   931   000FF0                     INTCON3         equ	4080	;# 
   932   000FF1                     INTCON2         equ	4081	;# 
   933   000FF2                     INTCON          equ	4082	;# 
   934   000FF3                     PROD            equ	4083	;# 
   935   000FF3                     PRODL           equ	4083	;# 
   936   000FF4                     PRODH           equ	4084	;# 
   937   000FF5                     TABLAT          equ	4085	;# 
   938   000FF6                     TBLPTR          equ	4086	;# 
   939   000FF6                     TBLPTRL         equ	4086	;# 
   940   000FF7                     TBLPTRH         equ	4087	;# 
   941   000FF8                     TBLPTRU         equ	4088	;# 
   942   000FF9                     PCLAT           equ	4089	;# 
   943   000FF9                     PC              equ	4089	;# 
   944   000FF9                     PCL             equ	4089	;# 
   945   000FFA                     PCLATH          equ	4090	;# 
   946   000FFB                     PCLATU          equ	4091	;# 
   947   000FFC                     STKPTR          equ	4092	;# 
   948   000FFD                     TOS             equ	4093	;# 
   949   000FFD                     TOSL            equ	4093	;# 
   950   000FFE                     TOSH            equ	4094	;# 
   951   000FFF                     TOSU            equ	4095	;# 
   952   000F80                     PORTA           equ	3968	;# 
   953   000F81                     PORTB           equ	3969	;# 
   954   000F82                     PORTC           equ	3970	;# 
   955   000F83                     PORTD           equ	3971	;# 
   956   000F84                     PORTE           equ	3972	;# 
   957   000F89                     LATA            equ	3977	;# 
   958   000F8A                     LATB            equ	3978	;# 
   959   000F8B                     LATC            equ	3979	;# 
   960   000F8C                     LATD            equ	3980	;# 
   961   000F8D                     LATE            equ	3981	;# 
   962   000F92                     TRISA           equ	3986	;# 
   963   000F92                     DDRA            equ	3986	;# 
   964   000F93                     TRISB           equ	3987	;# 
   965   000F93                     DDRB            equ	3987	;# 
   966   000F94                     TRISC           equ	3988	;# 
   967   000F94                     DDRC            equ	3988	;# 
   968   000F95                     TRISD           equ	3989	;# 
   969   000F95                     DDRD            equ	3989	;# 
   970   000F96                     TRISE           equ	3990	;# 
   971   000F96                     DDRE            equ	3990	;# 
   972   000F9B                     OSCTUNE         equ	3995	;# 
   973   000F9D                     PIE1            equ	3997	;# 
   974   000F9E                     PIR1            equ	3998	;# 
   975   000F9F                     IPR1            equ	3999	;# 
   976   000FA0                     PIE2            equ	4000	;# 
   977   000FA1                     PIR2            equ	4001	;# 
   978   000FA2                     IPR2            equ	4002	;# 
   979   000FA6                     EECON1          equ	4006	;# 
   980   000FA7                     EECON2          equ	4007	;# 
   981   000FA8                     EEDATA          equ	4008	;# 
   982   000FA9                     EEADR           equ	4009	;# 
   983   000FAB                     RCSTA           equ	4011	;# 
   984   000FAB                     RCSTA1          equ	4011	;# 
   985   000FAC                     TXSTA           equ	4012	;# 
   986   000FAC                     TXSTA1          equ	4012	;# 
   987   000FAD                     TXREG           equ	4013	;# 
   988   000FAD                     TXREG1          equ	4013	;# 
   989   000FAE                     RCREG           equ	4014	;# 
   990   000FAE                     RCREG1          equ	4014	;# 
   991   000FAF                     SPBRG           equ	4015	;# 
   992   000FAF                     SPBRG1          equ	4015	;# 
   993   000FB0                     SPBRGH          equ	4016	;# 
   994   000FB1                     T3CON           equ	4017	;# 
   995   000FB2                     TMR3            equ	4018	;# 
   996   000FB2                     TMR3L           equ	4018	;# 
   997   000FB3                     TMR3H           equ	4019	;# 
   998   000FB4                     CMCON           equ	4020	;# 
   999   000FB5                     CVRCON          equ	4021	;# 
  1000   000FB6                     ECCP1AS         equ	4022	;# 
  1001   000FB6                     ECCPAS          equ	4022	;# 
  1002   000FB7                     PWM1CON         equ	4023	;# 
  1003   000FB7                     ECCP1DEL        equ	4023	;# 
  1004   000FB8                     BAUDCON         equ	4024	;# 
  1005   000FB8                     BAUDCTL         equ	4024	;# 
  1006   000FBA                     CCP2CON         equ	4026	;# 
  1007   000FBB                     CCPR2           equ	4027	;# 
  1008   000FBB                     CCPR2L          equ	4027	;# 
  1009   000FBC                     CCPR2H          equ	4028	;# 
  1010   000FBD                     CCP1CON         equ	4029	;# 
  1011   000FBE                     CCPR1           equ	4030	;# 
  1012   000FBE                     CCPR1L          equ	4030	;# 
  1013   000FBF                     CCPR1H          equ	4031	;# 
  1014   000FC0                     ADCON2          equ	4032	;# 
  1015   000FC1                     ADCON1          equ	4033	;# 
  1016   000FC2                     ADCON0          equ	4034	;# 
  1017   000FC3                     ADRES           equ	4035	;# 
  1018   000FC3                     ADRESL          equ	4035	;# 
  1019   000FC4                     ADRESH          equ	4036	;# 
  1020   000FC5                     SSPCON2         equ	4037	;# 
  1021   000FC6                     SSPCON1         equ	4038	;# 
  1022   000FC7                     SSPSTAT         equ	4039	;# 
  1023   000FC8                     SSPADD          equ	4040	;# 
  1024   000FC9                     SSPBUF          equ	4041	;# 
  1025   000FCA                     T2CON           equ	4042	;# 
  1026   000FCB                     PR2             equ	4043	;# 
  1027   000FCB                     MEMCON          equ	4043	;# 
  1028   000FCC                     TMR2            equ	4044	;# 
  1029   000FCD                     T1CON           equ	4045	;# 
  1030   000FCE                     TMR1            equ	4046	;# 
  1031   000FCE                     TMR1L           equ	4046	;# 
  1032   000FCF                     TMR1H           equ	4047	;# 
  1033   000FD0                     RCON            equ	4048	;# 
  1034   000FD1                     WDTCON          equ	4049	;# 
  1035   000FD2                     HLVDCON         equ	4050	;# 
  1036   000FD2                     LVDCON          equ	4050	;# 
  1037   000FD3                     OSCCON          equ	4051	;# 
  1038   000FD5                     T0CON           equ	4053	;# 
  1039   000FD6                     TMR0            equ	4054	;# 
  1040   000FD6                     TMR0L           equ	4054	;# 
  1041   000FD7                     TMR0H           equ	4055	;# 
  1042   000FD8                     STATUS          equ	4056	;# 
  1043   000FD9                     FSR2            equ	4057	;# 
  1044   000FD9                     FSR2L           equ	4057	;# 
  1045   000FDA                     FSR2H           equ	4058	;# 
  1046   000FDB                     PLUSW2          equ	4059	;# 
  1047   000FDC                     PREINC2         equ	4060	;# 
  1048   000FDD                     POSTDEC2        equ	4061	;# 
  1049   000FDE                     POSTINC2        equ	4062	;# 
  1050   000FDF                     INDF2           equ	4063	;# 
  1051   000FE0                     BSR             equ	4064	;# 
  1052   000FE1                     FSR1            equ	4065	;# 
  1053   000FE1                     FSR1L           equ	4065	;# 
  1054   000FE2                     FSR1H           equ	4066	;# 
  1055   000FE3                     PLUSW1          equ	4067	;# 
  1056   000FE4                     PREINC1         equ	4068	;# 
  1057   000FE5                     POSTDEC1        equ	4069	;# 
  1058   000FE6                     POSTINC1        equ	4070	;# 
  1059   000FE7                     INDF1           equ	4071	;# 
  1060   000FE8                     WREG            equ	4072	;# 
  1061   000FE9                     FSR0            equ	4073	;# 
  1062   000FE9                     FSR0L           equ	4073	;# 
  1063   000FEA                     FSR0H           equ	4074	;# 
  1064   000FEB                     PLUSW0          equ	4075	;# 
  1065   000FEC                     PREINC0         equ	4076	;# 
  1066   000FED                     POSTDEC0        equ	4077	;# 
  1067   000FEE                     POSTINC0        equ	4078	;# 
  1068   000FEF                     INDF0           equ	4079	;# 
  1069   000FF0                     INTCON3         equ	4080	;# 
  1070   000FF1                     INTCON2         equ	4081	;# 
  1071   000FF2                     INTCON          equ	4082	;# 
  1072   000FF3                     PROD            equ	4083	;# 
  1073   000FF3                     PRODL           equ	4083	;# 
  1074   000FF4                     PRODH           equ	4084	;# 
  1075   000FF5                     TABLAT          equ	4085	;# 
  1076   000FF6                     TBLPTR          equ	4086	;# 
  1077   000FF6                     TBLPTRL         equ	4086	;# 
  1078   000FF7                     TBLPTRH         equ	4087	;# 
  1079   000FF8                     TBLPTRU         equ	4088	;# 
  1080   000FF9                     PCLAT           equ	4089	;# 
  1081   000FF9                     PC              equ	4089	;# 
  1082   000FF9                     PCL             equ	4089	;# 
  1083   000FFA                     PCLATH          equ	4090	;# 
  1084   000FFB                     PCLATU          equ	4091	;# 
  1085   000FFC                     STKPTR          equ	4092	;# 
  1086   000FFD                     TOS             equ	4093	;# 
  1087   000FFD                     TOSL            equ	4093	;# 
  1088   000FFE                     TOSH            equ	4094	;# 
  1089   000FFF                     TOSU            equ	4095	;# 
  1090                           
  1091                           	psect	mediumconst
  1092   007CEE                     __pmediumconst:
  1093                           	callstack 0
  1094   007CEE  00                 	db	0
  1095   007CEF                     _atanlo:
  1096                           	callstack 0
  1097   007CEF  3769               	dw	14185
  1098   007CF1  31AC               	dw	12716
  1099   007CF3  2168               	dw	8552
  1100   007CF5  3322               	dw	13090
  1101   007CF7  0FB4               	dw	4020
  1102   007CF9  3314               	dw	13076
  1103   007CFB  2168               	dw	8552
  1104   007CFD  33A2               	dw	13218
  1105   007CFF                     __end_of_atanlo:
  1106                           	callstack 0
  1107   007CFF                     _atanhi:
  1108                           	callstack 0
  1109   007CFF  6338               	dw	25400
  1110   007D01  3EED               	dw	16109
  1111   007D03  0FDA               	dw	4058
  1112   007D05  3F49               	dw	16201
  1113   007D07  985E               	dw	39006
  1114   007D09  3F7B               	dw	16251
  1115   007D0B  0FDA               	dw	4058
  1116   007D0D  3FC9               	dw	16329
  1117   007D0F                     __end_of_atanhi:
  1118                           	callstack 0
  1119   007D0F  AC25               	dw	44069
  1120   007D11  3D7C               	dw	15740
  1121   007D13                     __end_of_aT4:
  1122                           	callstack 0
  1123   007D13  1247               	dw	4679
  1124   007D15  BDDA               	dw	48602
  1125   007D17                     __end_of_aT3:
  1126                           	callstack 0
  1127   007D17  F50D               	dw	62733
  1128   007D19  3E11               	dw	15889
  1129   007D1B                     __end_of_aT2:
  1130                           	callstack 0
  1131   007D1B  CA98               	dw	51864
  1132   007D1D  BE4C               	dw	48716
  1133   007D1F                     __end_of_aT1:
  1134                           	callstack 0
  1135   007D1F  AAA9               	dw	43689
  1136   007D21  3EAA               	dw	16042
  1137   007D23                     __end_of_aT0:
  1138                           	callstack 0
  1139   007D23  BD2E               	dw	48430
  1140   007D25  B3BB               	dw	46011
  1141   007D27                     __end_of_pi_lo:
  1142                           	callstack 0
  1143   007D27  0FDB               	dw	4059
  1144   007D29  4049               	dw	16457
  1145   007D2B                     __end_of_pi:
  1146                           	callstack 0
  1147   007CF1                     _TMR2IF         set	31985
  1148   007E2C                     _ACKEN          set	32300
  1149   007E2D                     _ACKDT          set	32301
  1150   007E2B                     _RCEN           set	32299
  1151   007E38                     _BF             set	32312
  1152   007E2A                     _PEN            set	32298
  1153   007E28                     _SEN            set	32296
  1154   007E9C                     _IRCF0          set	32412
  1155   007E9D                     _IRCF1          set	32413
  1156   007E9E                     _IRCF2          set	32414
  1157   007E07                     _ADFM           set	32263
  1158   000F8A                     _LATBbits       set	3978
  1159   000F93                     _TRISB          set	3987
  1160   000F92                     _TRISA          set	3986
  1161   000F89                     _LATA           set	3977
  1162   000F94                     _TRISCbits      set	3988
  1163   000F89                     _LATAbits       set	3977
  1164   000F92                     _TRISAbits      set	3986
  1165   000FC5                     _SSPCON2bits    set	4037
  1166   000FC9                     _SSPBUF         set	4041
  1167   000FC7                     _SSPSTAT        set	4039
  1168   000FC8                     _SSPADD         set	4040
  1169   000FC5                     _SSPCON2        set	4037
  1170   000FC6                     _SSPCON1        set	4038
  1171   000FD3                     _OSCCON         set	4051
  1172   000FAE                     _RCREG          set	4014
  1173   000FAD                     _TXREG          set	4013
  1174   000FAB                     _RCSTAbits      set	4011
  1175   000FAF                     _SPBRG          set	4015
  1176   000FB8                     _BAUDCONbits    set	4024
  1177   000FAC                     _TXSTAbits      set	4012
  1178   000FCB                     _PR2            set	4043
  1179   000FCA                     _T2CON          set	4042
  1180   000F9D                     _PIE1bits       set	3997
  1181   000FD0                     _RCONbits       set	4048
  1182   000F9F                     _IPR1bits       set	3999
  1183   000F9E                     _PIR1bits       set	3998
  1184   000FBD                     _CCP1CON        set	4029
  1185   000FC2                     _ADCON0bits     set	4034
  1186   000FC3                     _ADRESL         set	4035
  1187   000FC4                     _ADRESH         set	4036
  1188   000FC0                     _ADCON2bits     set	4032
  1189   000FC1                     _ADCON1         set	4033
  1190   000FF2                     _INTCONbits     set	4082
  1191   007D2B  0D                 	db	13
  1192   007D2C  0A                 	db	10
  1193   007D2D  00                 	db	0
  1194   007D2E  00                 	db	0	; dummy byte at the end
  1195   000002                     __activetblptr  equ	2
  1196                           
  1197                           ; #config settings
  1198                           
  1199                           	psect	cinit
  1200   002908                     __pcinit:
  1201                           	callstack 0
  1202   002908                     start_initialization:
  1203                           	callstack 0
  1204   002908                     __initialization:
  1205                           	callstack 0
  1206                           
  1207                           ; Clear objects allocated to BANK1 (77 bytes)
  1208   002908  EE01  F000         	lfsr	0,__pbssBANK1
  1209   00290C  0E4D               	movlw	77
  1210   00290E                     clear_0:
  1211   00290E  6AEE               	clrf	postinc0,c
  1212   002910  06E8               	decf	wreg,f,c
  1213   002912  E1FD               	bnz	clear_0
  1214                           
  1215                           ; Clear objects allocated to BANK0 (2 bytes)
  1216   002914  0100               	movlb	0
  1217   002916  6BFF               	clrf	(__pbssBANK0+1)& (0+255),b
  1218   002918  6BFE               	clrf	__pbssBANK0& (0+255),b
  1219                           
  1220                           ; Clear objects allocated to COMRAM (5 bytes)
  1221   00291A  6A79               	clrf	(__pbssCOMRAM+4)& (0+255),c
  1222   00291C  6A78               	clrf	(__pbssCOMRAM+3)& (0+255),c
  1223   00291E  6A77               	clrf	(__pbssCOMRAM+2)& (0+255),c
  1224   002920  6A76               	clrf	(__pbssCOMRAM+1)& (0+255),c
  1225   002922  6A75               	clrf	__pbssCOMRAM& (0+255),c
  1226   002924                     end_of_initialization:
  1227                           	callstack 0
  1228   002924                     __end_of__initialization:
  1229                           	callstack 0
  1230   002924  907A               	bcf	int$flags,0,c	;clear compiler interrupt flag (level 1)
  1231   002926  927A               	bcf	int$flags,1,c	;clear compiler interrupt flag (level 2)
  1232   002928  0E00               	movlw	low (__Lmediumconst shr (0+16))
  1233   00292A  6EF8               	movwf	tblptru,c
  1234   00292C  0100               	movlb	0
  1235   00292E  EFDA  F013         	goto	_main	;jump to C main() function
  1236                           
  1237                           	psect	bssCOMRAM
  1238   000075                     __pbssCOMRAM:
  1239                           	callstack 0
  1240   000075                     _from_mid:
  1241                           	callstack 0
  1242   000075                     	ds	2
  1243   000077                     _accY_low:
  1244                           	callstack 0
  1245   000077                     	ds	1
  1246   000078                     _accY_high:
  1247                           	callstack 0
  1248   000078                     	ds	1
  1249   000079                     _accX_high:
  1250                           	callstack 0
  1251   000079                     	ds	1
  1252                           
  1253                           	psect	bssBANK0
  1254   0000FE                     __pbssBANK0:
  1255                           	callstack 0
  1256   0000FE                     _dir:
  1257                           	callstack 0
  1258   0000FE                     	ds	2
  1259                           
  1260                           	psect	bssBANK1
  1261   000100                     __pbssBANK1:
  1262                           	callstack 0
  1263   000100                     _str:
  1264                           	callstack 0
  1265   000100                     	ds	20
  1266   000114                     fabsf@F465:
  1267                           	callstack 0
  1268   000114                     	ds	4
  1269   000118                     ___fpclassifyf@F465:
  1270                           	callstack 0
  1271   000118                     	ds	4
  1272   00011C                     _angle:
  1273                           	callstack 0
  1274   00011C                     	ds	4
  1275   000120                     _pitch_offset:
  1276                           	callstack 0
  1277   000120                     	ds	4
  1278   000124                     _errno:
  1279                           	callstack 0
  1280   000124                     	ds	2
  1281   000126                     _postpostscaler:
  1282                           	callstack 0
  1283   000126                     	ds	2
  1284   000128                     _accZ:
  1285                           	callstack 0
  1286   000128                     	ds	2
  1287   00012A                     _accY:
  1288                           	callstack 0
  1289   00012A                     	ds	2
  1290   00012C                     _accX:
  1291                           	callstack 0
  1292   00012C                     	ds	2
  1293   00012E                     _needSendMsg:
  1294                           	callstack 0
  1295   00012E                     	ds	2
  1296   000130                     _isConnected:
  1297                           	callstack 0
  1298   000130                     	ds	2
  1299   000132                     _count:
  1300                           	callstack 0
  1301   000132                     	ds	2
  1302   000134                     _lenStr:
  1303                           	callstack 0
  1304   000134                     	ds	2
  1305   000136                     _accZ_low:
  1306                           	callstack 0
  1307   000136                     	ds	1
  1308   000137                     _accZ_high:
  1309                           	callstack 0
  1310   000137                     	ds	1
  1311   000138                     _accX_low:
  1312                           	callstack 0
  1313   000138                     	ds	1
  1314   000139                     _mystring:
  1315                           	callstack 0
  1316   000139                     	ds	20
  1317                           
  1318                           	psect	cstackBANK1
  1319   00014D                     __pcstackBANK1:
  1320                           	callstack 0
  1321   00014D                     ??_main:
  1322                           
  1323                           ; 1 bytes @ 0x0
  1324   00014D                     	ds	1
  1325   00014E                     main@prev_bend_sensor_val:
  1326                           	callstack 0
  1327                           
  1328                           ; 2 bytes @ 0x1
  1329   00014E                     	ds	2
  1330   000150                     main@blinker_dir:
  1331                           	callstack 0
  1332                           
  1333                           ; 2 bytes @ 0x3
  1334   000150                     	ds	2
  1335                           
  1336                           	psect	cstackBANK0
  1337   000080                     __pcstackBANK0:
  1338                           	callstack 0
  1339   000080                     ___fldiv@rem:
  1340                           	callstack 0
  1341                           
  1342                           ; 4 bytes @ 0x0
  1343   000080                     	ds	4
  1344   000084                     ___fldiv@sign:
  1345                           	callstack 0
  1346                           
  1347                           ; 1 bytes @ 0x4
  1348   000084                     	ds	1
  1349   000085                     ___fldiv@new_exp:
  1350                           	callstack 0
  1351                           
  1352                           ; 2 bytes @ 0x5
  1353   000085                     	ds	2
  1354   000087                     ___fldiv@grs:
  1355                           	callstack 0
  1356                           
  1357                           ; 4 bytes @ 0x7
  1358   000087                     	ds	4
  1359   00008B                     ___fldiv@bexp:
  1360                           	callstack 0
  1361                           
  1362                           ; 1 bytes @ 0xB
  1363   00008B                     	ds	1
  1364   00008C                     ___fldiv@aexp:
  1365                           	callstack 0
  1366                           
  1367                           ; 1 bytes @ 0xC
  1368   00008C                     	ds	1
  1369   00008D                     fabsf@u:
  1370                           	callstack 0
  1371                           
  1372                           ; 4 bytes @ 0xD
  1373   00008D                     	ds	4
  1374   000091                     ?_atanf:
  1375                           	callstack 0
  1376   000091                     atanf@x:
  1377                           	callstack 0
  1378                           
  1379                           ; 4 bytes @ 0x11
  1380   000091                     	ds	4
  1381   000095                     _atanf$1907:
  1382                           	callstack 0
  1383                           
  1384                           ; 4 bytes @ 0x15
  1385   000095                     	ds	4
  1386   000099                     _atanf$1909:
  1387                           	callstack 0
  1388                           
  1389                           ; 4 bytes @ 0x19
  1390   000099                     	ds	4
  1391   00009D                     _atanf$1910:
  1392                           	callstack 0
  1393                           
  1394                           ; 4 bytes @ 0x1D
  1395   00009D                     	ds	4
  1396   0000A1                     atanf@s1:
  1397                           	callstack 0
  1398                           
  1399                           ; 4 bytes @ 0x21
  1400   0000A1                     	ds	4
  1401   0000A5                     atanf@s2:
  1402                           	callstack 0
  1403                           
  1404                           ; 4 bytes @ 0x25
  1405   0000A5                     	ds	4
  1406   0000A9                     _atanf$1906:
  1407                           	callstack 0
  1408                           
  1409                           ; 4 bytes @ 0x29
  1410   0000A9                     	ds	4
  1411   0000AD                     _atanf$1908:
  1412                           	callstack 0
  1413                           
  1414                           ; 4 bytes @ 0x2D
  1415   0000AD                     	ds	4
  1416   0000B1                     atanf@sign:
  1417                           	callstack 0
  1418                           
  1419                           ; 1 bytes @ 0x31
  1420   0000B1                     	ds	1
  1421   0000B2                     atanf@w:
  1422                           	callstack 0
  1423                           
  1424                           ; 4 bytes @ 0x32
  1425   0000B2                     	ds	4
  1426   0000B6                     atanf@id:
  1427                           	callstack 0
  1428                           
  1429                           ; 1 bytes @ 0x36
  1430   0000B6                     	ds	1
  1431   0000B7                     atanf@z:
  1432                           	callstack 0
  1433                           
  1434                           ; 4 bytes @ 0x37
  1435   0000B7                     	ds	4
  1436   0000BB                     atanf@ix:
  1437                           	callstack 0
  1438                           
  1439                           ; 4 bytes @ 0x3B
  1440   0000BB                     	ds	4
  1441   0000BF                     ?_atan2f:
  1442                           	callstack 0
  1443   0000BF                     atan2f@y:
  1444                           	callstack 0
  1445                           
  1446                           ; 4 bytes @ 0x3F
  1447   0000BF                     	ds	4
  1448   0000C3                     atan2f@x:
  1449                           	callstack 0
  1450                           
  1451                           ; 4 bytes @ 0x43
  1452   0000C3                     	ds	4
  1453   0000C7                     ??_atan2f:
  1454                           
  1455                           ; 1 bytes @ 0x47
  1456   0000C7                     	ds	8
  1457   0000CF                     _atan2f$1903:
  1458                           	callstack 0
  1459                           
  1460                           ; 4 bytes @ 0x4F
  1461   0000CF                     	ds	4
  1462   0000D3                     _atan2f$1904:
  1463                           	callstack 0
  1464                           
  1465                           ; 4 bytes @ 0x53
  1466   0000D3                     	ds	4
  1467   0000D7                     _atan2f$1905:
  1468                           	callstack 0
  1469                           
  1470                           ; 4 bytes @ 0x57
  1471   0000D7                     	ds	4
  1472   0000DB                     atan2f@z:
  1473                           	callstack 0
  1474                           
  1475                           ; 4 bytes @ 0x5B
  1476   0000DB                     	ds	4
  1477   0000DF                     atan2f@ix:
  1478                           	callstack 0
  1479                           
  1480                           ; 4 bytes @ 0x5F
  1481   0000DF                     	ds	4
  1482   0000E3                     atan2f@iy:
  1483                           	callstack 0
  1484                           
  1485                           ; 4 bytes @ 0x63
  1486   0000E3                     	ds	4
  1487   0000E7                     atan2f@m:
  1488                           	callstack 0
  1489                           
  1490                           ; 1 bytes @ 0x67
  1491   0000E7                     	ds	1
  1492   0000E8                     ?_calculate_angle:
  1493                           	callstack 0
  1494   0000E8                     calculate_angle@accX:
  1495                           	callstack 0
  1496                           
  1497                           ; 2 bytes @ 0x68
  1498   0000E8                     	ds	2
  1499   0000EA                     calculate_angle@accY:
  1500                           	callstack 0
  1501                           
  1502                           ; 2 bytes @ 0x6A
  1503   0000EA                     	ds	2
  1504   0000EC                     calculate_angle@accZ:
  1505                           	callstack 0
  1506                           
  1507                           ; 2 bytes @ 0x6C
  1508   0000EC                     	ds	2
  1509   0000EE                     _calculate_angle$1901:
  1510                           	callstack 0
  1511                           
  1512                           ; 4 bytes @ 0x6E
  1513   0000EE                     	ds	4
  1514   0000F2                     _calculate_angle$1902:
  1515                           	callstack 0
  1516                           
  1517                           ; 4 bytes @ 0x72
  1518   0000F2                     	ds	4
  1519   0000F6                     Check_Gyroscope@blinker_dir:
  1520                           	callstack 0
  1521   0000F6                     Calibration@accX:
  1522                           	callstack 0
  1523                           
  1524                           ; 2 bytes @ 0x76
  1525   0000F6                     	ds	2
  1526   0000F8                     Calibration@accZ:
  1527                           	callstack 0
  1528   0000F8                     _Check_Gyroscope$1900:
  1529                           	callstack 0
  1530                           
  1531                           ; 4 bytes @ 0x78
  1532   0000F8                     	ds	2
  1533   0000FA                     Calibration@accX_high:
  1534                           	callstack 0
  1535                           
  1536                           ; 1 bytes @ 0x7A
  1537   0000FA                     	ds	1
  1538   0000FB                     Calibration@accX_low:
  1539                           	callstack 0
  1540                           
  1541                           ; 1 bytes @ 0x7B
  1542   0000FB                     	ds	1
  1543   0000FC                     Calibration@accZ_high:
  1544                           	callstack 0
  1545                           
  1546                           ; 1 bytes @ 0x7C
  1547   0000FC                     	ds	1
  1548   0000FD                     Calibration@accZ_low:
  1549                           	callstack 0
  1550                           
  1551                           ; 1 bytes @ 0x7D
  1552   0000FD                     	ds	1
  1553                           
  1554                           	psect	cstackCOMRAM
  1555   000001                     __pcstackCOMRAM:
  1556                           	callstack 0
  1557   000001                     ??_Low_ISR:
  1558                           
  1559                           ; 1 bytes @ 0x0
  1560   000001                     	ds	5
  1561   000006                     ?___fpclassifyf:
  1562                           	callstack 0
  1563   000006                     ?_ADC_Read:
  1564                           	callstack 0
  1565   000006                     ?___flneg:
  1566                           	callstack 0
  1567   000006                     ?___xxtofl:
  1568                           	callstack 0
  1569   000006                     I2C_Write@data:
  1570                           	callstack 0
  1571   000006                     I2C_Read@ack:
  1572                           	callstack 0
  1573   000006                     ADC_Read@channel:
  1574                           	callstack 0
  1575   000006                     ___flge@ff1:
  1576                           	callstack 0
  1577   000006                     ___flneg@f1:
  1578                           	callstack 0
  1579   000006                     ___xxtofl@val:
  1580                           	callstack 0
  1581   000006                     ___fpclassifyf@x:
  1582                           	callstack 0
  1583   000006                     
  1584                           ; 1 bytes @ 0x5
  1585   000006                     	ds	1
  1586   000007                     I2C_Read@data:
  1587                           	callstack 0
  1588                           
  1589                           ; 1 bytes @ 0x6
  1590   000007                     	ds	1
  1591   000008                     ??_ADC_Read:
  1592                           
  1593                           ; 1 bytes @ 0x7
  1594   000008                     	ds	2
  1595   00000A                     ADC_Read@digital:
  1596                           	callstack 0
  1597   00000A                     ___flge@ff2:
  1598                           	callstack 0
  1599   00000A                     ??___fpclassifyf:
  1600   00000A                     ??___xxtofl:
  1601                           
  1602                           ; 1 bytes @ 0x9
  1603   00000A                     	ds	2
  1604   00000C                     Check_ADC@prev_sensor_val:
  1605                           	callstack 0
  1606                           
  1607                           ; 2 bytes @ 0xB
  1608   00000C                     	ds	2
  1609   00000E                     ___xxtofl@sign:
  1610                           	callstack 0
  1611   00000E                     ___fpclassifyf@e:
  1612                           	callstack 0
  1613   00000E                     ??_Check_ADC:
  1614   00000E                     ??___flge:
  1615                           
  1616                           ; 1 bytes @ 0xD
  1617   00000E                     	ds	1
  1618   00000F                     ___xxtofl@exp:
  1619                           	callstack 0
  1620                           
  1621                           ; 1 bytes @ 0xE
  1622   00000F                     	ds	1
  1623   000010                     ___xxtofl@arg:
  1624                           	callstack 0
  1625   000010                     ___fpclassifyf@u:
  1626                           	callstack 0
  1627                           
  1628                           ; 4 bytes @ 0xF
  1629   000010                     	ds	1
  1630   000011                     Check_ADC@bend_sensor_val:
  1631                           	callstack 0
  1632                           
  1633                           ; 2 bytes @ 0x10
  1634   000011                     	ds	3
  1635   000014                     ?___flmul:
  1636                           	callstack 0
  1637   000014                     ___flmul@b:
  1638                           	callstack 0
  1639                           
  1640                           ; 4 bytes @ 0x13
  1641   000014                     	ds	4
  1642   000018                     ___flmul@a:
  1643                           	callstack 0
  1644                           
  1645                           ; 4 bytes @ 0x17
  1646   000018                     	ds	4
  1647   00001C                     ??___flmul:
  1648                           
  1649                           ; 1 bytes @ 0x1B
  1650   00001C                     	ds	4
  1651   000020                     ___flmul@sign:
  1652                           	callstack 0
  1653                           
  1654                           ; 1 bytes @ 0x1F
  1655   000020                     	ds	1
  1656   000021                     ___flmul@aexp:
  1657                           	callstack 0
  1658                           
  1659                           ; 1 bytes @ 0x20
  1660   000021                     	ds	1
  1661   000022                     ___flmul@grs:
  1662                           	callstack 0
  1663                           
  1664                           ; 4 bytes @ 0x21
  1665   000022                     	ds	4
  1666   000026                     ___flmul@bexp:
  1667                           	callstack 0
  1668                           
  1669                           ; 1 bytes @ 0x25
  1670   000026                     	ds	1
  1671   000027                     ___flmul@prod:
  1672                           	callstack 0
  1673                           
  1674                           ; 4 bytes @ 0x26
  1675   000027                     	ds	4
  1676   00002B                     ___flmul@temp:
  1677                           	callstack 0
  1678                           
  1679                           ; 2 bytes @ 0x2A
  1680   00002B                     	ds	2
  1681   00002D                     ?___fladd:
  1682                           	callstack 0
  1683   00002D                     ___fladd@b:
  1684                           	callstack 0
  1685                           
  1686                           ; 4 bytes @ 0x2C
  1687   00002D                     	ds	4
  1688   000031                     ___fladd@a:
  1689                           	callstack 0
  1690                           
  1691                           ; 4 bytes @ 0x30
  1692   000031                     	ds	4
  1693   000035                     ??___fladd:
  1694                           
  1695                           ; 1 bytes @ 0x34
  1696   000035                     	ds	4
  1697   000039                     ___fladd@signs:
  1698                           	callstack 0
  1699                           
  1700                           ; 1 bytes @ 0x38
  1701   000039                     	ds	1
  1702   00003A                     ___fladd@aexp:
  1703                           	callstack 0
  1704                           
  1705                           ; 1 bytes @ 0x39
  1706   00003A                     	ds	1
  1707   00003B                     ___fladd@bexp:
  1708                           	callstack 0
  1709                           
  1710                           ; 1 bytes @ 0x3A
  1711   00003B                     	ds	1
  1712   00003C                     ___fladd@grs:
  1713                           	callstack 0
  1714                           
  1715                           ; 1 bytes @ 0x3B
  1716   00003C                     	ds	1
  1717   00003D                     ?_sqrtf:
  1718                           	callstack 0
  1719   00003D                     ?___flsub:
  1720                           	callstack 0
  1721   00003D                     ___flsub@b:
  1722                           	callstack 0
  1723   00003D                     sqrtf@x:
  1724                           	callstack 0
  1725                           
  1726                           ; 4 bytes @ 0x3C
  1727   00003D                     	ds	4
  1728   000041                     ___flsub@a:
  1729                           	callstack 0
  1730   000041                     ??_sqrtf:
  1731                           
  1732                           ; 1 bytes @ 0x40
  1733   000041                     	ds	4
  1734   000045                     
  1735                           ; 1 bytes @ 0x44
  1736   000045                     	ds	1
  1737   000046                     sqrtf@s:
  1738                           	callstack 0
  1739                           
  1740                           ; 4 bytes @ 0x45
  1741   000046                     	ds	4
  1742   00004A                     sqrtf@i:
  1743                           	callstack 0
  1744                           
  1745                           ; 4 bytes @ 0x49
  1746   00004A                     	ds	4
  1747   00004E                     sqrtf@q:
  1748                           	callstack 0
  1749                           
  1750                           ; 4 bytes @ 0x4D
  1751   00004E                     	ds	4
  1752   000052                     sqrtf@t:
  1753                           	callstack 0
  1754                           
  1755                           ; 4 bytes @ 0x51
  1756   000052                     	ds	4
  1757   000056                     sqrtf@m:
  1758                           	callstack 0
  1759                           
  1760                           ; 4 bytes @ 0x55
  1761   000056                     	ds	4
  1762   00005A                     sqrtf@r:
  1763                           	callstack 0
  1764                           
  1765                           ; 4 bytes @ 0x59
  1766   00005A                     	ds	4
  1767   00005E                     sqrtf@ix:
  1768                           	callstack 0
  1769                           
  1770                           ; 4 bytes @ 0x5D
  1771   00005E                     	ds	4
  1772   000062                     ?___fldiv:
  1773                           	callstack 0
  1774   000062                     ___fldiv@b:
  1775                           	callstack 0
  1776                           
  1777                           ; 4 bytes @ 0x61
  1778   000062                     	ds	4
  1779   000066                     ___fldiv@a:
  1780                           	callstack 0
  1781                           
  1782                           ; 4 bytes @ 0x65
  1783   000066                     	ds	4
  1784   00006A                     ??___fldiv:
  1785                           
  1786                           ; 1 bytes @ 0x69
  1787   00006A                     	ds	4
  1788   00006E                     ?_fabsf:
  1789                           	callstack 0
  1790   00006E                     fabsf@x:
  1791                           	callstack 0
  1792                           
  1793                           ; 4 bytes @ 0x6D
  1794   00006E                     	ds	4
  1795   000072                     ??_Check_Gyroscope:
  1796   000072                     ??_Calibration:
  1797   000072                     
  1798                           ; 1 bytes @ 0x71
  1799   000072                     	ds	2
  1800   000074                     ??_Gyroscope_Initialize:
  1801                           
  1802                           ; 1 bytes @ 0x73
  1803   000074                     	ds	1
  1804   000075                     
  1805                           ; 1 bytes @ 0x74
  1806 ;;
  1807 ;;Main: autosize = 0, tempsize = 1, incstack = 0, save=0
  1808 ;;
  1809 ;; *************** function _main *****************
  1810 ;; Defined at:
  1811 ;;		line 22 in file "main.c"
  1812 ;; Parameters:    Size  Location     Type
  1813 ;;		None
  1814 ;; Auto vars:     Size  Location     Type
  1815 ;;  blinker_dir     2    3[BANK1 ] int 
  1816 ;;  prev_bend_se    2    1[BANK1 ] int 
  1817 ;; Return value:  Size  Location     Type
  1818 ;;                  1    wreg      void 
  1819 ;; Registers used:
  1820 ;;		wreg, status,2, status,0, tblptrl, tblptrh, tblptru, prodl, prodh, cstack
  1821 ;; Tracked objects:
  1822 ;;		On entry : 0/0
  1823 ;;		On exit  : 0/0
  1824 ;;		Unchanged: 0/0
  1825 ;; Data sizes:     COMRAM   BANK0   BANK1   BANK2   BANK3   BANK4   BANK5
  1826 ;;      Params:         0       0       0       0       0       0       0
  1827 ;;      Locals:         0       0       4       0       0       0       0
  1828 ;;      Temps:          0       0       1       0       0       0       0
  1829 ;;      Totals:         0       0       5       0       0       0       0
  1830 ;;Total ram usage:        5 bytes
  1831 ;; Hardware stack levels required when called: 9
  1832 ;; This function calls:
  1833 ;;		_Check_ADC
  1834 ;;		_Check_Gyroscope
  1835 ;;		_SYSTEM_Initialize
  1836 ;; This function is called by:
  1837 ;;		Startup code after reset
  1838 ;; This function uses a non-reentrant model
  1839 ;;
  1840                           
  1841                           	psect	text0
  1842   0027B4                     __ptext0:
  1843                           	callstack 0
  1844   0027B4                     _main:
  1845                           	callstack 22
  1846   0027B4                     
  1847                           ;main.c: 25:     SYSTEM_Initialize() ;
  1848   0027B4  ECC6  F014         	call	_SYSTEM_Initialize	;wreg free
  1849   0027B8                     
  1850                           ;main.c: 27:     int blinker_dir = 0;
  1851   0027B8  0E00               	movlw	0
  1852   0027BA  0101               	movlb	1	; () banked
  1853   0027BC  6F51               	movwf	(main@blinker_dir+1)& (0+255),b
  1854   0027BE  0E00               	movlw	0
  1855   0027C0  6F50               	movwf	main@blinker_dir& (0+255),b
  1856   0027C2                     l4473:
  1857                           
  1858                           ;main.c: 37:         Check_ADC(prev_bend_sensor_val);
  1859   0027C2  C14E  F00C         	movff	main@prev_bend_sensor_val,Check_ADC@prev_sensor_val
  1860   0027C6  C14F  F00D         	movff	main@prev_bend_sensor_val+1,Check_ADC@prev_sensor_val+1
  1861   0027CA  EC6C  F013         	call	_Check_ADC	;wreg free
  1862   0027CE                     
  1863                           ;main.c: 39:         Check_Gyroscope(blinker_dir);
  1864   0027CE  C150  F0F6         	movff	main@blinker_dir,Check_Gyroscope@blinker_dir
  1865   0027D2  C151  F0F7         	movff	main@blinker_dir+1,Check_Gyroscope@blinker_dir+1
  1866   0027D6  EC2C  F00F         	call	_Check_Gyroscope	;wreg free
  1867   0027DA                     
  1868                           ;main.c: 40:         _delay((unsigned long)((20)*(4000000/4000.0)));
  1869   0027DA  0E1A               	movlw	26
  1870   0027DC  0101               	movlb	1	; () banked
  1871   0027DE  6F4D               	movwf	??_main& (0+255),b
  1872   0027E0  0EF8               	movlw	248
  1873   0027E2                     u5347:
  1874   0027E2  2EE8               	decfsz	wreg,f,c
  1875   0027E4  D7FE               	bra	u5347
  1876   0027E6  2F4D               	decfsz	??_main& (0+255),f,b
  1877   0027E8  D7FC               	bra	u5347
  1878   0027EA  0000               	nop	
  1879   0027EC  EFE1  F013         	goto	l4473
  1880   0027F0  EF71  F000         	goto	start
  1881   0027F4                     __end_of_main:
  1882                           	callstack 0
  1883                           
  1884 ;; *************** function _SYSTEM_Initialize *****************
  1885 ;; Defined at:
  1886 ;;		line 60 in file "setting_hardaware/setting.c"
  1887 ;; Parameters:    Size  Location     Type
  1888 ;;		None
  1889 ;; Auto vars:     Size  Location     Type
  1890 ;;		None
  1891 ;; Return value:  Size  Location     Type
  1892 ;;                  1    wreg      void 
  1893 ;; Registers used:
  1894 ;;		wreg, status,2, status,0, tblptrl, tblptrh, tblptru, prodl, prodh, cstack
  1895 ;; Tracked objects:
  1896 ;;		On entry : 0/0
  1897 ;;		On exit  : 0/0
  1898 ;;		Unchanged: 0/0
  1899 ;; Data sizes:     COMRAM   BANK0   BANK1   BANK2   BANK3   BANK4   BANK5
  1900 ;;      Params:         0       0       0       0       0       0       0
  1901 ;;      Locals:         0       0       0       0       0       0       0
  1902 ;;      Temps:          0       0       0       0       0       0       0
  1903 ;;      Totals:         0       0       0       0       0       0       0
  1904 ;;Total ram usage:        0 bytes
  1905 ;; Hardware stack levels used: 1
  1906 ;; Hardware stack levels required when called: 8
  1907 ;; This function calls:
  1908 ;;		_ADC_Initialize
  1909 ;;		_Gyroscope_Initialize
  1910 ;;		_INTERRUPT_Initialize
  1911 ;;		_OSCILLATOR_Initialize
  1912 ;;		_TMR2_Initialize
  1913 ;; This function is called by:
  1914 ;;		_main
  1915 ;; This function uses a non-reentrant model
  1916 ;;
  1917                           
  1918                           	psect	text1
  1919   00298C                     __ptext1:
  1920                           	callstack 0
  1921   00298C                     _SYSTEM_Initialize:
  1922                           	callstack 22
  1923   00298C                     
  1924                           ;setting_hardaware/setting.c: 63:     OSCILLATOR_Initialize();
  1925   00298C  ECF0  F014         	call	_OSCILLATOR_Initialize	;wreg free
  1926                           
  1927                           ;setting_hardaware/setting.c: 64:     TMR2_Initialize();
  1928   002990  ECEA  F014         	call	_TMR2_Initialize	;wreg free
  1929   002994                     
  1930                           ;setting_hardaware/setting.c: 67:     INTERRUPT_Initialize();
  1931   002994  ECAB  F014         	call	_INTERRUPT_Initialize	;wreg free
  1932   002998                     
  1933                           ;setting_hardaware/setting.c: 70:     ADC_Initialize();
  1934   002998  ECB9  F014         	call	_ADC_Initialize	;wreg free
  1935   00299C                     
  1936                           ;setting_hardaware/setting.c: 71:     Gyroscope_Initialize();
  1937   00299C  EC35  F014         	call	_Gyroscope_Initialize	;wreg free
  1938   0029A0  0012               	return		;funcret
  1939   0029A2                     __end_of_SYSTEM_Initialize:
  1940                           	callstack 0
  1941                           
  1942 ;; *************** function _TMR2_Initialize *****************
  1943 ;; Defined at:
  1944 ;;		line 83 in file "setting_hardaware/setting.c"
  1945 ;; Parameters:    Size  Location     Type
  1946 ;;		None
  1947 ;; Auto vars:     Size  Location     Type
  1948 ;;		None
  1949 ;; Return value:  Size  Location     Type
  1950 ;;                  1    wreg      void 
  1951 ;; Registers used:
  1952 ;;		None
  1953 ;; Tracked objects:
  1954 ;;		On entry : 0/0
  1955 ;;		On exit  : 0/0
  1956 ;;		Unchanged: 0/0
  1957 ;; Data sizes:     COMRAM   BANK0   BANK1   BANK2   BANK3   BANK4   BANK5
  1958 ;;      Params:         0       0       0       0       0       0       0
  1959 ;;      Locals:         0       0       0       0       0       0       0
  1960 ;;      Temps:          0       0       0       0       0       0       0
  1961 ;;      Totals:         0       0       0       0       0       0       0
  1962 ;;Total ram usage:        0 bytes
  1963 ;; Hardware stack levels used: 1
  1964 ;; Hardware stack levels required when called: 1
  1965 ;; This function calls:
  1966 ;;		Nothing
  1967 ;; This function is called by:
  1968 ;;		_SYSTEM_Initialize
  1969 ;; This function uses a non-reentrant model
  1970 ;;
  1971                           
  1972                           	psect	text2
  1973   0029D4                     __ptext2:
  1974                           	callstack 0
  1975   0029D4                     _TMR2_Initialize:
  1976                           	callstack 28
  1977   0029D4                     
  1978                           ;setting_hardaware/setting.c: 84:     PIR1bits.TMR2IF = 0;
  1979   0029D4  929E               	bcf	158,1,c	;volatile
  1980                           
  1981                           ;setting_hardaware/setting.c: 85:     IPR1bits.TMR2IP = 1;
  1982   0029D6  829F               	bsf	159,1,c	;volatile
  1983                           
  1984                           ;setting_hardaware/setting.c: 86:     PIE1bits.TMR2IE = 1;
  1985   0029D8  829D               	bsf	157,1,c	;volatile
  1986                           
  1987                           ;setting_hardaware/setting.c: 87:     T2CON = 255;
  1988   0029DA  68CA               	setf	202,c	;volatile
  1989                           
  1990                           ;setting_hardaware/setting.c: 88:     PR2 = 255;
  1991   0029DC  68CB               	setf	203,c	;volatile
  1992   0029DE  0012               	return		;funcret
  1993   0029E0                     __end_of_TMR2_Initialize:
  1994                           	callstack 0
  1995                           
  1996 ;; *************** function _OSCILLATOR_Initialize *****************
  1997 ;; Defined at:
  1998 ;;		line 74 in file "setting_hardaware/setting.c"
  1999 ;; Parameters:    Size  Location     Type
  2000 ;;		None
  2001 ;; Auto vars:     Size  Location     Type
  2002 ;;		None
  2003 ;; Return value:  Size  Location     Type
  2004 ;;                  1    wreg      void 
  2005 ;; Registers used:
  2006 ;;		None
  2007 ;; Tracked objects:
  2008 ;;		On entry : 0/0
  2009 ;;		On exit  : 0/0
  2010 ;;		Unchanged: 0/0
  2011 ;; Data sizes:     COMRAM   BANK0   BANK1   BANK2   BANK3   BANK4   BANK5
  2012 ;;      Params:         0       0       0       0       0       0       0
  2013 ;;      Locals:         0       0       0       0       0       0       0
  2014 ;;      Temps:          0       0       0       0       0       0       0
  2015 ;;      Totals:         0       0       0       0       0       0       0
  2016 ;;Total ram usage:        0 bytes
  2017 ;; Hardware stack levels used: 1
  2018 ;; Hardware stack levels required when called: 1
  2019 ;; This function calls:
  2020 ;;		Nothing
  2021 ;; This function is called by:
  2022 ;;		_SYSTEM_Initialize
  2023 ;; This function uses a non-reentrant model
  2024 ;;
  2025                           
  2026                           	psect	text3
  2027   0029E0                     __ptext3:
  2028                           	callstack 0
  2029   0029E0                     _OSCILLATOR_Initialize:
  2030                           	callstack 28
  2031   0029E0                     
  2032                           ;setting_hardaware/setting.c: 76:     IRCF2 = 1;
  2033   0029E0  8CD3               	bsf	4051,6,c	;volatile
  2034                           
  2035                           ;setting_hardaware/setting.c: 77:     IRCF1 = 1;
  2036   0029E2  8AD3               	bsf	4051,5,c	;volatile
  2037                           
  2038                           ;setting_hardaware/setting.c: 78:     IRCF0 = 0;
  2039   0029E4  98D3               	bcf	4051,4,c	;volatile
  2040   0029E6  0012               	return		;funcret
  2041   0029E8                     __end_of_OSCILLATOR_Initialize:
  2042                           	callstack 0
  2043                           
  2044 ;; *************** function _INTERRUPT_Initialize *****************
  2045 ;; Defined at:
  2046 ;;		line 3 in file "setting_hardaware/interrupt_manager.c"
  2047 ;; Parameters:    Size  Location     Type
  2048 ;;		None
  2049 ;; Auto vars:     Size  Location     Type
  2050 ;;		None
  2051 ;; Return value:  Size  Location     Type
  2052 ;;                  1    wreg      void 
  2053 ;; Registers used:
  2054 ;;		wreg, status,2
  2055 ;; Tracked objects:
  2056 ;;		On entry : 0/0
  2057 ;;		On exit  : 0/0
  2058 ;;		Unchanged: 0/0
  2059 ;; Data sizes:     COMRAM   BANK0   BANK1   BANK2   BANK3   BANK4   BANK5
  2060 ;;      Params:         0       0       0       0       0       0       0
  2061 ;;      Locals:         0       0       0       0       0       0       0
  2062 ;;      Temps:          0       0       0       0       0       0       0
  2063 ;;      Totals:         0       0       0       0       0       0       0
  2064 ;;Total ram usage:        0 bytes
  2065 ;; Hardware stack levels used: 1
  2066 ;; Hardware stack levels required when called: 1
  2067 ;; This function calls:
  2068 ;;		Nothing
  2069 ;; This function is called by:
  2070 ;;		_SYSTEM_Initialize
  2071 ;; This function uses a non-reentrant model
  2072 ;;
  2073                           
  2074                           	psect	text4
  2075   002956                     __ptext4:
  2076                           	callstack 0
  2077   002956                     _INTERRUPT_Initialize:
  2078                           	callstack 28
  2079   002956                     
  2080                           ;setting_hardaware/interrupt_manager.c: 5:     RCONbits.IPEN = 1;
  2081   002956  8ED0               	bsf	208,7,c	;volatile
  2082                           
  2083                           ;setting_hardaware/interrupt_manager.c: 6:     INTCONbits.GIEH = 1;
  2084   002958  8EF2               	bsf	242,7,c	;volatile
  2085                           
  2086                           ;setting_hardaware/interrupt_manager.c: 7:     INTCONbits.GIEL = 1;
  2087   00295A  8CF2               	bsf	242,6,c	;volatile
  2088   00295C                     
  2089                           ;setting_hardaware/interrupt_manager.c: 10:     ADCON1 = 0x0f;
  2090   00295C  0E0F               	movlw	15
  2091   00295E  6EC1               	movwf	193,c	;volatile
  2092   002960                     
  2093                           ;setting_hardaware/interrupt_manager.c: 11:     LATA = 0x00;
  2094   002960  6A89               	clrf	137,c	;volatile
  2095   002962                     
  2096                           ;setting_hardaware/interrupt_manager.c: 12:     TRISA = 0x00;
  2097   002962  6A92               	clrf	146,c	;volatile
  2098   002964                     
  2099                           ;setting_hardaware/interrupt_manager.c: 13:     TRISAbits.TRISA0 = 1;
  2100   002964  8092               	bsf	146,0,c	;volatile
  2101                           
  2102                           ;setting_hardaware/interrupt_manager.c: 16:     TRISB = 0x01;
  2103   002966  0E01               	movlw	1
  2104   002968  6E93               	movwf	147,c	;volatile
  2105   00296A                     
  2106                           ;setting_hardaware/interrupt_manager.c: 17:     LATBbits.LATB0 = 0;
  2107   00296A  908A               	bcf	138,0,c	;volatile
  2108   00296C                     
  2109                           ;setting_hardaware/interrupt_manager.c: 19:     INTCONbits.INT0IE = 0;
  2110   00296C  98F2               	bcf	242,4,c	;volatile
  2111   00296E                     
  2112                           ;setting_hardaware/interrupt_manager.c: 20:     INTCONbits.INT0IF = 0;
  2113   00296E  92F2               	bcf	242,1,c	;volatile
  2114   002970  0012               	return		;funcret
  2115   002972                     __end_of_INTERRUPT_Initialize:
  2116                           	callstack 0
  2117                           
  2118 ;; *************** function _Gyroscope_Initialize *****************
  2119 ;; Defined at:
  2120 ;;		line 31 in file "setting_hardaware/gyroscope.c"
  2121 ;; Parameters:    Size  Location     Type
  2122 ;;		None
  2123 ;; Auto vars:     Size  Location     Type
  2124 ;;		None
  2125 ;; Return value:  Size  Location     Type
  2126 ;;                  1    wreg      void 
  2127 ;; Registers used:
  2128 ;;		wreg, status,2, status,0, tblptrl, tblptrh, tblptru, prodl, prodh, cstack
  2129 ;; Tracked objects:
  2130 ;;		On entry : 0/0
  2131 ;;		On exit  : 0/0
  2132 ;;		Unchanged: 0/0
  2133 ;; Data sizes:     COMRAM   BANK0   BANK1   BANK2   BANK3   BANK4   BANK5
  2134 ;;      Params:         0       0       0       0       0       0       0
  2135 ;;      Locals:         0       0       0       0       0       0       0
  2136 ;;      Temps:          1       0       0       0       0       0       0
  2137 ;;      Totals:         1       0       0       0       0       0       0
  2138 ;;Total ram usage:        1 bytes
  2139 ;; Hardware stack levels used: 1
  2140 ;; Hardware stack levels required when called: 7
  2141 ;; This function calls:
  2142 ;;		_Calibration
  2143 ;;		_I2C_Init
  2144 ;;		_I2C_Start
  2145 ;;		_I2C_Stop
  2146 ;;		_I2C_Write
  2147 ;; This function is called by:
  2148 ;;		_SYSTEM_Initialize
  2149 ;; This function uses a non-reentrant model
  2150 ;;
  2151                           
  2152                           	psect	text5
  2153   00286A                     __ptext5:
  2154                           	callstack 0
  2155   00286A                     _Gyroscope_Initialize:
  2156                           	callstack 22
  2157   00286A                     
  2158                           ;setting_hardaware/gyroscope.c: 32:     OSCCON = 0x60;
  2159   00286A  0E60               	movlw	96
  2160   00286C  6ED3               	movwf	211,c	;volatile
  2161   00286E                     
  2162                           ;setting_hardaware/gyroscope.c: 34:     I2C_Init();
  2163   00286E  ECE3  F014         	call	_I2C_Init	;wreg free
  2164   002872                     
  2165                           ;setting_hardaware/gyroscope.c: 35:     _delay((unsigned long)((100)*(4000000/4000.0)));
  2166   002872  0E82               	movlw	130
  2167   002874  6E74               	movwf	??_Gyroscope_Initialize^0,c
  2168   002876  0EDE               	movlw	222
  2169   002878                     u5357:
  2170   002878  2EE8               	decfsz	wreg,f,c
  2171   00287A  D7FE               	bra	u5357
  2172   00287C  2E74               	decfsz	??_Gyroscope_Initialize^0,f,c
  2173   00287E  D7FC               	bra	u5357
  2174   002880                     
  2175                           ;setting_hardaware/gyroscope.c: 38:     I2C_Start();
  2176   002880  ECDA  F014         	call	_I2C_Start	;wreg free
  2177   002884                     
  2178                           ;setting_hardaware/gyroscope.c: 39:     I2C_Write(0x68 << 1);
  2179   002884  0ED0               	movlw	208
  2180   002886  EC99  F014         	call	_I2C_Write
  2181   00288A                     
  2182                           ;setting_hardaware/gyroscope.c: 40:     I2C_Write(0x6B);
  2183   00288A  0E6B               	movlw	107
  2184   00288C  EC99  F014         	call	_I2C_Write
  2185   002890                     
  2186                           ;setting_hardaware/gyroscope.c: 41:     I2C_Write(0x00);
  2187   002890  0E00               	movlw	0
  2188   002892  EC99  F014         	call	_I2C_Write
  2189                           
  2190                           ;setting_hardaware/gyroscope.c: 42:     I2C_Stop();
  2191   002896  ECD1  F014         	call	_I2C_Stop	;wreg free
  2192   00289A                     
  2193                           ;setting_hardaware/gyroscope.c: 44:     Calibration();
  2194   00289A  EC06  F013         	call	_Calibration	;wreg free
  2195   00289E  0012               	return		;funcret
  2196   0028A0                     __end_of_Gyroscope_Initialize:
  2197                           	callstack 0
  2198                           
  2199 ;; *************** function _I2C_Init *****************
  2200 ;; Defined at:
  2201 ;;		line 104 in file "setting_hardaware/gyroscope.c"
  2202 ;; Parameters:    Size  Location     Type
  2203 ;;		None
  2204 ;; Auto vars:     Size  Location     Type
  2205 ;;		None
  2206 ;; Return value:  Size  Location     Type
  2207 ;;                  1    wreg      void 
  2208 ;; Registers used:
  2209 ;;		wreg, status,2
  2210 ;; Tracked objects:
  2211 ;;		On entry : 0/0
  2212 ;;		On exit  : 0/0
  2213 ;;		Unchanged: 0/0
  2214 ;; Data sizes:     COMRAM   BANK0   BANK1   BANK2   BANK3   BANK4   BANK5
  2215 ;;      Params:         0       0       0       0       0       0       0
  2216 ;;      Locals:         0       0       0       0       0       0       0
  2217 ;;      Temps:          0       0       0       0       0       0       0
  2218 ;;      Totals:         0       0       0       0       0       0       0
  2219 ;;Total ram usage:        0 bytes
  2220 ;; Hardware stack levels used: 1
  2221 ;; Hardware stack levels required when called: 1
  2222 ;; This function calls:
  2223 ;;		Nothing
  2224 ;; This function is called by:
  2225 ;;		_Gyroscope_Initialize
  2226 ;; This function uses a non-reentrant model
  2227 ;;
  2228                           
  2229                           	psect	text6
  2230   0029C6                     __ptext6:
  2231                           	callstack 0
  2232   0029C6                     _I2C_Init:
  2233                           	callstack 27
  2234   0029C6                     
  2235                           ;setting_hardaware/gyroscope.c: 105:     SSPCON1 = 0x28;
  2236   0029C6  0E28               	movlw	40
  2237   0029C8  6EC6               	movwf	198,c	;volatile
  2238   0029CA                     
  2239                           ;setting_hardaware/gyroscope.c: 106:     SSPCON2 = 0x00;
  2240   0029CA  6AC5               	clrf	197,c	;volatile
  2241                           
  2242                           ;setting_hardaware/gyroscope.c: 108:     SSPADD = 9;
  2243   0029CC  0E09               	movlw	9
  2244   0029CE  6EC8               	movwf	200,c	;volatile
  2245   0029D0                     
  2246                           ;setting_hardaware/gyroscope.c: 109:     SSPSTAT = 0x00;
  2247   0029D0  6AC7               	clrf	199,c	;volatile
  2248   0029D2  0012               	return		;funcret
  2249   0029D4                     __end_of_I2C_Init:
  2250                           	callstack 0
  2251                           
  2252 ;; *************** function _Calibration *****************
  2253 ;; Defined at:
  2254 ;;		line 144 in file "setting_hardaware/gyroscope.c"
  2255 ;; Parameters:    Size  Location     Type
  2256 ;;		None
  2257 ;; Auto vars:     Size  Location     Type
  2258 ;;  accZ            2  120[BANK0 ] short 
  2259 ;;  accX            2  118[BANK0 ] short 
  2260 ;;  accZ_low        1  125[BANK0 ] unsigned char 
  2261 ;;  accZ_high       1  124[BANK0 ] unsigned char 
  2262 ;;  accX_low        1  123[BANK0 ] unsigned char 
  2263 ;;  accX_high       1  122[BANK0 ] unsigned char 
  2264 ;; Return value:  Size  Location     Type
  2265 ;;                  1    wreg      void 
  2266 ;; Registers used:
  2267 ;;		wreg, status,2, status,0, tblptrl, tblptrh, tblptru, prodl, prodh, cstack
  2268 ;; Tracked objects:
  2269 ;;		On entry : 0/0
  2270 ;;		On exit  : 0/0
  2271 ;;		Unchanged: 0/0
  2272 ;; Data sizes:     COMRAM   BANK0   BANK1   BANK2   BANK3   BANK4   BANK5
  2273 ;;      Params:         0       0       0       0       0       0       0
  2274 ;;      Locals:         0       8       0       0       0       0       0
  2275 ;;      Temps:          2       0       0       0       0       0       0
  2276 ;;      Totals:         2       8       0       0       0       0       0
  2277 ;;Total ram usage:       10 bytes
  2278 ;; Hardware stack levels used: 1
  2279 ;; Hardware stack levels required when called: 6
  2280 ;; This function calls:
  2281 ;;		_I2C_Read
  2282 ;;		_I2C_Start
  2283 ;;		_I2C_Stop
  2284 ;;		_I2C_Write
  2285 ;;		_calculate_angle
  2286 ;; This function is called by:
  2287 ;;		_Gyroscope_Initialize
  2288 ;; This function uses a non-reentrant model
  2289 ;;
  2290                           
  2291                           	psect	text7
  2292   00260C                     __ptext7:
  2293                           	callstack 0
  2294   00260C                     _Calibration:
  2295                           	callstack 22
  2296   00260C                     
  2297                           ;setting_hardaware/gyroscope.c: 145:     int16_t accX, accZ;;setting_hardaware/gyroscope
      +                          .c: 146:     uint8_t accX_high, accX_low, accZ_high, accZ_low;;setting_hardaware/gyrosco
      +                          pe.c: 147:     I2C_Start();
  2298   00260C  ECDA  F014         	call	_I2C_Start	;wreg free
  2299   002610                     
  2300                           ;setting_hardaware/gyroscope.c: 148:     I2C_Write(0x68 << 1);
  2301   002610  0ED0               	movlw	208
  2302   002612  EC99  F014         	call	_I2C_Write
  2303   002616                     
  2304                           ;setting_hardaware/gyroscope.c: 149:     I2C_Write(0x3B);
  2305   002616  0E3B               	movlw	59
  2306   002618  EC99  F014         	call	_I2C_Write
  2307                           
  2308                           ;setting_hardaware/gyroscope.c: 150:     I2C_Start();
  2309   00261C  ECDA  F014         	call	_I2C_Start	;wreg free
  2310   002620                     
  2311                           ;setting_hardaware/gyroscope.c: 151:     I2C_Write((0x68 << 1) | 1);
  2312   002620  0ED1               	movlw	209
  2313   002622  EC99  F014         	call	_I2C_Write
  2314   002626                     
  2315                           ;setting_hardaware/gyroscope.c: 152:     accX_high = I2C_Read(1);
  2316   002626  0E01               	movlw	1
  2317   002628  ECFA  F013         	call	_I2C_Read
  2318   00262C  0100               	movlb	0	; () banked
  2319   00262E  6FFA               	movwf	Calibration@accX_high& (0+255),b
  2320   002630                     
  2321                           ; BSR set to: 0
  2322                           ;setting_hardaware/gyroscope.c: 153:     accX_low = I2C_Read(1);
  2323   002630  0E01               	movlw	1
  2324   002632  ECFA  F013         	call	_I2C_Read
  2325   002636  0100               	movlb	0	; () banked
  2326   002638  6FFB               	movwf	Calibration@accX_low& (0+255),b
  2327   00263A                     
  2328                           ; BSR set to: 0
  2329                           ;setting_hardaware/gyroscope.c: 154:     accY_high = I2C_Read(1);
  2330   00263A  0E01               	movlw	1
  2331   00263C  ECFA  F013         	call	_I2C_Read
  2332   002640  6E78               	movwf	_accY_high^0,c
  2333   002642                     
  2334                           ;setting_hardaware/gyroscope.c: 155:     accY_low = I2C_Read(1);
  2335   002642  0E01               	movlw	1
  2336   002644  ECFA  F013         	call	_I2C_Read
  2337   002648  6E77               	movwf	_accY_low^0,c
  2338   00264A                     
  2339                           ;setting_hardaware/gyroscope.c: 156:     accZ_high = I2C_Read(1);
  2340   00264A  0E01               	movlw	1
  2341   00264C  ECFA  F013         	call	_I2C_Read
  2342   002650  0100               	movlb	0	; () banked
  2343   002652  6FFC               	movwf	Calibration@accZ_high& (0+255),b
  2344   002654                     
  2345                           ; BSR set to: 0
  2346                           ;setting_hardaware/gyroscope.c: 157:     accZ_low = I2C_Read(0);
  2347   002654  0E00               	movlw	0
  2348   002656  ECFA  F013         	call	_I2C_Read
  2349   00265A  0100               	movlb	0	; () banked
  2350   00265C  6FFD               	movwf	Calibration@accZ_low& (0+255),b
  2351   00265E                     
  2352                           ; BSR set to: 0
  2353                           ;setting_hardaware/gyroscope.c: 158:     I2C_Stop();
  2354   00265E  ECD1  F014         	call	_I2C_Stop	;wreg free
  2355   002662                     
  2356                           ;setting_hardaware/gyroscope.c: 160:     accX = (accX_high << 8) | accX_low;
  2357   002662  0100               	movlb	0	; () banked
  2358   002664  51FB               	movf	Calibration@accX_low& (0+255),w,b
  2359   002666  C0FA  F072         	movff	Calibration@accX_high,??_Calibration
  2360   00266A  6A73               	clrf	(??_Calibration+1)^0,c
  2361   00266C  C072  F073         	movff	??_Calibration,??_Calibration+1
  2362   002670  6A72               	clrf	??_Calibration^0,c
  2363   002672  1072               	iorwf	??_Calibration^0,w,c
  2364   002674  6FF6               	movwf	Calibration@accX& (0+255),b
  2365   002676  5073               	movf	(??_Calibration+1)^0,w,c
  2366   002678  6FF7               	movwf	(Calibration@accX+1)& (0+255),b
  2367   00267A                     
  2368                           ; BSR set to: 0
  2369                           ;setting_hardaware/gyroscope.c: 161:     accY = (accY_high << 8) | accY_low;
  2370   00267A  5077               	movf	_accY_low^0,w,c
  2371   00267C  C078  F072         	movff	_accY_high,??_Calibration
  2372   002680  6A73               	clrf	(??_Calibration+1)^0,c
  2373   002682  C072  F073         	movff	??_Calibration,??_Calibration+1
  2374   002686  6A72               	clrf	??_Calibration^0,c
  2375   002688  1072               	iorwf	??_Calibration^0,w,c
  2376   00268A  0101               	movlb	1	; () banked
  2377   00268C  6F2A               	movwf	_accY& (0+255),b
  2378   00268E  5073               	movf	(??_Calibration+1)^0,w,c
  2379   002690  6F2B               	movwf	(_accY+1)& (0+255),b
  2380   002692                     
  2381                           ; BSR set to: 1
  2382                           ;setting_hardaware/gyroscope.c: 162:     accZ = (accZ_high << 8) | accZ_low;
  2383   002692  0100               	movlb	0	; () banked
  2384   002694  51FD               	movf	Calibration@accZ_low& (0+255),w,b
  2385   002696  C0FC  F072         	movff	Calibration@accZ_high,??_Calibration
  2386   00269A  6A73               	clrf	(??_Calibration+1)^0,c
  2387   00269C  C072  F073         	movff	??_Calibration,??_Calibration+1
  2388   0026A0  6A72               	clrf	??_Calibration^0,c
  2389   0026A2  1072               	iorwf	??_Calibration^0,w,c
  2390   0026A4  6FF8               	movwf	Calibration@accZ& (0+255),b
  2391   0026A6  5073               	movf	(??_Calibration+1)^0,w,c
  2392   0026A8  6FF9               	movwf	(Calibration@accZ+1)& (0+255),b
  2393   0026AA                     
  2394                           ; BSR set to: 0
  2395                           ;setting_hardaware/gyroscope.c: 163:     pitch_offset = calculate_angle(accX, accY, accZ
      +                          );
  2396   0026AA  C0F6  F0E8         	movff	Calibration@accX,calculate_angle@accX
  2397   0026AE  C0F7  F0E9         	movff	Calibration@accX+1,calculate_angle@accX+1
  2398   0026B2  C12A  F0EA         	movff	_accY,calculate_angle@accY
  2399   0026B6  C12B  F0EB         	movff	_accY+1,calculate_angle@accY+1
  2400   0026BA  C0F8  F0EC         	movff	Calibration@accZ,calculate_angle@accZ
  2401   0026BE  C0F9  F0ED         	movff	Calibration@accZ+1,calculate_angle@accZ+1
  2402   0026C2  EC3A  F011         	call	_calculate_angle	;wreg free
  2403   0026C6  C0E8  F120         	movff	?_calculate_angle,_pitch_offset
  2404   0026CA  C0E9  F121         	movff	?_calculate_angle+1,_pitch_offset+1
  2405   0026CE  C0EA  F122         	movff	?_calculate_angle+2,_pitch_offset+2
  2406   0026D2  C0EB  F123         	movff	?_calculate_angle+3,_pitch_offset+3
  2407   0026D6  0012               	return		;funcret
  2408   0026D8                     __end_of_Calibration:
  2409                           	callstack 0
  2410                           
  2411 ;; *************** function _ADC_Initialize *****************
  2412 ;; Defined at:
  2413 ;;		line 8 in file "setting_hardaware/adc.c"
  2414 ;; Parameters:    Size  Location     Type
  2415 ;;		None
  2416 ;; Auto vars:     Size  Location     Type
  2417 ;;		None
  2418 ;; Return value:  Size  Location     Type
  2419 ;;                  1    wreg      void 
  2420 ;; Registers used:
  2421 ;;		wreg, status,2
  2422 ;; Tracked objects:
  2423 ;;		On entry : 0/0
  2424 ;;		On exit  : 0/0
  2425 ;;		Unchanged: 0/0
  2426 ;; Data sizes:     COMRAM   BANK0   BANK1   BANK2   BANK3   BANK4   BANK5
  2427 ;;      Params:         0       0       0       0       0       0       0
  2428 ;;      Locals:         0       0       0       0       0       0       0
  2429 ;;      Temps:          0       0       0       0       0       0       0
  2430 ;;      Totals:         0       0       0       0       0       0       0
  2431 ;;Total ram usage:        0 bytes
  2432 ;; Hardware stack levels used: 1
  2433 ;; Hardware stack levels required when called: 1
  2434 ;; This function calls:
  2435 ;;		Nothing
  2436 ;; This function is called by:
  2437 ;;		_SYSTEM_Initialize
  2438 ;; This function uses a non-reentrant model
  2439 ;;
  2440                           
  2441                           	psect	text8
  2442   002972                     __ptext8:
  2443                           	callstack 0
  2444   002972                     _ADC_Initialize:
  2445                           	callstack 28
  2446   002972                     
  2447                           ;setting_hardaware/adc.c: 10:     TRISAbits.RA0 = 1;
  2448   002972  8092               	bsf	146,0,c	;volatile
  2449   002974                     
  2450                           ;setting_hardaware/adc.c: 12:     ADCON1 = 0x0e;
  2451   002974  0E0E               	movlw	14
  2452   002976  6EC1               	movwf	193,c	;volatile
  2453   002978                     
  2454                           ;setting_hardaware/adc.c: 14:     ADFM = 1 ;
  2455   002978  8EC0               	bsf	4032,7,c	;volatile
  2456                           
  2457                           ;setting_hardaware/adc.c: 15:     ADCON2bits.ADCS = 7;
  2458   00297A  0E07               	movlw	7
  2459   00297C  12C0               	iorwf	192,f,c	;volatile
  2460                           
  2461                           ;setting_hardaware/adc.c: 16:     ADCON2bits.ACQT = 0b001;
  2462   00297E  50C0               	movf	192,w,c	;volatile
  2463   002980  0BC7               	andlw	-57
  2464   002982  0908               	iorlw	8
  2465   002984  6EC0               	movwf	192,c	;volatile
  2466   002986                     
  2467                           ;setting_hardaware/adc.c: 18:     ADRESH=0;
  2468   002986  6AC4               	clrf	196,c	;volatile
  2469   002988                     
  2470                           ;setting_hardaware/adc.c: 19:     ADRESL=0;
  2471   002988  6AC3               	clrf	195,c	;volatile
  2472   00298A  0012               	return		;funcret
  2473   00298C                     __end_of_ADC_Initialize:
  2474                           	callstack 0
  2475                           
  2476 ;; *************** function _Check_Gyroscope *****************
  2477 ;; Defined at:
  2478 ;;		line 47 in file "setting_hardaware/gyroscope.c"
  2479 ;; Parameters:    Size  Location     Type
  2480 ;;  blinker_dir     2  118[BANK0 ] int 
  2481 ;; Auto vars:     Size  Location     Type
  2482 ;;		None
  2483 ;; Return value:  Size  Location     Type
  2484 ;;                  1    wreg      void 
  2485 ;; Registers used:
  2486 ;;		wreg, status,2, status,0, tblptrl, tblptrh, tblptru, prodl, prodh, cstack
  2487 ;; Tracked objects:
  2488 ;;		On entry : 0/0
  2489 ;;		On exit  : 0/0
  2490 ;;		Unchanged: 0/0
  2491 ;; Data sizes:     COMRAM   BANK0   BANK1   BANK2   BANK3   BANK4   BANK5
  2492 ;;      Params:         0       2       0       0       0       0       0
  2493 ;;      Locals:         0       4       0       0       0       0       0
  2494 ;;      Temps:          2       0       0       0       0       0       0
  2495 ;;      Totals:         2       6       0       0       0       0       0
  2496 ;;Total ram usage:        8 bytes
  2497 ;; Hardware stack levels used: 1
  2498 ;; Hardware stack levels required when called: 6
  2499 ;; This function calls:
  2500 ;;		_I2C_Read
  2501 ;;		_I2C_Start
  2502 ;;		_I2C_Stop
  2503 ;;		_I2C_Write
  2504 ;;		___flge
  2505 ;;		___flsub
  2506 ;;		_calculate_angle
  2507 ;; This function is called by:
  2508 ;;		_main
  2509 ;; This function uses a non-reentrant model
  2510 ;;
  2511                           
  2512                           	psect	text9
  2513   001E58                     __ptext9:
  2514                           	callstack 0
  2515   001E58                     _Check_Gyroscope:
  2516                           	callstack 24
  2517   001E58                     
  2518                           ;setting_hardaware/gyroscope.c: 48:     I2C_Start();
  2519   001E58  ECDA  F014         	call	_I2C_Start	;wreg free
  2520   001E5C                     
  2521                           ;setting_hardaware/gyroscope.c: 49:     I2C_Write(0x68 << 1);
  2522   001E5C  0ED0               	movlw	208
  2523   001E5E  EC99  F014         	call	_I2C_Write
  2524   001E62                     
  2525                           ;setting_hardaware/gyroscope.c: 50:     I2C_Write(0x3B);
  2526   001E62  0E3B               	movlw	59
  2527   001E64  EC99  F014         	call	_I2C_Write
  2528                           
  2529                           ;setting_hardaware/gyroscope.c: 51:     I2C_Start();
  2530   001E68  ECDA  F014         	call	_I2C_Start	;wreg free
  2531   001E6C                     
  2532                           ;setting_hardaware/gyroscope.c: 52:     I2C_Write((0x68 << 1) | 1);
  2533   001E6C  0ED1               	movlw	209
  2534   001E6E  EC99  F014         	call	_I2C_Write
  2535   001E72                     
  2536                           ;setting_hardaware/gyroscope.c: 54:     accX_high = I2C_Read(1);
  2537   001E72  0E01               	movlw	1
  2538   001E74  ECFA  F013         	call	_I2C_Read
  2539   001E78  6E79               	movwf	_accX_high^0,c
  2540   001E7A                     
  2541                           ;setting_hardaware/gyroscope.c: 55:     accX_low = I2C_Read(1);
  2542   001E7A  0E01               	movlw	1
  2543   001E7C  ECFA  F013         	call	_I2C_Read
  2544   001E80  0101               	movlb	1	; () banked
  2545   001E82  6F38               	movwf	_accX_low& (0+255),b
  2546   001E84                     
  2547                           ; BSR set to: 1
  2548                           ;setting_hardaware/gyroscope.c: 56:     accY_high = I2C_Read(1);
  2549   001E84  0E01               	movlw	1
  2550   001E86  ECFA  F013         	call	_I2C_Read
  2551   001E8A  6E78               	movwf	_accY_high^0,c
  2552   001E8C                     
  2553                           ;setting_hardaware/gyroscope.c: 57:     accY_low = I2C_Read(1);
  2554   001E8C  0E01               	movlw	1
  2555   001E8E  ECFA  F013         	call	_I2C_Read
  2556   001E92  6E77               	movwf	_accY_low^0,c
  2557   001E94                     
  2558                           ;setting_hardaware/gyroscope.c: 58:     accZ_high = I2C_Read(1);
  2559   001E94  0E01               	movlw	1
  2560   001E96  ECFA  F013         	call	_I2C_Read
  2561   001E9A  0101               	movlb	1	; () banked
  2562   001E9C  6F37               	movwf	_accZ_high& (0+255),b
  2563   001E9E                     
  2564                           ; BSR set to: 1
  2565                           ;setting_hardaware/gyroscope.c: 59:     accZ_low = I2C_Read(0);
  2566   001E9E  0E00               	movlw	0
  2567   001EA0  ECFA  F013         	call	_I2C_Read
  2568   001EA4  0101               	movlb	1	; () banked
  2569   001EA6  6F36               	movwf	_accZ_low& (0+255),b
  2570   001EA8                     
  2571                           ; BSR set to: 1
  2572                           ;setting_hardaware/gyroscope.c: 60:     I2C_Stop();
  2573   001EA8  ECD1  F014         	call	_I2C_Stop	;wreg free
  2574   001EAC                     
  2575                           ;setting_hardaware/gyroscope.c: 63:     accX = (accX_high << 8) | accX_low;
  2576   001EAC  0101               	movlb	1	; () banked
  2577   001EAE  5138               	movf	_accX_low& (0+255),w,b
  2578   001EB0  C079  F072         	movff	_accX_high,??_Check_Gyroscope
  2579   001EB4  6A73               	clrf	(??_Check_Gyroscope+1)^0,c
  2580   001EB6  C072  F073         	movff	??_Check_Gyroscope,??_Check_Gyroscope+1
  2581   001EBA  6A72               	clrf	??_Check_Gyroscope^0,c
  2582   001EBC  1072               	iorwf	??_Check_Gyroscope^0,w,c
  2583   001EBE  6F2C               	movwf	_accX& (0+255),b
  2584   001EC0  5073               	movf	(??_Check_Gyroscope+1)^0,w,c
  2585   001EC2  6F2D               	movwf	(_accX+1)& (0+255),b
  2586   001EC4                     
  2587                           ; BSR set to: 1
  2588                           ;setting_hardaware/gyroscope.c: 64:     accY = (accY_high << 8) | accY_low;
  2589   001EC4  5077               	movf	_accY_low^0,w,c
  2590   001EC6  C078  F072         	movff	_accY_high,??_Check_Gyroscope
  2591   001ECA  6A73               	clrf	(??_Check_Gyroscope+1)^0,c
  2592   001ECC  C072  F073         	movff	??_Check_Gyroscope,??_Check_Gyroscope+1
  2593   001ED0  6A72               	clrf	??_Check_Gyroscope^0,c
  2594   001ED2  1072               	iorwf	??_Check_Gyroscope^0,w,c
  2595   001ED4  6F2A               	movwf	_accY& (0+255),b
  2596   001ED6  5073               	movf	(??_Check_Gyroscope+1)^0,w,c
  2597   001ED8  6F2B               	movwf	(_accY+1)& (0+255),b
  2598   001EDA                     
  2599                           ; BSR set to: 1
  2600                           ;setting_hardaware/gyroscope.c: 65:     accZ = (accZ_high << 8) | accZ_low;
  2601   001EDA  5136               	movf	_accZ_low& (0+255),w,b
  2602   001EDC  C137  F072         	movff	_accZ_high,??_Check_Gyroscope
  2603   001EE0  6A73               	clrf	(??_Check_Gyroscope+1)^0,c
  2604   001EE2  C072  F073         	movff	??_Check_Gyroscope,??_Check_Gyroscope+1
  2605   001EE6  6A72               	clrf	??_Check_Gyroscope^0,c
  2606   001EE8  1072               	iorwf	??_Check_Gyroscope^0,w,c
  2607   001EEA  6F28               	movwf	_accZ& (0+255),b
  2608   001EEC  5073               	movf	(??_Check_Gyroscope+1)^0,w,c
  2609   001EEE  6F29               	movwf	(_accZ+1)& (0+255),b
  2610   001EF0                     
  2611                           ; BSR set to: 1
  2612                           ;setting_hardaware/gyroscope.c: 68:     angle = calculate_angle(accX, accY, accZ) - pitc
      +                          h_offset;
  2613   001EF0  C128  F0EC         	movff	_accZ,calculate_angle@accZ
  2614   001EF4  C129  F0ED         	movff	_accZ+1,calculate_angle@accZ+1
  2615   001EF8  C12A  F0EA         	movff	_accY,calculate_angle@accY
  2616   001EFC  C12B  F0EB         	movff	_accY+1,calculate_angle@accY+1
  2617   001F00  C12C  F0E8         	movff	_accX,calculate_angle@accX
  2618   001F04  C12D  F0E9         	movff	_accX+1,calculate_angle@accX+1
  2619   001F08  EC3A  F011         	call	_calculate_angle	;wreg free
  2620   001F0C  C0E8  F0F8         	movff	?_calculate_angle,_Check_Gyroscope$1900
  2621   001F10  C0E9  F0F9         	movff	?_calculate_angle+1,_Check_Gyroscope$1900+1
  2622   001F14  C0EA  F0FA         	movff	?_calculate_angle+2,_Check_Gyroscope$1900+2
  2623   001F18  C0EB  F0FB         	movff	?_calculate_angle+3,_Check_Gyroscope$1900+3
  2624   001F1C                     
  2625                           ;setting_hardaware/gyroscope.c: 68:     angle = calculate_angle(accX, accY, accZ) - pitc
      +                          h_offset;
  2626   001F1C  C0F8  F03D         	movff	_Check_Gyroscope$1900,___flsub@b
  2627   001F20  C0F9  F03E         	movff	_Check_Gyroscope$1900+1,___flsub@b+1
  2628   001F24  C0FA  F03F         	movff	_Check_Gyroscope$1900+2,___flsub@b+2
  2629   001F28  C0FB  F040         	movff	_Check_Gyroscope$1900+3,___flsub@b+3
  2630   001F2C  C120  F041         	movff	_pitch_offset,___flsub@a
  2631   001F30  C121  F042         	movff	_pitch_offset+1,___flsub@a+1
  2632   001F34  C122  F043         	movff	_pitch_offset+2,___flsub@a+2
  2633   001F38  C123  F044         	movff	_pitch_offset+3,___flsub@a+3
  2634   001F3C  ECB7  F013         	call	___flsub	;wreg free
  2635   001F40  C03D  F11C         	movff	?___flsub,_angle
  2636   001F44  C03E  F11D         	movff	?___flsub+1,_angle+1
  2637   001F48  C03F  F11E         	movff	?___flsub+2,_angle+2
  2638   001F4C  C040  F11F         	movff	?___flsub+3,_angle+3
  2639   001F50                     
  2640                           ;setting_hardaware/gyroscope.c: 71:     if (angle > 30.0) {
  2641   001F50  0E00               	movlw	0
  2642   001F52  6E06               	movwf	___flge@ff1^0,c
  2643   001F54  0E00               	movlw	0
  2644   001F56  6E07               	movwf	(___flge@ff1+1)^0,c
  2645   001F58  0EF0               	movlw	240
  2646   001F5A  6E08               	movwf	(___flge@ff1+2)^0,c
  2647   001F5C  0E41               	movlw	65
  2648   001F5E  6E09               	movwf	(___flge@ff1+3)^0,c
  2649   001F60  C11C  F00A         	movff	_angle,___flge@ff2
  2650   001F64  C11D  F00B         	movff	_angle+1,___flge@ff2+1
  2651   001F68  C11E  F00C         	movff	_angle+2,___flge@ff2+2
  2652   001F6C  C11F  F00D         	movff	_angle+3,___flge@ff2+3
  2653   001F70  EC05  F012         	call	___flge	;wreg free
  2654   001F74  B0D8               	btfsc	status,0,c
  2655   001F76  EFBF  F00F         	goto	u5241
  2656   001F7A  EFC1  F00F         	goto	u5240
  2657   001F7E                     u5241:
  2658   001F7E  EF07  F010         	goto	l4447
  2659   001F82                     u5240:
  2660   001F82                     
  2661                           ;setting_hardaware/gyroscope.c: 72:         if (dir == -1 && from_mid) {
  2662   001F82  0100               	movlb	0	; () banked
  2663   001F84  29FE               	incf	_dir& (0+255),w,b
  2664   001F86  E106               	bnz	u5251
  2665   001F88  29FF               	incf	(_dir+1)& (0+255),w,b
  2666   001F8A  A4D8               	btfss	status,2,c
  2667   001F8C  EFCA  F00F         	goto	u5251
  2668   001F90  EFCC  F00F         	goto	u5250
  2669   001F94                     u5251:
  2670   001F94  EFE0  F00F         	goto	l4435
  2671   001F98                     u5250:
  2672   001F98                     
  2673                           ; BSR set to: 0
  2674   001F98  5075               	movf	_from_mid^0,w,c
  2675   001F9A  1076               	iorwf	(_from_mid+1)^0,w,c
  2676   001F9C  B4D8               	btfsc	status,2,c
  2677   001F9E  EFD3  F00F         	goto	u5261
  2678   001FA2  EFD5  F00F         	goto	u5260
  2679   001FA6                     u5261:
  2680   001FA6  EFE0  F00F         	goto	l4435
  2681   001FAA                     u5260:
  2682   001FAA                     
  2683                           ; BSR set to: 0
  2684                           ;setting_hardaware/gyroscope.c: 73:             dir = 0;
  2685   001FAA  0E00               	movlw	0
  2686   001FAC  6FFF               	movwf	(_dir+1)& (0+255),b
  2687   001FAE  0E00               	movlw	0
  2688   001FB0  6FFE               	movwf	_dir& (0+255),b
  2689                           
  2690                           ;setting_hardaware/gyroscope.c: 74:             from_mid = 0;
  2691   001FB2  0E00               	movlw	0
  2692   001FB4  6E76               	movwf	(_from_mid+1)^0,c
  2693   001FB6  0E00               	movlw	0
  2694   001FB8  6E75               	movwf	_from_mid^0,c
  2695   001FBA                     
  2696                           ; BSR set to: 0
  2697                           ;setting_hardaware/gyroscope.c: 75:             LATAbits.LATA5 = 0;;
  2698   001FBA  9A89               	bcf	137,5,c	;volatile
  2699                           
  2700                           ;setting_hardaware/gyroscope.c: 76:         } else if (dir == 0 && from_mid) {
  2701   001FBC  EFF9  F00F         	goto	l4445
  2702   001FC0                     l4435:
  2703                           
  2704                           ; BSR set to: 0
  2705   001FC0  51FE               	movf	_dir& (0+255),w,b
  2706   001FC2  11FF               	iorwf	(_dir+1)& (0+255),w,b
  2707   001FC4  A4D8               	btfss	status,2,c
  2708   001FC6  EFE7  F00F         	goto	u5271
  2709   001FCA  EFE9  F00F         	goto	u5270
  2710   001FCE                     u5271:
  2711   001FCE  EFF9  F00F         	goto	l4445
  2712   001FD2                     u5270:
  2713   001FD2                     
  2714                           ; BSR set to: 0
  2715   001FD2  5075               	movf	_from_mid^0,w,c
  2716   001FD4  1076               	iorwf	(_from_mid+1)^0,w,c
  2717   001FD6  B4D8               	btfsc	status,2,c
  2718   001FD8  EFF0  F00F         	goto	u5281
  2719   001FDC  EFF2  F00F         	goto	u5280
  2720   001FE0                     u5281:
  2721   001FE0  EFF9  F00F         	goto	l4445
  2722   001FE4                     u5280:
  2723   001FE4                     
  2724                           ; BSR set to: 0
  2725                           ;setting_hardaware/gyroscope.c: 77:             dir = -1;
  2726   001FE4  69FE               	setf	_dir& (0+255),b
  2727   001FE6  69FF               	setf	(_dir+1)& (0+255),b
  2728   001FE8                     
  2729                           ; BSR set to: 0
  2730                           ;setting_hardaware/gyroscope.c: 78:             from_mid = 0;
  2731   001FE8  0E00               	movlw	0
  2732   001FEA  6E76               	movwf	(_from_mid+1)^0,c
  2733   001FEC  0E00               	movlw	0
  2734   001FEE  6E75               	movwf	_from_mid^0,c
  2735   001FF0                     
  2736                           ; BSR set to: 0
  2737                           ;setting_hardaware/gyroscope.c: 79:             LATAbits.LATA7 = 0;;
  2738   001FF0  9E89               	bcf	137,7,c	;volatile
  2739   001FF2                     l4445:
  2740                           
  2741                           ; BSR set to: 0
  2742                           ;setting_hardaware/gyroscope.c: 81:         _delay((unsigned long)((300)*(4000000/4000.0
      +                          )));
  2743   001FF2  0E02               	movlw	2
  2744   001FF4  6E73               	movwf	(??_Check_Gyroscope+1)^0,c
  2745   001FF6  0E86               	movlw	134
  2746   001FF8  6E72               	movwf	??_Check_Gyroscope^0,c
  2747   001FFA  0E99               	movlw	153
  2748   001FFC                     u5367:
  2749   001FFC  2EE8               	decfsz	wreg,f,c
  2750   001FFE  D7FE               	bra	u5367
  2751   002000  2E72               	decfsz	??_Check_Gyroscope^0,f,c
  2752   002002  D7FC               	bra	u5367
  2753   002004  2E73               	decfsz	(??_Check_Gyroscope+1)^0,f,c
  2754   002006  D7FA               	bra	u5367
  2755   002008  0000               	nop	
  2756                           
  2757                           ;setting_hardaware/gyroscope.c: 82:     } else if (angle < -30.0) {
  2758   00200A  EF5F  F010         	goto	l272
  2759   00200E                     l4447:
  2760   00200E  C11C  F006         	movff	_angle,___flge@ff1
  2761   002012  C11D  F007         	movff	_angle+1,___flge@ff1+1
  2762   002016  C11E  F008         	movff	_angle+2,___flge@ff1+2
  2763   00201A  C11F  F009         	movff	_angle+3,___flge@ff1+3
  2764   00201E  0E00               	movlw	0
  2765   002020  6E0A               	movwf	___flge@ff2^0,c
  2766   002022  0E00               	movlw	0
  2767   002024  6E0B               	movwf	(___flge@ff2+1)^0,c
  2768   002026  0EF0               	movlw	240
  2769   002028  6E0C               	movwf	(___flge@ff2+2)^0,c
  2770   00202A  0EC1               	movlw	193
  2771   00202C  6E0D               	movwf	(___flge@ff2+3)^0,c
  2772   00202E  EC05  F012         	call	___flge	;wreg free
  2773   002032  B0D8               	btfsc	status,0,c
  2774   002034  EF1E  F010         	goto	u5291
  2775   002038  EF20  F010         	goto	u5290
  2776   00203C                     u5291:
  2777   00203C  EF5B  F010         	goto	l4467
  2778   002040                     u5290:
  2779   002040                     
  2780                           ;setting_hardaware/gyroscope.c: 83:         if (dir == 1 && from_mid) {
  2781   002040  0100               	movlb	0	; () banked
  2782   002042  05FE               	decf	_dir& (0+255),w,b
  2783   002044  11FF               	iorwf	(_dir+1)& (0+255),w,b
  2784   002046  A4D8               	btfss	status,2,c
  2785   002048  EF28  F010         	goto	u5301
  2786   00204C  EF2A  F010         	goto	u5300
  2787   002050                     u5301:
  2788   002050  EF3E  F010         	goto	l4457
  2789   002054                     u5300:
  2790   002054                     
  2791                           ; BSR set to: 0
  2792   002054  5075               	movf	_from_mid^0,w,c
  2793   002056  1076               	iorwf	(_from_mid+1)^0,w,c
  2794   002058  B4D8               	btfsc	status,2,c
  2795   00205A  EF31  F010         	goto	u5311
  2796   00205E  EF33  F010         	goto	u5310
  2797   002062                     u5311:
  2798   002062  EF3E  F010         	goto	l4457
  2799   002066                     u5310:
  2800   002066                     
  2801                           ; BSR set to: 0
  2802                           ;setting_hardaware/gyroscope.c: 84:             dir = 0;
  2803   002066  0E00               	movlw	0
  2804   002068  6FFF               	movwf	(_dir+1)& (0+255),b
  2805   00206A  0E00               	movlw	0
  2806   00206C  6FFE               	movwf	_dir& (0+255),b
  2807                           
  2808                           ;setting_hardaware/gyroscope.c: 85:             from_mid = 0;
  2809   00206E  0E00               	movlw	0
  2810   002070  6E76               	movwf	(_from_mid+1)^0,c
  2811   002072  0E00               	movlw	0
  2812   002074  6E75               	movwf	_from_mid^0,c
  2813   002076                     
  2814                           ; BSR set to: 0
  2815                           ;setting_hardaware/gyroscope.c: 86:             LATAbits.LATA7 = 0;;
  2816   002076  9E89               	bcf	137,7,c	;volatile
  2817                           
  2818                           ;setting_hardaware/gyroscope.c: 87:         } else if (dir == 0 && from_mid) {
  2819   002078  EFF9  F00F         	goto	l4445
  2820   00207C                     l4457:
  2821                           
  2822                           ; BSR set to: 0
  2823   00207C  51FE               	movf	_dir& (0+255),w,b
  2824   00207E  11FF               	iorwf	(_dir+1)& (0+255),w,b
  2825   002080  A4D8               	btfss	status,2,c
  2826   002082  EF45  F010         	goto	u5321
  2827   002086  EF47  F010         	goto	u5320
  2828   00208A                     u5321:
  2829   00208A  EFF9  F00F         	goto	l4445
  2830   00208E                     u5320:
  2831   00208E                     
  2832                           ; BSR set to: 0
  2833   00208E  5075               	movf	_from_mid^0,w,c
  2834   002090  1076               	iorwf	(_from_mid+1)^0,w,c
  2835   002092  B4D8               	btfsc	status,2,c
  2836   002094  EF4E  F010         	goto	u5331
  2837   002098  EF50  F010         	goto	u5330
  2838   00209C                     u5331:
  2839   00209C  EFF9  F00F         	goto	l4445
  2840   0020A0                     u5330:
  2841   0020A0                     
  2842                           ; BSR set to: 0
  2843                           ;setting_hardaware/gyroscope.c: 88:             dir = 1;
  2844   0020A0  0E00               	movlw	0
  2845   0020A2  6FFF               	movwf	(_dir+1)& (0+255),b
  2846   0020A4  0E01               	movlw	1
  2847   0020A6  6FFE               	movwf	_dir& (0+255),b
  2848                           
  2849                           ;setting_hardaware/gyroscope.c: 89:             from_mid = 0;
  2850   0020A8  0E00               	movlw	0
  2851   0020AA  6E76               	movwf	(_from_mid+1)^0,c
  2852   0020AC  0E00               	movlw	0
  2853   0020AE  6E75               	movwf	_from_mid^0,c
  2854   0020B0                     
  2855                           ; BSR set to: 0
  2856                           ;setting_hardaware/gyroscope.c: 90:             LATAbits.LATA5 = 0;;
  2857   0020B0  9A89               	bcf	137,5,c	;volatile
  2858   0020B2  EFF9  F00F         	goto	l4445
  2859   0020B6                     l4467:
  2860                           
  2861                           ;setting_hardaware/gyroscope.c: 94:         from_mid = 1;
  2862   0020B6  0E00               	movlw	0
  2863   0020B8  6E76               	movwf	(_from_mid+1)^0,c
  2864   0020BA  0E01               	movlw	1
  2865   0020BC  6E75               	movwf	_from_mid^0,c
  2866   0020BE                     l272:
  2867   0020BE  0012               	return		;funcret
  2868   0020C0                     __end_of_Check_Gyroscope:
  2869                           	callstack 0
  2870                           
  2871 ;; *************** function _calculate_angle *****************
  2872 ;; Defined at:
  2873 ;;		line 99 in file "setting_hardaware/gyroscope.c"
  2874 ;; Parameters:    Size  Location     Type
  2875 ;;  accX            2  104[BANK0 ] short 
  2876 ;;  accY            2  106[BANK0 ] short 
  2877 ;;  accZ            2  108[BANK0 ] short 
  2878 ;; Auto vars:     Size  Location     Type
  2879 ;;		None
  2880 ;; Return value:  Size  Location     Type
  2881 ;;                  4  104[BANK0 ] float 
  2882 ;; Registers used:
  2883 ;;		wreg, status,2, status,0, tblptrl, tblptrh, tblptru, prodl, prodh, cstack
  2884 ;; Tracked objects:
  2885 ;;		On entry : 0/0
  2886 ;;		On exit  : 0/0
  2887 ;;		Unchanged: 0/0
  2888 ;; Data sizes:     COMRAM   BANK0   BANK1   BANK2   BANK3   BANK4   BANK5
  2889 ;;      Params:         0       6       0       0       0       0       0
  2890 ;;      Locals:         0       8       0       0       0       0       0
  2891 ;;      Temps:          0       0       0       0       0       0       0
  2892 ;;      Totals:         0      14       0       0       0       0       0
  2893 ;;Total ram usage:       14 bytes
  2894 ;; Hardware stack levels used: 1
  2895 ;; Hardware stack levels required when called: 5
  2896 ;; This function calls:
  2897 ;;		___fladd
  2898 ;;		___fldiv
  2899 ;;		___flmul
  2900 ;;		___xxtofl
  2901 ;;		_atan2f
  2902 ;;		_sqrtf
  2903 ;; This function is called by:
  2904 ;;		_Check_Gyroscope
  2905 ;;		_Calibration
  2906 ;; This function uses a non-reentrant model
  2907 ;;
  2908                           
  2909                           	psect	text10
  2910   002274                     __ptext10:
  2911                           	callstack 0
  2912   002274                     _calculate_angle:
  2913                           	callstack 22
  2914   002274                     
  2915                           ;setting_hardaware/gyroscope.c: 100:     return atan2f((float)accX,sqrtf((float)accY * a
      +                          ccY + (float)accZ * accZ)) * 180.0 / 3.14159265358979323846;
  2916   002274  C0EC  F006         	movff	calculate_angle@accZ,___xxtofl@val
  2917   002278  C0ED  F007         	movff	calculate_angle@accZ+1,___xxtofl@val+1
  2918   00227C  0E00               	movlw	0
  2919   00227E  BE07               	btfsc	(___xxtofl@val+1)^0,7,c
  2920   002280  0EFF               	movlw	-1
  2921   002282  6E08               	movwf	(___xxtofl@val+2)^0,c
  2922   002284  6E09               	movwf	(___xxtofl@val+3)^0,c
  2923   002286  0E01               	movlw	1
  2924   002288  EC60  F010         	call	___xxtofl
  2925   00228C  C006  F018         	movff	?___xxtofl,___flmul@a
  2926   002290  C007  F019         	movff	?___xxtofl+1,___flmul@a+1
  2927   002294  C008  F01A         	movff	?___xxtofl+2,___flmul@a+2
  2928   002298  C009  F01B         	movff	?___xxtofl+3,___flmul@a+3
  2929   00229C  C0EC  F006         	movff	calculate_angle@accZ,___xxtofl@val
  2930   0022A0  C0ED  F007         	movff	calculate_angle@accZ+1,___xxtofl@val+1
  2931   0022A4  0E00               	movlw	0
  2932   0022A6  BE07               	btfsc	(___xxtofl@val+1)^0,7,c
  2933   0022A8  0EFF               	movlw	-1
  2934   0022AA  6E08               	movwf	(___xxtofl@val+2)^0,c
  2935   0022AC  6E09               	movwf	(___xxtofl@val+3)^0,c
  2936   0022AE  0E01               	movlw	1
  2937   0022B0  EC60  F010         	call	___xxtofl
  2938   0022B4  C006  F014         	movff	?___xxtofl,___flmul@b
  2939   0022B8  C007  F015         	movff	?___xxtofl+1,___flmul@b+1
  2940   0022BC  C008  F016         	movff	?___xxtofl+2,___flmul@b+2
  2941   0022C0  C009  F017         	movff	?___xxtofl+3,___flmul@b+3
  2942   0022C4  EC61  F009         	call	___flmul	;wreg free
  2943   0022C8  C014  F031         	movff	?___flmul,___fladd@a
  2944   0022CC  C015  F032         	movff	?___flmul+1,___fladd@a+1
  2945   0022D0  C016  F033         	movff	?___flmul+2,___fladd@a+2
  2946   0022D4  C017  F034         	movff	?___flmul+3,___fladd@a+3
  2947   0022D8  C0EA  F006         	movff	calculate_angle@accY,___xxtofl@val
  2948   0022DC  C0EB  F007         	movff	calculate_angle@accY+1,___xxtofl@val+1
  2949   0022E0  0E00               	movlw	0
  2950   0022E2  BE07               	btfsc	(___xxtofl@val+1)^0,7,c
  2951   0022E4  0EFF               	movlw	-1
  2952   0022E6  6E08               	movwf	(___xxtofl@val+2)^0,c
  2953   0022E8  6E09               	movwf	(___xxtofl@val+3)^0,c
  2954   0022EA  0E01               	movlw	1
  2955   0022EC  EC60  F010         	call	___xxtofl
  2956   0022F0  C006  F018         	movff	?___xxtofl,___flmul@a
  2957   0022F4  C007  F019         	movff	?___xxtofl+1,___flmul@a+1
  2958   0022F8  C008  F01A         	movff	?___xxtofl+2,___flmul@a+2
  2959   0022FC  C009  F01B         	movff	?___xxtofl+3,___flmul@a+3
  2960   002300  C0EA  F006         	movff	calculate_angle@accY,___xxtofl@val
  2961   002304  C0EB  F007         	movff	calculate_angle@accY+1,___xxtofl@val+1
  2962   002308  0E00               	movlw	0
  2963   00230A  BE07               	btfsc	(___xxtofl@val+1)^0,7,c
  2964   00230C  0EFF               	movlw	-1
  2965   00230E  6E08               	movwf	(___xxtofl@val+2)^0,c
  2966   002310  6E09               	movwf	(___xxtofl@val+3)^0,c
  2967   002312  0E01               	movlw	1
  2968   002314  EC60  F010         	call	___xxtofl
  2969   002318  C006  F014         	movff	?___xxtofl,___flmul@b
  2970   00231C  C007  F015         	movff	?___xxtofl+1,___flmul@b+1
  2971   002320  C008  F016         	movff	?___xxtofl+2,___flmul@b+2
  2972   002324  C009  F017         	movff	?___xxtofl+3,___flmul@b+3
  2973   002328  EC61  F009         	call	___flmul	;wreg free
  2974   00232C  C014  F02D         	movff	?___flmul,___fladd@b
  2975   002330  C015  F02E         	movff	?___flmul+1,___fladd@b+1
  2976   002334  C016  F02F         	movff	?___flmul+2,___fladd@b+2
  2977   002338  C017  F030         	movff	?___flmul+3,___fladd@b+3
  2978   00233C  EC06  F007         	call	___fladd	;wreg free
  2979   002340  C02D  F03D         	movff	?___fladd,sqrtf@x
  2980   002344  C02E  F03E         	movff	?___fladd+1,sqrtf@x+1
  2981   002348  C02F  F03F         	movff	?___fladd+2,sqrtf@x+2
  2982   00234C  C030  F040         	movff	?___fladd+3,sqrtf@x+3
  2983   002350  EC74  F00B         	call	_sqrtf	;wreg free
  2984   002354  C03D  F0EE         	movff	?_sqrtf,_calculate_angle$1901
  2985   002358  C03E  F0EF         	movff	?_sqrtf+1,_calculate_angle$1901+1
  2986   00235C  C03F  F0F0         	movff	?_sqrtf+2,_calculate_angle$1901+2
  2987   002360  C040  F0F1         	movff	?_sqrtf+3,_calculate_angle$1901+3
  2988   002364                     
  2989                           ;setting_hardaware/gyroscope.c: 100:     return atan2f((float)accX,sqrtf((float)accY * a
      +                          ccY + (float)accZ * accZ)) * 180.0 / 3.14159265358979323846;
  2990   002364  C0EE  F0C3         	movff	_calculate_angle$1901,atan2f@x
  2991   002368  C0EF  F0C4         	movff	_calculate_angle$1901+1,atan2f@x+1
  2992   00236C  C0F0  F0C5         	movff	_calculate_angle$1901+2,atan2f@x+2
  2993   002370  C0F1  F0C6         	movff	_calculate_angle$1901+3,atan2f@x+3
  2994   002374  C0E8  F006         	movff	calculate_angle@accX,___xxtofl@val
  2995   002378  C0E9  F007         	movff	calculate_angle@accX+1,___xxtofl@val+1
  2996   00237C  0E00               	movlw	0
  2997   00237E  BE07               	btfsc	(___xxtofl@val+1)^0,7,c
  2998   002380  0EFF               	movlw	-1
  2999   002382  6E08               	movwf	(___xxtofl@val+2)^0,c
  3000   002384  6E09               	movwf	(___xxtofl@val+3)^0,c
  3001   002386  0E01               	movlw	1
  3002   002388  EC60  F010         	call	___xxtofl
  3003   00238C  C006  F0BF         	movff	?___xxtofl,atan2f@y
  3004   002390  C007  F0C0         	movff	?___xxtofl+1,atan2f@y+1
  3005   002394  C008  F0C1         	movff	?___xxtofl+2,atan2f@y+2
  3006   002398  C009  F0C2         	movff	?___xxtofl+3,atan2f@y+3
  3007   00239C  EC28  F004         	call	_atan2f	;wreg free
  3008   0023A0  C0BF  F0F2         	movff	?_atan2f,_calculate_angle$1902
  3009   0023A4  C0C0  F0F3         	movff	?_atan2f+1,_calculate_angle$1902+1
  3010   0023A8  C0C1  F0F4         	movff	?_atan2f+2,_calculate_angle$1902+2
  3011   0023AC  C0C2  F0F5         	movff	?_atan2f+3,_calculate_angle$1902+3
  3012   0023B0                     
  3013                           ;setting_hardaware/gyroscope.c: 100:     return atan2f((float)accX,sqrtf((float)accY * a
      +                          ccY + (float)accZ * accZ)) * 180.0 / 3.14159265358979323846;
  3014   0023B0  0E00               	movlw	0
  3015   0023B2  6E18               	movwf	___flmul@a^0,c
  3016   0023B4  0E00               	movlw	0
  3017   0023B6  6E19               	movwf	(___flmul@a+1)^0,c
  3018   0023B8  0E34               	movlw	52
  3019   0023BA  6E1A               	movwf	(___flmul@a+2)^0,c
  3020   0023BC  0E43               	movlw	67
  3021   0023BE  6E1B               	movwf	(___flmul@a+3)^0,c
  3022   0023C0  C0F2  F014         	movff	_calculate_angle$1902,___flmul@b
  3023   0023C4  C0F3  F015         	movff	_calculate_angle$1902+1,___flmul@b+1
  3024   0023C8  C0F4  F016         	movff	_calculate_angle$1902+2,___flmul@b+2
  3025   0023CC  C0F5  F017         	movff	_calculate_angle$1902+3,___flmul@b+3
  3026   0023D0  EC61  F009         	call	___flmul	;wreg free
  3027   0023D4  C014  F062         	movff	?___flmul,___fldiv@b
  3028   0023D8  C015  F063         	movff	?___flmul+1,___fldiv@b+1
  3029   0023DC  C016  F064         	movff	?___flmul+2,___fldiv@b+2
  3030   0023E0  C017  F065         	movff	?___flmul+3,___fldiv@b+3
  3031   0023E4  0EDB               	movlw	219
  3032   0023E6  6E66               	movwf	___fldiv@a^0,c
  3033   0023E8  0E0F               	movlw	15
  3034   0023EA  6E67               	movwf	(___fldiv@a+1)^0,c
  3035   0023EC  0E49               	movlw	73
  3036   0023EE  6E68               	movwf	(___fldiv@a+2)^0,c
  3037   0023F0  0E40               	movlw	64
  3038   0023F2  6E69               	movwf	(___fldiv@a+3)^0,c
  3039   0023F4  EC63  F00D         	call	___fldiv	;wreg free
  3040   0023F8  C062  F0E8         	movff	?___fldiv,?_calculate_angle
  3041   0023FC  C063  F0E9         	movff	?___fldiv+1,?_calculate_angle+1
  3042   002400  C064  F0EA         	movff	?___fldiv+2,?_calculate_angle+2
  3043   002404  C065  F0EB         	movff	?___fldiv+3,?_calculate_angle+3
  3044   002408  0012               	return		;funcret
  3045   00240A                     __end_of_calculate_angle:
  3046                           	callstack 0
  3047                           
  3048 ;; *************** function _sqrtf *****************
  3049 ;; Defined at:
  3050 ;;		line 24 in file "C:\Program Files\Microchip\xc8\v2.50\pic\sources\c99\common\sqrtf.c"
  3051 ;; Parameters:    Size  Location     Type
  3052 ;;  x               4   60[COMRAM] float 
  3053 ;; Auto vars:     Size  Location     Type
  3054 ;;  ix              4   93[COMRAM] struct .
  3055 ;;  r               4   89[COMRAM] unsigned long 
  3056 ;;  m               4   85[COMRAM] long 
  3057 ;;  t               4   81[COMRAM] long 
  3058 ;;  q               4   77[COMRAM] long 
  3059 ;;  i               4   73[COMRAM] long 
  3060 ;;  s               4   69[COMRAM] long 
  3061 ;;  z               4    0        float 
  3062 ;; Return value:  Size  Location     Type
  3063 ;;                  4   60[COMRAM] float 
  3064 ;; Registers used:
  3065 ;;		wreg, status,2, status,0
  3066 ;; Tracked objects:
  3067 ;;		On entry : 0/0
  3068 ;;		On exit  : 0/0
  3069 ;;		Unchanged: 0/0
  3070 ;; Data sizes:     COMRAM   BANK0   BANK1   BANK2   BANK3   BANK4   BANK5
  3071 ;;      Params:         4       0       0       0       0       0       0
  3072 ;;      Locals:        28       0       0       0       0       0       0
  3073 ;;      Temps:          5       0       0       0       0       0       0
  3074 ;;      Totals:        37       0       0       0       0       0       0
  3075 ;;Total ram usage:       37 bytes
  3076 ;; Hardware stack levels used: 1
  3077 ;; Hardware stack levels required when called: 1
  3078 ;; This function calls:
  3079 ;;		Nothing
  3080 ;; This function is called by:
  3081 ;;		_calculate_angle
  3082 ;; This function uses a non-reentrant model
  3083 ;;
  3084                           
  3085                           	psect	text11
  3086   0016E8                     __ptext11:
  3087                           	callstack 0
  3088   0016E8                     _sqrtf:
  3089                           	callstack 25
  3090   0016E8  C03D  F05E         	movff	sqrtf@x,sqrtf@ix
  3091   0016EC  C03E  F05F         	movff	sqrtf@x+1,sqrtf@ix+1
  3092   0016F0  C03F  F060         	movff	sqrtf@x+2,sqrtf@ix+2
  3093   0016F4  C040  F061         	movff	sqrtf@x+3,sqrtf@ix+3
  3094   0016F8  0E00               	movlw	0
  3095   0016FA  145E               	andwf	sqrtf@ix^0,w,c
  3096   0016FC  6E41               	movwf	??_sqrtf^0,c
  3097   0016FE  0E00               	movlw	0
  3098   001700  145F               	andwf	(sqrtf@ix+1)^0,w,c
  3099   001702  6E42               	movwf	(??_sqrtf+1)^0,c
  3100   001704  0E80               	movlw	128
  3101   001706  1460               	andwf	(sqrtf@ix+2)^0,w,c
  3102   001708  6E43               	movwf	(??_sqrtf+2)^0,c
  3103   00170A  0E7F               	movlw	127
  3104   00170C  1461               	andwf	(sqrtf@ix+3)^0,w,c
  3105   00170E  6E44               	movwf	(??_sqrtf+3)^0,c
  3106   001710  0E80               	movlw	128
  3107   001712  1843               	xorwf	(??_sqrtf+2)^0,w,c
  3108   001714  E109               	bnz	u4681
  3109   001716  0E7F               	movlw	127
  3110   001718  1844               	xorwf	(??_sqrtf+3)^0,w,c
  3111   00171A  1041               	iorwf	??_sqrtf^0,w,c
  3112   00171C  1042               	iorwf	(??_sqrtf+1)^0,w,c
  3113   00171E  A4D8               	btfss	status,2,c
  3114   001720  EF94  F00B         	goto	u4681
  3115   001724  EF96  F00B         	goto	u4680
  3116   001728                     u4681:
  3117   001728  EFC6  F00B         	goto	l4021
  3118   00172C                     u4680:
  3119   00172C  0EFF               	movlw	255
  3120   00172E  145E               	andwf	sqrtf@ix^0,w,c
  3121   001730  6E41               	movwf	??_sqrtf^0,c
  3122   001732  0EFF               	movlw	255
  3123   001734  145F               	andwf	(sqrtf@ix+1)^0,w,c
  3124   001736  6E42               	movwf	(??_sqrtf+1)^0,c
  3125   001738  0E7F               	movlw	127
  3126   00173A  1460               	andwf	(sqrtf@ix+2)^0,w,c
  3127   00173C  6E43               	movwf	(??_sqrtf+2)^0,c
  3128   00173E  0E00               	movlw	0
  3129   001740  1461               	andwf	(sqrtf@ix+3)^0,w,c
  3130   001742  6E44               	movwf	(??_sqrtf+3)^0,c
  3131   001744  5041               	movf	??_sqrtf^0,w,c
  3132   001746  1042               	iorwf	(??_sqrtf+1)^0,w,c
  3133   001748  1043               	iorwf	(??_sqrtf+2)^0,w,c
  3134   00174A  1044               	iorwf	(??_sqrtf+3)^0,w,c
  3135   00174C  A4D8               	btfss	status,2,c
  3136   00174E  EFAB  F00B         	goto	u4691
  3137   001752  EFAD  F00B         	goto	u4690
  3138   001756                     u4691:
  3139   001756  EFB4  F00B         	goto	l4015
  3140   00175A                     u4690:
  3141   00175A  BE61               	btfsc	(sqrtf@ix+3)^0,7,c
  3142   00175C  EFB4  F00B         	goto	u4700
  3143   001760  EFB2  F00B         	goto	u4701
  3144   001764                     u4701:
  3145   001764  EFBC  F00B         	goto	l4017
  3146   001768                     u4700:
  3147   001768                     l4015:
  3148   001768  0EFF               	movlw	255
  3149   00176A  125E               	iorwf	sqrtf@ix^0,f,c
  3150   00176C  0EFF               	movlw	255
  3151   00176E  125F               	iorwf	(sqrtf@ix+1)^0,f,c
  3152   001770  0E7F               	movlw	127
  3153   001772  1260               	iorwf	(sqrtf@ix+2)^0,f,c
  3154   001774  0E00               	movlw	0
  3155   001776  1261               	iorwf	(sqrtf@ix+3)^0,f,c
  3156   001778                     l4017:
  3157   001778  C05E  F03D         	movff	sqrtf@ix,?_sqrtf
  3158   00177C  C05F  F03E         	movff	sqrtf@ix+1,?_sqrtf+1
  3159   001780  C060  F03F         	movff	sqrtf@ix+2,?_sqrtf+2
  3160   001784  C061  F040         	movff	sqrtf@ix+3,?_sqrtf+3
  3161   001788  EF62  F00D         	goto	l1122
  3162   00178C                     l4021:
  3163   00178C  BE61               	btfsc	(sqrtf@ix+3)^0,7,c
  3164   00178E  EFD5  F00B         	goto	u4710
  3165   001792  5061               	movf	(sqrtf@ix+3)^0,w,c
  3166   001794  1060               	iorwf	(sqrtf@ix+2)^0,w,c
  3167   001796  105F               	iorwf	(sqrtf@ix+1)^0,w,c
  3168   001798  E106               	bnz	u4711
  3169   00179A  045E               	decf	sqrtf@ix^0,w,c
  3170   00179C  B0D8               	btfsc	status,0,c
  3171   00179E  EFD3  F00B         	goto	u4711
  3172   0017A2  EFD5  F00B         	goto	u4710
  3173   0017A6                     u4711:
  3174   0017A6  EF0C  F00C         	goto	l4037
  3175   0017AA                     u4710:
  3176   0017AA  0EFF               	movlw	255
  3177   0017AC  145E               	andwf	sqrtf@ix^0,w,c
  3178   0017AE  6E41               	movwf	??_sqrtf^0,c
  3179   0017B0  0EFF               	movlw	255
  3180   0017B2  145F               	andwf	(sqrtf@ix+1)^0,w,c
  3181   0017B4  6E42               	movwf	(??_sqrtf+1)^0,c
  3182   0017B6  0EFF               	movlw	255
  3183   0017B8  1460               	andwf	(sqrtf@ix+2)^0,w,c
  3184   0017BA  6E43               	movwf	(??_sqrtf+2)^0,c
  3185   0017BC  0E7F               	movlw	127
  3186   0017BE  1461               	andwf	(sqrtf@ix+3)^0,w,c
  3187   0017C0  6E44               	movwf	(??_sqrtf+3)^0,c
  3188   0017C2  5041               	movf	??_sqrtf^0,w,c
  3189   0017C4  1042               	iorwf	(??_sqrtf+1)^0,w,c
  3190   0017C6  1043               	iorwf	(??_sqrtf+2)^0,w,c
  3191   0017C8  1044               	iorwf	(??_sqrtf+3)^0,w,c
  3192   0017CA  A4D8               	btfss	status,2,c
  3193   0017CC  EFEA  F00B         	goto	u4721
  3194   0017D0  EFEC  F00B         	goto	u4720
  3195   0017D4                     u4721:
  3196   0017D4  EFF6  F00B         	goto	l4029
  3197   0017D8                     u4720:
  3198   0017D8  0E00               	movlw	0
  3199   0017DA  6E3D               	movwf	?_sqrtf^0,c
  3200   0017DC  0E00               	movlw	0
  3201   0017DE  6E3E               	movwf	(?_sqrtf+1)^0,c
  3202   0017E0  0E00               	movlw	0
  3203   0017E2  6E3F               	movwf	(?_sqrtf+2)^0,c
  3204   0017E4  0E00               	movlw	0
  3205   0017E6  6E40               	movwf	(?_sqrtf+3)^0,c
  3206   0017E8  EF62  F00D         	goto	l1122
  3207   0017EC                     l4029:
  3208   0017EC  BE61               	btfsc	(sqrtf@ix+3)^0,7,c
  3209   0017EE  EFFD  F00B         	goto	u4730
  3210   0017F2  EFFB  F00B         	goto	u4731
  3211   0017F6                     u4731:
  3212   0017F6  EF0C  F00C         	goto	l4037
  3213   0017FA                     u4730:
  3214   0017FA  0E00               	movlw	0
  3215   0017FC  0101               	movlb	1	; () banked
  3216   0017FE  6F25               	movwf	(_errno+1)& (0+255),b
  3217   001800  0E21               	movlw	33
  3218   001802  6F24               	movwf	_errno& (0+255),b
  3219   001804  0EFF               	movlw	255
  3220   001806  6E5E               	movwf	sqrtf@ix^0,c
  3221   001808  0EFF               	movlw	255
  3222   00180A  6E5F               	movwf	(sqrtf@ix+1)^0,c
  3223   00180C  0EFF               	movlw	255
  3224   00180E  6E60               	movwf	(sqrtf@ix+2)^0,c
  3225   001810  0E7F               	movlw	127
  3226   001812  6E61               	movwf	(sqrtf@ix+3)^0,c
  3227   001814  EFBC  F00B         	goto	l4017
  3228   001818                     l4037:
  3229   001818  0E17               	movlw	23
  3230   00181A  6E41               	movwf	??_sqrtf^0,c
  3231   00181C  C05E  F042         	movff	sqrtf@ix,??_sqrtf+1
  3232   001820  C05F  F043         	movff	sqrtf@ix+1,??_sqrtf+2
  3233   001824  C060  F044         	movff	sqrtf@ix+2,??_sqrtf+3
  3234   001828  C061  F045         	movff	sqrtf@ix+3,??_sqrtf+4
  3235   00182C                     u4745:
  3236   00182C  6641               	tstfsz	??_sqrtf^0,c
  3237   00182E  EF1B  F00C         	goto	u4746
  3238   001832  EF23  F00C         	goto	u4747
  3239   001836                     u4746:
  3240   001836  3445               	rlcf	(??_sqrtf+4)^0,w,c
  3241   001838  3245               	rrcf	(??_sqrtf+4)^0,f,c
  3242   00183A  3244               	rrcf	(??_sqrtf+3)^0,f,c
  3243   00183C  3243               	rrcf	(??_sqrtf+2)^0,f,c
  3244   00183E  3242               	rrcf	(??_sqrtf+1)^0,f,c
  3245   001840  2E41               	decfsz	??_sqrtf^0,f,c
  3246   001842  EF16  F00C         	goto	u4745
  3247   001846                     u4747:
  3248   001846  C042  F056         	movff	??_sqrtf+1,sqrtf@m
  3249   00184A  C043  F057         	movff	??_sqrtf+2,sqrtf@m+1
  3250   00184E  C044  F058         	movff	??_sqrtf+3,sqrtf@m+2
  3251   001852  C045  F059         	movff	??_sqrtf+4,sqrtf@m+3
  3252   001856  5056               	movf	sqrtf@m^0,w,c
  3253   001858  1057               	iorwf	(sqrtf@m+1)^0,w,c
  3254   00185A  1058               	iorwf	(sqrtf@m+2)^0,w,c
  3255   00185C  1059               	iorwf	(sqrtf@m+3)^0,w,c
  3256   00185E  A4D8               	btfss	status,2,c
  3257   001860  EF34  F00C         	goto	u4751
  3258   001864  EF36  F00C         	goto	u4750
  3259   001868                     u4751:
  3260   001868  EF66  F00C         	goto	l1126
  3261   00186C                     u4750:
  3262   00186C  0E00               	movlw	0
  3263   00186E  6E4A               	movwf	sqrtf@i^0,c
  3264   001870  0E00               	movlw	0
  3265   001872  6E4B               	movwf	(sqrtf@i+1)^0,c
  3266   001874  0E00               	movlw	0
  3267   001876  6E4C               	movwf	(sqrtf@i+2)^0,c
  3268   001878  0E00               	movlw	0
  3269   00187A  6E4D               	movwf	(sqrtf@i+3)^0,c
  3270   00187C  EF4B  F00C         	goto	l4045
  3271   001880                     l4041:
  3272   001880  90D8               	bcf	status,0,c
  3273   001882  365E               	rlcf	sqrtf@ix^0,f,c
  3274   001884  365F               	rlcf	(sqrtf@ix+1)^0,f,c
  3275   001886  3660               	rlcf	(sqrtf@ix+2)^0,f,c
  3276   001888  3661               	rlcf	(sqrtf@ix+3)^0,f,c
  3277   00188A  0E01               	movlw	1
  3278   00188C  264A               	addwf	sqrtf@i^0,f,c
  3279   00188E  0E00               	movlw	0
  3280   001890  224B               	addwfc	(sqrtf@i+1)^0,f,c
  3281   001892  224C               	addwfc	(sqrtf@i+2)^0,f,c
  3282   001894  224D               	addwfc	(sqrtf@i+3)^0,f,c
  3283   001896                     l4045:
  3284   001896  AE60               	btfss	(sqrtf@ix+2)^0,7,c
  3285   001898  EF50  F00C         	goto	u4761
  3286   00189C  EF52  F00C         	goto	u4760
  3287   0018A0                     u4761:
  3288   0018A0  EF40  F00C         	goto	l4041
  3289   0018A4                     u4760:
  3290   0018A4  0EFF               	movlw	255
  3291   0018A6  244A               	addwf	sqrtf@i^0,w,c
  3292   0018A8  6E41               	movwf	??_sqrtf^0,c
  3293   0018AA  0EFF               	movlw	255
  3294   0018AC  204B               	addwfc	(sqrtf@i+1)^0,w,c
  3295   0018AE  6E42               	movwf	(??_sqrtf+1)^0,c
  3296   0018B0  0EFF               	movlw	255
  3297   0018B2  204C               	addwfc	(sqrtf@i+2)^0,w,c
  3298   0018B4  6E43               	movwf	(??_sqrtf+2)^0,c
  3299   0018B6  0EFF               	movlw	255
  3300   0018B8  204D               	addwfc	(sqrtf@i+3)^0,w,c
  3301   0018BA  6E44               	movwf	(??_sqrtf+3)^0,c
  3302   0018BC  5041               	movf	??_sqrtf^0,w,c
  3303   0018BE  5E56               	subwf	sqrtf@m^0,f,c
  3304   0018C0  5042               	movf	(??_sqrtf+1)^0,w,c
  3305   0018C2  5A57               	subwfb	(sqrtf@m+1)^0,f,c
  3306   0018C4  5043               	movf	(??_sqrtf+2)^0,w,c
  3307   0018C6  5A58               	subwfb	(sqrtf@m+2)^0,f,c
  3308   0018C8  5044               	movf	(??_sqrtf+3)^0,w,c
  3309   0018CA  5A59               	subwfb	(sqrtf@m+3)^0,f,c
  3310   0018CC                     l1126:
  3311   0018CC  0E81               	movlw	129
  3312   0018CE  2656               	addwf	sqrtf@m^0,f,c
  3313   0018D0  0EFF               	movlw	255
  3314   0018D2  2257               	addwfc	(sqrtf@m+1)^0,f,c
  3315   0018D4  0EFF               	movlw	255
  3316   0018D6  2258               	addwfc	(sqrtf@m+2)^0,f,c
  3317   0018D8  0EFF               	movlw	255
  3318   0018DA  2259               	addwfc	(sqrtf@m+3)^0,f,c
  3319   0018DC  0EFF               	movlw	255
  3320   0018DE  145E               	andwf	sqrtf@ix^0,w,c
  3321   0018E0  6E41               	movwf	??_sqrtf^0,c
  3322   0018E2  0EFF               	movlw	255
  3323   0018E4  145F               	andwf	(sqrtf@ix+1)^0,w,c
  3324   0018E6  6E42               	movwf	(??_sqrtf+1)^0,c
  3325   0018E8  0E7F               	movlw	127
  3326   0018EA  1460               	andwf	(sqrtf@ix+2)^0,w,c
  3327   0018EC  6E43               	movwf	(??_sqrtf+2)^0,c
  3328   0018EE  0E00               	movlw	0
  3329   0018F0  1461               	andwf	(sqrtf@ix+3)^0,w,c
  3330   0018F2  6E44               	movwf	(??_sqrtf+3)^0,c
  3331   0018F4  0E00               	movlw	0
  3332   0018F6  1041               	iorwf	??_sqrtf^0,w,c
  3333   0018F8  6E5E               	movwf	sqrtf@ix^0,c
  3334   0018FA  0E00               	movlw	0
  3335   0018FC  1042               	iorwf	(??_sqrtf+1)^0,w,c
  3336   0018FE  6E5F               	movwf	(sqrtf@ix+1)^0,c
  3337   001900  0E80               	movlw	128
  3338   001902  1043               	iorwf	(??_sqrtf+2)^0,w,c
  3339   001904  6E60               	movwf	(sqrtf@ix+2)^0,c
  3340   001906  0E00               	movlw	0
  3341   001908  1044               	iorwf	(??_sqrtf+3)^0,w,c
  3342   00190A  6E61               	movwf	(sqrtf@ix+3)^0,c
  3343   00190C  A056               	btfss	sqrtf@m^0,0,c
  3344   00190E  EF8B  F00C         	goto	u4771
  3345   001912  EF8D  F00C         	goto	u4770
  3346   001916                     u4771:
  3347   001916  EF95  F00C         	goto	l1130
  3348   00191A                     u4770:
  3349   00191A  505E               	movf	sqrtf@ix^0,w,c
  3350   00191C  265E               	addwf	sqrtf@ix^0,f,c
  3351   00191E  505F               	movf	(sqrtf@ix+1)^0,w,c
  3352   001920  225F               	addwfc	(sqrtf@ix+1)^0,f,c
  3353   001922  5060               	movf	(sqrtf@ix+2)^0,w,c
  3354   001924  2260               	addwfc	(sqrtf@ix+2)^0,f,c
  3355   001926  5061               	movf	(sqrtf@ix+3)^0,w,c
  3356   001928  2261               	addwfc	(sqrtf@ix+3)^0,f,c
  3357   00192A                     l1130:
  3358   00192A  3459               	rlcf	(sqrtf@m+3)^0,w,c
  3359   00192C  3259               	rrcf	(sqrtf@m+3)^0,f,c
  3360   00192E  3258               	rrcf	(sqrtf@m+2)^0,f,c
  3361   001930  3257               	rrcf	(sqrtf@m+1)^0,f,c
  3362   001932  3256               	rrcf	sqrtf@m^0,f,c
  3363   001934  505E               	movf	sqrtf@ix^0,w,c
  3364   001936  265E               	addwf	sqrtf@ix^0,f,c
  3365   001938  505F               	movf	(sqrtf@ix+1)^0,w,c
  3366   00193A  225F               	addwfc	(sqrtf@ix+1)^0,f,c
  3367   00193C  5060               	movf	(sqrtf@ix+2)^0,w,c
  3368   00193E  2260               	addwfc	(sqrtf@ix+2)^0,f,c
  3369   001940  5061               	movf	(sqrtf@ix+3)^0,w,c
  3370   001942  2261               	addwfc	(sqrtf@ix+3)^0,f,c
  3371   001944  0E00               	movlw	0
  3372   001946  6E46               	movwf	sqrtf@s^0,c
  3373   001948  0E00               	movlw	0
  3374   00194A  6E47               	movwf	(sqrtf@s+1)^0,c
  3375   00194C  0E00               	movlw	0
  3376   00194E  6E48               	movwf	(sqrtf@s+2)^0,c
  3377   001950  0E00               	movlw	0
  3378   001952  6E49               	movwf	(sqrtf@s+3)^0,c
  3379   001954  C046  F04E         	movff	sqrtf@s,sqrtf@q
  3380   001958  C047  F04F         	movff	sqrtf@s+1,sqrtf@q+1
  3381   00195C  C048  F050         	movff	sqrtf@s+2,sqrtf@q+2
  3382   001960  C049  F051         	movff	sqrtf@s+3,sqrtf@q+3
  3383   001964  0E00               	movlw	0
  3384   001966  6E5A               	movwf	sqrtf@r^0,c
  3385   001968  0E00               	movlw	0
  3386   00196A  6E5B               	movwf	(sqrtf@r+1)^0,c
  3387   00196C  0E00               	movlw	0
  3388   00196E  6E5C               	movwf	(sqrtf@r+2)^0,c
  3389   001970  0E01               	movlw	1
  3390   001972  6E5D               	movwf	(sqrtf@r+3)^0,c
  3391   001974  EF04  F00D         	goto	l4063
  3392   001978                     l4057:
  3393   001978  5046               	movf	sqrtf@s^0,w,c
  3394   00197A  245A               	addwf	sqrtf@r^0,w,c
  3395   00197C  6E52               	movwf	sqrtf@t^0,c
  3396   00197E  5047               	movf	(sqrtf@s+1)^0,w,c
  3397   001980  205B               	addwfc	(sqrtf@r+1)^0,w,c
  3398   001982  6E53               	movwf	(sqrtf@t+1)^0,c
  3399   001984  5048               	movf	(sqrtf@s+2)^0,w,c
  3400   001986  205C               	addwfc	(sqrtf@r+2)^0,w,c
  3401   001988  6E54               	movwf	(sqrtf@t+2)^0,c
  3402   00198A  5049               	movf	(sqrtf@s+3)^0,w,c
  3403   00198C  205D               	addwfc	(sqrtf@r+3)^0,w,c
  3404   00198E  6E55               	movwf	(sqrtf@t+3)^0,c
  3405   001990  5052               	movf	sqrtf@t^0,w,c
  3406   001992  5C5E               	subwf	sqrtf@ix^0,w,c
  3407   001994  5053               	movf	(sqrtf@t+1)^0,w,c
  3408   001996  585F               	subwfb	(sqrtf@ix+1)^0,w,c
  3409   001998  5054               	movf	(sqrtf@t+2)^0,w,c
  3410   00199A  5860               	subwfb	(sqrtf@ix+2)^0,w,c
  3411   00199C  5061               	movf	(sqrtf@ix+3)^0,w,c
  3412   00199E  0A80               	xorlw	128
  3413   0019A0  6E41               	movwf	??_sqrtf^0,c
  3414   0019A2  5055               	movf	(sqrtf@t+3)^0,w,c
  3415   0019A4  0A80               	xorlw	128
  3416   0019A6  5841               	subwfb	??_sqrtf^0,w,c
  3417   0019A8  A0D8               	btfss	status,0,c
  3418   0019AA  EFD9  F00C         	goto	u4781
  3419   0019AE  EFDB  F00C         	goto	u4780
  3420   0019B2                     u4781:
  3421   0019B2  EFF7  F00C         	goto	l1133
  3422   0019B6                     u4780:
  3423   0019B6  5052               	movf	sqrtf@t^0,w,c
  3424   0019B8  245A               	addwf	sqrtf@r^0,w,c
  3425   0019BA  6E46               	movwf	sqrtf@s^0,c
  3426   0019BC  5053               	movf	(sqrtf@t+1)^0,w,c
  3427   0019BE  205B               	addwfc	(sqrtf@r+1)^0,w,c
  3428   0019C0  6E47               	movwf	(sqrtf@s+1)^0,c
  3429   0019C2  5054               	movf	(sqrtf@t+2)^0,w,c
  3430   0019C4  205C               	addwfc	(sqrtf@r+2)^0,w,c
  3431   0019C6  6E48               	movwf	(sqrtf@s+2)^0,c
  3432   0019C8  5055               	movf	(sqrtf@t+3)^0,w,c
  3433   0019CA  205D               	addwfc	(sqrtf@r+3)^0,w,c
  3434   0019CC  6E49               	movwf	(sqrtf@s+3)^0,c
  3435   0019CE  5052               	movf	sqrtf@t^0,w,c
  3436   0019D0  5E5E               	subwf	sqrtf@ix^0,f,c
  3437   0019D2  5053               	movf	(sqrtf@t+1)^0,w,c
  3438   0019D4  5A5F               	subwfb	(sqrtf@ix+1)^0,f,c
  3439   0019D6  5054               	movf	(sqrtf@t+2)^0,w,c
  3440   0019D8  5A60               	subwfb	(sqrtf@ix+2)^0,f,c
  3441   0019DA  5055               	movf	(sqrtf@t+3)^0,w,c
  3442   0019DC  5A61               	subwfb	(sqrtf@ix+3)^0,f,c
  3443   0019DE  505A               	movf	sqrtf@r^0,w,c
  3444   0019E0  264E               	addwf	sqrtf@q^0,f,c
  3445   0019E2  505B               	movf	(sqrtf@r+1)^0,w,c
  3446   0019E4  224F               	addwfc	(sqrtf@q+1)^0,f,c
  3447   0019E6  505C               	movf	(sqrtf@r+2)^0,w,c
  3448   0019E8  2250               	addwfc	(sqrtf@q+2)^0,f,c
  3449   0019EA  505D               	movf	(sqrtf@r+3)^0,w,c
  3450   0019EC  2251               	addwfc	(sqrtf@q+3)^0,f,c
  3451   0019EE                     l1133:
  3452   0019EE  505E               	movf	sqrtf@ix^0,w,c
  3453   0019F0  265E               	addwf	sqrtf@ix^0,f,c
  3454   0019F2  505F               	movf	(sqrtf@ix+1)^0,w,c
  3455   0019F4  225F               	addwfc	(sqrtf@ix+1)^0,f,c
  3456   0019F6  5060               	movf	(sqrtf@ix+2)^0,w,c
  3457   0019F8  2260               	addwfc	(sqrtf@ix+2)^0,f,c
  3458   0019FA  5061               	movf	(sqrtf@ix+3)^0,w,c
  3459   0019FC  2261               	addwfc	(sqrtf@ix+3)^0,f,c
  3460   0019FE  90D8               	bcf	status,0,c
  3461   001A00  325D               	rrcf	(sqrtf@r+3)^0,f,c
  3462   001A02  325C               	rrcf	(sqrtf@r+2)^0,f,c
  3463   001A04  325B               	rrcf	(sqrtf@r+1)^0,f,c
  3464   001A06  325A               	rrcf	sqrtf@r^0,f,c
  3465   001A08                     l4063:
  3466   001A08  505A               	movf	sqrtf@r^0,w,c
  3467   001A0A  105B               	iorwf	(sqrtf@r+1)^0,w,c
  3468   001A0C  105C               	iorwf	(sqrtf@r+2)^0,w,c
  3469   001A0E  105D               	iorwf	(sqrtf@r+3)^0,w,c
  3470   001A10  A4D8               	btfss	status,2,c
  3471   001A12  EF0D  F00D         	goto	u4791
  3472   001A16  EF0F  F00D         	goto	u4790
  3473   001A1A                     u4791:
  3474   001A1A  EFBC  F00C         	goto	l4057
  3475   001A1E                     u4790:
  3476   001A1E  505E               	movf	sqrtf@ix^0,w,c
  3477   001A20  105F               	iorwf	(sqrtf@ix+1)^0,w,c
  3478   001A22  1060               	iorwf	(sqrtf@ix+2)^0,w,c
  3479   001A24  1061               	iorwf	(sqrtf@ix+3)^0,w,c
  3480   001A26  B4D8               	btfsc	status,2,c
  3481   001A28  EF18  F00D         	goto	u4801
  3482   001A2C  EF1A  F00D         	goto	u4800
  3483   001A30                     u4801:
  3484   001A30  EF2E  F00D         	goto	l1135
  3485   001A34                     u4800:
  3486   001A34  0E01               	movlw	1
  3487   001A36  144E               	andwf	sqrtf@q^0,w,c
  3488   001A38  6E41               	movwf	??_sqrtf^0,c
  3489   001A3A  0E00               	movlw	0
  3490   001A3C  144F               	andwf	(sqrtf@q+1)^0,w,c
  3491   001A3E  6E42               	movwf	(??_sqrtf+1)^0,c
  3492   001A40  0E00               	movlw	0
  3493   001A42  1450               	andwf	(sqrtf@q+2)^0,w,c
  3494   001A44  6E43               	movwf	(??_sqrtf+2)^0,c
  3495   001A46  0E00               	movlw	0
  3496   001A48  1451               	andwf	(sqrtf@q+3)^0,w,c
  3497   001A4A  6E44               	movwf	(??_sqrtf+3)^0,c
  3498   001A4C  5041               	movf	??_sqrtf^0,w,c
  3499   001A4E  264E               	addwf	sqrtf@q^0,f,c
  3500   001A50  5042               	movf	(??_sqrtf+1)^0,w,c
  3501   001A52  224F               	addwfc	(sqrtf@q+1)^0,f,c
  3502   001A54  5043               	movf	(??_sqrtf+2)^0,w,c
  3503   001A56  2250               	addwfc	(sqrtf@q+2)^0,f,c
  3504   001A58  5044               	movf	(??_sqrtf+3)^0,w,c
  3505   001A5A  2251               	addwfc	(sqrtf@q+3)^0,f,c
  3506   001A5C                     l1135:
  3507   001A5C  C04E  F041         	movff	sqrtf@q,??_sqrtf
  3508   001A60  C04F  F042         	movff	sqrtf@q+1,??_sqrtf+1
  3509   001A64  C050  F043         	movff	sqrtf@q+2,??_sqrtf+2
  3510   001A68  C051  F044         	movff	sqrtf@q+3,??_sqrtf+3
  3511   001A6C  3444               	rlcf	(??_sqrtf+3)^0,w,c
  3512   001A6E  3244               	rrcf	(??_sqrtf+3)^0,f,c
  3513   001A70  3243               	rrcf	(??_sqrtf+2)^0,f,c
  3514   001A72  3242               	rrcf	(??_sqrtf+1)^0,f,c
  3515   001A74  3241               	rrcf	??_sqrtf^0,f,c
  3516   001A76  0E00               	movlw	0
  3517   001A78  2441               	addwf	??_sqrtf^0,w,c
  3518   001A7A  6E5E               	movwf	sqrtf@ix^0,c
  3519   001A7C  0E00               	movlw	0
  3520   001A7E  2042               	addwfc	(??_sqrtf+1)^0,w,c
  3521   001A80  6E5F               	movwf	(sqrtf@ix+1)^0,c
  3522   001A82  0E00               	movlw	0
  3523   001A84  2043               	addwfc	(??_sqrtf+2)^0,w,c
  3524   001A86  6E60               	movwf	(sqrtf@ix+2)^0,c
  3525   001A88  0E3F               	movlw	63
  3526   001A8A  2044               	addwfc	(??_sqrtf+3)^0,w,c
  3527   001A8C  6E61               	movwf	(sqrtf@ix+3)^0,c
  3528   001A8E  C056  F041         	movff	sqrtf@m,??_sqrtf
  3529   001A92  C057  F042         	movff	sqrtf@m+1,??_sqrtf+1
  3530   001A96  C058  F043         	movff	sqrtf@m+2,??_sqrtf+2
  3531   001A9A  C059  F044         	movff	sqrtf@m+3,??_sqrtf+3
  3532   001A9E  0E17               	movlw	23
  3533   001AA0                     u4815:
  3534   001AA0  90D8               	bcf	status,0,c
  3535   001AA2  3641               	rlcf	??_sqrtf^0,f,c
  3536   001AA4  3642               	rlcf	(??_sqrtf+1)^0,f,c
  3537   001AA6  3643               	rlcf	(??_sqrtf+2)^0,f,c
  3538   001AA8  3644               	rlcf	(??_sqrtf+3)^0,f,c
  3539   001AAA  2EE8               	decfsz	wreg,f,c
  3540   001AAC  EF50  F00D         	goto	u4815
  3541   001AB0  5041               	movf	??_sqrtf^0,w,c
  3542   001AB2  265E               	addwf	sqrtf@ix^0,f,c
  3543   001AB4  5042               	movf	(??_sqrtf+1)^0,w,c
  3544   001AB6  225F               	addwfc	(sqrtf@ix+1)^0,f,c
  3545   001AB8  5043               	movf	(??_sqrtf+2)^0,w,c
  3546   001ABA  2260               	addwfc	(sqrtf@ix+2)^0,f,c
  3547   001ABC  5044               	movf	(??_sqrtf+3)^0,w,c
  3548   001ABE  2261               	addwfc	(sqrtf@ix+3)^0,f,c
  3549   001AC0  EFBC  F00B         	goto	l4017
  3550   001AC4                     l1122:
  3551   001AC4  0012               	return		;funcret
  3552   001AC6                     __end_of_sqrtf:
  3553                           	callstack 0
  3554                           
  3555 ;; *************** function _atan2f *****************
  3556 ;; Defined at:
  3557 ;;		line 22 in file "C:\Program Files\Microchip\xc8\v2.50\pic\sources\c99\common\atan2f.c"
  3558 ;; Parameters:    Size  Location     Type
  3559 ;;  y               4   63[BANK0 ] float 
  3560 ;;  x               4   67[BANK0 ] float 
  3561 ;; Auto vars:     Size  Location     Type
  3562 ;;  iy              4   99[BANK0 ] struct .
  3563 ;;  ix              4   95[BANK0 ] struct .
  3564 ;;  z               4   91[BANK0 ] float 
  3565 ;;  m               1  103[BANK0 ] unsigned char 
  3566 ;; Return value:  Size  Location     Type
  3567 ;;                  4   63[BANK0 ] float 
  3568 ;; Registers used:
  3569 ;;		wreg, status,2, status,0, tblptrl, tblptrh, tblptru, prodl, prodh, cstack
  3570 ;; Tracked objects:
  3571 ;;		On entry : 0/0
  3572 ;;		On exit  : 0/0
  3573 ;;		Unchanged: 0/0
  3574 ;; Data sizes:     COMRAM   BANK0   BANK1   BANK2   BANK3   BANK4   BANK5
  3575 ;;      Params:         0       8       0       0       0       0       0
  3576 ;;      Locals:         0      25       0       0       0       0       0
  3577 ;;      Temps:          0       8       0       0       0       0       0
  3578 ;;      Totals:         0      41       0       0       0       0       0
  3579 ;;Total ram usage:       41 bytes
  3580 ;; Hardware stack levels used: 1
  3581 ;; Hardware stack levels required when called: 4
  3582 ;; This function calls:
  3583 ;;		___fladd
  3584 ;;		___fldiv
  3585 ;;		___flneg
  3586 ;;		___flsub
  3587 ;;		___fpclassifyf
  3588 ;;		_atanf
  3589 ;;		_fabsf
  3590 ;; This function is called by:
  3591 ;;		_calculate_angle
  3592 ;; This function uses a non-reentrant model
  3593 ;;
  3594                           
  3595                           	psect	text12
  3596   000850                     __ptext12:
  3597                           	callstack 0
  3598   000850                     _atan2f:
  3599                           	callstack 22
  3600   000850  C0C3  F006         	movff	atan2f@x,___fpclassifyf@x
  3601   000854  C0C4  F007         	movff	atan2f@x+1,___fpclassifyf@x+1
  3602   000858  C0C5  F008         	movff	atan2f@x+2,___fpclassifyf@x+2
  3603   00085C  C0C6  F009         	movff	atan2f@x+3,___fpclassifyf@x+3
  3604   000860  EC87  F012         	call	___fpclassifyf	;wreg free
  3605   000864  5006               	movf	?___fpclassifyf^0,w,c
  3606   000866  1007               	iorwf	(?___fpclassifyf+1)^0,w,c
  3607   000868  B4D8               	btfsc	status,2,c
  3608   00086A  EF39  F004         	goto	u4821
  3609   00086E  EF3B  F004         	goto	u4820
  3610   000872                     u4821:
  3611   000872  EF4E  F004         	goto	l4077
  3612   000876                     u4820:
  3613   000876  C0BF  F006         	movff	atan2f@y,___fpclassifyf@x
  3614   00087A  C0C0  F007         	movff	atan2f@y+1,___fpclassifyf@x+1
  3615   00087E  C0C1  F008         	movff	atan2f@y+2,___fpclassifyf@x+2
  3616   000882  C0C2  F009         	movff	atan2f@y+3,___fpclassifyf@x+3
  3617   000886  EC87  F012         	call	___fpclassifyf	;wreg free
  3618   00088A  5006               	movf	?___fpclassifyf^0,w,c
  3619   00088C  1007               	iorwf	(?___fpclassifyf+1)^0,w,c
  3620   00088E  A4D8               	btfss	status,2,c
  3621   000890  EF4C  F004         	goto	u4831
  3622   000894  EF4E  F004         	goto	u4830
  3623   000898                     u4831:
  3624   000898  EF6A  F004         	goto	l1009
  3625   00089C                     u4830:
  3626   00089C                     l4077:
  3627   00089C  C0C3  F02D         	movff	atan2f@x,___fladd@b
  3628   0008A0  C0C4  F02E         	movff	atan2f@x+1,___fladd@b+1
  3629   0008A4  C0C5  F02F         	movff	atan2f@x+2,___fladd@b+2
  3630   0008A8  C0C6  F030         	movff	atan2f@x+3,___fladd@b+3
  3631   0008AC  C0BF  F031         	movff	atan2f@y,___fladd@a
  3632   0008B0  C0C0  F032         	movff	atan2f@y+1,___fladd@a+1
  3633   0008B4  C0C1  F033         	movff	atan2f@y+2,___fladd@a+2
  3634   0008B8  C0C2  F034         	movff	atan2f@y+3,___fladd@a+3
  3635   0008BC  EC06  F007         	call	___fladd	;wreg free
  3636   0008C0  C02D  F0BF         	movff	?___fladd,?_atan2f
  3637   0008C4  C02E  F0C0         	movff	?___fladd+1,?_atan2f+1
  3638   0008C8  C02F  F0C1         	movff	?___fladd+2,?_atan2f+2
  3639   0008CC  C030  F0C2         	movff	?___fladd+3,?_atan2f+3
  3640   0008D0  EF05  F007         	goto	l1012
  3641   0008D4                     l1009:
  3642   0008D4  C0C3  F0DF         	movff	atan2f@x,atan2f@ix
  3643   0008D8  C0C4  F0E0         	movff	atan2f@x+1,atan2f@ix+1
  3644   0008DC  C0C5  F0E1         	movff	atan2f@x+2,atan2f@ix+2
  3645   0008E0  C0C6  F0E2         	movff	atan2f@x+3,atan2f@ix+3
  3646   0008E4  C0BF  F0E3         	movff	atan2f@y,atan2f@iy
  3647   0008E8  C0C0  F0E4         	movff	atan2f@y+1,atan2f@iy+1
  3648   0008EC  C0C1  F0E5         	movff	atan2f@y+2,atan2f@iy+2
  3649   0008F0  C0C2  F0E6         	movff	atan2f@y+3,atan2f@iy+3
  3650   0008F4  0E80               	movlw	128
  3651   0008F6  0100               	movlb	0	; () banked
  3652   0008F8  19E1               	xorwf	(atan2f@ix+2)& (0+255),w,b
  3653   0008FA  E109               	bnz	u4841
  3654   0008FC  0E3F               	movlw	63
  3655   0008FE  19E2               	xorwf	(atan2f@ix+3)& (0+255),w,b
  3656   000900  11DF               	iorwf	atan2f@ix& (0+255),w,b
  3657   000902  11E0               	iorwf	(atan2f@ix+1)& (0+255),w,b
  3658   000904  A4D8               	btfss	status,2,c
  3659   000906  EF87  F004         	goto	u4841
  3660   00090A  EF89  F004         	goto	u4840
  3661   00090E                     u4841:
  3662   00090E  EF9D  F004         	goto	l4087
  3663   000912                     u4840:
  3664   000912                     
  3665                           ; BSR set to: 0
  3666   000912  C0BF  F091         	movff	atan2f@y,atanf@x
  3667   000916  C0C0  F092         	movff	atan2f@y+1,atanf@x+1
  3668   00091A  C0C1  F093         	movff	atan2f@y+2,atanf@x+2
  3669   00091E  C0C2  F094         	movff	atan2f@y+3,atanf@x+3
  3670   000922  EC73  F000         	call	_atanf	;wreg free
  3671   000926  C091  F0BF         	movff	?_atanf,?_atan2f
  3672   00092A  C092  F0C0         	movff	?_atanf+1,?_atan2f+1
  3673   00092E  C093  F0C1         	movff	?_atanf+2,?_atan2f+2
  3674   000932  C094  F0C2         	movff	?_atanf+3,?_atan2f+3
  3675   000936  EF05  F007         	goto	l1012
  3676   00093A                     l4087:
  3677                           
  3678                           ; BSR set to: 0
  3679   00093A  C0DF  F0C7         	movff	atan2f@ix,??_atan2f
  3680   00093E  C0E0  F0C8         	movff	atan2f@ix+1,??_atan2f+1
  3681   000942  C0E1  F0C9         	movff	atan2f@ix+2,??_atan2f+2
  3682   000946  C0E2  F0CA         	movff	atan2f@ix+3,??_atan2f+3
  3683   00094A  0E1F               	movlw	31
  3684   00094C  EFAD  F004         	goto	u4850
  3685   000950                     u4855:
  3686   000950  90D8               	bcf	status,0,c
  3687   000952  33CA               	rrcf	(??_atan2f+3)& (0+255),f,b
  3688   000954  33C9               	rrcf	(??_atan2f+2)& (0+255),f,b
  3689   000956  33C8               	rrcf	(??_atan2f+1)& (0+255),f,b
  3690   000958  33C7               	rrcf	??_atan2f& (0+255),f,b
  3691   00095A                     u4850:
  3692   00095A  2EE8               	decfsz	wreg,f,c
  3693   00095C  EFA8  F004         	goto	u4855
  3694   000960  0E02               	movlw	2
  3695   000962  17C7               	andwf	??_atan2f& (0+255),f,b
  3696   000964  C0E3  F0CB         	movff	atan2f@iy,??_atan2f+4
  3697   000968  C0E4  F0CC         	movff	atan2f@iy+1,??_atan2f+5
  3698   00096C  C0E5  F0CD         	movff	atan2f@iy+2,??_atan2f+6
  3699   000970  C0E6  F0CE         	movff	atan2f@iy+3,??_atan2f+7
  3700   000974  0E20               	movlw	32
  3701   000976  EFC2  F004         	goto	u4860
  3702   00097A                     u4865:
  3703   00097A  90D8               	bcf	status,0,c
  3704   00097C  33CE               	rrcf	(??_atan2f+7)& (0+255),f,b
  3705   00097E  33CD               	rrcf	(??_atan2f+6)& (0+255),f,b
  3706   000980  33CC               	rrcf	(??_atan2f+5)& (0+255),f,b
  3707   000982  33CB               	rrcf	(??_atan2f+4)& (0+255),f,b
  3708   000984                     u4860:
  3709   000984  2EE8               	decfsz	wreg,f,c
  3710   000986  EFBD  F004         	goto	u4865
  3711   00098A  51CB               	movf	(??_atan2f+4)& (0+255),w,b
  3712   00098C  0B01               	andlw	1
  3713   00098E  11C7               	iorwf	??_atan2f& (0+255),w,b
  3714   000990  6FE7               	movwf	atan2f@m& (0+255),b
  3715   000992                     
  3716                           ; BSR set to: 0
  3717   000992  9FE2               	bcf	(atan2f@ix+3)& (0+255),7,b
  3718   000994                     
  3719                           ; BSR set to: 0
  3720   000994  9FE6               	bcf	(atan2f@iy+3)& (0+255),7,b
  3721   000996  51E3               	movf	atan2f@iy& (0+255),w,b
  3722   000998  11E4               	iorwf	(atan2f@iy+1)& (0+255),w,b
  3723   00099A  11E5               	iorwf	(atan2f@iy+2)& (0+255),w,b
  3724   00099C  11E6               	iorwf	(atan2f@iy+3)& (0+255),w,b
  3725   00099E  A4D8               	btfss	status,2,c
  3726   0009A0  EFD4  F004         	goto	u4871
  3727   0009A4  EFD6  F004         	goto	u4870
  3728   0009A8                     u4871:
  3729   0009A8  EF09  F005         	goto	l4107
  3730   0009AC                     u4870:
  3731   0009AC  EFF6  F004         	goto	l4105
  3732   0009B0                     l1017:
  3733                           
  3734                           ; BSR set to: 0
  3735   0009B0  C0BF  F0BF         	movff	atan2f@y,?_atan2f
  3736   0009B4  C0C0  F0C0         	movff	atan2f@y+1,?_atan2f+1
  3737   0009B8  C0C1  F0C1         	movff	atan2f@y+2,?_atan2f+2
  3738   0009BC  C0C2  F0C2         	movff	atan2f@y+3,?_atan2f+3
  3739   0009C0  EF05  F007         	goto	l1012
  3740   0009C4                     l4095:
  3741                           
  3742                           ; BSR set to: 0
  3743   0009C4  0EDB               	movlw	219
  3744   0009C6  6FBF               	movwf	?_atan2f& (0+255),b
  3745   0009C8  0E0F               	movlw	15
  3746   0009CA  6FC0               	movwf	(?_atan2f+1)& (0+255),b
  3747   0009CC  0E49               	movlw	73
  3748   0009CE  6FC1               	movwf	(?_atan2f+2)& (0+255),b
  3749   0009D0  0E40               	movlw	64
  3750   0009D2  6FC2               	movwf	(?_atan2f+3)& (0+255),b
  3751   0009D4  EF05  F007         	goto	l1012
  3752   0009D8                     l4099:
  3753                           
  3754                           ; BSR set to: 0
  3755   0009D8  0EDB               	movlw	219
  3756   0009DA  6FBF               	movwf	?_atan2f& (0+255),b
  3757   0009DC  0E0F               	movlw	15
  3758   0009DE  6FC0               	movwf	(?_atan2f+1)& (0+255),b
  3759   0009E0  0E49               	movlw	73
  3760   0009E2  6FC1               	movwf	(?_atan2f+2)& (0+255),b
  3761   0009E4  0EC0               	movlw	192
  3762   0009E6  6FC2               	movwf	(?_atan2f+3)& (0+255),b
  3763   0009E8  EF05  F007         	goto	l1012
  3764   0009EC                     l4105:
  3765                           
  3766                           ; BSR set to: 0
  3767   0009EC  51E7               	movf	atan2f@m& (0+255),w,b
  3768                           
  3769                           ; Switch size 1, requested type "simple"
  3770                           ; Number of cases is 4, Range of values is 0 to 3
  3771                           ; switch strategies available:
  3772                           ; Name         Instructions Cycles
  3773                           ; simple_byte           13     7 (average)
  3774                           ;	Chosen strategy is simple_byte
  3775   0009EE  0A00               	xorlw	0	; case 0
  3776   0009F0  B4D8               	btfsc	status,2,c
  3777   0009F2  EFD8  F004         	goto	l1017
  3778   0009F6  0A01               	xorlw	1	; case 1
  3779   0009F8  B4D8               	btfsc	status,2,c
  3780   0009FA  EFD8  F004         	goto	l1017
  3781   0009FE  0A03               	xorlw	3	; case 2
  3782   000A00  B4D8               	btfsc	status,2,c
  3783   000A02  EFE2  F004         	goto	l4095
  3784   000A06  0A01               	xorlw	1	; case 3
  3785   000A08  B4D8               	btfsc	status,2,c
  3786   000A0A  EFEC  F004         	goto	l4099
  3787   000A0E  EF09  F005         	goto	l4107
  3788   000A12                     l4107:
  3789                           
  3790                           ; BSR set to: 0
  3791   000A12  51DF               	movf	atan2f@ix& (0+255),w,b
  3792   000A14  11E0               	iorwf	(atan2f@ix+1)& (0+255),w,b
  3793   000A16  11E1               	iorwf	(atan2f@ix+2)& (0+255),w,b
  3794   000A18  11E2               	iorwf	(atan2f@ix+3)& (0+255),w,b
  3795   000A1A  A4D8               	btfss	status,2,c
  3796   000A1C  EF12  F005         	goto	u4881
  3797   000A20  EF14  F005         	goto	u4880
  3798   000A24                     u4881:
  3799   000A24  EF2F  F005         	goto	l4117
  3800   000A28                     u4880:
  3801   000A28                     
  3802                           ; BSR set to: 0
  3803   000A28  B1E7               	btfsc	atan2f@m& (0+255),0,b
  3804   000A2A  EF19  F005         	goto	u4891
  3805   000A2E  EF1B  F005         	goto	u4890
  3806   000A32                     u4891:
  3807   000A32  EF25  F005         	goto	l4113
  3808   000A36                     u4890:
  3809   000A36                     
  3810                           ; BSR set to: 0
  3811   000A36  0EDB               	movlw	219
  3812   000A38  6FBF               	movwf	?_atan2f& (0+255),b
  3813   000A3A  0E0F               	movlw	15
  3814   000A3C  6FC0               	movwf	(?_atan2f+1)& (0+255),b
  3815   000A3E  0EC9               	movlw	201
  3816   000A40  6FC1               	movwf	(?_atan2f+2)& (0+255),b
  3817   000A42  0E3F               	movlw	63
  3818   000A44  6FC2               	movwf	(?_atan2f+3)& (0+255),b
  3819   000A46  EF05  F007         	goto	l1012
  3820   000A4A                     l4113:
  3821                           
  3822                           ; BSR set to: 0
  3823   000A4A  0EDB               	movlw	219
  3824   000A4C  6FBF               	movwf	?_atan2f& (0+255),b
  3825   000A4E  0E0F               	movlw	15
  3826   000A50  6FC0               	movwf	(?_atan2f+1)& (0+255),b
  3827   000A52  0EC9               	movlw	201
  3828   000A54  6FC1               	movwf	(?_atan2f+2)& (0+255),b
  3829   000A56  0EBF               	movlw	191
  3830   000A58  6FC2               	movwf	(?_atan2f+3)& (0+255),b
  3831   000A5A  EF05  F007         	goto	l1012
  3832   000A5E                     l4117:
  3833                           
  3834                           ; BSR set to: 0
  3835   000A5E  0E80               	movlw	128
  3836   000A60  19E1               	xorwf	(atan2f@ix+2)& (0+255),w,b
  3837   000A62  E109               	bnz	u4901
  3838   000A64  0E7F               	movlw	127
  3839   000A66  19E2               	xorwf	(atan2f@ix+3)& (0+255),w,b
  3840   000A68  11DF               	iorwf	atan2f@ix& (0+255),w,b
  3841   000A6A  11E0               	iorwf	(atan2f@ix+1)& (0+255),w,b
  3842   000A6C  A4D8               	btfss	status,2,c
  3843   000A6E  EF3B  F005         	goto	u4901
  3844   000A72  EF3D  F005         	goto	u4900
  3845   000A76                     u4901:
  3846   000A76  EFC3  F005         	goto	l4163
  3847   000A7A                     u4900:
  3848   000A7A                     
  3849                           ; BSR set to: 0
  3850   000A7A  0E80               	movlw	128
  3851   000A7C  19E5               	xorwf	(atan2f@iy+2)& (0+255),w,b
  3852   000A7E  E109               	bnz	u4911
  3853   000A80  0E7F               	movlw	127
  3854   000A82  19E6               	xorwf	(atan2f@iy+3)& (0+255),w,b
  3855   000A84  11E3               	iorwf	atan2f@iy& (0+255),w,b
  3856   000A86  11E4               	iorwf	(atan2f@iy+1)& (0+255),w,b
  3857   000A88  A4D8               	btfss	status,2,c
  3858   000A8A  EF49  F005         	goto	u4911
  3859   000A8E  EF4B  F005         	goto	u4910
  3860   000A92                     u4911:
  3861   000A92  EFB0  F005         	goto	l4161
  3862   000A96                     u4910:
  3863   000A96  EF75  F005         	goto	l4141
  3864   000A9A                     l4123:
  3865                           
  3866                           ; BSR set to: 0
  3867   000A9A  0EDB               	movlw	219
  3868   000A9C  6FBF               	movwf	?_atan2f& (0+255),b
  3869   000A9E  0E0F               	movlw	15
  3870   000AA0  6FC0               	movwf	(?_atan2f+1)& (0+255),b
  3871   000AA2  0E49               	movlw	73
  3872   000AA4  6FC1               	movwf	(?_atan2f+2)& (0+255),b
  3873   000AA6  0E3F               	movlw	63
  3874   000AA8  6FC2               	movwf	(?_atan2f+3)& (0+255),b
  3875   000AAA  EF05  F007         	goto	l1012
  3876   000AAE                     l4127:
  3877                           
  3878                           ; BSR set to: 0
  3879   000AAE  0EDB               	movlw	219
  3880   000AB0  6FBF               	movwf	?_atan2f& (0+255),b
  3881   000AB2  0E0F               	movlw	15
  3882   000AB4  6FC0               	movwf	(?_atan2f+1)& (0+255),b
  3883   000AB6  0E49               	movlw	73
  3884   000AB8  6FC1               	movwf	(?_atan2f+2)& (0+255),b
  3885   000ABA  0EBF               	movlw	191
  3886   000ABC  6FC2               	movwf	(?_atan2f+3)& (0+255),b
  3887   000ABE  EF05  F007         	goto	l1012
  3888   000AC2                     l4131:
  3889                           
  3890                           ; BSR set to: 0
  3891   000AC2  0EE4               	movlw	228
  3892   000AC4  6FBF               	movwf	?_atan2f& (0+255),b
  3893   000AC6  0ECB               	movlw	203
  3894   000AC8  6FC0               	movwf	(?_atan2f+1)& (0+255),b
  3895   000ACA  0E16               	movlw	22
  3896   000ACC  6FC1               	movwf	(?_atan2f+2)& (0+255),b
  3897   000ACE  0E40               	movlw	64
  3898   000AD0  6FC2               	movwf	(?_atan2f+3)& (0+255),b
  3899   000AD2  EF05  F007         	goto	l1012
  3900   000AD6                     l4135:
  3901                           
  3902                           ; BSR set to: 0
  3903   000AD6  0EE4               	movlw	228
  3904   000AD8  6FBF               	movwf	?_atan2f& (0+255),b
  3905   000ADA  0ECB               	movlw	203
  3906   000ADC  6FC0               	movwf	(?_atan2f+1)& (0+255),b
  3907   000ADE  0E16               	movlw	22
  3908   000AE0  6FC1               	movwf	(?_atan2f+2)& (0+255),b
  3909   000AE2  0EC0               	movlw	192
  3910   000AE4  6FC2               	movwf	(?_atan2f+3)& (0+255),b
  3911   000AE6  EF05  F007         	goto	l1012
  3912   000AEA                     l4141:
  3913                           
  3914                           ; BSR set to: 0
  3915   000AEA  51E7               	movf	atan2f@m& (0+255),w,b
  3916                           
  3917                           ; Switch size 1, requested type "simple"
  3918                           ; Number of cases is 4, Range of values is 0 to 3
  3919                           ; switch strategies available:
  3920                           ; Name         Instructions Cycles
  3921                           ; simple_byte           13     7 (average)
  3922                           ;	Chosen strategy is simple_byte
  3923   000AEC  0A00               	xorlw	0	; case 0
  3924   000AEE  B4D8               	btfsc	status,2,c
  3925   000AF0  EF4D  F005         	goto	l4123
  3926   000AF4  0A01               	xorlw	1	; case 1
  3927   000AF6  B4D8               	btfsc	status,2,c
  3928   000AF8  EF57  F005         	goto	l4127
  3929   000AFC  0A03               	xorlw	3	; case 2
  3930   000AFE  B4D8               	btfsc	status,2,c
  3931   000B00  EF61  F005         	goto	l4131
  3932   000B04  0A01               	xorlw	1	; case 3
  3933   000B06  B4D8               	btfsc	status,2,c
  3934   000B08  EF6B  F005         	goto	l4135
  3935   000B0C  EFC3  F005         	goto	l4163
  3936   000B10                     l4143:
  3937                           
  3938                           ; BSR set to: 0
  3939   000B10  0E00               	movlw	0
  3940   000B12  6FBF               	movwf	?_atan2f& (0+255),b
  3941   000B14  0E00               	movlw	0
  3942   000B16  6FC0               	movwf	(?_atan2f+1)& (0+255),b
  3943   000B18  0E00               	movlw	0
  3944   000B1A  6FC1               	movwf	(?_atan2f+2)& (0+255),b
  3945   000B1C  0E00               	movlw	0
  3946   000B1E  6FC2               	movwf	(?_atan2f+3)& (0+255),b
  3947   000B20  EF05  F007         	goto	l1012
  3948   000B24                     l4147:
  3949                           
  3950                           ; BSR set to: 0
  3951   000B24  0E00               	movlw	0
  3952   000B26  6FBF               	movwf	?_atan2f& (0+255),b
  3953   000B28  0E00               	movlw	0
  3954   000B2A  6FC0               	movwf	(?_atan2f+1)& (0+255),b
  3955   000B2C  0E00               	movlw	0
  3956   000B2E  6FC1               	movwf	(?_atan2f+2)& (0+255),b
  3957   000B30  0E80               	movlw	128
  3958   000B32  6FC2               	movwf	(?_atan2f+3)& (0+255),b
  3959   000B34  EF05  F007         	goto	l1012
  3960   000B38                     l4151:
  3961                           
  3962                           ; BSR set to: 0
  3963   000B38  0EDB               	movlw	219
  3964   000B3A  6FBF               	movwf	?_atan2f& (0+255),b
  3965   000B3C  0E0F               	movlw	15
  3966   000B3E  6FC0               	movwf	(?_atan2f+1)& (0+255),b
  3967   000B40  0E49               	movlw	73
  3968   000B42  6FC1               	movwf	(?_atan2f+2)& (0+255),b
  3969   000B44  0E40               	movlw	64
  3970   000B46  6FC2               	movwf	(?_atan2f+3)& (0+255),b
  3971   000B48  EF05  F007         	goto	l1012
  3972   000B4C                     l4155:
  3973                           
  3974                           ; BSR set to: 0
  3975   000B4C  0EDB               	movlw	219
  3976   000B4E  6FBF               	movwf	?_atan2f& (0+255),b
  3977   000B50  0E0F               	movlw	15
  3978   000B52  6FC0               	movwf	(?_atan2f+1)& (0+255),b
  3979   000B54  0E49               	movlw	73
  3980   000B56  6FC1               	movwf	(?_atan2f+2)& (0+255),b
  3981   000B58  0EC0               	movlw	192
  3982   000B5A  6FC2               	movwf	(?_atan2f+3)& (0+255),b
  3983   000B5C  EF05  F007         	goto	l1012
  3984   000B60                     l4161:
  3985                           
  3986                           ; BSR set to: 0
  3987   000B60  51E7               	movf	atan2f@m& (0+255),w,b
  3988                           
  3989                           ; Switch size 1, requested type "simple"
  3990                           ; Number of cases is 4, Range of values is 0 to 3
  3991                           ; switch strategies available:
  3992                           ; Name         Instructions Cycles
  3993                           ; simple_byte           13     7 (average)
  3994                           ;	Chosen strategy is simple_byte
  3995   000B62  0A00               	xorlw	0	; case 0
  3996   000B64  B4D8               	btfsc	status,2,c
  3997   000B66  EF88  F005         	goto	l4143
  3998   000B6A  0A01               	xorlw	1	; case 1
  3999   000B6C  B4D8               	btfsc	status,2,c
  4000   000B6E  EF92  F005         	goto	l4147
  4001   000B72  0A03               	xorlw	3	; case 2
  4002   000B74  B4D8               	btfsc	status,2,c
  4003   000B76  EF9C  F005         	goto	l4151
  4004   000B7A  0A01               	xorlw	1	; case 3
  4005   000B7C  B4D8               	btfsc	status,2,c
  4006   000B7E  EFA6  F005         	goto	l4155
  4007   000B82  EFC3  F005         	goto	l4163
  4008   000B86                     l4163:
  4009                           
  4010                           ; BSR set to: 0
  4011   000B86  0E00               	movlw	0
  4012   000B88  25DF               	addwf	atan2f@ix& (0+255),w,b
  4013   000B8A  6FC7               	movwf	??_atan2f& (0+255),b
  4014   000B8C  0E00               	movlw	0
  4015   000B8E  21E0               	addwfc	(atan2f@ix+1)& (0+255),w,b
  4016   000B90  6FC8               	movwf	(??_atan2f+1)& (0+255),b
  4017   000B92  0E00               	movlw	0
  4018   000B94  21E1               	addwfc	(atan2f@ix+2)& (0+255),w,b
  4019   000B96  6FC9               	movwf	(??_atan2f+2)& (0+255),b
  4020   000B98  0E0D               	movlw	13
  4021   000B9A  21E2               	addwfc	(atan2f@ix+3)& (0+255),w,b
  4022   000B9C  6FCA               	movwf	(??_atan2f+3)& (0+255),b
  4023   000B9E  51E3               	movf	atan2f@iy& (0+255),w,b
  4024   000BA0  5DC7               	subwf	??_atan2f& (0+255),w,b
  4025   000BA2  51E4               	movf	(atan2f@iy+1)& (0+255),w,b
  4026   000BA4  59C8               	subwfb	(??_atan2f+1)& (0+255),w,b
  4027   000BA6  51E5               	movf	(atan2f@iy+2)& (0+255),w,b
  4028   000BA8  59C9               	subwfb	(??_atan2f+2)& (0+255),w,b
  4029   000BAA  51E6               	movf	(atan2f@iy+3)& (0+255),w,b
  4030   000BAC  59CA               	subwfb	(??_atan2f+3)& (0+255),w,b
  4031   000BAE  A0D8               	btfss	status,0,c
  4032   000BB0  EFDC  F005         	goto	u4921
  4033   000BB4  EFDE  F005         	goto	u4920
  4034   000BB8                     u4921:
  4035   000BB8  EFEC  F005         	goto	l1043
  4036   000BBC                     u4920:
  4037   000BBC                     
  4038                           ; BSR set to: 0
  4039   000BBC  0E80               	movlw	128
  4040   000BBE  19E5               	xorwf	(atan2f@iy+2)& (0+255),w,b
  4041   000BC0  E109               	bnz	u4931
  4042   000BC2  0E7F               	movlw	127
  4043   000BC4  19E6               	xorwf	(atan2f@iy+3)& (0+255),w,b
  4044   000BC6  11E3               	iorwf	atan2f@iy& (0+255),w,b
  4045   000BC8  11E4               	iorwf	(atan2f@iy+1)& (0+255),w,b
  4046   000BCA  A4D8               	btfss	status,2,c
  4047   000BCC  EFEA  F005         	goto	u4931
  4048   000BD0  EFEC  F005         	goto	u4930
  4049   000BD4                     u4931:
  4050   000BD4  EF07  F006         	goto	l1041
  4051   000BD8                     u4930:
  4052   000BD8                     l1043:
  4053                           
  4054                           ; BSR set to: 0
  4055   000BD8  B1E7               	btfsc	atan2f@m& (0+255),0,b
  4056   000BDA  EFF1  F005         	goto	u4941
  4057   000BDE  EFF3  F005         	goto	u4940
  4058   000BE2                     u4941:
  4059   000BE2  EFFD  F005         	goto	l4169
  4060   000BE6                     u4940:
  4061   000BE6                     
  4062                           ; BSR set to: 0
  4063   000BE6  0EDB               	movlw	219
  4064   000BE8  6FBF               	movwf	?_atan2f& (0+255),b
  4065   000BEA  0E0F               	movlw	15
  4066   000BEC  6FC0               	movwf	(?_atan2f+1)& (0+255),b
  4067   000BEE  0EC9               	movlw	201
  4068   000BF0  6FC1               	movwf	(?_atan2f+2)& (0+255),b
  4069   000BF2  0E3F               	movlw	63
  4070   000BF4  6FC2               	movwf	(?_atan2f+3)& (0+255),b
  4071   000BF6  EF05  F007         	goto	l1012
  4072   000BFA                     l4169:
  4073                           
  4074                           ; BSR set to: 0
  4075   000BFA  0EDB               	movlw	219
  4076   000BFC  6FBF               	movwf	?_atan2f& (0+255),b
  4077   000BFE  0E0F               	movlw	15
  4078   000C00  6FC0               	movwf	(?_atan2f+1)& (0+255),b
  4079   000C02  0EC9               	movlw	201
  4080   000C04  6FC1               	movwf	(?_atan2f+2)& (0+255),b
  4081   000C06  0EBF               	movlw	191
  4082   000C08  6FC2               	movwf	(?_atan2f+3)& (0+255),b
  4083   000C0A  EF05  F007         	goto	l1012
  4084   000C0E                     l1041:
  4085                           
  4086                           ; BSR set to: 0
  4087   000C0E  A3E7               	btfss	atan2f@m& (0+255),1,b
  4088   000C10  EF0C  F006         	goto	u4951
  4089   000C14  EF0E  F006         	goto	u4950
  4090   000C18                     u4951:
  4091   000C18  EF33  F006         	goto	l4177
  4092   000C1C                     u4950:
  4093   000C1C                     
  4094                           ; BSR set to: 0
  4095   000C1C  0E00               	movlw	0
  4096   000C1E  25E3               	addwf	atan2f@iy& (0+255),w,b
  4097   000C20  6FC7               	movwf	??_atan2f& (0+255),b
  4098   000C22  0E00               	movlw	0
  4099   000C24  21E4               	addwfc	(atan2f@iy+1)& (0+255),w,b
  4100   000C26  6FC8               	movwf	(??_atan2f+1)& (0+255),b
  4101   000C28  0E00               	movlw	0
  4102   000C2A  21E5               	addwfc	(atan2f@iy+2)& (0+255),w,b
  4103   000C2C  6FC9               	movwf	(??_atan2f+2)& (0+255),b
  4104   000C2E  0E0D               	movlw	13
  4105   000C30  21E6               	addwfc	(atan2f@iy+3)& (0+255),w,b
  4106   000C32  6FCA               	movwf	(??_atan2f+3)& (0+255),b
  4107   000C34  51DF               	movf	atan2f@ix& (0+255),w,b
  4108   000C36  5DC7               	subwf	??_atan2f& (0+255),w,b
  4109   000C38  51E0               	movf	(atan2f@ix+1)& (0+255),w,b
  4110   000C3A  59C8               	subwfb	(??_atan2f+1)& (0+255),w,b
  4111   000C3C  51E1               	movf	(atan2f@ix+2)& (0+255),w,b
  4112   000C3E  59C9               	subwfb	(??_atan2f+2)& (0+255),w,b
  4113   000C40  51E2               	movf	(atan2f@ix+3)& (0+255),w,b
  4114   000C42  59CA               	subwfb	(??_atan2f+3)& (0+255),w,b
  4115   000C44  B0D8               	btfsc	status,0,c
  4116   000C46  EF27  F006         	goto	u4961
  4117   000C4A  EF29  F006         	goto	u4960
  4118   000C4E                     u4961:
  4119   000C4E  EF33  F006         	goto	l4177
  4120   000C52                     u4960:
  4121   000C52                     
  4122                           ; BSR set to: 0
  4123   000C52  0E00               	movlw	0
  4124   000C54  6FDB               	movwf	atan2f@z& (0+255),b
  4125   000C56  0E00               	movlw	0
  4126   000C58  6FDC               	movwf	(atan2f@z+1)& (0+255),b
  4127   000C5A  0E00               	movlw	0
  4128   000C5C  6FDD               	movwf	(atan2f@z+2)& (0+255),b
  4129   000C5E  0E00               	movlw	0
  4130   000C60  6FDE               	movwf	(atan2f@z+3)& (0+255),b
  4131   000C62  EFF5  F006         	goto	l4195
  4132   000C66                     l4177:
  4133                           
  4134                           ; BSR set to: 0
  4135   000C66  C0BF  F062         	movff	atan2f@y,___fldiv@b
  4136   000C6A  C0C0  F063         	movff	atan2f@y+1,___fldiv@b+1
  4137   000C6E  C0C1  F064         	movff	atan2f@y+2,___fldiv@b+2
  4138   000C72  C0C2  F065         	movff	atan2f@y+3,___fldiv@b+3
  4139   000C76  C0C3  F066         	movff	atan2f@x,___fldiv@a
  4140   000C7A  C0C4  F067         	movff	atan2f@x+1,___fldiv@a+1
  4141   000C7E  C0C5  F068         	movff	atan2f@x+2,___fldiv@a+2
  4142   000C82  C0C6  F069         	movff	atan2f@x+3,___fldiv@a+3
  4143   000C86  EC63  F00D         	call	___fldiv	;wreg free
  4144   000C8A  C062  F06E         	movff	?___fldiv,fabsf@x
  4145   000C8E  C063  F06F         	movff	?___fldiv+1,fabsf@x+1
  4146   000C92  C064  F070         	movff	?___fldiv+2,fabsf@x+2
  4147   000C96  C065  F071         	movff	?___fldiv+3,fabsf@x+3
  4148   000C9A  EC50  F014         	call	_fabsf	;wreg free
  4149   000C9E  C06E  F0CF         	movff	?_fabsf,_atan2f$1903
  4150   000CA2  C06F  F0D0         	movff	?_fabsf+1,_atan2f$1903+1
  4151   000CA6  C070  F0D1         	movff	?_fabsf+2,_atan2f$1903+2
  4152   000CAA  C071  F0D2         	movff	?_fabsf+3,_atan2f$1903+3
  4153   000CAE  C0CF  F091         	movff	_atan2f$1903,atanf@x
  4154   000CB2  C0D0  F092         	movff	_atan2f$1903+1,atanf@x+1
  4155   000CB6  C0D1  F093         	movff	_atan2f$1903+2,atanf@x+2
  4156   000CBA  C0D2  F094         	movff	_atan2f$1903+3,atanf@x+3
  4157   000CBE  EC73  F000         	call	_atanf	;wreg free
  4158   000CC2  C091  F0DB         	movff	?_atanf,atan2f@z
  4159   000CC6  C092  F0DC         	movff	?_atanf+1,atan2f@z+1
  4160   000CCA  C093  F0DD         	movff	?_atanf+2,atan2f@z+2
  4161   000CCE  C094  F0DE         	movff	?_atanf+3,atan2f@z+3
  4162   000CD2  EFF5  F006         	goto	l4195
  4163   000CD6                     l1051:
  4164                           
  4165                           ; BSR set to: 0
  4166   000CD6  C0DB  F0BF         	movff	atan2f@z,?_atan2f
  4167   000CDA  C0DC  F0C0         	movff	atan2f@z+1,?_atan2f+1
  4168   000CDE  C0DD  F0C1         	movff	atan2f@z+2,?_atan2f+2
  4169   000CE2  C0DE  F0C2         	movff	atan2f@z+3,?_atan2f+3
  4170   000CE6  EF05  F007         	goto	l1012
  4171   000CEA                     l4181:
  4172                           
  4173                           ; BSR set to: 0
  4174   000CEA  C0DB  F006         	movff	atan2f@z,___flneg@f1
  4175   000CEE  C0DC  F007         	movff	atan2f@z+1,___flneg@f1+1
  4176   000CF2  C0DD  F008         	movff	atan2f@z+2,___flneg@f1+2
  4177   000CF6  C0DE  F009         	movff	atan2f@z+3,___flneg@f1+3
  4178   000CFA  EC19  F014         	call	___flneg	;wreg free
  4179   000CFE  C006  F0BF         	movff	?___flneg,?_atan2f
  4180   000D02  C007  F0C0         	movff	?___flneg+1,?_atan2f+1
  4181   000D06  C008  F0C1         	movff	?___flneg+2,?_atan2f+2
  4182   000D0A  C009  F0C2         	movff	?___flneg+3,?_atan2f+3
  4183   000D0E  EF05  F007         	goto	l1012
  4184   000D12                     l4185:
  4185                           
  4186                           ; BSR set to: 0
  4187   000D12  0E2E               	movlw	46
  4188   000D14  6E31               	movwf	___fladd@a^0,c
  4189   000D16  0EBD               	movlw	189
  4190   000D18  6E32               	movwf	(___fladd@a+1)^0,c
  4191   000D1A  0EBB               	movlw	187
  4192   000D1C  6E33               	movwf	(___fladd@a+2)^0,c
  4193   000D1E  0E33               	movlw	51
  4194   000D20  6E34               	movwf	(___fladd@a+3)^0,c
  4195   000D22  C0DB  F02D         	movff	atan2f@z,___fladd@b
  4196   000D26  C0DC  F02E         	movff	atan2f@z+1,___fladd@b+1
  4197   000D2A  C0DD  F02F         	movff	atan2f@z+2,___fladd@b+2
  4198   000D2E  C0DE  F030         	movff	atan2f@z+3,___fladd@b+3
  4199   000D32  EC06  F007         	call	___fladd	;wreg free
  4200   000D36  C02D  F0D3         	movff	?___fladd,_atan2f$1904
  4201   000D3A  C02E  F0D4         	movff	?___fladd+1,_atan2f$1904+1
  4202   000D3E  C02F  F0D5         	movff	?___fladd+2,_atan2f$1904+2
  4203   000D42  C030  F0D6         	movff	?___fladd+3,_atan2f$1904+3
  4204   000D46  0EDB               	movlw	219
  4205   000D48  6E3D               	movwf	___flsub@b^0,c
  4206   000D4A  0E0F               	movlw	15
  4207   000D4C  6E3E               	movwf	(___flsub@b+1)^0,c
  4208   000D4E  0E49               	movlw	73
  4209   000D50  6E3F               	movwf	(___flsub@b+2)^0,c
  4210   000D52  0E40               	movlw	64
  4211   000D54  6E40               	movwf	(___flsub@b+3)^0,c
  4212   000D56  C0D3  F041         	movff	_atan2f$1904,___flsub@a
  4213   000D5A  C0D4  F042         	movff	_atan2f$1904+1,___flsub@a+1
  4214   000D5E  C0D5  F043         	movff	_atan2f$1904+2,___flsub@a+2
  4215   000D62  C0D6  F044         	movff	_atan2f$1904+3,___flsub@a+3
  4216   000D66  ECB7  F013         	call	___flsub	;wreg free
  4217   000D6A  C03D  F0BF         	movff	?___flsub,?_atan2f
  4218   000D6E  C03E  F0C0         	movff	?___flsub+1,?_atan2f+1
  4219   000D72  C03F  F0C1         	movff	?___flsub+2,?_atan2f+2
  4220   000D76  C040  F0C2         	movff	?___flsub+3,?_atan2f+3
  4221   000D7A  EF05  F007         	goto	l1012
  4222   000D7E                     l4189:
  4223                           
  4224                           ; BSR set to: 0
  4225   000D7E  0E2E               	movlw	46
  4226   000D80  6E31               	movwf	___fladd@a^0,c
  4227   000D82  0EBD               	movlw	189
  4228   000D84  6E32               	movwf	(___fladd@a+1)^0,c
  4229   000D86  0EBB               	movlw	187
  4230   000D88  6E33               	movwf	(___fladd@a+2)^0,c
  4231   000D8A  0E33               	movlw	51
  4232   000D8C  6E34               	movwf	(___fladd@a+3)^0,c
  4233   000D8E  C0DB  F02D         	movff	atan2f@z,___fladd@b
  4234   000D92  C0DC  F02E         	movff	atan2f@z+1,___fladd@b+1
  4235   000D96  C0DD  F02F         	movff	atan2f@z+2,___fladd@b+2
  4236   000D9A  C0DE  F030         	movff	atan2f@z+3,___fladd@b+3
  4237   000D9E  EC06  F007         	call	___fladd	;wreg free
  4238   000DA2  C02D  F0D7         	movff	?___fladd,_atan2f$1905
  4239   000DA6  C02E  F0D8         	movff	?___fladd+1,_atan2f$1905+1
  4240   000DAA  C02F  F0D9         	movff	?___fladd+2,_atan2f$1905+2
  4241   000DAE  C030  F0DA         	movff	?___fladd+3,_atan2f$1905+3
  4242   000DB2  C0D7  F02D         	movff	_atan2f$1905,___fladd@b
  4243   000DB6  C0D8  F02E         	movff	_atan2f$1905+1,___fladd@b+1
  4244   000DBA  C0D9  F02F         	movff	_atan2f$1905+2,___fladd@b+2
  4245   000DBE  C0DA  F030         	movff	_atan2f$1905+3,___fladd@b+3
  4246   000DC2  0EDB               	movlw	219
  4247   000DC4  6E31               	movwf	___fladd@a^0,c
  4248   000DC6  0E0F               	movlw	15
  4249   000DC8  6E32               	movwf	(___fladd@a+1)^0,c
  4250   000DCA  0E49               	movlw	73
  4251   000DCC  6E33               	movwf	(___fladd@a+2)^0,c
  4252   000DCE  0EC0               	movlw	192
  4253   000DD0  6E34               	movwf	(___fladd@a+3)^0,c
  4254   000DD2  EC06  F007         	call	___fladd	;wreg free
  4255   000DD6  C02D  F0BF         	movff	?___fladd,?_atan2f
  4256   000DDA  C02E  F0C0         	movff	?___fladd+1,?_atan2f+1
  4257   000DDE  C02F  F0C1         	movff	?___fladd+2,?_atan2f+2
  4258   000DE2  C030  F0C2         	movff	?___fladd+3,?_atan2f+3
  4259   000DE6  EF05  F007         	goto	l1012
  4260   000DEA                     l4195:
  4261   000DEA  0100               	movlb	0	; () banked
  4262   000DEC  51E7               	movf	atan2f@m& (0+255),w,b
  4263                           
  4264                           ; Switch size 1, requested type "simple"
  4265                           ; Number of cases is 3, Range of values is 0 to 2
  4266                           ; switch strategies available:
  4267                           ; Name         Instructions Cycles
  4268                           ; simple_byte           10     6 (average)
  4269                           ;	Chosen strategy is simple_byte
  4270   000DEE  0A00               	xorlw	0	; case 0
  4271   000DF0  B4D8               	btfsc	status,2,c
  4272   000DF2  EF6B  F006         	goto	l1051
  4273   000DF6  0A01               	xorlw	1	; case 1
  4274   000DF8  B4D8               	btfsc	status,2,c
  4275   000DFA  EF75  F006         	goto	l4181
  4276   000DFE  0A03               	xorlw	3	; case 2
  4277   000E00  B4D8               	btfsc	status,2,c
  4278   000E02  EF89  F006         	goto	l4185
  4279   000E06  EFBF  F006         	goto	l4189
  4280   000E0A                     l1012:
  4281   000E0A  0012               	return		;funcret
  4282   000E0C                     __end_of_atan2f:
  4283                           	callstack 0
  4284                           
  4285 ;; *************** function _atanf *****************
  4286 ;; Defined at:
  4287 ;;		line 40 in file "C:\Program Files\Microchip\xc8\v2.50\pic\sources\c99\common\atanf.c"
  4288 ;; Parameters:    Size  Location     Type
  4289 ;;  x               4   17[BANK0 ] float 
  4290 ;; Auto vars:     Size  Location     Type
  4291 ;;  ix              4   59[BANK0 ] struct .
  4292 ;;  z               4   55[BANK0 ] float 
  4293 ;;  w               4   50[BANK0 ] float 
  4294 ;;  s2              4   37[BANK0 ] float 
  4295 ;;  s1              4   33[BANK0 ] float 
  4296 ;;  id              1   54[BANK0 ] char 
  4297 ;;  sign            1   49[BANK0 ] _Bool 
  4298 ;; Return value:  Size  Location     Type
  4299 ;;                  4   17[BANK0 ] float 
  4300 ;; Registers used:
  4301 ;;		wreg, status,2, status,0, tblptrl, tblptrh, tblptru, prodl, prodh, cstack
  4302 ;; Tracked objects:
  4303 ;;		On entry : 0/0
  4304 ;;		On exit  : 0/0
  4305 ;;		Unchanged: 0/0
  4306 ;; Data sizes:     COMRAM   BANK0   BANK1   BANK2   BANK3   BANK4   BANK5
  4307 ;;      Params:         0       4       0       0       0       0       0
  4308 ;;      Locals:         0      42       0       0       0       0       0
  4309 ;;      Temps:          0       0       0       0       0       0       0
  4310 ;;      Totals:         0      46       0       0       0       0       0
  4311 ;;Total ram usage:       46 bytes
  4312 ;; Hardware stack levels used: 1
  4313 ;; Hardware stack levels required when called: 3
  4314 ;; This function calls:
  4315 ;;		___fladd
  4316 ;;		___fldiv
  4317 ;;		___flmul
  4318 ;;		___flneg
  4319 ;;		___flsub
  4320 ;;		___fpclassifyf
  4321 ;;		_fabsf
  4322 ;; This function is called by:
  4323 ;;		_atan2f
  4324 ;; This function uses a non-reentrant model
  4325 ;;
  4326                           
  4327                           	psect	text13
  4328   0000E6                     __ptext13:
  4329                           	callstack 0
  4330   0000E6                     _atanf:
  4331                           	callstack 22
  4332   0000E6  C091  F0BB         	movff	atanf@x,atanf@ix
  4333   0000EA  C092  F0BC         	movff	atanf@x+1,atanf@ix+1
  4334   0000EE  C093  F0BD         	movff	atanf@x+2,atanf@ix+2
  4335   0000F2  C094  F0BE         	movff	atanf@x+3,atanf@ix+3
  4336   0000F6  0100               	movlb	0	; () banked
  4337   0000F8  BFBE               	btfsc	(atanf@ix+3)& (0+255),7,b
  4338   0000FA  EF81  F000         	goto	u4561
  4339   0000FE  EF84  F000         	goto	u4560
  4340   000102                     u4561:
  4341   000102  0E01               	movlw	1
  4342   000104  EF85  F000         	goto	u4570
  4343   000108                     u4560:
  4344   000108  0E00               	movlw	0
  4345   00010A                     u4570:
  4346   00010A  6FB1               	movwf	atanf@sign& (0+255),b
  4347   00010C                     
  4348                           ; BSR set to: 0
  4349   00010C  9FBE               	bcf	(atanf@ix+3)& (0+255),7,b
  4350   00010E                     
  4351                           ; BSR set to: 0
  4352   00010E  0E80               	movlw	128
  4353   000110  5DBD               	subwf	(atanf@ix+2)& (0+255),w,b
  4354   000112  0E4C               	movlw	76
  4355   000114  59BE               	subwfb	(atanf@ix+3)& (0+255),w,b
  4356   000116  A0D8               	btfss	status,0,c
  4357   000118  EF90  F000         	goto	u4581
  4358   00011C  EF92  F000         	goto	u4580
  4359   000120                     u4581:
  4360   000120  EFF8  F000         	goto	l3939
  4361   000124                     u4580:
  4362   000124                     
  4363                           ; BSR set to: 0
  4364   000124  C091  F006         	movff	atanf@x,___fpclassifyf@x
  4365   000128  C092  F007         	movff	atanf@x+1,___fpclassifyf@x+1
  4366   00012C  C093  F008         	movff	atanf@x+2,___fpclassifyf@x+2
  4367   000130  C094  F009         	movff	atanf@x+3,___fpclassifyf@x+3
  4368   000134  EC87  F012         	call	___fpclassifyf	;wreg free
  4369   000138  5006               	movf	?___fpclassifyf^0,w,c
  4370   00013A  1007               	iorwf	(?___fpclassifyf+1)^0,w,c
  4371   00013C  A4D8               	btfss	status,2,c
  4372   00013E  EFA3  F000         	goto	u4591
  4373   000142  EFA5  F000         	goto	u4590
  4374   000146                     u4591:
  4375   000146  EFAF  F000         	goto	l3929
  4376   00014A                     u4590:
  4377   00014A                     l3927:
  4378   00014A  C091  F091         	movff	atanf@x,?_atanf
  4379   00014E  C092  F092         	movff	atanf@x+1,?_atanf+1
  4380   000152  C093  F093         	movff	atanf@x+2,?_atanf+2
  4381   000156  C094  F094         	movff	atanf@x+3,?_atanf+3
  4382   00015A  EF27  F004         	goto	l1089
  4383   00015E                     l3929:
  4384   00015E  0E0B               	movlw	low (_atanhi+12)
  4385   000160  6EF6               	movwf	tblptrl,c
  4386   000162  0E7D               	movlw	high (_atanhi+12)
  4387   000164  6EF7               	movwf	tblptrh,c
  4388   000166                     	if	0	;tblptru may be non-zero
  4389   000166                     	endif
  4390   000166                     	if	0	;tblptru may be non-zero
  4391   000166                     	endif
  4392   000166  0009               	tblrd		*+
  4393   000168  CFF5 F02D          	movff	tablat,___fladd@b
  4394   00016C  0009               	tblrd		*+
  4395   00016E  CFF5 F02E          	movff	tablat,___fladd@b+1
  4396   000172  0009               	tblrd		*+
  4397   000174  CFF5 F02F          	movff	tablat,___fladd@b+2
  4398   000178  000A               	tblrd		*-
  4399   00017A  CFF5 F030          	movff	tablat,___fladd@b+3
  4400   00017E  0E00               	movlw	0
  4401   000180  6E31               	movwf	___fladd@a^0,c
  4402   000182  0E00               	movlw	0
  4403   000184  6E32               	movwf	(___fladd@a+1)^0,c
  4404   000186  0E80               	movlw	128
  4405   000188  6E33               	movwf	(___fladd@a+2)^0,c
  4406   00018A  0E03               	movlw	3
  4407   00018C  6E34               	movwf	(___fladd@a+3)^0,c
  4408   00018E  EC06  F007         	call	___fladd	;wreg free
  4409   000192  C02D  F0B7         	movff	?___fladd,atanf@z
  4410   000196  C02E  F0B8         	movff	?___fladd+1,atanf@z+1
  4411   00019A  C02F  F0B9         	movff	?___fladd+2,atanf@z+2
  4412   00019E  C030  F0BA         	movff	?___fladd+3,atanf@z+3
  4413   0001A2  0100               	movlb	0	; () banked
  4414   0001A4  51B1               	movf	atanf@sign& (0+255),w,b
  4415   0001A6  A4D8               	btfss	status,2,c
  4416   0001A8  EFD8  F000         	goto	u4601
  4417   0001AC  EFDA  F000         	goto	u4600
  4418   0001B0                     u4601:
  4419   0001B0  EFE4  F000         	goto	l3935
  4420   0001B4                     u4600:
  4421   0001B4                     l3933:
  4422                           
  4423                           ; BSR set to: 0
  4424   0001B4  C0B7  F091         	movff	atanf@z,?_atanf
  4425   0001B8  C0B8  F092         	movff	atanf@z+1,?_atanf+1
  4426   0001BC  C0B9  F093         	movff	atanf@z+2,?_atanf+2
  4427   0001C0  C0BA  F094         	movff	atanf@z+3,?_atanf+3
  4428   0001C4  EF27  F004         	goto	l1089
  4429   0001C8                     l3935:
  4430                           
  4431                           ; BSR set to: 0
  4432   0001C8  C0B7  F006         	movff	atanf@z,___flneg@f1
  4433   0001CC  C0B8  F007         	movff	atanf@z+1,___flneg@f1+1
  4434   0001D0  C0B9  F008         	movff	atanf@z+2,___flneg@f1+2
  4435   0001D4  C0BA  F009         	movff	atanf@z+3,___flneg@f1+3
  4436   0001D8  EC19  F014         	call	___flneg	;wreg free
  4437   0001DC  C006  F091         	movff	?___flneg,?_atanf
  4438   0001E0  C007  F092         	movff	?___flneg+1,?_atanf+1
  4439   0001E4  C008  F093         	movff	?___flneg+2,?_atanf+2
  4440   0001E8  C009  F094         	movff	?___flneg+3,?_atanf+3
  4441   0001EC  EF27  F004         	goto	l1089
  4442   0001F0                     l3939:
  4443                           
  4444                           ; BSR set to: 0
  4445   0001F0  0EE0               	movlw	224
  4446   0001F2  5DBD               	subwf	(atanf@ix+2)& (0+255),w,b
  4447   0001F4  0E3E               	movlw	62
  4448   0001F6  59BE               	subwfb	(atanf@ix+3)& (0+255),w,b
  4449   0001F8  B0D8               	btfsc	status,0,c
  4450   0001FA  EF01  F001         	goto	u4611
  4451   0001FE  EF03  F001         	goto	u4610
  4452   000202                     u4611:
  4453   000202  EF13  F001         	goto	l3945
  4454   000206                     u4610:
  4455   000206                     
  4456                           ; BSR set to: 0
  4457   000206  0E80               	movlw	128
  4458   000208  5DBD               	subwf	(atanf@ix+2)& (0+255),w,b
  4459   00020A  0E39               	movlw	57
  4460   00020C  59BE               	subwfb	(atanf@ix+3)& (0+255),w,b
  4461   00020E  B0D8               	btfsc	status,0,c
  4462   000210  EF0C  F001         	goto	u4621
  4463   000214  EF0E  F001         	goto	u4620
  4464   000218                     u4621:
  4465   000218  EF10  F001         	goto	l1095
  4466   00021C                     u4620:
  4467   00021C  EFA5  F000         	goto	l3927
  4468   000220                     l1095:
  4469                           
  4470                           ; BSR set to: 0
  4471   000220  69B6               	setf	atanf@id& (0+255),b
  4472   000222  EF4C  F002         	goto	l3969
  4473   000226                     l3945:
  4474                           
  4475                           ; BSR set to: 0
  4476   000226  C091  F06E         	movff	atanf@x,fabsf@x
  4477   00022A  C092  F06F         	movff	atanf@x+1,fabsf@x+1
  4478   00022E  C093  F070         	movff	atanf@x+2,fabsf@x+2
  4479   000232  C094  F071         	movff	atanf@x+3,fabsf@x+3
  4480   000236  EC50  F014         	call	_fabsf	;wreg free
  4481   00023A  C06E  F091         	movff	?_fabsf,atanf@x
  4482   00023E  C06F  F092         	movff	?_fabsf+1,atanf@x+1
  4483   000242  C070  F093         	movff	?_fabsf+2,atanf@x+2
  4484   000246  C071  F094         	movff	?_fabsf+3,atanf@x+3
  4485   00024A  0E98               	movlw	152
  4486   00024C  0100               	movlb	0	; () banked
  4487   00024E  5DBD               	subwf	(atanf@ix+2)& (0+255),w,b
  4488   000250  0E3F               	movlw	63
  4489   000252  59BE               	subwfb	(atanf@ix+3)& (0+255),w,b
  4490   000254  B0D8               	btfsc	status,0,c
  4491   000256  EF2F  F001         	goto	u4631
  4492   00025A  EF31  F001         	goto	u4630
  4493   00025E                     u4631:
  4494   00025E  EFD1  F001         	goto	l3959
  4495   000262                     u4630:
  4496   000262                     
  4497                           ; BSR set to: 0
  4498   000262  0E30               	movlw	48
  4499   000264  5DBD               	subwf	(atanf@ix+2)& (0+255),w,b
  4500   000266  0E3F               	movlw	63
  4501   000268  59BE               	subwfb	(atanf@ix+3)& (0+255),w,b
  4502   00026A  B0D8               	btfsc	status,0,c
  4503   00026C  EF3A  F001         	goto	u4641
  4504   000270  EF3C  F001         	goto	u4640
  4505   000274                     u4641:
  4506   000274  EF8F  F001         	goto	l3955
  4507   000278                     u4640:
  4508   000278                     
  4509                           ; BSR set to: 0
  4510   000278  6BB6               	clrf	atanf@id& (0+255),b
  4511   00027A                     
  4512                           ; BSR set to: 0
  4513   00027A  0E00               	movlw	0
  4514   00027C  6E31               	movwf	___fladd@a^0,c
  4515   00027E  0E00               	movlw	0
  4516   000280  6E32               	movwf	(___fladd@a+1)^0,c
  4517   000282  0E80               	movlw	128
  4518   000284  6E33               	movwf	(___fladd@a+2)^0,c
  4519   000286  0EBF               	movlw	191
  4520   000288  6E34               	movwf	(___fladd@a+3)^0,c
  4521   00028A  0E00               	movlw	0
  4522   00028C  6E18               	movwf	___flmul@a^0,c
  4523   00028E  0E00               	movlw	0
  4524   000290  6E19               	movwf	(___flmul@a+1)^0,c
  4525   000292  0E00               	movlw	0
  4526   000294  6E1A               	movwf	(___flmul@a+2)^0,c
  4527   000296  0E40               	movlw	64
  4528   000298  6E1B               	movwf	(___flmul@a+3)^0,c
  4529   00029A  C091  F014         	movff	atanf@x,___flmul@b
  4530   00029E  C092  F015         	movff	atanf@x+1,___flmul@b+1
  4531   0002A2  C093  F016         	movff	atanf@x+2,___flmul@b+2
  4532   0002A6  C094  F017         	movff	atanf@x+3,___flmul@b+3
  4533   0002AA  EC61  F009         	call	___flmul	;wreg free
  4534   0002AE  C014  F02D         	movff	?___flmul,___fladd@b
  4535   0002B2  C015  F02E         	movff	?___flmul+1,___fladd@b+1
  4536   0002B6  C016  F02F         	movff	?___flmul+2,___fladd@b+2
  4537   0002BA  C017  F030         	movff	?___flmul+3,___fladd@b+3
  4538   0002BE  EC06  F007         	call	___fladd	;wreg free
  4539   0002C2  C02D  F062         	movff	?___fladd,___fldiv@b
  4540   0002C6  C02E  F063         	movff	?___fladd+1,___fldiv@b+1
  4541   0002CA  C02F  F064         	movff	?___fladd+2,___fldiv@b+2
  4542   0002CE  C030  F065         	movff	?___fladd+3,___fldiv@b+3
  4543   0002D2  0E00               	movlw	0
  4544   0002D4  6E31               	movwf	___fladd@a^0,c
  4545   0002D6  0E00               	movlw	0
  4546   0002D8  6E32               	movwf	(___fladd@a+1)^0,c
  4547   0002DA  0E00               	movlw	0
  4548   0002DC  6E33               	movwf	(___fladd@a+2)^0,c
  4549   0002DE  0E40               	movlw	64
  4550   0002E0  6E34               	movwf	(___fladd@a+3)^0,c
  4551   0002E2  C091  F02D         	movff	atanf@x,___fladd@b
  4552   0002E6  C092  F02E         	movff	atanf@x+1,___fladd@b+1
  4553   0002EA  C093  F02F         	movff	atanf@x+2,___fladd@b+2
  4554   0002EE  C094  F030         	movff	atanf@x+3,___fladd@b+3
  4555   0002F2  EC06  F007         	call	___fladd	;wreg free
  4556   0002F6  C02D  F066         	movff	?___fladd,___fldiv@a
  4557   0002FA  C02E  F067         	movff	?___fladd+1,___fldiv@a+1
  4558   0002FE  C02F  F068         	movff	?___fladd+2,___fldiv@a+2
  4559   000302  C030  F069         	movff	?___fladd+3,___fldiv@a+3
  4560   000306  EC63  F00D         	call	___fldiv	;wreg free
  4561   00030A  C062  F091         	movff	?___fldiv,atanf@x
  4562   00030E  C063  F092         	movff	?___fldiv+1,atanf@x+1
  4563   000312  C064  F093         	movff	?___fldiv+2,atanf@x+2
  4564   000316  C065  F094         	movff	?___fldiv+3,atanf@x+3
  4565   00031A  EF4C  F002         	goto	l3969
  4566   00031E                     l3955:
  4567                           
  4568                           ; BSR set to: 0
  4569   00031E  0E01               	movlw	1
  4570   000320  6FB6               	movwf	atanf@id& (0+255),b
  4571   000322                     
  4572                           ; BSR set to: 0
  4573   000322  0E00               	movlw	0
  4574   000324  6E31               	movwf	___fladd@a^0,c
  4575   000326  0E00               	movlw	0
  4576   000328  6E32               	movwf	(___fladd@a+1)^0,c
  4577   00032A  0E80               	movlw	128
  4578   00032C  6E33               	movwf	(___fladd@a+2)^0,c
  4579   00032E  0EBF               	movlw	191
  4580   000330  6E34               	movwf	(___fladd@a+3)^0,c
  4581   000332  C091  F02D         	movff	atanf@x,___fladd@b
  4582   000336  C092  F02E         	movff	atanf@x+1,___fladd@b+1
  4583   00033A  C093  F02F         	movff	atanf@x+2,___fladd@b+2
  4584   00033E  C094  F030         	movff	atanf@x+3,___fladd@b+3
  4585   000342  EC06  F007         	call	___fladd	;wreg free
  4586   000346  C02D  F062         	movff	?___fladd,___fldiv@b
  4587   00034A  C02E  F063         	movff	?___fladd+1,___fldiv@b+1
  4588   00034E  C02F  F064         	movff	?___fladd+2,___fldiv@b+2
  4589   000352  C030  F065         	movff	?___fladd+3,___fldiv@b+3
  4590   000356  0E00               	movlw	0
  4591   000358  6E31               	movwf	___fladd@a^0,c
  4592   00035A  0E00               	movlw	0
  4593   00035C  6E32               	movwf	(___fladd@a+1)^0,c
  4594   00035E  0E80               	movlw	128
  4595   000360  6E33               	movwf	(___fladd@a+2)^0,c
  4596   000362  0E3F               	movlw	63
  4597   000364  6E34               	movwf	(___fladd@a+3)^0,c
  4598   000366  C091  F02D         	movff	atanf@x,___fladd@b
  4599   00036A  C092  F02E         	movff	atanf@x+1,___fladd@b+1
  4600   00036E  C093  F02F         	movff	atanf@x+2,___fladd@b+2
  4601   000372  C094  F030         	movff	atanf@x+3,___fladd@b+3
  4602   000376  EC06  F007         	call	___fladd	;wreg free
  4603   00037A  C02D  F066         	movff	?___fladd,___fldiv@a
  4604   00037E  C02E  F067         	movff	?___fladd+1,___fldiv@a+1
  4605   000382  C02F  F068         	movff	?___fladd+2,___fldiv@a+2
  4606   000386  C030  F069         	movff	?___fladd+3,___fldiv@a+3
  4607   00038A  EC63  F00D         	call	___fldiv	;wreg free
  4608   00038E  C062  F091         	movff	?___fldiv,atanf@x
  4609   000392  C063  F092         	movff	?___fldiv+1,atanf@x+1
  4610   000396  C064  F093         	movff	?___fldiv+2,atanf@x+2
  4611   00039A  C065  F094         	movff	?___fldiv+3,atanf@x+3
  4612   00039E  EF4C  F002         	goto	l3969
  4613   0003A2                     l3959:
  4614                           
  4615                           ; BSR set to: 0
  4616   0003A2  0E1C               	movlw	28
  4617   0003A4  5DBD               	subwf	(atanf@ix+2)& (0+255),w,b
  4618   0003A6  0E40               	movlw	64
  4619   0003A8  59BE               	subwfb	(atanf@ix+3)& (0+255),w,b
  4620   0003AA  B0D8               	btfsc	status,0,c
  4621   0003AC  EFDA  F001         	goto	u4651
  4622   0003B0  EFDC  F001         	goto	u4650
  4623   0003B4                     u4651:
  4624   0003B4  EF30  F002         	goto	l3965
  4625   0003B8                     u4650:
  4626   0003B8                     
  4627                           ; BSR set to: 0
  4628   0003B8  0E02               	movlw	2
  4629   0003BA  6FB6               	movwf	atanf@id& (0+255),b
  4630   0003BC                     
  4631                           ; BSR set to: 0
  4632   0003BC  0E00               	movlw	0
  4633   0003BE  6E31               	movwf	___fladd@a^0,c
  4634   0003C0  0E00               	movlw	0
  4635   0003C2  6E32               	movwf	(___fladd@a+1)^0,c
  4636   0003C4  0EC0               	movlw	192
  4637   0003C6  6E33               	movwf	(___fladd@a+2)^0,c
  4638   0003C8  0EBF               	movlw	191
  4639   0003CA  6E34               	movwf	(___fladd@a+3)^0,c
  4640   0003CC  C091  F02D         	movff	atanf@x,___fladd@b
  4641   0003D0  C092  F02E         	movff	atanf@x+1,___fladd@b+1
  4642   0003D4  C093  F02F         	movff	atanf@x+2,___fladd@b+2
  4643   0003D8  C094  F030         	movff	atanf@x+3,___fladd@b+3
  4644   0003DC  EC06  F007         	call	___fladd	;wreg free
  4645   0003E0  C02D  F062         	movff	?___fladd,___fldiv@b
  4646   0003E4  C02E  F063         	movff	?___fladd+1,___fldiv@b+1
  4647   0003E8  C02F  F064         	movff	?___fladd+2,___fldiv@b+2
  4648   0003EC  C030  F065         	movff	?___fladd+3,___fldiv@b+3
  4649   0003F0  0E00               	movlw	0
  4650   0003F2  6E31               	movwf	___fladd@a^0,c
  4651   0003F4  0E00               	movlw	0
  4652   0003F6  6E32               	movwf	(___fladd@a+1)^0,c
  4653   0003F8  0E80               	movlw	128
  4654   0003FA  6E33               	movwf	(___fladd@a+2)^0,c
  4655   0003FC  0E3F               	movlw	63
  4656   0003FE  6E34               	movwf	(___fladd@a+3)^0,c
  4657   000400  0E00               	movlw	0
  4658   000402  6E18               	movwf	___flmul@a^0,c
  4659   000404  0E00               	movlw	0
  4660   000406  6E19               	movwf	(___flmul@a+1)^0,c
  4661   000408  0EC0               	movlw	192
  4662   00040A  6E1A               	movwf	(___flmul@a+2)^0,c
  4663   00040C  0E3F               	movlw	63
  4664   00040E  6E1B               	movwf	(___flmul@a+3)^0,c
  4665   000410  C091  F014         	movff	atanf@x,___flmul@b
  4666   000414  C092  F015         	movff	atanf@x+1,___flmul@b+1
  4667   000418  C093  F016         	movff	atanf@x+2,___flmul@b+2
  4668   00041C  C094  F017         	movff	atanf@x+3,___flmul@b+3
  4669   000420  EC61  F009         	call	___flmul	;wreg free
  4670   000424  C014  F02D         	movff	?___flmul,___fladd@b
  4671   000428  C015  F02E         	movff	?___flmul+1,___fladd@b+1
  4672   00042C  C016  F02F         	movff	?___flmul+2,___fladd@b+2
  4673   000430  C017  F030         	movff	?___flmul+3,___fladd@b+3
  4674   000434  EC06  F007         	call	___fladd	;wreg free
  4675   000438  C02D  F066         	movff	?___fladd,___fldiv@a
  4676   00043C  C02E  F067         	movff	?___fladd+1,___fldiv@a+1
  4677   000440  C02F  F068         	movff	?___fladd+2,___fldiv@a+2
  4678   000444  C030  F069         	movff	?___fladd+3,___fldiv@a+3
  4679   000448  EC63  F00D         	call	___fldiv	;wreg free
  4680   00044C  C062  F091         	movff	?___fldiv,atanf@x
  4681   000450  C063  F092         	movff	?___fldiv+1,atanf@x+1
  4682   000454  C064  F093         	movff	?___fldiv+2,atanf@x+2
  4683   000458  C065  F094         	movff	?___fldiv+3,atanf@x+3
  4684   00045C  EF4C  F002         	goto	l3969
  4685   000460                     l3965:
  4686                           
  4687                           ; BSR set to: 0
  4688   000460  0E03               	movlw	3
  4689   000462  6FB6               	movwf	atanf@id& (0+255),b
  4690   000464                     
  4691                           ; BSR set to: 0
  4692   000464  0E00               	movlw	0
  4693   000466  6E62               	movwf	___fldiv@b^0,c
  4694   000468  0E00               	movlw	0
  4695   00046A  6E63               	movwf	(___fldiv@b+1)^0,c
  4696   00046C  0E80               	movlw	128
  4697   00046E  6E64               	movwf	(___fldiv@b+2)^0,c
  4698   000470  0EBF               	movlw	191
  4699   000472  6E65               	movwf	(___fldiv@b+3)^0,c
  4700   000474  C091  F066         	movff	atanf@x,___fldiv@a
  4701   000478  C092  F067         	movff	atanf@x+1,___fldiv@a+1
  4702   00047C  C093  F068         	movff	atanf@x+2,___fldiv@a+2
  4703   000480  C094  F069         	movff	atanf@x+3,___fldiv@a+3
  4704   000484  EC63  F00D         	call	___fldiv	;wreg free
  4705   000488  C062  F091         	movff	?___fldiv,atanf@x
  4706   00048C  C063  F092         	movff	?___fldiv+1,atanf@x+1
  4707   000490  C064  F093         	movff	?___fldiv+2,atanf@x+2
  4708   000494  C065  F094         	movff	?___fldiv+3,atanf@x+3
  4709   000498                     l3969:
  4710   000498  C091  F014         	movff	atanf@x,___flmul@b
  4711   00049C  C092  F015         	movff	atanf@x+1,___flmul@b+1
  4712   0004A0  C093  F016         	movff	atanf@x+2,___flmul@b+2
  4713   0004A4  C094  F017         	movff	atanf@x+3,___flmul@b+3
  4714   0004A8  C091  F018         	movff	atanf@x,___flmul@a
  4715   0004AC  C092  F019         	movff	atanf@x+1,___flmul@a+1
  4716   0004B0  C093  F01A         	movff	atanf@x+2,___flmul@a+2
  4717   0004B4  C094  F01B         	movff	atanf@x+3,___flmul@a+3
  4718   0004B8  EC61  F009         	call	___flmul	;wreg free
  4719   0004BC  C014  F0B7         	movff	?___flmul,atanf@z
  4720   0004C0  C015  F0B8         	movff	?___flmul+1,atanf@z+1
  4721   0004C4  C016  F0B9         	movff	?___flmul+2,atanf@z+2
  4722   0004C8  C017  F0BA         	movff	?___flmul+3,atanf@z+3
  4723   0004CC  C0B7  F014         	movff	atanf@z,___flmul@b
  4724   0004D0  C0B8  F015         	movff	atanf@z+1,___flmul@b+1
  4725   0004D4  C0B9  F016         	movff	atanf@z+2,___flmul@b+2
  4726   0004D8  C0BA  F017         	movff	atanf@z+3,___flmul@b+3
  4727   0004DC  C0B7  F018         	movff	atanf@z,___flmul@a
  4728   0004E0  C0B8  F019         	movff	atanf@z+1,___flmul@a+1
  4729   0004E4  C0B9  F01A         	movff	atanf@z+2,___flmul@a+2
  4730   0004E8  C0BA  F01B         	movff	atanf@z+3,___flmul@a+3
  4731   0004EC  EC61  F009         	call	___flmul	;wreg free
  4732   0004F0  C014  F0B2         	movff	?___flmul,atanf@w
  4733   0004F4  C015  F0B3         	movff	?___flmul+1,atanf@w+1
  4734   0004F8  C016  F0B4         	movff	?___flmul+2,atanf@w+2
  4735   0004FC  C017  F0B5         	movff	?___flmul+3,atanf@w+3
  4736   000500  0E0D               	movlw	13
  4737   000502  6E31               	movwf	___fladd@a^0,c
  4738   000504  0EF5               	movlw	245
  4739   000506  6E32               	movwf	(___fladd@a+1)^0,c
  4740   000508  0E11               	movlw	17
  4741   00050A  6E33               	movwf	(___fladd@a+2)^0,c
  4742   00050C  0E3E               	movlw	62
  4743   00050E  6E34               	movwf	(___fladd@a+3)^0,c
  4744   000510  0E25               	movlw	37
  4745   000512  6E18               	movwf	___flmul@a^0,c
  4746   000514  0EAC               	movlw	172
  4747   000516  6E19               	movwf	(___flmul@a+1)^0,c
  4748   000518  0E7C               	movlw	124
  4749   00051A  6E1A               	movwf	(___flmul@a+2)^0,c
  4750   00051C  0E3D               	movlw	61
  4751   00051E  6E1B               	movwf	(___flmul@a+3)^0,c
  4752   000520  C0B2  F014         	movff	atanf@w,___flmul@b
  4753   000524  C0B3  F015         	movff	atanf@w+1,___flmul@b+1
  4754   000528  C0B4  F016         	movff	atanf@w+2,___flmul@b+2
  4755   00052C  C0B5  F017         	movff	atanf@w+3,___flmul@b+3
  4756   000530  EC61  F009         	call	___flmul	;wreg free
  4757   000534  C014  F02D         	movff	?___flmul,___fladd@b
  4758   000538  C015  F02E         	movff	?___flmul+1,___fladd@b+1
  4759   00053C  C016  F02F         	movff	?___flmul+2,___fladd@b+2
  4760   000540  C017  F030         	movff	?___flmul+3,___fladd@b+3
  4761   000544  EC06  F007         	call	___fladd	;wreg free
  4762   000548  C02D  F0A9         	movff	?___fladd,_atanf$1906
  4763   00054C  C02E  F0AA         	movff	?___fladd+1,_atanf$1906+1
  4764   000550  C02F  F0AB         	movff	?___fladd+2,_atanf$1906+2
  4765   000554  C030  F0AC         	movff	?___fladd+3,_atanf$1906+3
  4766   000558  0EA9               	movlw	169
  4767   00055A  6E31               	movwf	___fladd@a^0,c
  4768   00055C  0EAA               	movlw	170
  4769   00055E  6E32               	movwf	(___fladd@a+1)^0,c
  4770   000560  0EAA               	movlw	170
  4771   000562  6E33               	movwf	(___fladd@a+2)^0,c
  4772   000564  0E3E               	movlw	62
  4773   000566  6E34               	movwf	(___fladd@a+3)^0,c
  4774   000568  C0B2  F018         	movff	atanf@w,___flmul@a
  4775   00056C  C0B3  F019         	movff	atanf@w+1,___flmul@a+1
  4776   000570  C0B4  F01A         	movff	atanf@w+2,___flmul@a+2
  4777   000574  C0B5  F01B         	movff	atanf@w+3,___flmul@a+3
  4778   000578  C0A9  F014         	movff	_atanf$1906,___flmul@b
  4779   00057C  C0AA  F015         	movff	_atanf$1906+1,___flmul@b+1
  4780   000580  C0AB  F016         	movff	_atanf$1906+2,___flmul@b+2
  4781   000584  C0AC  F017         	movff	_atanf$1906+3,___flmul@b+3
  4782   000588  EC61  F009         	call	___flmul	;wreg free
  4783   00058C  C014  F02D         	movff	?___flmul,___fladd@b
  4784   000590  C015  F02E         	movff	?___flmul+1,___fladd@b+1
  4785   000594  C016  F02F         	movff	?___flmul+2,___fladd@b+2
  4786   000598  C017  F030         	movff	?___flmul+3,___fladd@b+3
  4787   00059C  EC06  F007         	call	___fladd	;wreg free
  4788   0005A0  C02D  F095         	movff	?___fladd,_atanf$1907
  4789   0005A4  C02E  F096         	movff	?___fladd+1,_atanf$1907+1
  4790   0005A8  C02F  F097         	movff	?___fladd+2,_atanf$1907+2
  4791   0005AC  C030  F098         	movff	?___fladd+3,_atanf$1907+3
  4792   0005B0  C095  F014         	movff	_atanf$1907,___flmul@b
  4793   0005B4  C096  F015         	movff	_atanf$1907+1,___flmul@b+1
  4794   0005B8  C097  F016         	movff	_atanf$1907+2,___flmul@b+2
  4795   0005BC  C098  F017         	movff	_atanf$1907+3,___flmul@b+3
  4796   0005C0  C0B7  F018         	movff	atanf@z,___flmul@a
  4797   0005C4  C0B8  F019         	movff	atanf@z+1,___flmul@a+1
  4798   0005C8  C0B9  F01A         	movff	atanf@z+2,___flmul@a+2
  4799   0005CC  C0BA  F01B         	movff	atanf@z+3,___flmul@a+3
  4800   0005D0  EC61  F009         	call	___flmul	;wreg free
  4801   0005D4  C014  F0A1         	movff	?___flmul,atanf@s1
  4802   0005D8  C015  F0A2         	movff	?___flmul+1,atanf@s1+1
  4803   0005DC  C016  F0A3         	movff	?___flmul+2,atanf@s1+2
  4804   0005E0  C017  F0A4         	movff	?___flmul+3,atanf@s1+3
  4805   0005E4  0E98               	movlw	152
  4806   0005E6  6E31               	movwf	___fladd@a^0,c
  4807   0005E8  0ECA               	movlw	202
  4808   0005EA  6E32               	movwf	(___fladd@a+1)^0,c
  4809   0005EC  0E4C               	movlw	76
  4810   0005EE  6E33               	movwf	(___fladd@a+2)^0,c
  4811   0005F0  0EBE               	movlw	190
  4812   0005F2  6E34               	movwf	(___fladd@a+3)^0,c
  4813   0005F4  0E47               	movlw	71
  4814   0005F6  6E18               	movwf	___flmul@a^0,c
  4815   0005F8  0E12               	movlw	18
  4816   0005FA  6E19               	movwf	(___flmul@a+1)^0,c
  4817   0005FC  0EDA               	movlw	218
  4818   0005FE  6E1A               	movwf	(___flmul@a+2)^0,c
  4819   000600  0EBD               	movlw	189
  4820   000602  6E1B               	movwf	(___flmul@a+3)^0,c
  4821   000604  C0B2  F014         	movff	atanf@w,___flmul@b
  4822   000608  C0B3  F015         	movff	atanf@w+1,___flmul@b+1
  4823   00060C  C0B4  F016         	movff	atanf@w+2,___flmul@b+2
  4824   000610  C0B5  F017         	movff	atanf@w+3,___flmul@b+3
  4825   000614  EC61  F009         	call	___flmul	;wreg free
  4826   000618  C014  F02D         	movff	?___flmul,___fladd@b
  4827   00061C  C015  F02E         	movff	?___flmul+1,___fladd@b+1
  4828   000620  C016  F02F         	movff	?___flmul+2,___fladd@b+2
  4829   000624  C017  F030         	movff	?___flmul+3,___fladd@b+3
  4830   000628  EC06  F007         	call	___fladd	;wreg free
  4831   00062C  C02D  F0A9         	movff	?___fladd,_atanf$1906
  4832   000630  C02E  F0AA         	movff	?___fladd+1,_atanf$1906+1
  4833   000634  C02F  F0AB         	movff	?___fladd+2,_atanf$1906+2
  4834   000638  C030  F0AC         	movff	?___fladd+3,_atanf$1906+3
  4835   00063C  C0A9  F014         	movff	_atanf$1906,___flmul@b
  4836   000640  C0AA  F015         	movff	_atanf$1906+1,___flmul@b+1
  4837   000644  C0AB  F016         	movff	_atanf$1906+2,___flmul@b+2
  4838   000648  C0AC  F017         	movff	_atanf$1906+3,___flmul@b+3
  4839   00064C  C0B2  F018         	movff	atanf@w,___flmul@a
  4840   000650  C0B3  F019         	movff	atanf@w+1,___flmul@a+1
  4841   000654  C0B4  F01A         	movff	atanf@w+2,___flmul@a+2
  4842   000658  C0B5  F01B         	movff	atanf@w+3,___flmul@a+3
  4843   00065C  EC61  F009         	call	___flmul	;wreg free
  4844   000660  C014  F0A5         	movff	?___flmul,atanf@s2
  4845   000664  C015  F0A6         	movff	?___flmul+1,atanf@s2+1
  4846   000668  C016  F0A7         	movff	?___flmul+2,atanf@s2+2
  4847   00066C  C017  F0A8         	movff	?___flmul+3,atanf@s2+3
  4848   000670  0100               	movlb	0	; () banked
  4849   000672  BFB6               	btfsc	atanf@id& (0+255),7,b
  4850   000674  EF40  F003         	goto	u4660
  4851   000678  EF3E  F003         	goto	u4661
  4852   00067C                     u4661:
  4853   00067C  EF88  F003         	goto	l3991
  4854   000680                     u4660:
  4855   000680                     
  4856                           ; BSR set to: 0
  4857   000680  C091  F018         	movff	atanf@x,___flmul@a
  4858   000684  C092  F019         	movff	atanf@x+1,___flmul@a+1
  4859   000688  C093  F01A         	movff	atanf@x+2,___flmul@a+2
  4860   00068C  C094  F01B         	movff	atanf@x+3,___flmul@a+3
  4861   000690  C0A5  F031         	movff	atanf@s2,___fladd@a
  4862   000694  C0A6  F032         	movff	atanf@s2+1,___fladd@a+1
  4863   000698  C0A7  F033         	movff	atanf@s2+2,___fladd@a+2
  4864   00069C  C0A8  F034         	movff	atanf@s2+3,___fladd@a+3
  4865   0006A0  C0A1  F02D         	movff	atanf@s1,___fladd@b
  4866   0006A4  C0A2  F02E         	movff	atanf@s1+1,___fladd@b+1
  4867   0006A8  C0A3  F02F         	movff	atanf@s1+2,___fladd@b+2
  4868   0006AC  C0A4  F030         	movff	atanf@s1+3,___fladd@b+3
  4869   0006B0  EC06  F007         	call	___fladd	;wreg free
  4870   0006B4  C02D  F014         	movff	?___fladd,___flmul@b
  4871   0006B8  C02E  F015         	movff	?___fladd+1,___flmul@b+1
  4872   0006BC  C02F  F016         	movff	?___fladd+2,___flmul@b+2
  4873   0006C0  C030  F017         	movff	?___fladd+3,___flmul@b+3
  4874   0006C4  EC61  F009         	call	___flmul	;wreg free
  4875   0006C8  C014  F0AD         	movff	?___flmul,_atanf$1908
  4876   0006CC  C015  F0AE         	movff	?___flmul+1,_atanf$1908+1
  4877   0006D0  C016  F0AF         	movff	?___flmul+2,_atanf$1908+2
  4878   0006D4  C017  F0B0         	movff	?___flmul+3,_atanf$1908+3
  4879   0006D8  C091  F03D         	movff	atanf@x,___flsub@b
  4880   0006DC  C092  F03E         	movff	atanf@x+1,___flsub@b+1
  4881   0006E0  C093  F03F         	movff	atanf@x+2,___flsub@b+2
  4882   0006E4  C094  F040         	movff	atanf@x+3,___flsub@b+3
  4883   0006E8  C0AD  F041         	movff	_atanf$1908,___flsub@a
  4884   0006EC  C0AE  F042         	movff	_atanf$1908+1,___flsub@a+1
  4885   0006F0  C0AF  F043         	movff	_atanf$1908+2,___flsub@a+2
  4886   0006F4  C0B0  F044         	movff	_atanf$1908+3,___flsub@a+3
  4887   0006F8  ECB7  F013         	call	___flsub	;wreg free
  4888   0006FC  C03D  F091         	movff	?___flsub,?_atanf
  4889   000700  C03E  F092         	movff	?___flsub+1,?_atanf+1
  4890   000704  C03F  F093         	movff	?___flsub+2,?_atanf+2
  4891   000708  C040  F094         	movff	?___flsub+3,?_atanf+3
  4892   00070C  EF27  F004         	goto	l1089
  4893   000710                     l3991:
  4894                           
  4895                           ; BSR set to: 0
  4896   000710  C091  F018         	movff	atanf@x,___flmul@a
  4897   000714  C092  F019         	movff	atanf@x+1,___flmul@a+1
  4898   000718  C093  F01A         	movff	atanf@x+2,___flmul@a+2
  4899   00071C  C094  F01B         	movff	atanf@x+3,___flmul@a+3
  4900   000720  C0A5  F031         	movff	atanf@s2,___fladd@a
  4901   000724  C0A6  F032         	movff	atanf@s2+1,___fladd@a+1
  4902   000728  C0A7  F033         	movff	atanf@s2+2,___fladd@a+2
  4903   00072C  C0A8  F034         	movff	atanf@s2+3,___fladd@a+3
  4904   000730  C0A1  F02D         	movff	atanf@s1,___fladd@b
  4905   000734  C0A2  F02E         	movff	atanf@s1+1,___fladd@b+1
  4906   000738  C0A3  F02F         	movff	atanf@s1+2,___fladd@b+2
  4907   00073C  C0A4  F030         	movff	atanf@s1+3,___fladd@b+3
  4908   000740  EC06  F007         	call	___fladd	;wreg free
  4909   000744  C02D  F014         	movff	?___fladd,___flmul@b
  4910   000748  C02E  F015         	movff	?___fladd+1,___flmul@b+1
  4911   00074C  C02F  F016         	movff	?___fladd+2,___flmul@b+2
  4912   000750  C030  F017         	movff	?___fladd+3,___flmul@b+3
  4913   000754  EC61  F009         	call	___flmul	;wreg free
  4914   000758  C014  F0AD         	movff	?___flmul,_atanf$1908
  4915   00075C  C015  F0AE         	movff	?___flmul+1,_atanf$1908+1
  4916   000760  C016  F0AF         	movff	?___flmul+2,_atanf$1908+2
  4917   000764  C017  F0B0         	movff	?___flmul+3,_atanf$1908+3
  4918   000768  0100               	movlb	0	; () banked
  4919   00076A  51B6               	movf	atanf@id& (0+255),w,b
  4920   00076C  0D04               	mullw	4
  4921   00076E  0EEF               	movlw	low _atanlo
  4922   000770  24F3               	addwf	243,w,c
  4923   000772  6EF6               	movwf	tblptrl,c
  4924   000774  0E7C               	movlw	high _atanlo
  4925   000776  20F4               	addwfc	244,w,c
  4926   000778  6EF7               	movwf	tblptrh,c
  4927   00077A                     	if	0	;There are less than 3 active tblptr bytes
  4928   00077A                     	endif
  4929   00077A  0009               	tblrd		*+
  4930   00077C  CFF5 F041          	movff	tablat,___flsub@a
  4931   000780  0009               	tblrd		*+
  4932   000782  CFF5 F042          	movff	tablat,___flsub@a+1
  4933   000786  0009               	tblrd		*+
  4934   000788  CFF5 F043          	movff	tablat,___flsub@a+2
  4935   00078C  000A               	tblrd		*-
  4936   00078E  CFF5 F044          	movff	tablat,___flsub@a+3
  4937   000792  C0AD  F03D         	movff	_atanf$1908,___flsub@b
  4938   000796  C0AE  F03E         	movff	_atanf$1908+1,___flsub@b+1
  4939   00079A  C0AF  F03F         	movff	_atanf$1908+2,___flsub@b+2
  4940   00079E  C0B0  F040         	movff	_atanf$1908+3,___flsub@b+3
  4941   0007A2  ECB7  F013         	call	___flsub	;wreg free
  4942   0007A6  C03D  F099         	movff	?___flsub,_atanf$1909
  4943   0007AA  C03E  F09A         	movff	?___flsub+1,_atanf$1909+1
  4944   0007AE  C03F  F09B         	movff	?___flsub+2,_atanf$1909+2
  4945   0007B2  C040  F09C         	movff	?___flsub+3,_atanf$1909+3
  4946   0007B6  C091  F041         	movff	atanf@x,___flsub@a
  4947   0007BA  C092  F042         	movff	atanf@x+1,___flsub@a+1
  4948   0007BE  C093  F043         	movff	atanf@x+2,___flsub@a+2
  4949   0007C2  C094  F044         	movff	atanf@x+3,___flsub@a+3
  4950   0007C6  C099  F03D         	movff	_atanf$1909,___flsub@b
  4951   0007CA  C09A  F03E         	movff	_atanf$1909+1,___flsub@b+1
  4952   0007CE  C09B  F03F         	movff	_atanf$1909+2,___flsub@b+2
  4953   0007D2  C09C  F040         	movff	_atanf$1909+3,___flsub@b+3
  4954   0007D6  ECB7  F013         	call	___flsub	;wreg free
  4955   0007DA  C03D  F09D         	movff	?___flsub,_atanf$1910
  4956   0007DE  C03E  F09E         	movff	?___flsub+1,_atanf$1910+1
  4957   0007E2  C03F  F09F         	movff	?___flsub+2,_atanf$1910+2
  4958   0007E6  C040  F0A0         	movff	?___flsub+3,_atanf$1910+3
  4959   0007EA  0100               	movlb	0	; () banked
  4960   0007EC  51B6               	movf	atanf@id& (0+255),w,b
  4961   0007EE  0D04               	mullw	4
  4962   0007F0  0EFF               	movlw	low _atanhi
  4963   0007F2  24F3               	addwf	243,w,c
  4964   0007F4  6EF6               	movwf	tblptrl,c
  4965   0007F6  0E7C               	movlw	high _atanhi
  4966   0007F8  20F4               	addwfc	244,w,c
  4967   0007FA  6EF7               	movwf	tblptrh,c
  4968   0007FC                     	if	0	;There are less than 3 active tblptr bytes
  4969   0007FC                     	endif
  4970   0007FC  0009               	tblrd		*+
  4971   0007FE  CFF5 F03D          	movff	tablat,___flsub@b
  4972   000802  0009               	tblrd		*+
  4973   000804  CFF5 F03E          	movff	tablat,___flsub@b+1
  4974   000808  0009               	tblrd		*+
  4975   00080A  CFF5 F03F          	movff	tablat,___flsub@b+2
  4976   00080E  000A               	tblrd		*-
  4977   000810  CFF5 F040          	movff	tablat,___flsub@b+3
  4978   000814  C09D  F041         	movff	_atanf$1910,___flsub@a
  4979   000818  C09E  F042         	movff	_atanf$1910+1,___flsub@a+1
  4980   00081C  C09F  F043         	movff	_atanf$1910+2,___flsub@a+2
  4981   000820  C0A0  F044         	movff	_atanf$1910+3,___flsub@a+3
  4982   000824  ECB7  F013         	call	___flsub	;wreg free
  4983   000828  C03D  F0B7         	movff	?___flsub,atanf@z
  4984   00082C  C03E  F0B8         	movff	?___flsub+1,atanf@z+1
  4985   000830  C03F  F0B9         	movff	?___flsub+2,atanf@z+2
  4986   000834  C040  F0BA         	movff	?___flsub+3,atanf@z+3
  4987   000838  0100               	movlb	0	; () banked
  4988   00083A  51B1               	movf	atanf@sign& (0+255),w,b
  4989   00083C  A4D8               	btfss	status,2,c
  4990   00083E  EF23  F004         	goto	u4671
  4991   000842  EF25  F004         	goto	u4670
  4992   000846                     u4671:
  4993   000846  EFE4  F000         	goto	l3935
  4994   00084A                     u4670:
  4995   00084A  EFDA  F000         	goto	l3933
  4996   00084E                     l1089:
  4997   00084E  0012               	return		;funcret
  4998   000850                     __end_of_atanf:
  4999                           	callstack 0
  5000                           
  5001 ;; *************** function _fabsf *****************
  5002 ;; Defined at:
  5003 ;;		line 4 in file "C:\Program Files\Microchip\xc8\v2.50\pic\sources\c99\common\fabsf.c"
  5004 ;; Parameters:    Size  Location     Type
  5005 ;;  x               4  109[COMRAM] float 
  5006 ;; Auto vars:     Size  Location     Type
  5007 ;;  u               4   13[BANK0 ] struct .
  5008 ;; Return value:  Size  Location     Type
  5009 ;;                  4  109[COMRAM] float 
  5010 ;; Registers used:
  5011 ;;		status,2, status,0
  5012 ;; Tracked objects:
  5013 ;;		On entry : 0/0
  5014 ;;		On exit  : 0/0
  5015 ;;		Unchanged: 0/0
  5016 ;; Data sizes:     COMRAM   BANK0   BANK1   BANK2   BANK3   BANK4   BANK5
  5017 ;;      Params:         4       0       0       0       0       0       0
  5018 ;;      Locals:         0       4       0       0       0       0       0
  5019 ;;      Temps:          0       0       0       0       0       0       0
  5020 ;;      Totals:         4       4       0       0       0       0       0
  5021 ;;Total ram usage:        8 bytes
  5022 ;; Hardware stack levels used: 1
  5023 ;; Hardware stack levels required when called: 1
  5024 ;; This function calls:
  5025 ;;		Nothing
  5026 ;; This function is called by:
  5027 ;;		_atan2f
  5028 ;;		_atanf
  5029 ;; This function uses a non-reentrant model
  5030 ;;
  5031                           
  5032                           	psect	text14
  5033   0028A0                     __ptext14:
  5034                           	callstack 0
  5035   0028A0                     _fabsf:
  5036                           	callstack 24
  5037   0028A0  C114  F08D         	movff	fabsf@F465,fabsf@u
  5038   0028A4  C115  F08E         	movff	fabsf@F465+1,fabsf@u+1
  5039   0028A8  C116  F08F         	movff	fabsf@F465+2,fabsf@u+2
  5040   0028AC  C117  F090         	movff	fabsf@F465+3,fabsf@u+3
  5041   0028B0  C06E  F08D         	movff	fabsf@x,fabsf@u
  5042   0028B4  C06F  F08E         	movff	fabsf@x+1,fabsf@u+1
  5043   0028B8  C070  F08F         	movff	fabsf@x+2,fabsf@u+2
  5044   0028BC  C071  F090         	movff	fabsf@x+3,fabsf@u+3
  5045   0028C0  0100               	movlb	0	; () banked
  5046   0028C2  9F90               	bcf	(fabsf@u+3)& (0+255),7,b
  5047   0028C4                     
  5048                           ; BSR set to: 0
  5049   0028C4  C08D  F06E         	movff	fabsf@u,?_fabsf
  5050   0028C8  C08E  F06F         	movff	fabsf@u+1,?_fabsf+1
  5051   0028CC  C08F  F070         	movff	fabsf@u+2,?_fabsf+2
  5052   0028D0  C090  F071         	movff	fabsf@u+3,?_fabsf+3
  5053   0028D4                     
  5054                           ; BSR set to: 0
  5055   0028D4  0012               	return		;funcret
  5056   0028D6                     __end_of_fabsf:
  5057                           	callstack 0
  5058                           
  5059 ;; *************** function ___fpclassifyf *****************
  5060 ;; Defined at:
  5061 ;;		line 4 in file "C:\Program Files\Microchip\xc8\v2.50\pic\sources\c99\common\__fpclassifyf.c"
  5062 ;; Parameters:    Size  Location     Type
  5063 ;;  x               4    5[COMRAM] float 
  5064 ;; Auto vars:     Size  Location     Type
  5065 ;;  u               4   15[COMRAM] struct .
  5066 ;;  e               2   13[COMRAM] int 
  5067 ;; Return value:  Size  Location     Type
  5068 ;;                  2    5[COMRAM] int 
  5069 ;; Registers used:
  5070 ;;		wreg, status,2, status,0
  5071 ;; Tracked objects:
  5072 ;;		On entry : 0/0
  5073 ;;		On exit  : 0/0
  5074 ;;		Unchanged: 0/0
  5075 ;; Data sizes:     COMRAM   BANK0   BANK1   BANK2   BANK3   BANK4   BANK5
  5076 ;;      Params:         4       0       0       0       0       0       0
  5077 ;;      Locals:         6       0       0       0       0       0       0
  5078 ;;      Temps:          4       0       0       0       0       0       0
  5079 ;;      Totals:        14       0       0       0       0       0       0
  5080 ;;Total ram usage:       14 bytes
  5081 ;; Hardware stack levels used: 1
  5082 ;; Hardware stack levels required when called: 1
  5083 ;; This function calls:
  5084 ;;		Nothing
  5085 ;; This function is called by:
  5086 ;;		_atan2f
  5087 ;;		_atanf
  5088 ;; This function uses a non-reentrant model
  5089 ;;
  5090                           
  5091                           	psect	text15
  5092   00250E                     __ptext15:
  5093                           	callstack 0
  5094   00250E                     ___fpclassifyf:
  5095                           	callstack 23
  5096   00250E  C118  F010         	movff	___fpclassifyf@F465,___fpclassifyf@u
  5097   002512  C119  F011         	movff	___fpclassifyf@F465+1,___fpclassifyf@u+1
  5098   002516  C11A  F012         	movff	___fpclassifyf@F465+2,___fpclassifyf@u+2
  5099   00251A  C11B  F013         	movff	___fpclassifyf@F465+3,___fpclassifyf@u+3
  5100   00251E  C006  F010         	movff	___fpclassifyf@x,___fpclassifyf@u
  5101   002522  C007  F011         	movff	___fpclassifyf@x+1,___fpclassifyf@u+1
  5102   002526  C008  F012         	movff	___fpclassifyf@x+2,___fpclassifyf@u+2
  5103   00252A  C009  F013         	movff	___fpclassifyf@x+3,___fpclassifyf@u+3
  5104   00252E  C010  F00A         	movff	___fpclassifyf@u,??___fpclassifyf
  5105   002532  C011  F00B         	movff	___fpclassifyf@u+1,??___fpclassifyf+1
  5106   002536  C012  F00C         	movff	___fpclassifyf@u+2,??___fpclassifyf+2
  5107   00253A  C013  F00D         	movff	___fpclassifyf@u+3,??___fpclassifyf+3
  5108   00253E  0E18               	movlw	24
  5109   002540  EFA7  F012         	goto	u4490
  5110   002544                     u4495:
  5111   002544  90D8               	bcf	status,0,c
  5112   002546  320D               	rrcf	(??___fpclassifyf+3)^0,f,c
  5113   002548  320C               	rrcf	(??___fpclassifyf+2)^0,f,c
  5114   00254A  320B               	rrcf	(??___fpclassifyf+1)^0,f,c
  5115   00254C  320A               	rrcf	??___fpclassifyf^0,f,c
  5116   00254E                     u4490:
  5117   00254E  2EE8               	decfsz	wreg,f,c
  5118   002550  EFA2  F012         	goto	u4495
  5119   002554  500A               	movf	??___fpclassifyf^0,w,c
  5120   002556  6E0E               	movwf	___fpclassifyf@e^0,c
  5121   002558  6A0F               	clrf	(___fpclassifyf@e+1)^0,c
  5122   00255A  500E               	movf	___fpclassifyf@e^0,w,c
  5123   00255C  100F               	iorwf	(___fpclassifyf@e+1)^0,w,c
  5124   00255E  A4D8               	btfss	status,2,c
  5125   002560  EFB4  F012         	goto	u4501
  5126   002564  EFB6  F012         	goto	u4500
  5127   002568                     u4501:
  5128   002568  EFD6  F012         	goto	l3899
  5129   00256C                     u4500:
  5130   00256C  90D8               	bcf	status,0,c
  5131   00256E  3410               	rlcf	___fpclassifyf@u^0,w,c
  5132   002570  6E0A               	movwf	??___fpclassifyf^0,c
  5133   002572  3411               	rlcf	(___fpclassifyf@u+1)^0,w,c
  5134   002574  6E0B               	movwf	(??___fpclassifyf+1)^0,c
  5135   002576  3412               	rlcf	(___fpclassifyf@u+2)^0,w,c
  5136   002578  6E0C               	movwf	(??___fpclassifyf+2)^0,c
  5137   00257A  3413               	rlcf	(___fpclassifyf@u+3)^0,w,c
  5138   00257C  6E0D               	movwf	(??___fpclassifyf+3)^0,c
  5139   00257E  500A               	movf	??___fpclassifyf^0,w,c
  5140   002580  100B               	iorwf	(??___fpclassifyf+1)^0,w,c
  5141   002582  100C               	iorwf	(??___fpclassifyf+2)^0,w,c
  5142   002584  100D               	iorwf	(??___fpclassifyf+3)^0,w,c
  5143   002586  A4D8               	btfss	status,2,c
  5144   002588  EFC8  F012         	goto	u4511
  5145   00258C  EFCA  F012         	goto	u4510
  5146   002590                     u4511:
  5147   002590  EFD0  F012         	goto	l3895
  5148   002594                     u4510:
  5149   002594  0E00               	movlw	0
  5150   002596  6E07               	movwf	(?___fpclassifyf+1)^0,c
  5151   002598  0E02               	movlw	2
  5152   00259A  6E06               	movwf	?___fpclassifyf^0,c
  5153   00259C  EF05  F013         	goto	l1065
  5154   0025A0                     l3895:
  5155   0025A0  0E00               	movlw	0
  5156   0025A2  6E07               	movwf	(?___fpclassifyf+1)^0,c
  5157   0025A4  0E03               	movlw	3
  5158   0025A6  6E06               	movwf	?___fpclassifyf^0,c
  5159   0025A8  EF05  F013         	goto	l1065
  5160   0025AC                     l3899:
  5161   0025AC  280E               	incf	___fpclassifyf@e^0,w,c
  5162   0025AE  100F               	iorwf	(___fpclassifyf@e+1)^0,w,c
  5163   0025B0  A4D8               	btfss	status,2,c
  5164   0025B2  EFDD  F012         	goto	u4521
  5165   0025B6  EFDF  F012         	goto	u4520
  5166   0025BA                     u4521:
  5167   0025BA  EF01  F013         	goto	l3905
  5168   0025BE                     u4520:
  5169   0025BE  C010  F00A         	movff	___fpclassifyf@u,??___fpclassifyf
  5170   0025C2  C011  F00B         	movff	___fpclassifyf@u+1,??___fpclassifyf+1
  5171   0025C6  C012  F00C         	movff	___fpclassifyf@u+2,??___fpclassifyf+2
  5172   0025CA  C013  F00D         	movff	___fpclassifyf@u+3,??___fpclassifyf+3
  5173   0025CE  0E09               	movlw	9
  5174   0025D0                     u4535:
  5175   0025D0  90D8               	bcf	status,0,c
  5176   0025D2  360A               	rlcf	??___fpclassifyf^0,f,c
  5177   0025D4  360B               	rlcf	(??___fpclassifyf+1)^0,f,c
  5178   0025D6  360C               	rlcf	(??___fpclassifyf+2)^0,f,c
  5179   0025D8  360D               	rlcf	(??___fpclassifyf+3)^0,f,c
  5180   0025DA  2EE8               	decfsz	wreg,f,c
  5181   0025DC  EFE8  F012         	goto	u4535
  5182   0025E0  500A               	movf	??___fpclassifyf^0,w,c
  5183   0025E2  100B               	iorwf	(??___fpclassifyf+1)^0,w,c
  5184   0025E4  100C               	iorwf	(??___fpclassifyf+2)^0,w,c
  5185   0025E6  100D               	iorwf	(??___fpclassifyf+3)^0,w,c
  5186   0025E8  B4D8               	btfsc	status,2,c
  5187   0025EA  EFF9  F012         	goto	u4541
  5188   0025EE  EFFC  F012         	goto	u4540
  5189   0025F2                     u4541:
  5190   0025F2  0E01               	movlw	1
  5191   0025F4  EFFD  F012         	goto	u4550
  5192   0025F8                     u4540:
  5193   0025F8  0E00               	movlw	0
  5194   0025FA                     u4550:
  5195   0025FA  6E06               	movwf	?___fpclassifyf^0,c
  5196   0025FC  6A07               	clrf	(?___fpclassifyf+1)^0,c
  5197   0025FE  EF05  F013         	goto	l1065
  5198   002602                     l3905:
  5199   002602  0E00               	movlw	0
  5200   002604  6E07               	movwf	(?___fpclassifyf+1)^0,c
  5201   002606  0E04               	movlw	4
  5202   002608  6E06               	movwf	?___fpclassifyf^0,c
  5203   00260A                     l1065:
  5204   00260A  0012               	return		;funcret
  5205   00260C                     __end_of___fpclassifyf:
  5206                           	callstack 0
  5207                           
  5208 ;; *************** function ___flsub *****************
  5209 ;; Defined at:
  5210 ;;		line 245 in file "C:\Program Files\Microchip\xc8\v2.50\pic\sources\c99\common\sprcadd.c"
  5211 ;; Parameters:    Size  Location     Type
  5212 ;;  b               4   60[COMRAM] int 
  5213 ;;  a               4   64[COMRAM] int 
  5214 ;; Auto vars:     Size  Location     Type
  5215 ;;		None
  5216 ;; Return value:  Size  Location     Type
  5217 ;;                  4   60[COMRAM] int 
  5218 ;; Registers used:
  5219 ;;		wreg, status,2, status,0, cstack
  5220 ;; Tracked objects:
  5221 ;;		On entry : 0/0
  5222 ;;		On exit  : 0/0
  5223 ;;		Unchanged: 0/0
  5224 ;; Data sizes:     COMRAM   BANK0   BANK1   BANK2   BANK3   BANK4   BANK5
  5225 ;;      Params:         8       0       0       0       0       0       0
  5226 ;;      Locals:         0       0       0       0       0       0       0
  5227 ;;      Temps:          0       0       0       0       0       0       0
  5228 ;;      Totals:         8       0       0       0       0       0       0
  5229 ;;Total ram usage:        8 bytes
  5230 ;; Hardware stack levels used: 1
  5231 ;; Hardware stack levels required when called: 2
  5232 ;; This function calls:
  5233 ;;		___fladd
  5234 ;; This function is called by:
  5235 ;;		_Check_Gyroscope
  5236 ;;		_atan2f
  5237 ;;		_atanf
  5238 ;; This function uses a non-reentrant model
  5239 ;;
  5240                           
  5241                           	psect	text16
  5242   00276E                     __ptext16:
  5243                           	callstack 0
  5244   00276E                     ___flsub:
  5245                           	callstack 22
  5246   00276E  0E00               	movlw	0
  5247   002770  1A41               	xorwf	___flsub@a^0,f,c
  5248   002772  0E00               	movlw	0
  5249   002774  1A42               	xorwf	(___flsub@a+1)^0,f,c
  5250   002776  0E00               	movlw	0
  5251   002778  1A43               	xorwf	(___flsub@a+2)^0,f,c
  5252   00277A  0E80               	movlw	128
  5253   00277C  1A44               	xorwf	(___flsub@a+3)^0,f,c
  5254   00277E  C03D  F02D         	movff	___flsub@b,___fladd@b
  5255   002782  C03E  F02E         	movff	___flsub@b+1,___fladd@b+1
  5256   002786  C03F  F02F         	movff	___flsub@b+2,___fladd@b+2
  5257   00278A  C040  F030         	movff	___flsub@b+3,___fladd@b+3
  5258   00278E  C041  F031         	movff	___flsub@a,___fladd@a
  5259   002792  C042  F032         	movff	___flsub@a+1,___fladd@a+1
  5260   002796  C043  F033         	movff	___flsub@a+2,___fladd@a+2
  5261   00279A  C044  F034         	movff	___flsub@a+3,___fladd@a+3
  5262   00279E  EC06  F007         	call	___fladd	;wreg free
  5263   0027A2  C02D  F03D         	movff	?___fladd,?___flsub
  5264   0027A6  C02E  F03E         	movff	?___fladd+1,?___flsub+1
  5265   0027AA  C02F  F03F         	movff	?___fladd+2,?___flsub+2
  5266   0027AE  C030  F040         	movff	?___fladd+3,?___flsub+3
  5267   0027B2  0012               	return		;funcret
  5268   0027B4                     __end_of___flsub:
  5269                           	callstack 0
  5270                           
  5271 ;; *************** function ___fladd *****************
  5272 ;; Defined at:
  5273 ;;		line 10 in file "C:\Program Files\Microchip\xc8\v2.50\pic\sources\c99\common\sprcadd.c"
  5274 ;; Parameters:    Size  Location     Type
  5275 ;;  b               4   44[COMRAM] int 
  5276 ;;  a               4   48[COMRAM] int 
  5277 ;; Auto vars:     Size  Location     Type
  5278 ;;  grs             1   59[COMRAM] unsigned char 
  5279 ;;  bexp            1   58[COMRAM] unsigned char 
  5280 ;;  aexp            1   57[COMRAM] unsigned char 
  5281 ;;  signs           1   56[COMRAM] unsigned char 
  5282 ;; Return value:  Size  Location     Type
  5283 ;;                  4   44[COMRAM] unsigned char 
  5284 ;; Registers used:
  5285 ;;		wreg, status,2, status,0
  5286 ;; Tracked objects:
  5287 ;;		On entry : 0/0
  5288 ;;		On exit  : 0/0
  5289 ;;		Unchanged: 0/0
  5290 ;; Data sizes:     COMRAM   BANK0   BANK1   BANK2   BANK3   BANK4   BANK5
  5291 ;;      Params:         8       0       0       0       0       0       0
  5292 ;;      Locals:         4       0       0       0       0       0       0
  5293 ;;      Temps:          4       0       0       0       0       0       0
  5294 ;;      Totals:        16       0       0       0       0       0       0
  5295 ;;Total ram usage:       16 bytes
  5296 ;; Hardware stack levels used: 1
  5297 ;; Hardware stack levels required when called: 1
  5298 ;; This function calls:
  5299 ;;		Nothing
  5300 ;; This function is called by:
  5301 ;;		_calculate_angle
  5302 ;;		___flsub
  5303 ;;		_atan2f
  5304 ;;		_atanf
  5305 ;; This function uses a non-reentrant model
  5306 ;;
  5307                           
  5308                           	psect	text17
  5309   000E0C                     __ptext17:
  5310                           	callstack 0
  5311   000E0C                     ___fladd:
  5312                           	callstack 22
  5313   000E0C  5030               	movf	(___fladd@b+3)^0,w,c
  5314   000E0E  0B80               	andlw	128
  5315   000E10  6E39               	movwf	___fladd@signs^0,c
  5316   000E12  5030               	movf	(___fladd@b+3)^0,w,c
  5317   000E14  2430               	addwf	(___fladd@b+3)^0,w,c
  5318   000E16  6E3B               	movwf	___fladd@bexp^0,c
  5319   000E18  AE2F               	btfss	(___fladd@b+2)^0,7,c
  5320   000E1A  EF11  F007         	goto	u3671
  5321   000E1E  EF13  F007         	goto	u3670
  5322   000E22                     u3671:
  5323   000E22  EF14  F007         	goto	l3421
  5324   000E26                     u3670:
  5325   000E26  803B               	bsf	___fladd@bexp^0,0,c
  5326   000E28                     l3421:
  5327   000E28  503B               	movf	___fladd@bexp^0,w,c
  5328   000E2A  B4D8               	btfsc	status,2,c
  5329   000E2C  EF1A  F007         	goto	u3681
  5330   000E30  EF1C  F007         	goto	u3680
  5331   000E34                     u3681:
  5332   000E34  EF30  F007         	goto	l3431
  5333   000E38                     u3680:
  5334   000E38  283B               	incf	___fladd@bexp^0,w,c
  5335   000E3A  A4D8               	btfss	status,2,c
  5336   000E3C  EF22  F007         	goto	u3691
  5337   000E40  EF24  F007         	goto	u3690
  5338   000E44                     u3691:
  5339   000E44  EF2C  F007         	goto	l3427
  5340   000E48                     u3690:
  5341   000E48  0E00               	movlw	0
  5342   000E4A  6E2D               	movwf	___fladd@b^0,c
  5343   000E4C  0E00               	movlw	0
  5344   000E4E  6E2E               	movwf	(___fladd@b+1)^0,c
  5345   000E50  0E00               	movlw	0
  5346   000E52  6E2F               	movwf	(___fladd@b+2)^0,c
  5347   000E54  0E00               	movlw	0
  5348   000E56  6E30               	movwf	(___fladd@b+3)^0,c
  5349   000E58                     l3427:
  5350   000E58  8E2F               	bsf	(___fladd@b+2)^0,7,c
  5351   000E5A  6A30               	clrf	(___fladd@b+3)^0,c
  5352   000E5C  EF38  F007         	goto	l3433
  5353   000E60                     l3431:
  5354   000E60  0E00               	movlw	0
  5355   000E62  6E2D               	movwf	___fladd@b^0,c
  5356   000E64  0E00               	movlw	0
  5357   000E66  6E2E               	movwf	(___fladd@b+1)^0,c
  5358   000E68  0E00               	movlw	0
  5359   000E6A  6E2F               	movwf	(___fladd@b+2)^0,c
  5360   000E6C  0E00               	movlw	0
  5361   000E6E  6E30               	movwf	(___fladd@b+3)^0,c
  5362   000E70                     l3433:
  5363   000E70  5034               	movf	(___fladd@a+3)^0,w,c
  5364   000E72  0B80               	andlw	128
  5365   000E74  6E3A               	movwf	___fladd@aexp^0,c
  5366   000E76  5039               	movf	___fladd@signs^0,w,c
  5367   000E78  183A               	xorwf	___fladd@aexp^0,w,c
  5368   000E7A  B4D8               	btfsc	status,2,c
  5369   000E7C  EF42  F007         	goto	u3701
  5370   000E80  EF44  F007         	goto	u3700
  5371   000E84                     u3701:
  5372   000E84  EF45  F007         	goto	l3439
  5373   000E88                     u3700:
  5374   000E88  8C39               	bsf	___fladd@signs^0,6,c
  5375   000E8A                     l3439:
  5376   000E8A  5034               	movf	(___fladd@a+3)^0,w,c
  5377   000E8C  2434               	addwf	(___fladd@a+3)^0,w,c
  5378   000E8E  6E3A               	movwf	___fladd@aexp^0,c
  5379   000E90  AE33               	btfss	(___fladd@a+2)^0,7,c
  5380   000E92  EF4D  F007         	goto	u3711
  5381   000E96  EF4F  F007         	goto	u3710
  5382   000E9A                     u3711:
  5383   000E9A  EF50  F007         	goto	l3445
  5384   000E9E                     u3710:
  5385   000E9E  803A               	bsf	___fladd@aexp^0,0,c
  5386   000EA0                     l3445:
  5387   000EA0  503A               	movf	___fladd@aexp^0,w,c
  5388   000EA2  B4D8               	btfsc	status,2,c
  5389   000EA4  EF56  F007         	goto	u3721
  5390   000EA8  EF58  F007         	goto	u3720
  5391   000EAC                     u3721:
  5392   000EAC  EF6C  F007         	goto	l3455
  5393   000EB0                     u3720:
  5394   000EB0  283A               	incf	___fladd@aexp^0,w,c
  5395   000EB2  A4D8               	btfss	status,2,c
  5396   000EB4  EF5E  F007         	goto	u3731
  5397   000EB8  EF60  F007         	goto	u3730
  5398   000EBC                     u3731:
  5399   000EBC  EF68  F007         	goto	l3451
  5400   000EC0                     u3730:
  5401   000EC0  0E00               	movlw	0
  5402   000EC2  6E31               	movwf	___fladd@a^0,c
  5403   000EC4  0E00               	movlw	0
  5404   000EC6  6E32               	movwf	(___fladd@a+1)^0,c
  5405   000EC8  0E00               	movlw	0
  5406   000ECA  6E33               	movwf	(___fladd@a+2)^0,c
  5407   000ECC  0E00               	movlw	0
  5408   000ECE  6E34               	movwf	(___fladd@a+3)^0,c
  5409   000ED0                     l3451:
  5410   000ED0  8E33               	bsf	(___fladd@a+2)^0,7,c
  5411   000ED2  6A34               	clrf	(___fladd@a+3)^0,c
  5412   000ED4  EF74  F007         	goto	l3457
  5413   000ED8                     l3455:
  5414   000ED8  0E00               	movlw	0
  5415   000EDA  6E31               	movwf	___fladd@a^0,c
  5416   000EDC  0E00               	movlw	0
  5417   000EDE  6E32               	movwf	(___fladd@a+1)^0,c
  5418   000EE0  0E00               	movlw	0
  5419   000EE2  6E33               	movwf	(___fladd@a+2)^0,c
  5420   000EE4  0E00               	movlw	0
  5421   000EE6  6E34               	movwf	(___fladd@a+3)^0,c
  5422   000EE8                     l3457:
  5423   000EE8  503B               	movf	___fladd@bexp^0,w,c
  5424   000EEA  5C3A               	subwf	___fladd@aexp^0,w,c
  5425   000EEC  B0D8               	btfsc	status,0,c
  5426   000EEE  EF7B  F007         	goto	u3741
  5427   000EF2  EF7D  F007         	goto	u3740
  5428   000EF6                     u3741:
  5429   000EF6  EFA4  F007         	goto	l3493
  5430   000EFA                     u3740:
  5431   000EFA  AC39               	btfss	___fladd@signs^0,6,c
  5432   000EFC  EF82  F007         	goto	u3751
  5433   000F00  EF84  F007         	goto	u3750
  5434   000F04                     u3751:
  5435   000F04  EF86  F007         	goto	l3463
  5436   000F08                     u3750:
  5437   000F08  0E80               	movlw	128
  5438   000F0A  1A39               	xorwf	___fladd@signs^0,f,c
  5439   000F0C                     l3463:
  5440   000F0C  C03B  F03C         	movff	___fladd@bexp,___fladd@grs
  5441   000F10  C03A  F03B         	movff	___fladd@aexp,___fladd@bexp
  5442   000F14  C03C  F03A         	movff	___fladd@grs,___fladd@aexp
  5443   000F18  C02D  F03C         	movff	___fladd@b,___fladd@grs
  5444   000F1C  C031  F02D         	movff	___fladd@a,___fladd@b
  5445   000F20  C03C  F031         	movff	___fladd@grs,___fladd@a
  5446   000F24  C02E  F03C         	movff	___fladd@b+1,___fladd@grs
  5447   000F28  C032  F02E         	movff	___fladd@a+1,___fladd@b+1
  5448   000F2C  C03C  F032         	movff	___fladd@grs,___fladd@a+1
  5449   000F30  C02F  F03C         	movff	___fladd@b+2,___fladd@grs
  5450   000F34  C033  F02F         	movff	___fladd@a+2,___fladd@b+2
  5451   000F38  C03C  F033         	movff	___fladd@grs,___fladd@a+2
  5452   000F3C  C030  F03C         	movff	___fladd@b+3,___fladd@grs
  5453   000F40  C034  F030         	movff	___fladd@a+3,___fladd@b+3
  5454   000F44  C03C  F034         	movff	___fladd@grs,___fladd@a+3
  5455   000F48                     l3493:
  5456   000F48  6A3C               	clrf	___fladd@grs^0,c
  5457   000F4A  503B               	movf	___fladd@bexp^0,w,c
  5458   000F4C  C03A  F035         	movff	___fladd@aexp,??___fladd
  5459   000F50  6A36               	clrf	(??___fladd+1)^0,c
  5460   000F52  5E35               	subwf	??___fladd^0,f,c
  5461   000F54  0E00               	movlw	0
  5462   000F56  5A36               	subwfb	(??___fladd+1)^0,f,c
  5463   000F58  BE36               	btfsc	(??___fladd+1)^0,7,c
  5464   000F5A  EFB8  F007         	goto	u3761
  5465   000F5E  5036               	movf	(??___fladd+1)^0,w,c
  5466   000F60  E109               	bnz	u3760
  5467   000F62  0E1A               	movlw	26
  5468   000F64  5C35               	subwf	??___fladd^0,w,c
  5469   000F66  A0D8               	btfss	status,0,c
  5470   000F68  EFB8  F007         	goto	u3761
  5471   000F6C  EFBA  F007         	goto	u3760
  5472   000F70                     u3761:
  5473   000F70  EFF1  F007         	goto	l854
  5474   000F74                     u3760:
  5475   000F74  502D               	movf	___fladd@b^0,w,c
  5476   000F76  102E               	iorwf	(___fladd@b+1)^0,w,c
  5477   000F78  102F               	iorwf	(___fladd@b+2)^0,w,c
  5478   000F7A  1030               	iorwf	(___fladd@b+3)^0,w,c
  5479   000F7C  A4D8               	btfss	status,2,c
  5480   000F7E  EFC3  F007         	goto	u3771
  5481   000F82  EFC6  F007         	goto	u3770
  5482   000F86                     u3771:
  5483   000F86  0E01               	movlw	1
  5484   000F88  EFC7  F007         	goto	u3780
  5485   000F8C                     u3770:
  5486   000F8C  0E00               	movlw	0
  5487   000F8E                     u3780:
  5488   000F8E  6E3C               	movwf	___fladd@grs^0,c
  5489   000F90  0E00               	movlw	0
  5490   000F92  6E2D               	movwf	___fladd@b^0,c
  5491   000F94  0E00               	movlw	0
  5492   000F96  6E2E               	movwf	(___fladd@b+1)^0,c
  5493   000F98  0E00               	movlw	0
  5494   000F9A  6E2F               	movwf	(___fladd@b+2)^0,c
  5495   000F9C  0E00               	movlw	0
  5496   000F9E  6E30               	movwf	(___fladd@b+3)^0,c
  5497   000FA0  C03A  F03B         	movff	___fladd@aexp,___fladd@bexp
  5498   000FA4  EFFA  F007         	goto	l853
  5499   000FA8                     l855:
  5500   000FA8  A03C               	btfss	___fladd@grs^0,0,c
  5501   000FAA  EFD9  F007         	goto	u3791
  5502   000FAE  EFDB  F007         	goto	u3790
  5503   000FB2                     u3791:
  5504   000FB2  EFE1  F007         	goto	l3503
  5505   000FB6                     u3790:
  5506   000FB6  90D8               	bcf	status,0,c
  5507   000FB8  303C               	rrcf	___fladd@grs^0,w,c
  5508   000FBA  0901               	iorlw	1
  5509   000FBC  6E3C               	movwf	___fladd@grs^0,c
  5510   000FBE  EFE3  F007         	goto	l3505
  5511   000FC2                     l3503:
  5512   000FC2  90D8               	bcf	status,0,c
  5513   000FC4  323C               	rrcf	___fladd@grs^0,f,c
  5514   000FC6                     l3505:
  5515   000FC6  A02D               	btfss	___fladd@b^0,0,c
  5516   000FC8  EFE8  F007         	goto	u3801
  5517   000FCC  EFEA  F007         	goto	u3800
  5518   000FD0                     u3801:
  5519   000FD0  EFEB  F007         	goto	l3509
  5520   000FD4                     u3800:
  5521   000FD4  8E3C               	bsf	___fladd@grs^0,7,c
  5522   000FD6                     l3509:
  5523   000FD6  3430               	rlcf	(___fladd@b+3)^0,w,c
  5524   000FD8  3230               	rrcf	(___fladd@b+3)^0,f,c
  5525   000FDA  322F               	rrcf	(___fladd@b+2)^0,f,c
  5526   000FDC  322E               	rrcf	(___fladd@b+1)^0,f,c
  5527   000FDE  322D               	rrcf	___fladd@b^0,f,c
  5528   000FE0  2A3B               	incf	___fladd@bexp^0,f,c
  5529   000FE2                     l854:
  5530   000FE2  503A               	movf	___fladd@aexp^0,w,c
  5531   000FE4  5C3B               	subwf	___fladd@bexp^0,w,c
  5532   000FE6  A0D8               	btfss	status,0,c
  5533   000FE8  EFF8  F007         	goto	u3811
  5534   000FEC  EFFA  F007         	goto	u3810
  5535   000FF0                     u3811:
  5536   000FF0  EFD4  F007         	goto	l855
  5537   000FF4                     u3810:
  5538   000FF4                     l853:
  5539   000FF4  BC39               	btfsc	___fladd@signs^0,6,c
  5540   000FF6  EFFF  F007         	goto	u3821
  5541   000FFA  EF01  F008         	goto	u3820
  5542   000FFE                     u3821:
  5543   000FFE  EF41  F008         	goto	l3537
  5544   001002                     u3820:
  5545   001002  503B               	movf	___fladd@bexp^0,w,c
  5546   001004  A4D8               	btfss	status,2,c
  5547   001006  EF07  F008         	goto	u3831
  5548   00100A  EF09  F008         	goto	u3830
  5549   00100E                     u3831:
  5550   00100E  EF13  F008         	goto	l3519
  5551   001012                     u3830:
  5552   001012  0E00               	movlw	0
  5553   001014  6E2D               	movwf	?___fladd^0,c
  5554   001016  0E00               	movlw	0
  5555   001018  6E2E               	movwf	(?___fladd+1)^0,c
  5556   00101A  0E00               	movlw	0
  5557   00101C  6E2F               	movwf	(?___fladd+2)^0,c
  5558   00101E  0E00               	movlw	0
  5559   001020  6E30               	movwf	(?___fladd+3)^0,c
  5560   001022  EF60  F009         	goto	l862
  5561   001026                     l3519:
  5562   001026  5031               	movf	___fladd@a^0,w,c
  5563   001028  262D               	addwf	___fladd@b^0,f,c
  5564   00102A  5032               	movf	(___fladd@a+1)^0,w,c
  5565   00102C  222E               	addwfc	(___fladd@b+1)^0,f,c
  5566   00102E  5033               	movf	(___fladd@a+2)^0,w,c
  5567   001030  222F               	addwfc	(___fladd@b+2)^0,f,c
  5568   001032  5034               	movf	(___fladd@a+3)^0,w,c
  5569   001034  2230               	addwfc	(___fladd@b+3)^0,f,c
  5570   001036  A030               	btfss	(___fladd@b+3)^0,0,c
  5571   001038  EF20  F008         	goto	u3841
  5572   00103C  EF22  F008         	goto	u3840
  5573   001040                     u3841:
  5574   001040  EFCE  F008         	goto	l867
  5575   001044                     u3840:
  5576   001044  A03C               	btfss	___fladd@grs^0,0,c
  5577   001046  EF27  F008         	goto	u3851
  5578   00104A  EF29  F008         	goto	u3850
  5579   00104E                     u3851:
  5580   00104E  EF2F  F008         	goto	l3527
  5581   001052                     u3850:
  5582   001052  90D8               	bcf	status,0,c
  5583   001054  303C               	rrcf	___fladd@grs^0,w,c
  5584   001056  0901               	iorlw	1
  5585   001058  6E3C               	movwf	___fladd@grs^0,c
  5586   00105A  EF31  F008         	goto	l3529
  5587   00105E                     l3527:
  5588   00105E  90D8               	bcf	status,0,c
  5589   001060  323C               	rrcf	___fladd@grs^0,f,c
  5590   001062                     l3529:
  5591   001062  A02D               	btfss	___fladd@b^0,0,c
  5592   001064  EF36  F008         	goto	u3861
  5593   001068  EF38  F008         	goto	u3860
  5594   00106C                     u3861:
  5595   00106C  EF39  F008         	goto	l3533
  5596   001070                     u3860:
  5597   001070  8E3C               	bsf	___fladd@grs^0,7,c
  5598   001072                     l3533:
  5599   001072  3430               	rlcf	(___fladd@b+3)^0,w,c
  5600   001074  3230               	rrcf	(___fladd@b+3)^0,f,c
  5601   001076  322F               	rrcf	(___fladd@b+2)^0,f,c
  5602   001078  322E               	rrcf	(___fladd@b+1)^0,f,c
  5603   00107A  322D               	rrcf	___fladd@b^0,f,c
  5604   00107C  2A3B               	incf	___fladd@bexp^0,f,c
  5605   00107E  EFCE  F008         	goto	l867
  5606   001082                     l3537:
  5607   001082  5031               	movf	___fladd@a^0,w,c
  5608   001084  5C2D               	subwf	___fladd@b^0,w,c
  5609   001086  5032               	movf	(___fladd@a+1)^0,w,c
  5610   001088  582E               	subwfb	(___fladd@b+1)^0,w,c
  5611   00108A  5033               	movf	(___fladd@a+2)^0,w,c
  5612   00108C  582F               	subwfb	(___fladd@b+2)^0,w,c
  5613   00108E  5030               	movf	(___fladd@b+3)^0,w,c
  5614   001090  0A80               	xorlw	128
  5615   001092  6E35               	movwf	??___fladd^0,c
  5616   001094  5034               	movf	(___fladd@a+3)^0,w,c
  5617   001096  0A80               	xorlw	128
  5618   001098  5835               	subwfb	??___fladd^0,w,c
  5619   00109A  B0D8               	btfsc	status,0,c
  5620   00109C  EF52  F008         	goto	u3871
  5621   0010A0  EF54  F008         	goto	u3870
  5622   0010A4                     u3871:
  5623   0010A4  EF7F  F008         	goto	l3547
  5624   0010A8                     u3870:
  5625   0010A8  502D               	movf	___fladd@b^0,w,c
  5626   0010AA  5C31               	subwf	___fladd@a^0,w,c
  5627   0010AC  6E35               	movwf	??___fladd^0,c
  5628   0010AE  502E               	movf	(___fladd@b+1)^0,w,c
  5629   0010B0  5832               	subwfb	(___fladd@a+1)^0,w,c
  5630   0010B2  6E36               	movwf	(??___fladd+1)^0,c
  5631   0010B4  502F               	movf	(___fladd@b+2)^0,w,c
  5632   0010B6  5833               	subwfb	(___fladd@a+2)^0,w,c
  5633   0010B8  6E37               	movwf	(??___fladd+2)^0,c
  5634   0010BA  5030               	movf	(___fladd@b+3)^0,w,c
  5635   0010BC  5834               	subwfb	(___fladd@a+3)^0,w,c
  5636   0010BE  6E38               	movwf	(??___fladd+3)^0,c
  5637   0010C0  0EFF               	movlw	255
  5638   0010C2  2435               	addwf	??___fladd^0,w,c
  5639   0010C4  6E2D               	movwf	___fladd@b^0,c
  5640   0010C6  0EFF               	movlw	255
  5641   0010C8  2036               	addwfc	(??___fladd+1)^0,w,c
  5642   0010CA  6E2E               	movwf	(___fladd@b+1)^0,c
  5643   0010CC  0EFF               	movlw	255
  5644   0010CE  2037               	addwfc	(??___fladd+2)^0,w,c
  5645   0010D0  6E2F               	movwf	(___fladd@b+2)^0,c
  5646   0010D2  0EFF               	movlw	255
  5647   0010D4  2038               	addwfc	(??___fladd+3)^0,w,c
  5648   0010D6  6E30               	movwf	(___fladd@b+3)^0,c
  5649   0010D8  0E80               	movlw	128
  5650   0010DA  1A39               	xorwf	___fladd@signs^0,f,c
  5651   0010DC  6C3C               	negf	___fladd@grs^0,c
  5652   0010DE  503C               	movf	___fladd@grs^0,w,c
  5653   0010E0  A4D8               	btfss	status,2,c
  5654   0010E2  EF75  F008         	goto	u3881
  5655   0010E6  EF77  F008         	goto	u3880
  5656   0010EA                     u3881:
  5657   0010EA  EF87  F008         	goto	l870
  5658   0010EE                     u3880:
  5659   0010EE  0E01               	movlw	1
  5660   0010F0  262D               	addwf	___fladd@b^0,f,c
  5661   0010F2  0E00               	movlw	0
  5662   0010F4  222E               	addwfc	(___fladd@b+1)^0,f,c
  5663   0010F6  222F               	addwfc	(___fladd@b+2)^0,f,c
  5664   0010F8  2230               	addwfc	(___fladd@b+3)^0,f,c
  5665   0010FA  EF87  F008         	goto	l870
  5666   0010FE                     l3547:
  5667   0010FE  5031               	movf	___fladd@a^0,w,c
  5668   001100  5E2D               	subwf	___fladd@b^0,f,c
  5669   001102  5032               	movf	(___fladd@a+1)^0,w,c
  5670   001104  5A2E               	subwfb	(___fladd@b+1)^0,f,c
  5671   001106  5033               	movf	(___fladd@a+2)^0,w,c
  5672   001108  5A2F               	subwfb	(___fladd@b+2)^0,f,c
  5673   00110A  5034               	movf	(___fladd@a+3)^0,w,c
  5674   00110C  5A30               	subwfb	(___fladd@b+3)^0,f,c
  5675   00110E                     l870:
  5676   00110E  502D               	movf	___fladd@b^0,w,c
  5677   001110  102E               	iorwf	(___fladd@b+1)^0,w,c
  5678   001112  102F               	iorwf	(___fladd@b+2)^0,w,c
  5679   001114  1030               	iorwf	(___fladd@b+3)^0,w,c
  5680   001116  A4D8               	btfss	status,2,c
  5681   001118  EF90  F008         	goto	u3891
  5682   00111C  EF92  F008         	goto	u3890
  5683   001120                     u3891:
  5684   001120  EFC7  F008         	goto	l3571
  5685   001124                     u3890:
  5686   001124  503C               	movf	___fladd@grs^0,w,c
  5687   001126  A4D8               	btfss	status,2,c
  5688   001128  EF98  F008         	goto	u3901
  5689   00112C  EF9A  F008         	goto	u3900
  5690   001130                     u3901:
  5691   001130  EFC7  F008         	goto	l3571
  5692   001134                     u3900:
  5693   001134  0E00               	movlw	0
  5694   001136  6E2D               	movwf	?___fladd^0,c
  5695   001138  0E00               	movlw	0
  5696   00113A  6E2E               	movwf	(?___fladd+1)^0,c
  5697   00113C  0E00               	movlw	0
  5698   00113E  6E2F               	movwf	(?___fladd+2)^0,c
  5699   001140  0E00               	movlw	0
  5700   001142  6E30               	movwf	(?___fladd+3)^0,c
  5701   001144  EF60  F009         	goto	l862
  5702   001148                     l3555:
  5703   001148  90D8               	bcf	status,0,c
  5704   00114A  362D               	rlcf	___fladd@b^0,f,c
  5705   00114C  362E               	rlcf	(___fladd@b+1)^0,f,c
  5706   00114E  362F               	rlcf	(___fladd@b+2)^0,f,c
  5707   001150  3630               	rlcf	(___fladd@b+3)^0,f,c
  5708   001152  AE3C               	btfss	___fladd@grs^0,7,c
  5709   001154  EFAE  F008         	goto	u3911
  5710   001158  EFB0  F008         	goto	u3910
  5711   00115C                     u3911:
  5712   00115C  EFB1  F008         	goto	l3561
  5713   001160                     u3910:
  5714   001160  802D               	bsf	___fladd@b^0,0,c
  5715   001162                     l3561:
  5716   001162  A03C               	btfss	___fladd@grs^0,0,c
  5717   001164  EFB6  F008         	goto	u3921
  5718   001168  EFB8  F008         	goto	u3920
  5719   00116C                     u3921:
  5720   00116C  EFBC  F008         	goto	l3565
  5721   001170                     u3920:
  5722   001170  80D8               	bsf	status,0,c
  5723   001172  363C               	rlcf	___fladd@grs^0,f,c
  5724   001174  EFBE  F008         	goto	l3567
  5725   001178                     l3565:
  5726   001178  90D8               	bcf	status,0,c
  5727   00117A  363C               	rlcf	___fladd@grs^0,f,c
  5728   00117C                     l3567:
  5729   00117C  503B               	movf	___fladd@bexp^0,w,c
  5730   00117E  B4D8               	btfsc	status,2,c
  5731   001180  EFC4  F008         	goto	u3931
  5732   001184  EFC6  F008         	goto	u3930
  5733   001188                     u3931:
  5734   001188  EFC7  F008         	goto	l3571
  5735   00118C                     u3930:
  5736   00118C  063B               	decf	___fladd@bexp^0,f,c
  5737   00118E                     l3571:
  5738   00118E  AE2F               	btfss	(___fladd@b+2)^0,7,c
  5739   001190  EFCC  F008         	goto	u3941
  5740   001194  EFCE  F008         	goto	u3940
  5741   001198                     u3941:
  5742   001198  EFA4  F008         	goto	l3555
  5743   00119C                     u3940:
  5744   00119C                     l867:
  5745   00119C  6A3A               	clrf	___fladd@aexp^0,c
  5746   00119E  AE3C               	btfss	___fladd@grs^0,7,c
  5747   0011A0  EFD4  F008         	goto	u3951
  5748   0011A4  EFD6  F008         	goto	u3950
  5749   0011A8                     u3951:
  5750   0011A8  EFEE  F008         	goto	l879
  5751   0011AC                     u3950:
  5752   0011AC  C03C  F035         	movff	___fladd@grs,??___fladd
  5753   0011B0  0E7F               	movlw	127
  5754   0011B2  1635               	andwf	??___fladd^0,f,c
  5755   0011B4  B4D8               	btfsc	status,2,c
  5756   0011B6  EFDF  F008         	goto	u3961
  5757   0011BA  EFE1  F008         	goto	u3960
  5758   0011BE                     u3961:
  5759   0011BE  EFE5  F008         	goto	l880
  5760   0011C2                     u3960:
  5761   0011C2                     l3575:
  5762   0011C2  0E01               	movlw	1
  5763   0011C4  6E3A               	movwf	___fladd@aexp^0,c
  5764   0011C6  EFEE  F008         	goto	l879
  5765   0011CA                     l880:
  5766   0011CA  A02D               	btfss	___fladd@b^0,0,c
  5767   0011CC  EFEA  F008         	goto	u3971
  5768   0011D0  EFEC  F008         	goto	u3970
  5769   0011D4                     u3971:
  5770   0011D4  EFEE  F008         	goto	l879
  5771   0011D8                     u3970:
  5772   0011D8  EFE1  F008         	goto	l3575
  5773   0011DC                     l879:
  5774   0011DC  503A               	movf	___fladd@aexp^0,w,c
  5775   0011DE  B4D8               	btfsc	status,2,c
  5776   0011E0  EFF4  F008         	goto	u3981
  5777   0011E4  EFF6  F008         	goto	u3980
  5778   0011E8                     u3981:
  5779   0011E8  EF21  F009         	goto	l3587
  5780   0011EC                     u3980:
  5781   0011EC  0E01               	movlw	1
  5782   0011EE  262D               	addwf	___fladd@b^0,f,c
  5783   0011F0  0E00               	movlw	0
  5784   0011F2  222E               	addwfc	(___fladd@b+1)^0,f,c
  5785   0011F4  222F               	addwfc	(___fladd@b+2)^0,f,c
  5786   0011F6  2230               	addwfc	(___fladd@b+3)^0,f,c
  5787   0011F8  A030               	btfss	(___fladd@b+3)^0,0,c
  5788   0011FA  EF01  F009         	goto	u3991
  5789   0011FE  EF03  F009         	goto	u3990
  5790   001202                     u3991:
  5791   001202  EF21  F009         	goto	l3587
  5792   001206                     u3990:
  5793   001206  C02D  F035         	movff	___fladd@b,??___fladd
  5794   00120A  C02E  F036         	movff	___fladd@b+1,??___fladd+1
  5795   00120E  C02F  F037         	movff	___fladd@b+2,??___fladd+2
  5796   001212  C030  F038         	movff	___fladd@b+3,??___fladd+3
  5797   001216  3438               	rlcf	(??___fladd+3)^0,w,c
  5798   001218  3238               	rrcf	(??___fladd+3)^0,f,c
  5799   00121A  3237               	rrcf	(??___fladd+2)^0,f,c
  5800   00121C  3236               	rrcf	(??___fladd+1)^0,f,c
  5801   00121E  3235               	rrcf	??___fladd^0,f,c
  5802   001220  C035  F02D         	movff	??___fladd,___fladd@b
  5803   001224  C036  F02E         	movff	??___fladd+1,___fladd@b+1
  5804   001228  C037  F02F         	movff	??___fladd+2,___fladd@b+2
  5805   00122C  C038  F030         	movff	??___fladd+3,___fladd@b+3
  5806   001230  283B               	incf	___fladd@bexp^0,w,c
  5807   001232  B4D8               	btfsc	status,2,c
  5808   001234  EF1E  F009         	goto	u4001
  5809   001238  EF20  F009         	goto	u4000
  5810   00123C                     u4001:
  5811   00123C  EF21  F009         	goto	l3587
  5812   001240                     u4000:
  5813   001240  2A3B               	incf	___fladd@bexp^0,f,c
  5814   001242                     l3587:
  5815   001242  283B               	incf	___fladd@bexp^0,w,c
  5816   001244  B4D8               	btfsc	status,2,c
  5817   001246  EF27  F009         	goto	u4011
  5818   00124A  EF29  F009         	goto	u4010
  5819   00124E                     u4011:
  5820   00124E  EF31  F009         	goto	l3591
  5821   001252                     u4010:
  5822   001252  503B               	movf	___fladd@bexp^0,w,c
  5823   001254  A4D8               	btfss	status,2,c
  5824   001256  EF2F  F009         	goto	u4021
  5825   00125A  EF31  F009         	goto	u4020
  5826   00125E                     u4021:
  5827   00125E  EF42  F009         	goto	l886
  5828   001262                     u4020:
  5829   001262                     l3591:
  5830   001262  0E00               	movlw	0
  5831   001264  6E2D               	movwf	___fladd@b^0,c
  5832   001266  0E00               	movlw	0
  5833   001268  6E2E               	movwf	(___fladd@b+1)^0,c
  5834   00126A  0E00               	movlw	0
  5835   00126C  6E2F               	movwf	(___fladd@b+2)^0,c
  5836   00126E  0E00               	movlw	0
  5837   001270  6E30               	movwf	(___fladd@b+3)^0,c
  5838   001272  503B               	movf	___fladd@bexp^0,w,c
  5839   001274  A4D8               	btfss	status,2,c
  5840   001276  EF3F  F009         	goto	u4031
  5841   00127A  EF41  F009         	goto	u4030
  5842   00127E                     u4031:
  5843   00127E  EF42  F009         	goto	l886
  5844   001282                     u4030:
  5845   001282  6A39               	clrf	___fladd@signs^0,c
  5846   001284                     l886:
  5847   001284  A03B               	btfss	___fladd@bexp^0,0,c
  5848   001286  EF47  F009         	goto	u4041
  5849   00128A  EF49  F009         	goto	u4040
  5850   00128E                     u4041:
  5851   00128E  EF4C  F009         	goto	l3597
  5852   001292                     u4040:
  5853   001292  8E2F               	bsf	(___fladd@b+2)^0,7,c
  5854   001294  EF4D  F009         	goto	l3599
  5855   001298                     l3597:
  5856   001298  9E2F               	bcf	(___fladd@b+2)^0,7,c
  5857   00129A                     l3599:
  5858   00129A  90D8               	bcf	status,0,c
  5859   00129C  303B               	rrcf	___fladd@bexp^0,w,c
  5860   00129E  6E30               	movwf	(___fladd@b+3)^0,c
  5861   0012A0  AE39               	btfss	___fladd@signs^0,7,c
  5862   0012A2  EF55  F009         	goto	u4051
  5863   0012A6  EF57  F009         	goto	u4050
  5864   0012AA                     u4051:
  5865   0012AA  EF58  F009         	goto	l3605
  5866   0012AE                     u4050:
  5867   0012AE  8E30               	bsf	(___fladd@b+3)^0,7,c
  5868   0012B0                     l3605:
  5869   0012B0  C02D  F02D         	movff	___fladd@b,?___fladd
  5870   0012B4  C02E  F02E         	movff	___fladd@b+1,?___fladd+1
  5871   0012B8  C02F  F02F         	movff	___fladd@b+2,?___fladd+2
  5872   0012BC  C030  F030         	movff	___fladd@b+3,?___fladd+3
  5873   0012C0                     l862:
  5874   0012C0  0012               	return		;funcret
  5875   0012C2                     __end_of___fladd:
  5876                           	callstack 0
  5877                           
  5878 ;; *************** function ___flneg *****************
  5879 ;; Defined at:
  5880 ;;		line 15 in file "C:\Program Files\Microchip\xc8\v2.50\pic\sources\c99\common\flneg.c"
  5881 ;; Parameters:    Size  Location     Type
  5882 ;;  f1              4    5[COMRAM] unsigned char 
  5883 ;; Auto vars:     Size  Location     Type
  5884 ;;		None
  5885 ;; Return value:  Size  Location     Type
  5886 ;;                  4    5[COMRAM] unsigned char 
  5887 ;; Registers used:
  5888 ;;		wreg, status,2, status,0
  5889 ;; Tracked objects:
  5890 ;;		On entry : 0/0
  5891 ;;		On exit  : 0/0
  5892 ;;		Unchanged: 0/0
  5893 ;; Data sizes:     COMRAM   BANK0   BANK1   BANK2   BANK3   BANK4   BANK5
  5894 ;;      Params:         4       0       0       0       0       0       0
  5895 ;;      Locals:         0       0       0       0       0       0       0
  5896 ;;      Temps:          0       0       0       0       0       0       0
  5897 ;;      Totals:         4       0       0       0       0       0       0
  5898 ;;Total ram usage:        4 bytes
  5899 ;; Hardware stack levels used: 1
  5900 ;; Hardware stack levels required when called: 1
  5901 ;; This function calls:
  5902 ;;		Nothing
  5903 ;; This function is called by:
  5904 ;;		_atan2f
  5905 ;;		_atanf
  5906 ;; This function uses a non-reentrant model
  5907 ;;
  5908                           
  5909                           	psect	text18
  5910   002832                     __ptext18:
  5911                           	callstack 0
  5912   002832                     ___flneg:
  5913                           	callstack 23
  5914   002832  5006               	movf	___flneg@f1^0,w,c
  5915   002834  1007               	iorwf	(___flneg@f1+1)^0,w,c
  5916   002836  1008               	iorwf	(___flneg@f1+2)^0,w,c
  5917   002838  1009               	iorwf	(___flneg@f1+3)^0,w,c
  5918   00283A  B4D8               	btfsc	status,2,c
  5919   00283C  EF22  F014         	goto	u4481
  5920   002840  EF24  F014         	goto	u4480
  5921   002844                     u4481:
  5922   002844  EF2C  F014         	goto	l3883
  5923   002848                     u4480:
  5924   002848  0E00               	movlw	0
  5925   00284A  1A06               	xorwf	___flneg@f1^0,f,c
  5926   00284C  0E00               	movlw	0
  5927   00284E  1A07               	xorwf	(___flneg@f1+1)^0,f,c
  5928   002850  0E00               	movlw	0
  5929   002852  1A08               	xorwf	(___flneg@f1+2)^0,f,c
  5930   002854  0E80               	movlw	128
  5931   002856  1A09               	xorwf	(___flneg@f1+3)^0,f,c
  5932   002858                     l3883:
  5933   002858  C006  F006         	movff	___flneg@f1,?___flneg
  5934   00285C  C007  F007         	movff	___flneg@f1+1,?___flneg+1
  5935   002860  C008  F008         	movff	___flneg@f1+2,?___flneg+2
  5936   002864  C009  F009         	movff	___flneg@f1+3,?___flneg+3
  5937   002868  0012               	return		;funcret
  5938   00286A                     __end_of___flneg:
  5939                           	callstack 0
  5940                           
  5941 ;; *************** function ___flmul *****************
  5942 ;; Defined at:
  5943 ;;		line 8 in file "C:\Program Files\Microchip\xc8\v2.50\pic\sources\c99\common\sprcmul.c"
  5944 ;; Parameters:    Size  Location     Type
  5945 ;;  b               4   19[COMRAM] unsigned char 
  5946 ;;  a               4   23[COMRAM] unsigned char 
  5947 ;; Auto vars:     Size  Location     Type
  5948 ;;  prod            4   38[COMRAM] struct .
  5949 ;;  grs             4   33[COMRAM] unsigned long 
  5950 ;;  temp            2   42[COMRAM] struct .
  5951 ;;  bexp            1   37[COMRAM] unsigned char 
  5952 ;;  aexp            1   32[COMRAM] unsigned char 
  5953 ;;  sign            1   31[COMRAM] unsigned char 
  5954 ;; Return value:  Size  Location     Type
  5955 ;;                  4   19[COMRAM] unsigned char 
  5956 ;; Registers used:
  5957 ;;		wreg, status,2, status,0, prodl, prodh
  5958 ;; Tracked objects:
  5959 ;;		On entry : 0/0
  5960 ;;		On exit  : 0/0
  5961 ;;		Unchanged: 0/0
  5962 ;; Data sizes:     COMRAM   BANK0   BANK1   BANK2   BANK3   BANK4   BANK5
  5963 ;;      Params:         8       0       0       0       0       0       0
  5964 ;;      Locals:        13       0       0       0       0       0       0
  5965 ;;      Temps:          4       0       0       0       0       0       0
  5966 ;;      Totals:        25       0       0       0       0       0       0
  5967 ;;Total ram usage:       25 bytes
  5968 ;; Hardware stack levels used: 1
  5969 ;; Hardware stack levels required when called: 1
  5970 ;; This function calls:
  5971 ;;		Nothing
  5972 ;; This function is called by:
  5973 ;;		_calculate_angle
  5974 ;;		_atanf
  5975 ;; This function uses a non-reentrant model
  5976 ;;
  5977                           
  5978                           	psect	text19
  5979   0012C2                     __ptext19:
  5980                           	callstack 0
  5981   0012C2                     ___flmul:
  5982                           	callstack 23
  5983   0012C2  5017               	movf	(___flmul@b+3)^0,w,c
  5984   0012C4  0B80               	andlw	128
  5985   0012C6  6E20               	movwf	___flmul@sign^0,c
  5986   0012C8  5017               	movf	(___flmul@b+3)^0,w,c
  5987   0012CA  2417               	addwf	(___flmul@b+3)^0,w,c
  5988   0012CC  6E26               	movwf	___flmul@bexp^0,c
  5989   0012CE  AE16               	btfss	(___flmul@b+2)^0,7,c
  5990   0012D0  EF6C  F009         	goto	u4291
  5991   0012D4  EF6E  F009         	goto	u4290
  5992   0012D8                     u4291:
  5993   0012D8  EF6F  F009         	goto	l3751
  5994   0012DC                     u4290:
  5995   0012DC  8026               	bsf	___flmul@bexp^0,0,c
  5996   0012DE                     l3751:
  5997   0012DE  5026               	movf	___flmul@bexp^0,w,c
  5998   0012E0  B4D8               	btfsc	status,2,c
  5999   0012E2  EF75  F009         	goto	u4301
  6000   0012E6  EF77  F009         	goto	u4300
  6001   0012EA                     u4301:
  6002   0012EA  EF8A  F009         	goto	l3759
  6003   0012EE                     u4300:
  6004   0012EE  2826               	incf	___flmul@bexp^0,w,c
  6005   0012F0  A4D8               	btfss	status,2,c
  6006   0012F2  EF7D  F009         	goto	u4311
  6007   0012F6  EF7F  F009         	goto	u4310
  6008   0012FA                     u4311:
  6009   0012FA  EF87  F009         	goto	l3757
  6010   0012FE                     u4310:
  6011   0012FE  0E00               	movlw	0
  6012   001300  6E14               	movwf	___flmul@b^0,c
  6013   001302  0E00               	movlw	0
  6014   001304  6E15               	movwf	(___flmul@b+1)^0,c
  6015   001306  0E00               	movlw	0
  6016   001308  6E16               	movwf	(___flmul@b+2)^0,c
  6017   00130A  0E00               	movlw	0
  6018   00130C  6E17               	movwf	(___flmul@b+3)^0,c
  6019   00130E                     l3757:
  6020   00130E  8E16               	bsf	(___flmul@b+2)^0,7,c
  6021   001310  EF92  F009         	goto	l3761
  6022   001314                     l3759:
  6023   001314  0E00               	movlw	0
  6024   001316  6E14               	movwf	___flmul@b^0,c
  6025   001318  0E00               	movlw	0
  6026   00131A  6E15               	movwf	(___flmul@b+1)^0,c
  6027   00131C  0E00               	movlw	0
  6028   00131E  6E16               	movwf	(___flmul@b+2)^0,c
  6029   001320  0E00               	movlw	0
  6030   001322  6E17               	movwf	(___flmul@b+3)^0,c
  6031   001324                     l3761:
  6032   001324  501B               	movf	(___flmul@a+3)^0,w,c
  6033   001326  0B80               	andlw	128
  6034   001328  1A20               	xorwf	___flmul@sign^0,f,c
  6035   00132A  501B               	movf	(___flmul@a+3)^0,w,c
  6036   00132C  241B               	addwf	(___flmul@a+3)^0,w,c
  6037   00132E  6E21               	movwf	___flmul@aexp^0,c
  6038   001330  AE1A               	btfss	(___flmul@a+2)^0,7,c
  6039   001332  EF9D  F009         	goto	u4321
  6040   001336  EF9F  F009         	goto	u4320
  6041   00133A                     u4321:
  6042   00133A  EFA0  F009         	goto	l3769
  6043   00133E                     u4320:
  6044   00133E  8021               	bsf	___flmul@aexp^0,0,c
  6045   001340                     l3769:
  6046   001340  5021               	movf	___flmul@aexp^0,w,c
  6047   001342  B4D8               	btfsc	status,2,c
  6048   001344  EFA6  F009         	goto	u4331
  6049   001348  EFA8  F009         	goto	u4330
  6050   00134C                     u4331:
  6051   00134C  EFBB  F009         	goto	l3777
  6052   001350                     u4330:
  6053   001350  2821               	incf	___flmul@aexp^0,w,c
  6054   001352  A4D8               	btfss	status,2,c
  6055   001354  EFAE  F009         	goto	u4341
  6056   001358  EFB0  F009         	goto	u4340
  6057   00135C                     u4341:
  6058   00135C  EFB8  F009         	goto	l3775
  6059   001360                     u4340:
  6060   001360  0E00               	movlw	0
  6061   001362  6E18               	movwf	___flmul@a^0,c
  6062   001364  0E00               	movlw	0
  6063   001366  6E19               	movwf	(___flmul@a+1)^0,c
  6064   001368  0E00               	movlw	0
  6065   00136A  6E1A               	movwf	(___flmul@a+2)^0,c
  6066   00136C  0E00               	movlw	0
  6067   00136E  6E1B               	movwf	(___flmul@a+3)^0,c
  6068   001370                     l3775:
  6069   001370  8E1A               	bsf	(___flmul@a+2)^0,7,c
  6070   001372  EFC3  F009         	goto	l939
  6071   001376                     l3777:
  6072   001376  0E00               	movlw	0
  6073   001378  6E18               	movwf	___flmul@a^0,c
  6074   00137A  0E00               	movlw	0
  6075   00137C  6E19               	movwf	(___flmul@a+1)^0,c
  6076   00137E  0E00               	movlw	0
  6077   001380  6E1A               	movwf	(___flmul@a+2)^0,c
  6078   001382  0E00               	movlw	0
  6079   001384  6E1B               	movwf	(___flmul@a+3)^0,c
  6080   001386                     l939:
  6081   001386  5021               	movf	___flmul@aexp^0,w,c
  6082   001388  B4D8               	btfsc	status,2,c
  6083   00138A  EFC9  F009         	goto	u4351
  6084   00138E  EFCB  F009         	goto	u4350
  6085   001392                     u4351:
  6086   001392  EFD3  F009         	goto	l3781
  6087   001396                     u4350:
  6088   001396  5026               	movf	___flmul@bexp^0,w,c
  6089   001398  A4D8               	btfss	status,2,c
  6090   00139A  EFD1  F009         	goto	u4361
  6091   00139E  EFD3  F009         	goto	u4360
  6092   0013A2                     u4361:
  6093   0013A2  EFDD  F009         	goto	l3785
  6094   0013A6                     u4360:
  6095   0013A6                     l3781:
  6096   0013A6  0E00               	movlw	0
  6097   0013A8  6E14               	movwf	?___flmul^0,c
  6098   0013AA  0E00               	movlw	0
  6099   0013AC  6E15               	movwf	(?___flmul+1)^0,c
  6100   0013AE  0E00               	movlw	0
  6101   0013B0  6E16               	movwf	(?___flmul+2)^0,c
  6102   0013B2  0E00               	movlw	0
  6103   0013B4  6E17               	movwf	(?___flmul+3)^0,c
  6104   0013B6  EF73  F00B         	goto	l943
  6105   0013BA                     l3785:
  6106   0013BA  501A               	movf	(___flmul@a+2)^0,w,c
  6107   0013BC  0214               	mulwf	___flmul@b^0,c
  6108   0013BE  CFF3 F02B          	movff	prodl,___flmul@temp
  6109   0013C2  CFF4 F02C          	movff	prodh,___flmul@temp+1
  6110   0013C6  502B               	movf	___flmul@temp^0,w,c
  6111   0013C8  6E22               	movwf	___flmul@grs^0,c
  6112   0013CA  6A23               	clrf	(___flmul@grs+1)^0,c
  6113   0013CC  6A24               	clrf	(___flmul@grs+2)^0,c
  6114   0013CE  6A25               	clrf	(___flmul@grs+3)^0,c
  6115   0013D0  502C               	movf	(___flmul@temp+1)^0,w,c
  6116   0013D2  6E27               	movwf	___flmul@prod^0,c
  6117   0013D4  6A28               	clrf	(___flmul@prod+1)^0,c
  6118   0013D6  6A29               	clrf	(___flmul@prod+2)^0,c
  6119   0013D8  6A2A               	clrf	(___flmul@prod+3)^0,c
  6120   0013DA  5019               	movf	(___flmul@a+1)^0,w,c
  6121   0013DC  0215               	mulwf	(___flmul@b+1)^0,c
  6122   0013DE  CFF3 F02B          	movff	prodl,___flmul@temp
  6123   0013E2  CFF4 F02C          	movff	prodh,___flmul@temp+1
  6124   0013E6  502B               	movf	___flmul@temp^0,w,c
  6125   0013E8  2622               	addwf	___flmul@grs^0,f,c
  6126   0013EA  0E00               	movlw	0
  6127   0013EC  2223               	addwfc	(___flmul@grs+1)^0,f,c
  6128   0013EE  2224               	addwfc	(___flmul@grs+2)^0,f,c
  6129   0013F0  2225               	addwfc	(___flmul@grs+3)^0,f,c
  6130   0013F2  502C               	movf	(___flmul@temp+1)^0,w,c
  6131   0013F4  2627               	addwf	___flmul@prod^0,f,c
  6132   0013F6  0E00               	movlw	0
  6133   0013F8  2228               	addwfc	(___flmul@prod+1)^0,f,c
  6134   0013FA  2229               	addwfc	(___flmul@prod+2)^0,f,c
  6135   0013FC  222A               	addwfc	(___flmul@prod+3)^0,f,c
  6136   0013FE  5018               	movf	___flmul@a^0,w,c
  6137   001400  0216               	mulwf	(___flmul@b+2)^0,c
  6138   001402  CFF3 F02B          	movff	prodl,___flmul@temp
  6139   001406  CFF4 F02C          	movff	prodh,___flmul@temp+1
  6140   00140A  502B               	movf	___flmul@temp^0,w,c
  6141   00140C  2622               	addwf	___flmul@grs^0,f,c
  6142   00140E  0E00               	movlw	0
  6143   001410  2223               	addwfc	(___flmul@grs+1)^0,f,c
  6144   001412  2224               	addwfc	(___flmul@grs+2)^0,f,c
  6145   001414  2225               	addwfc	(___flmul@grs+3)^0,f,c
  6146   001416  502C               	movf	(___flmul@temp+1)^0,w,c
  6147   001418  2627               	addwf	___flmul@prod^0,f,c
  6148   00141A  0E00               	movlw	0
  6149   00141C  2228               	addwfc	(___flmul@prod+1)^0,f,c
  6150   00141E  2229               	addwfc	(___flmul@prod+2)^0,f,c
  6151   001420  222A               	addwfc	(___flmul@prod+3)^0,f,c
  6152   001422  C024  F025         	movff	___flmul@grs+2,___flmul@grs+3
  6153   001426  C023  F024         	movff	___flmul@grs+1,___flmul@grs+2
  6154   00142A  C022  F023         	movff	___flmul@grs,___flmul@grs+1
  6155   00142E  6A22               	clrf	___flmul@grs^0,c
  6156   001430  5018               	movf	___flmul@a^0,w,c
  6157   001432  0215               	mulwf	(___flmul@b+1)^0,c
  6158   001434  CFF3 F02B          	movff	prodl,___flmul@temp
  6159   001438  CFF4 F02C          	movff	prodh,___flmul@temp+1
  6160   00143C  502B               	movf	___flmul@temp^0,w,c
  6161   00143E  2622               	addwf	___flmul@grs^0,f,c
  6162   001440  502C               	movf	(___flmul@temp+1)^0,w,c
  6163   001442  2223               	addwfc	(___flmul@grs+1)^0,f,c
  6164   001444  0E00               	movlw	0
  6165   001446  2224               	addwfc	(___flmul@grs+2)^0,f,c
  6166   001448  0E00               	movlw	0
  6167   00144A  2225               	addwfc	(___flmul@grs+3)^0,f,c
  6168   00144C  5019               	movf	(___flmul@a+1)^0,w,c
  6169   00144E  0214               	mulwf	___flmul@b^0,c
  6170   001450  CFF3 F02B          	movff	prodl,___flmul@temp
  6171   001454  CFF4 F02C          	movff	prodh,___flmul@temp+1
  6172   001458  502B               	movf	___flmul@temp^0,w,c
  6173   00145A  2622               	addwf	___flmul@grs^0,f,c
  6174   00145C  502C               	movf	(___flmul@temp+1)^0,w,c
  6175   00145E  2223               	addwfc	(___flmul@grs+1)^0,f,c
  6176   001460  0E00               	movlw	0
  6177   001462  2224               	addwfc	(___flmul@grs+2)^0,f,c
  6178   001464  0E00               	movlw	0
  6179   001466  2225               	addwfc	(___flmul@grs+3)^0,f,c
  6180   001468  C024  F025         	movff	___flmul@grs+2,___flmul@grs+3
  6181   00146C  C023  F024         	movff	___flmul@grs+1,___flmul@grs+2
  6182   001470  C022  F023         	movff	___flmul@grs,___flmul@grs+1
  6183   001474  6A22               	clrf	___flmul@grs^0,c
  6184   001476  5018               	movf	___flmul@a^0,w,c
  6185   001478  0214               	mulwf	___flmul@b^0,c
  6186   00147A  CFF3 F02B          	movff	prodl,___flmul@temp
  6187   00147E  CFF4 F02C          	movff	prodh,___flmul@temp+1
  6188   001482  502B               	movf	___flmul@temp^0,w,c
  6189   001484  2622               	addwf	___flmul@grs^0,f,c
  6190   001486  502C               	movf	(___flmul@temp+1)^0,w,c
  6191   001488  2223               	addwfc	(___flmul@grs+1)^0,f,c
  6192   00148A  0E00               	movlw	0
  6193   00148C  2224               	addwfc	(___flmul@grs+2)^0,f,c
  6194   00148E  0E00               	movlw	0
  6195   001490  2225               	addwfc	(___flmul@grs+3)^0,f,c
  6196   001492  501A               	movf	(___flmul@a+2)^0,w,c
  6197   001494  0215               	mulwf	(___flmul@b+1)^0,c
  6198   001496  CFF3 F02B          	movff	prodl,___flmul@temp
  6199   00149A  CFF4 F02C          	movff	prodh,___flmul@temp+1
  6200   00149E  502B               	movf	___flmul@temp^0,w,c
  6201   0014A0  2627               	addwf	___flmul@prod^0,f,c
  6202   0014A2  502C               	movf	(___flmul@temp+1)^0,w,c
  6203   0014A4  2228               	addwfc	(___flmul@prod+1)^0,f,c
  6204   0014A6  0E00               	movlw	0
  6205   0014A8  2229               	addwfc	(___flmul@prod+2)^0,f,c
  6206   0014AA  0E00               	movlw	0
  6207   0014AC  222A               	addwfc	(___flmul@prod+3)^0,f,c
  6208   0014AE  5019               	movf	(___flmul@a+1)^0,w,c
  6209   0014B0  0216               	mulwf	(___flmul@b+2)^0,c
  6210   0014B2  CFF3 F02B          	movff	prodl,___flmul@temp
  6211   0014B6  CFF4 F02C          	movff	prodh,___flmul@temp+1
  6212   0014BA  502B               	movf	___flmul@temp^0,w,c
  6213   0014BC  2627               	addwf	___flmul@prod^0,f,c
  6214   0014BE  502C               	movf	(___flmul@temp+1)^0,w,c
  6215   0014C0  2228               	addwfc	(___flmul@prod+1)^0,f,c
  6216   0014C2  0E00               	movlw	0
  6217   0014C4  2229               	addwfc	(___flmul@prod+2)^0,f,c
  6218   0014C6  0E00               	movlw	0
  6219   0014C8  222A               	addwfc	(___flmul@prod+3)^0,f,c
  6220   0014CA  501A               	movf	(___flmul@a+2)^0,w,c
  6221   0014CC  0216               	mulwf	(___flmul@b+2)^0,c
  6222   0014CE  CFF3 F02B          	movff	prodl,___flmul@temp
  6223   0014D2  CFF4 F02C          	movff	prodh,___flmul@temp+1
  6224   0014D6  502B               	movf	___flmul@temp^0,w,c
  6225   0014D8  6E1C               	movwf	??___flmul^0,c
  6226   0014DA  502C               	movf	(___flmul@temp+1)^0,w,c
  6227   0014DC  6E1D               	movwf	(??___flmul+1)^0,c
  6228   0014DE  6A1E               	clrf	(??___flmul+2)^0,c
  6229   0014E0  6A1F               	clrf	(??___flmul+3)^0,c
  6230   0014E2  C01E  F01F         	movff	??___flmul+2,??___flmul+3
  6231   0014E6  C01D  F01E         	movff	??___flmul+1,??___flmul+2
  6232   0014EA  C01C  F01D         	movff	??___flmul,??___flmul+1
  6233   0014EE  6A1C               	clrf	??___flmul^0,c
  6234   0014F0  501C               	movf	??___flmul^0,w,c
  6235   0014F2  2627               	addwf	___flmul@prod^0,f,c
  6236   0014F4  501D               	movf	(??___flmul+1)^0,w,c
  6237   0014F6  2228               	addwfc	(___flmul@prod+1)^0,f,c
  6238   0014F8  501E               	movf	(??___flmul+2)^0,w,c
  6239   0014FA  2229               	addwfc	(___flmul@prod+2)^0,f,c
  6240   0014FC  501F               	movf	(??___flmul+3)^0,w,c
  6241   0014FE  222A               	addwfc	(___flmul@prod+3)^0,f,c
  6242   001500  C022  F01C         	movff	___flmul@grs,??___flmul
  6243   001504  C023  F01D         	movff	___flmul@grs+1,??___flmul+1
  6244   001508  C024  F01E         	movff	___flmul@grs+2,??___flmul+2
  6245   00150C  C025  F01F         	movff	___flmul@grs+3,??___flmul+3
  6246   001510  0E19               	movlw	25
  6247   001512  EF90  F00A         	goto	u4370
  6248   001516                     u4375:
  6249   001516  90D8               	bcf	status,0,c
  6250   001518  321F               	rrcf	(??___flmul+3)^0,f,c
  6251   00151A  321E               	rrcf	(??___flmul+2)^0,f,c
  6252   00151C  321D               	rrcf	(??___flmul+1)^0,f,c
  6253   00151E  321C               	rrcf	??___flmul^0,f,c
  6254   001520                     u4370:
  6255   001520  2EE8               	decfsz	wreg,f,c
  6256   001522  EF8B  F00A         	goto	u4375
  6257   001526  501C               	movf	??___flmul^0,w,c
  6258   001528  2627               	addwf	___flmul@prod^0,f,c
  6259   00152A  501D               	movf	(??___flmul+1)^0,w,c
  6260   00152C  2228               	addwfc	(___flmul@prod+1)^0,f,c
  6261   00152E  501E               	movf	(??___flmul+2)^0,w,c
  6262   001530  2229               	addwfc	(___flmul@prod+2)^0,f,c
  6263   001532  501F               	movf	(??___flmul+3)^0,w,c
  6264   001534  222A               	addwfc	(___flmul@prod+3)^0,f,c
  6265   001536  C024  F025         	movff	___flmul@grs+2,___flmul@grs+3
  6266   00153A  C023  F024         	movff	___flmul@grs+1,___flmul@grs+2
  6267   00153E  C022  F023         	movff	___flmul@grs,___flmul@grs+1
  6268   001542  6A22               	clrf	___flmul@grs^0,c
  6269   001544  5021               	movf	___flmul@aexp^0,w,c
  6270   001546  C026  F01C         	movff	___flmul@bexp,??___flmul
  6271   00154A  6A1D               	clrf	(??___flmul+1)^0,c
  6272   00154C  261C               	addwf	??___flmul^0,f,c
  6273   00154E  0E00               	movlw	0
  6274   001550  221D               	addwfc	(??___flmul+1)^0,f,c
  6275   001552  0E82               	movlw	130
  6276   001554  241C               	addwf	??___flmul^0,w,c
  6277   001556  6E2B               	movwf	___flmul@temp^0,c
  6278   001558  0EFF               	movlw	255
  6279   00155A  201D               	addwfc	(??___flmul+1)^0,w,c
  6280   00155C  6E2C               	movwf	(___flmul@temp+1)^0,c
  6281   00155E  EFC6  F00A         	goto	l3833
  6282   001562                     l3827:
  6283   001562  90D8               	bcf	status,0,c
  6284   001564  3627               	rlcf	___flmul@prod^0,f,c
  6285   001566  3628               	rlcf	(___flmul@prod+1)^0,f,c
  6286   001568  3629               	rlcf	(___flmul@prod+2)^0,f,c
  6287   00156A  362A               	rlcf	(___flmul@prod+3)^0,f,c
  6288   00156C  AE25               	btfss	(___flmul@grs+3)^0,7,c
  6289   00156E  EFBB  F00A         	goto	u4381
  6290   001572  EFBD  F00A         	goto	u4380
  6291   001576                     u4381:
  6292   001576  EFBE  F00A         	goto	l946
  6293   00157A                     u4380:
  6294   00157A  8027               	bsf	___flmul@prod^0,0,c
  6295   00157C                     l946:
  6296   00157C  90D8               	bcf	status,0,c
  6297   00157E  3622               	rlcf	___flmul@grs^0,f,c
  6298   001580  3623               	rlcf	(___flmul@grs+1)^0,f,c
  6299   001582  3624               	rlcf	(___flmul@grs+2)^0,f,c
  6300   001584  3625               	rlcf	(___flmul@grs+3)^0,f,c
  6301   001586  062B               	decf	___flmul@temp^0,f,c
  6302   001588  A0D8               	btfss	status,0,c
  6303   00158A  062C               	decf	(___flmul@temp+1)^0,f,c
  6304   00158C                     l3833:
  6305   00158C  AE29               	btfss	(___flmul@prod+2)^0,7,c
  6306   00158E  EFCB  F00A         	goto	u4391
  6307   001592  EFCD  F00A         	goto	u4390
  6308   001596                     u4391:
  6309   001596  EFB1  F00A         	goto	l3827
  6310   00159A                     u4390:
  6311   00159A  6A21               	clrf	___flmul@aexp^0,c
  6312   00159C  AE25               	btfss	(___flmul@grs+3)^0,7,c
  6313   00159E  EFD3  F00A         	goto	u4401
  6314   0015A2  EFD5  F00A         	goto	u4400
  6315   0015A6                     u4401:
  6316   0015A6  EFF9  F00A         	goto	l948
  6317   0015AA                     u4400:
  6318   0015AA  0EFF               	movlw	255
  6319   0015AC  1422               	andwf	___flmul@grs^0,w,c
  6320   0015AE  6E1C               	movwf	??___flmul^0,c
  6321   0015B0  0EFF               	movlw	255
  6322   0015B2  1423               	andwf	(___flmul@grs+1)^0,w,c
  6323   0015B4  6E1D               	movwf	(??___flmul+1)^0,c
  6324   0015B6  0EFF               	movlw	255
  6325   0015B8  1424               	andwf	(___flmul@grs+2)^0,w,c
  6326   0015BA  6E1E               	movwf	(??___flmul+2)^0,c
  6327   0015BC  0E7F               	movlw	127
  6328   0015BE  1425               	andwf	(___flmul@grs+3)^0,w,c
  6329   0015C0  6E1F               	movwf	(??___flmul+3)^0,c
  6330   0015C2  501C               	movf	??___flmul^0,w,c
  6331   0015C4  101D               	iorwf	(??___flmul+1)^0,w,c
  6332   0015C6  101E               	iorwf	(??___flmul+2)^0,w,c
  6333   0015C8  101F               	iorwf	(??___flmul+3)^0,w,c
  6334   0015CA  B4D8               	btfsc	status,2,c
  6335   0015CC  EFEA  F00A         	goto	u4411
  6336   0015D0  EFEC  F00A         	goto	u4410
  6337   0015D4                     u4411:
  6338   0015D4  EFF0  F00A         	goto	l949
  6339   0015D8                     u4410:
  6340   0015D8                     l3837:
  6341   0015D8  0E01               	movlw	1
  6342   0015DA  6E21               	movwf	___flmul@aexp^0,c
  6343   0015DC  EFF9  F00A         	goto	l948
  6344   0015E0                     l949:
  6345   0015E0  A027               	btfss	___flmul@prod^0,0,c
  6346   0015E2  EFF5  F00A         	goto	u4421
  6347   0015E6  EFF7  F00A         	goto	u4420
  6348   0015EA                     u4421:
  6349   0015EA  EFF9  F00A         	goto	l948
  6350   0015EE                     u4420:
  6351   0015EE  EFEC  F00A         	goto	l3837
  6352   0015F2                     l948:
  6353   0015F2  5021               	movf	___flmul@aexp^0,w,c
  6354   0015F4  B4D8               	btfsc	status,2,c
  6355   0015F6  EFFF  F00A         	goto	u4431
  6356   0015FA  EF01  F00B         	goto	u4430
  6357   0015FE                     u4431:
  6358   0015FE  EF25  F00B         	goto	l3849
  6359   001602                     u4430:
  6360   001602  0E01               	movlw	1
  6361   001604  2627               	addwf	___flmul@prod^0,f,c
  6362   001606  0E00               	movlw	0
  6363   001608  2228               	addwfc	(___flmul@prod+1)^0,f,c
  6364   00160A  2229               	addwfc	(___flmul@prod+2)^0,f,c
  6365   00160C  222A               	addwfc	(___flmul@prod+3)^0,f,c
  6366   00160E  A02A               	btfss	(___flmul@prod+3)^0,0,c
  6367   001610  EF0C  F00B         	goto	u4441
  6368   001614  EF0E  F00B         	goto	u4440
  6369   001618                     u4441:
  6370   001618  EF25  F00B         	goto	l3849
  6371   00161C                     u4440:
  6372   00161C  C027  F01C         	movff	___flmul@prod,??___flmul
  6373   001620  C028  F01D         	movff	___flmul@prod+1,??___flmul+1
  6374   001624  C029  F01E         	movff	___flmul@prod+2,??___flmul+2
  6375   001628  C02A  F01F         	movff	___flmul@prod+3,??___flmul+3
  6376   00162C  341F               	rlcf	(??___flmul+3)^0,w,c
  6377   00162E  321F               	rrcf	(??___flmul+3)^0,f,c
  6378   001630  321E               	rrcf	(??___flmul+2)^0,f,c
  6379   001632  321D               	rrcf	(??___flmul+1)^0,f,c
  6380   001634  321C               	rrcf	??___flmul^0,f,c
  6381   001636  C01C  F027         	movff	??___flmul,___flmul@prod
  6382   00163A  C01D  F028         	movff	??___flmul+1,___flmul@prod+1
  6383   00163E  C01E  F029         	movff	??___flmul+2,___flmul@prod+2
  6384   001642  C01F  F02A         	movff	??___flmul+3,___flmul@prod+3
  6385   001646  4A2B               	infsnz	___flmul@temp^0,f,c
  6386   001648  2A2C               	incf	(___flmul@temp+1)^0,f,c
  6387   00164A                     l3849:
  6388   00164A  BE2C               	btfsc	(___flmul@temp+1)^0,7,c
  6389   00164C  EF30  F00B         	goto	u4451
  6390   001650  502C               	movf	(___flmul@temp+1)^0,w,c
  6391   001652  E108               	bnz	u4450
  6392   001654  282B               	incf	___flmul@temp^0,w,c
  6393   001656  A0D8               	btfss	status,0,c
  6394   001658  EF30  F00B         	goto	u4451
  6395   00165C  EF32  F00B         	goto	u4450
  6396   001660                     u4451:
  6397   001660  EF3C  F00B         	goto	l3853
  6398   001664                     u4450:
  6399   001664  0E00               	movlw	0
  6400   001666  6E27               	movwf	___flmul@prod^0,c
  6401   001668  0E00               	movlw	0
  6402   00166A  6E28               	movwf	(___flmul@prod+1)^0,c
  6403   00166C  0E80               	movlw	128
  6404   00166E  6E29               	movwf	(___flmul@prod+2)^0,c
  6405   001670  0E7F               	movlw	127
  6406   001672  6E2A               	movwf	(___flmul@prod+3)^0,c
  6407   001674  EF69  F00B         	goto	l3867
  6408   001678                     l3853:
  6409   001678  BE2C               	btfsc	(___flmul@temp+1)^0,7,c
  6410   00167A  EF49  F00B         	goto	u4460
  6411   00167E  502C               	movf	(___flmul@temp+1)^0,w,c
  6412   001680  E106               	bnz	u4461
  6413   001682  042B               	decf	___flmul@temp^0,w,c
  6414   001684  B0D8               	btfsc	status,0,c
  6415   001686  EF47  F00B         	goto	u4461
  6416   00168A  EF49  F00B         	goto	u4460
  6417   00168E                     u4461:
  6418   00168E  EF54  F00B         	goto	l956
  6419   001692                     u4460:
  6420   001692  0E00               	movlw	0
  6421   001694  6E27               	movwf	___flmul@prod^0,c
  6422   001696  0E00               	movlw	0
  6423   001698  6E28               	movwf	(___flmul@prod+1)^0,c
  6424   00169A  0E00               	movlw	0
  6425   00169C  6E29               	movwf	(___flmul@prod+2)^0,c
  6426   00169E  0E00               	movlw	0
  6427   0016A0  6E2A               	movwf	(___flmul@prod+3)^0,c
  6428   0016A2  6A20               	clrf	___flmul@sign^0,c
  6429   0016A4  EF69  F00B         	goto	l3867
  6430   0016A8                     l956:
  6431   0016A8  C02B  F026         	movff	___flmul@temp,___flmul@bexp
  6432   0016AC  0EFF               	movlw	255
  6433   0016AE  1627               	andwf	___flmul@prod^0,f,c
  6434   0016B0  0EFF               	movlw	255
  6435   0016B2  1628               	andwf	(___flmul@prod+1)^0,f,c
  6436   0016B4  0E7F               	movlw	127
  6437   0016B6  1629               	andwf	(___flmul@prod+2)^0,f,c
  6438   0016B8  0E00               	movlw	0
  6439   0016BA  162A               	andwf	(___flmul@prod+3)^0,f,c
  6440   0016BC  A026               	btfss	___flmul@bexp^0,0,c
  6441   0016BE  EF63  F00B         	goto	u4471
  6442   0016C2  EF65  F00B         	goto	u4470
  6443   0016C6                     u4471:
  6444   0016C6  EF66  F00B         	goto	l3865
  6445   0016CA                     u4470:
  6446   0016CA  8E29               	bsf	(___flmul@prod+2)^0,7,c
  6447   0016CC                     l3865:
  6448   0016CC  90D8               	bcf	status,0,c
  6449   0016CE  3026               	rrcf	___flmul@bexp^0,w,c
  6450   0016D0  6E2A               	movwf	(___flmul@prod+3)^0,c
  6451   0016D2                     l3867:
  6452   0016D2  5020               	movf	___flmul@sign^0,w,c
  6453   0016D4  122A               	iorwf	(___flmul@prod+3)^0,f,c
  6454   0016D6  C027  F014         	movff	___flmul@prod,?___flmul
  6455   0016DA  C028  F015         	movff	___flmul@prod+1,?___flmul+1
  6456   0016DE  C029  F016         	movff	___flmul@prod+2,?___flmul+2
  6457   0016E2  C02A  F017         	movff	___flmul@prod+3,?___flmul+3
  6458   0016E6                     l943:
  6459   0016E6  0012               	return		;funcret
  6460   0016E8                     __end_of___flmul:
  6461                           	callstack 0
  6462                           
  6463 ;; *************** function ___fldiv *****************
  6464 ;; Defined at:
  6465 ;;		line 11 in file "C:\Program Files\Microchip\xc8\v2.50\pic\sources\c99\common\sprcdiv.c"
  6466 ;; Parameters:    Size  Location     Type
  6467 ;;  b               4   97[COMRAM] unsigned char 
  6468 ;;  a               4  101[COMRAM] unsigned char 
  6469 ;; Auto vars:     Size  Location     Type
  6470 ;;  grs             4    7[BANK0 ] unsigned long 
  6471 ;;  rem             4    0[BANK0 ] unsigned long 
  6472 ;;  new_exp         2    5[BANK0 ] short 
  6473 ;;  aexp            1   12[BANK0 ] unsigned char 
  6474 ;;  bexp            1   11[BANK0 ] unsigned char 
  6475 ;;  sign            1    4[BANK0 ] unsigned char 
  6476 ;; Return value:  Size  Location     Type
  6477 ;;                  4   97[COMRAM] unsigned char 
  6478 ;; Registers used:
  6479 ;;		wreg, status,2, status,0
  6480 ;; Tracked objects:
  6481 ;;		On entry : 0/0
  6482 ;;		On exit  : 0/0
  6483 ;;		Unchanged: 0/0
  6484 ;; Data sizes:     COMRAM   BANK0   BANK1   BANK2   BANK3   BANK4   BANK5
  6485 ;;      Params:         8       0       0       0       0       0       0
  6486 ;;      Locals:         0      13       0       0       0       0       0
  6487 ;;      Temps:          4       0       0       0       0       0       0
  6488 ;;      Totals:        12      13       0       0       0       0       0
  6489 ;;Total ram usage:       25 bytes
  6490 ;; Hardware stack levels used: 1
  6491 ;; Hardware stack levels required when called: 1
  6492 ;; This function calls:
  6493 ;;		Nothing
  6494 ;; This function is called by:
  6495 ;;		_calculate_angle
  6496 ;;		_atan2f
  6497 ;;		_atanf
  6498 ;; This function uses a non-reentrant model
  6499 ;;
  6500                           
  6501                           	psect	text20
  6502   001AC6                     __ptext20:
  6503                           	callstack 0
  6504   001AC6                     ___fldiv:
  6505                           	callstack 23
  6506   001AC6  5065               	movf	(___fldiv@b+3)^0,w,c
  6507   001AC8  0B80               	andlw	128
  6508   001ACA  0100               	movlb	0	; () banked
  6509   001ACC  6F84               	movwf	___fldiv@sign& (0+255),b
  6510   001ACE  5065               	movf	(___fldiv@b+3)^0,w,c
  6511   001AD0  2465               	addwf	(___fldiv@b+3)^0,w,c
  6512   001AD2  6F8B               	movwf	___fldiv@bexp& (0+255),b
  6513   001AD4                     
  6514                           ; BSR set to: 0
  6515   001AD4  AE64               	btfss	(___fldiv@b+2)^0,7,c
  6516   001AD6  EF6F  F00D         	goto	u4061
  6517   001ADA  EF71  F00D         	goto	u4060
  6518   001ADE                     u4061:
  6519   001ADE  EF72  F00D         	goto	l3615
  6520   001AE2                     u4060:
  6521   001AE2                     
  6522                           ; BSR set to: 0
  6523   001AE2  818B               	bsf	___fldiv@bexp& (0+255),0,b
  6524   001AE4                     l3615:
  6525                           
  6526                           ; BSR set to: 0
  6527   001AE4  518B               	movf	___fldiv@bexp& (0+255),w,b
  6528   001AE6  B4D8               	btfsc	status,2,c
  6529   001AE8  EF78  F00D         	goto	u4071
  6530   001AEC  EF7A  F00D         	goto	u4070
  6531   001AF0                     u4071:
  6532   001AF0  EF8E  F00D         	goto	l3625
  6533   001AF4                     u4070:
  6534   001AF4                     
  6535                           ; BSR set to: 0
  6536   001AF4  298B               	incf	___fldiv@bexp& (0+255),w,b
  6537   001AF6  A4D8               	btfss	status,2,c
  6538   001AF8  EF80  F00D         	goto	u4081
  6539   001AFC  EF82  F00D         	goto	u4080
  6540   001B00                     u4081:
  6541   001B00  EF8A  F00D         	goto	l3621
  6542   001B04                     u4080:
  6543   001B04                     
  6544                           ; BSR set to: 0
  6545   001B04  0E00               	movlw	0
  6546   001B06  6E62               	movwf	___fldiv@b^0,c
  6547   001B08  0E00               	movlw	0
  6548   001B0A  6E63               	movwf	(___fldiv@b+1)^0,c
  6549   001B0C  0E00               	movlw	0
  6550   001B0E  6E64               	movwf	(___fldiv@b+2)^0,c
  6551   001B10  0E00               	movlw	0
  6552   001B12  6E65               	movwf	(___fldiv@b+3)^0,c
  6553   001B14                     l3621:
  6554                           
  6555                           ; BSR set to: 0
  6556   001B14  8E64               	bsf	(___fldiv@b+2)^0,7,c
  6557   001B16                     
  6558                           ; BSR set to: 0
  6559   001B16  6A65               	clrf	(___fldiv@b+3)^0,c
  6560   001B18  EF96  F00D         	goto	l3627
  6561   001B1C                     l3625:
  6562                           
  6563                           ; BSR set to: 0
  6564   001B1C  0E00               	movlw	0
  6565   001B1E  6E62               	movwf	___fldiv@b^0,c
  6566   001B20  0E00               	movlw	0
  6567   001B22  6E63               	movwf	(___fldiv@b+1)^0,c
  6568   001B24  0E00               	movlw	0
  6569   001B26  6E64               	movwf	(___fldiv@b+2)^0,c
  6570   001B28  0E00               	movlw	0
  6571   001B2A  6E65               	movwf	(___fldiv@b+3)^0,c
  6572   001B2C                     l3627:
  6573                           
  6574                           ; BSR set to: 0
  6575   001B2C  5069               	movf	(___fldiv@a+3)^0,w,c
  6576   001B2E  0B80               	andlw	128
  6577   001B30  1B84               	xorwf	___fldiv@sign& (0+255),f,b
  6578   001B32                     
  6579                           ; BSR set to: 0
  6580   001B32  5069               	movf	(___fldiv@a+3)^0,w,c
  6581   001B34  2469               	addwf	(___fldiv@a+3)^0,w,c
  6582   001B36  6F8C               	movwf	___fldiv@aexp& (0+255),b
  6583   001B38                     
  6584                           ; BSR set to: 0
  6585   001B38  AE68               	btfss	(___fldiv@a+2)^0,7,c
  6586   001B3A  EFA1  F00D         	goto	u4091
  6587   001B3E  EFA3  F00D         	goto	u4090
  6588   001B42                     u4091:
  6589   001B42  EFA4  F00D         	goto	l3635
  6590   001B46                     u4090:
  6591   001B46                     
  6592                           ; BSR set to: 0
  6593   001B46  818C               	bsf	___fldiv@aexp& (0+255),0,b
  6594   001B48                     l3635:
  6595                           
  6596                           ; BSR set to: 0
  6597   001B48  518C               	movf	___fldiv@aexp& (0+255),w,b
  6598   001B4A  B4D8               	btfsc	status,2,c
  6599   001B4C  EFAA  F00D         	goto	u4101
  6600   001B50  EFAC  F00D         	goto	u4100
  6601   001B54                     u4101:
  6602   001B54  EFC0  F00D         	goto	l3645
  6603   001B58                     u4100:
  6604   001B58                     
  6605                           ; BSR set to: 0
  6606   001B58  298C               	incf	___fldiv@aexp& (0+255),w,b
  6607   001B5A  A4D8               	btfss	status,2,c
  6608   001B5C  EFB2  F00D         	goto	u4111
  6609   001B60  EFB4  F00D         	goto	u4110
  6610   001B64                     u4111:
  6611   001B64  EFBC  F00D         	goto	l3641
  6612   001B68                     u4110:
  6613   001B68                     
  6614                           ; BSR set to: 0
  6615   001B68  0E00               	movlw	0
  6616   001B6A  6E66               	movwf	___fldiv@a^0,c
  6617   001B6C  0E00               	movlw	0
  6618   001B6E  6E67               	movwf	(___fldiv@a+1)^0,c
  6619   001B70  0E00               	movlw	0
  6620   001B72  6E68               	movwf	(___fldiv@a+2)^0,c
  6621   001B74  0E00               	movlw	0
  6622   001B76  6E69               	movwf	(___fldiv@a+3)^0,c
  6623   001B78                     l3641:
  6624                           
  6625                           ; BSR set to: 0
  6626   001B78  8E68               	bsf	(___fldiv@a+2)^0,7,c
  6627   001B7A                     
  6628                           ; BSR set to: 0
  6629   001B7A  6A69               	clrf	(___fldiv@a+3)^0,c
  6630   001B7C  EFC8  F00D         	goto	l3647
  6631   001B80                     l3645:
  6632                           
  6633                           ; BSR set to: 0
  6634   001B80  0E00               	movlw	0
  6635   001B82  6E66               	movwf	___fldiv@a^0,c
  6636   001B84  0E00               	movlw	0
  6637   001B86  6E67               	movwf	(___fldiv@a+1)^0,c
  6638   001B88  0E00               	movlw	0
  6639   001B8A  6E68               	movwf	(___fldiv@a+2)^0,c
  6640   001B8C  0E00               	movlw	0
  6641   001B8E  6E69               	movwf	(___fldiv@a+3)^0,c
  6642   001B90                     l3647:
  6643                           
  6644                           ; BSR set to: 0
  6645   001B90  5066               	movf	___fldiv@a^0,w,c
  6646   001B92  1067               	iorwf	(___fldiv@a+1)^0,w,c
  6647   001B94  1068               	iorwf	(___fldiv@a+2)^0,w,c
  6648   001B96  1069               	iorwf	(___fldiv@a+3)^0,w,c
  6649   001B98  A4D8               	btfss	status,2,c
  6650   001B9A  EFD1  F00D         	goto	u4121
  6651   001B9E  EFD3  F00D         	goto	u4120
  6652   001BA2                     u4121:
  6653   001BA2  EFEB  F00D         	goto	l3659
  6654   001BA6                     u4120:
  6655   001BA6                     
  6656                           ; BSR set to: 0
  6657   001BA6  0E00               	movlw	0
  6658   001BA8  6E62               	movwf	___fldiv@b^0,c
  6659   001BAA  0E00               	movlw	0
  6660   001BAC  6E63               	movwf	(___fldiv@b+1)^0,c
  6661   001BAE  0E00               	movlw	0
  6662   001BB0  6E64               	movwf	(___fldiv@b+2)^0,c
  6663   001BB2  0E00               	movlw	0
  6664   001BB4  6E65               	movwf	(___fldiv@b+3)^0,c
  6665   001BB6                     
  6666                           ; BSR set to: 0
  6667   001BB6  0E80               	movlw	128
  6668   001BB8  1264               	iorwf	(___fldiv@b+2)^0,f,c
  6669   001BBA  0E7F               	movlw	127
  6670   001BBC  1265               	iorwf	(___fldiv@b+3)^0,f,c
  6671   001BBE                     l3653:
  6672                           
  6673                           ; BSR set to: 0
  6674   001BBE  5184               	movf	___fldiv@sign& (0+255),w,b
  6675   001BC0  1265               	iorwf	(___fldiv@b+3)^0,f,c
  6676   001BC2                     
  6677                           ; BSR set to: 0
  6678   001BC2  C062  F062         	movff	___fldiv@b,?___fldiv
  6679   001BC6  C063  F063         	movff	___fldiv@b+1,?___fldiv+1
  6680   001BCA  C064  F064         	movff	___fldiv@b+2,?___fldiv+2
  6681   001BCE  C065  F065         	movff	___fldiv@b+3,?___fldiv+3
  6682   001BD2  EF2B  F00F         	goto	l907
  6683   001BD6                     l3659:
  6684                           
  6685                           ; BSR set to: 0
  6686   001BD6  518B               	movf	___fldiv@bexp& (0+255),w,b
  6687   001BD8  A4D8               	btfss	status,2,c
  6688   001BDA  EFF1  F00D         	goto	u4131
  6689   001BDE  EFF3  F00D         	goto	u4130
  6690   001BE2                     u4131:
  6691   001BE2  EFFD  F00D         	goto	l3667
  6692   001BE6                     u4130:
  6693   001BE6                     
  6694                           ; BSR set to: 0
  6695   001BE6  0E00               	movlw	0
  6696   001BE8  6E62               	movwf	?___fldiv^0,c
  6697   001BEA  0E00               	movlw	0
  6698   001BEC  6E63               	movwf	(?___fldiv+1)^0,c
  6699   001BEE  0E00               	movlw	0
  6700   001BF0  6E64               	movwf	(?___fldiv+2)^0,c
  6701   001BF2  0E00               	movlw	0
  6702   001BF4  6E65               	movwf	(?___fldiv+3)^0,c
  6703   001BF6  EF2B  F00F         	goto	l907
  6704   001BFA                     l3667:
  6705                           
  6706                           ; BSR set to: 0
  6707   001BFA  518C               	movf	___fldiv@aexp& (0+255),w,b
  6708   001BFC  C08B  F06A         	movff	___fldiv@bexp,??___fldiv
  6709   001C00  6A6B               	clrf	(??___fldiv+1)^0,c
  6710   001C02  5E6A               	subwf	??___fldiv^0,f,c
  6711   001C04  0E00               	movlw	0
  6712   001C06  5A6B               	subwfb	(??___fldiv+1)^0,f,c
  6713   001C08  0E7F               	movlw	127
  6714   001C0A  246A               	addwf	??___fldiv^0,w,c
  6715   001C0C  6F85               	movwf	___fldiv@new_exp& (0+255),b
  6716   001C0E  0E00               	movlw	0
  6717   001C10  206B               	addwfc	(??___fldiv+1)^0,w,c
  6718   001C12  6F86               	movwf	(___fldiv@new_exp+1)& (0+255),b
  6719   001C14                     
  6720                           ; BSR set to: 0
  6721   001C14  C062  F080         	movff	___fldiv@b,___fldiv@rem
  6722   001C18  C063  F081         	movff	___fldiv@b+1,___fldiv@rem+1
  6723   001C1C  C064  F082         	movff	___fldiv@b+2,___fldiv@rem+2
  6724   001C20  C065  F083         	movff	___fldiv@b+3,___fldiv@rem+3
  6725   001C24                     
  6726                           ; BSR set to: 0
  6727   001C24  0E00               	movlw	0
  6728   001C26  6E62               	movwf	___fldiv@b^0,c
  6729   001C28  0E00               	movlw	0
  6730   001C2A  6E63               	movwf	(___fldiv@b+1)^0,c
  6731   001C2C  0E00               	movlw	0
  6732   001C2E  6E64               	movwf	(___fldiv@b+2)^0,c
  6733   001C30  0E00               	movlw	0
  6734   001C32  6E65               	movwf	(___fldiv@b+3)^0,c
  6735   001C34                     
  6736                           ; BSR set to: 0
  6737   001C34  0E00               	movlw	0
  6738   001C36  6F87               	movwf	___fldiv@grs& (0+255),b
  6739   001C38  0E00               	movlw	0
  6740   001C3A  6F88               	movwf	(___fldiv@grs+1)& (0+255),b
  6741   001C3C  0E00               	movlw	0
  6742   001C3E  6F89               	movwf	(___fldiv@grs+2)& (0+255),b
  6743   001C40  0E00               	movlw	0
  6744   001C42  6F8A               	movwf	(___fldiv@grs+3)& (0+255),b
  6745   001C44                     
  6746                           ; BSR set to: 0
  6747   001C44  6B8C               	clrf	___fldiv@aexp& (0+255),b
  6748   001C46  EF5D  F00E         	goto	l909
  6749   001C4A                     l3677:
  6750                           
  6751                           ; BSR set to: 0
  6752   001C4A  518C               	movf	___fldiv@aexp& (0+255),w,b
  6753   001C4C  B4D8               	btfsc	status,2,c
  6754   001C4E  EF2B  F00E         	goto	u4141
  6755   001C52  EF2D  F00E         	goto	u4140
  6756   001C56                     u4141:
  6757   001C56  EF44  F00E         	goto	l3685
  6758   001C5A                     u4140:
  6759   001C5A                     
  6760                           ; BSR set to: 0
  6761   001C5A  90D8               	bcf	status,0,c
  6762   001C5C  3780               	rlcf	___fldiv@rem& (0+255),f,b
  6763   001C5E  3781               	rlcf	(___fldiv@rem+1)& (0+255),f,b
  6764   001C60  3782               	rlcf	(___fldiv@rem+2)& (0+255),f,b
  6765   001C62  3783               	rlcf	(___fldiv@rem+3)& (0+255),f,b
  6766   001C64  90D8               	bcf	status,0,c
  6767   001C66  3662               	rlcf	___fldiv@b^0,f,c
  6768   001C68  3663               	rlcf	(___fldiv@b+1)^0,f,c
  6769   001C6A  3664               	rlcf	(___fldiv@b+2)^0,f,c
  6770   001C6C  3665               	rlcf	(___fldiv@b+3)^0,f,c
  6771   001C6E                     
  6772                           ; BSR set to: 0
  6773   001C6E  AF8A               	btfss	(___fldiv@grs+3)& (0+255),7,b
  6774   001C70  EF3C  F00E         	goto	u4151
  6775   001C74  EF3E  F00E         	goto	u4150
  6776   001C78                     u4151:
  6777   001C78  EF3F  F00E         	goto	l912
  6778   001C7C                     u4150:
  6779   001C7C                     
  6780                           ; BSR set to: 0
  6781   001C7C  8062               	bsf	___fldiv@b^0,0,c
  6782   001C7E                     l912:
  6783                           
  6784                           ; BSR set to: 0
  6785   001C7E  90D8               	bcf	status,0,c
  6786   001C80  3787               	rlcf	___fldiv@grs& (0+255),f,b
  6787   001C82  3788               	rlcf	(___fldiv@grs+1)& (0+255),f,b
  6788   001C84  3789               	rlcf	(___fldiv@grs+2)& (0+255),f,b
  6789   001C86  378A               	rlcf	(___fldiv@grs+3)& (0+255),f,b
  6790   001C88                     l3685:
  6791                           
  6792                           ; BSR set to: 0
  6793   001C88  5066               	movf	___fldiv@a^0,w,c
  6794   001C8A  5D80               	subwf	___fldiv@rem& (0+255),w,b
  6795   001C8C  5067               	movf	(___fldiv@a+1)^0,w,c
  6796   001C8E  5981               	subwfb	(___fldiv@rem+1)& (0+255),w,b
  6797   001C90  5068               	movf	(___fldiv@a+2)^0,w,c
  6798   001C92  5982               	subwfb	(___fldiv@rem+2)& (0+255),w,b
  6799   001C94  5069               	movf	(___fldiv@a+3)^0,w,c
  6800   001C96  5983               	subwfb	(___fldiv@rem+3)& (0+255),w,b
  6801   001C98  A0D8               	btfss	status,0,c
  6802   001C9A  EF51  F00E         	goto	u4161
  6803   001C9E  EF53  F00E         	goto	u4160
  6804   001CA2                     u4161:
  6805   001CA2  EF5C  F00E         	goto	l3691
  6806   001CA6                     u4160:
  6807   001CA6                     
  6808                           ; BSR set to: 0
  6809   001CA6  8D8A               	bsf	(___fldiv@grs+3)& (0+255),6,b
  6810   001CA8                     
  6811                           ; BSR set to: 0
  6812   001CA8  5066               	movf	___fldiv@a^0,w,c
  6813   001CAA  5F80               	subwf	___fldiv@rem& (0+255),f,b
  6814   001CAC  5067               	movf	(___fldiv@a+1)^0,w,c
  6815   001CAE  5B81               	subwfb	(___fldiv@rem+1)& (0+255),f,b
  6816   001CB0  5068               	movf	(___fldiv@a+2)^0,w,c
  6817   001CB2  5B82               	subwfb	(___fldiv@rem+2)& (0+255),f,b
  6818   001CB4  5069               	movf	(___fldiv@a+3)^0,w,c
  6819   001CB6  5B83               	subwfb	(___fldiv@rem+3)& (0+255),f,b
  6820   001CB8                     l3691:
  6821                           
  6822                           ; BSR set to: 0
  6823   001CB8  2B8C               	incf	___fldiv@aexp& (0+255),f,b
  6824   001CBA                     l909:
  6825                           
  6826                           ; BSR set to: 0
  6827   001CBA  0E19               	movlw	25
  6828   001CBC  658C               	cpfsgt	___fldiv@aexp& (0+255),b
  6829   001CBE  EF63  F00E         	goto	u4171
  6830   001CC2  EF65  F00E         	goto	u4170
  6831   001CC6                     u4171:
  6832   001CC6  EF25  F00E         	goto	l3677
  6833   001CCA                     u4170:
  6834   001CCA                     
  6835                           ; BSR set to: 0
  6836   001CCA  5180               	movf	___fldiv@rem& (0+255),w,b
  6837   001CCC  1181               	iorwf	(___fldiv@rem+1)& (0+255),w,b
  6838   001CCE  1182               	iorwf	(___fldiv@rem+2)& (0+255),w,b
  6839   001CD0  1183               	iorwf	(___fldiv@rem+3)& (0+255),w,b
  6840   001CD2  B4D8               	btfsc	status,2,c
  6841   001CD4  EF6E  F00E         	goto	u4181
  6842   001CD8  EF70  F00E         	goto	u4180
  6843   001CDC                     u4181:
  6844   001CDC  EF88  F00E         	goto	l3703
  6845   001CE0                     u4180:
  6846   001CE0                     
  6847                           ; BSR set to: 0
  6848   001CE0  8187               	bsf	___fldiv@grs& (0+255),0,b
  6849   001CE2  EF88  F00E         	goto	l3703
  6850   001CE6                     l3697:
  6851                           
  6852                           ; BSR set to: 0
  6853   001CE6  90D8               	bcf	status,0,c
  6854   001CE8  3662               	rlcf	___fldiv@b^0,f,c
  6855   001CEA  3663               	rlcf	(___fldiv@b+1)^0,f,c
  6856   001CEC  3664               	rlcf	(___fldiv@b+2)^0,f,c
  6857   001CEE  3665               	rlcf	(___fldiv@b+3)^0,f,c
  6858   001CF0                     
  6859                           ; BSR set to: 0
  6860   001CF0  AF8A               	btfss	(___fldiv@grs+3)& (0+255),7,b
  6861   001CF2  EF7D  F00E         	goto	u4191
  6862   001CF6  EF7F  F00E         	goto	u4190
  6863   001CFA                     u4191:
  6864   001CFA  EF80  F00E         	goto	l918
  6865   001CFE                     u4190:
  6866   001CFE                     
  6867                           ; BSR set to: 0
  6868   001CFE  8062               	bsf	___fldiv@b^0,0,c
  6869   001D00                     l918:
  6870                           
  6871                           ; BSR set to: 0
  6872   001D00  90D8               	bcf	status,0,c
  6873   001D02  3787               	rlcf	___fldiv@grs& (0+255),f,b
  6874   001D04  3788               	rlcf	(___fldiv@grs+1)& (0+255),f,b
  6875   001D06  3789               	rlcf	(___fldiv@grs+2)& (0+255),f,b
  6876   001D08  378A               	rlcf	(___fldiv@grs+3)& (0+255),f,b
  6877   001D0A  0785               	decf	___fldiv@new_exp& (0+255),f,b
  6878   001D0C  A0D8               	btfss	status,0,c
  6879   001D0E  0786               	decf	(___fldiv@new_exp+1)& (0+255),f,b
  6880   001D10                     l3703:
  6881                           
  6882                           ; BSR set to: 0
  6883   001D10  AE64               	btfss	(___fldiv@b+2)^0,7,c
  6884   001D12  EF8D  F00E         	goto	u4201
  6885   001D16  EF8F  F00E         	goto	u4200
  6886   001D1A                     u4201:
  6887   001D1A  EF73  F00E         	goto	l3697
  6888   001D1E                     u4200:
  6889   001D1E                     
  6890                           ; BSR set to: 0
  6891   001D1E  6B8C               	clrf	___fldiv@aexp& (0+255),b
  6892   001D20  AF8A               	btfss	(___fldiv@grs+3)& (0+255),7,b
  6893   001D22  EF95  F00E         	goto	u4211
  6894   001D26  EF97  F00E         	goto	u4210
  6895   001D2A                     u4211:
  6896   001D2A  EFBB  F00E         	goto	l920
  6897   001D2E                     u4210:
  6898   001D2E                     
  6899                           ; BSR set to: 0
  6900   001D2E  0EFF               	movlw	255
  6901   001D30  1587               	andwf	___fldiv@grs& (0+255),w,b
  6902   001D32  6E6A               	movwf	??___fldiv^0,c
  6903   001D34  0EFF               	movlw	255
  6904   001D36  1588               	andwf	(___fldiv@grs+1)& (0+255),w,b
  6905   001D38  6E6B               	movwf	(??___fldiv+1)^0,c
  6906   001D3A  0EFF               	movlw	255
  6907   001D3C  1589               	andwf	(___fldiv@grs+2)& (0+255),w,b
  6908   001D3E  6E6C               	movwf	(??___fldiv+2)^0,c
  6909   001D40  0E7F               	movlw	127
  6910   001D42  158A               	andwf	(___fldiv@grs+3)& (0+255),w,b
  6911   001D44  6E6D               	movwf	(??___fldiv+3)^0,c
  6912   001D46  506A               	movf	??___fldiv^0,w,c
  6913   001D48  106B               	iorwf	(??___fldiv+1)^0,w,c
  6914   001D4A  106C               	iorwf	(??___fldiv+2)^0,w,c
  6915   001D4C  106D               	iorwf	(??___fldiv+3)^0,w,c
  6916   001D4E  B4D8               	btfsc	status,2,c
  6917   001D50  EFAC  F00E         	goto	u4221
  6918   001D54  EFAE  F00E         	goto	u4220
  6919   001D58                     u4221:
  6920   001D58  EFB2  F00E         	goto	l921
  6921   001D5C                     u4220:
  6922   001D5C                     l3707:
  6923                           
  6924                           ; BSR set to: 0
  6925   001D5C  0E01               	movlw	1
  6926   001D5E  6F8C               	movwf	___fldiv@aexp& (0+255),b
  6927   001D60  EFBB  F00E         	goto	l920
  6928   001D64                     l921:
  6929                           
  6930                           ; BSR set to: 0
  6931   001D64  A062               	btfss	___fldiv@b^0,0,c
  6932   001D66  EFB7  F00E         	goto	u4231
  6933   001D6A  EFB9  F00E         	goto	u4230
  6934   001D6E                     u4231:
  6935   001D6E  EFBB  F00E         	goto	l920
  6936   001D72                     u4230:
  6937   001D72  EFAE  F00E         	goto	l3707
  6938   001D76                     l920:
  6939                           
  6940                           ; BSR set to: 0
  6941   001D76  518C               	movf	___fldiv@aexp& (0+255),w,b
  6942   001D78  B4D8               	btfsc	status,2,c
  6943   001D7A  EFC1  F00E         	goto	u4241
  6944   001D7E  EFC3  F00E         	goto	u4240
  6945   001D82                     u4241:
  6946   001D82  EFE7  F00E         	goto	l3719
  6947   001D86                     u4240:
  6948   001D86                     
  6949                           ; BSR set to: 0
  6950   001D86  0E01               	movlw	1
  6951   001D88  2662               	addwf	___fldiv@b^0,f,c
  6952   001D8A  0E00               	movlw	0
  6953   001D8C  2263               	addwfc	(___fldiv@b+1)^0,f,c
  6954   001D8E  2264               	addwfc	(___fldiv@b+2)^0,f,c
  6955   001D90  2265               	addwfc	(___fldiv@b+3)^0,f,c
  6956   001D92                     
  6957                           ; BSR set to: 0
  6958   001D92  A065               	btfss	(___fldiv@b+3)^0,0,c
  6959   001D94  EFCE  F00E         	goto	u4251
  6960   001D98  EFD0  F00E         	goto	u4250
  6961   001D9C                     u4251:
  6962   001D9C  EFE7  F00E         	goto	l3719
  6963   001DA0                     u4250:
  6964   001DA0                     
  6965                           ; BSR set to: 0
  6966   001DA0  C062  F06A         	movff	___fldiv@b,??___fldiv
  6967   001DA4  C063  F06B         	movff	___fldiv@b+1,??___fldiv+1
  6968   001DA8  C064  F06C         	movff	___fldiv@b+2,??___fldiv+2
  6969   001DAC  C065  F06D         	movff	___fldiv@b+3,??___fldiv+3
  6970   001DB0  346D               	rlcf	(??___fldiv+3)^0,w,c
  6971   001DB2  326D               	rrcf	(??___fldiv+3)^0,f,c
  6972   001DB4  326C               	rrcf	(??___fldiv+2)^0,f,c
  6973   001DB6  326B               	rrcf	(??___fldiv+1)^0,f,c
  6974   001DB8  326A               	rrcf	??___fldiv^0,f,c
  6975   001DBA  C06A  F062         	movff	??___fldiv,___fldiv@b
  6976   001DBE  C06B  F063         	movff	??___fldiv+1,___fldiv@b+1
  6977   001DC2  C06C  F064         	movff	??___fldiv+2,___fldiv@b+2
  6978   001DC6  C06D  F065         	movff	??___fldiv+3,___fldiv@b+3
  6979   001DCA                     
  6980                           ; BSR set to: 0
  6981   001DCA  4B85               	infsnz	___fldiv@new_exp& (0+255),f,b
  6982   001DCC  2B86               	incf	(___fldiv@new_exp+1)& (0+255),f,b
  6983   001DCE                     l3719:
  6984                           
  6985                           ; BSR set to: 0
  6986   001DCE  BF86               	btfsc	(___fldiv@new_exp+1)& (0+255),7,b
  6987   001DD0  EFF2  F00E         	goto	u4261
  6988   001DD4  5186               	movf	(___fldiv@new_exp+1)& (0+255),w,b
  6989   001DD6  E108               	bnz	u4260
  6990   001DD8  2985               	incf	___fldiv@new_exp& (0+255),w,b
  6991   001DDA  A0D8               	btfss	status,0,c
  6992   001DDC  EFF2  F00E         	goto	u4261
  6993   001DE0  EFF4  F00E         	goto	u4260
  6994   001DE4                     u4261:
  6995   001DE4  EFFF  F00E         	goto	l3723
  6996   001DE8                     u4260:
  6997   001DE8                     
  6998                           ; BSR set to: 0
  6999   001DE8  0E00               	movlw	0
  7000   001DEA  6F86               	movwf	(___fldiv@new_exp+1)& (0+255),b
  7001   001DEC  6985               	setf	___fldiv@new_exp& (0+255),b
  7002   001DEE  0E00               	movlw	0
  7003   001DF0  6E62               	movwf	___fldiv@b^0,c
  7004   001DF2  0E00               	movlw	0
  7005   001DF4  6E63               	movwf	(___fldiv@b+1)^0,c
  7006   001DF6  0E00               	movlw	0
  7007   001DF8  6E64               	movwf	(___fldiv@b+2)^0,c
  7008   001DFA  0E00               	movlw	0
  7009   001DFC  6E65               	movwf	(___fldiv@b+3)^0,c
  7010   001DFE                     l3723:
  7011                           
  7012                           ; BSR set to: 0
  7013   001DFE  BF86               	btfsc	(___fldiv@new_exp+1)& (0+255),7,b
  7014   001E00  EF0C  F00F         	goto	u4270
  7015   001E04  5186               	movf	(___fldiv@new_exp+1)& (0+255),w,b
  7016   001E06  E106               	bnz	u4271
  7017   001E08  0585               	decf	___fldiv@new_exp& (0+255),w,b
  7018   001E0A  B0D8               	btfsc	status,0,c
  7019   001E0C  EF0A  F00F         	goto	u4271
  7020   001E10  EF0C  F00F         	goto	u4270
  7021   001E14                     u4271:
  7022   001E14  EF19  F00F         	goto	l3729
  7023   001E18                     u4270:
  7024   001E18                     
  7025                           ; BSR set to: 0
  7026   001E18  0E00               	movlw	0
  7027   001E1A  6F86               	movwf	(___fldiv@new_exp+1)& (0+255),b
  7028   001E1C  0E00               	movlw	0
  7029   001E1E  6F85               	movwf	___fldiv@new_exp& (0+255),b
  7030   001E20  0E00               	movlw	0
  7031   001E22  6E62               	movwf	___fldiv@b^0,c
  7032   001E24  0E00               	movlw	0
  7033   001E26  6E63               	movwf	(___fldiv@b+1)^0,c
  7034   001E28  0E00               	movlw	0
  7035   001E2A  6E64               	movwf	(___fldiv@b+2)^0,c
  7036   001E2C  0E00               	movlw	0
  7037   001E2E  6E65               	movwf	(___fldiv@b+3)^0,c
  7038   001E30                     
  7039                           ; BSR set to: 0
  7040   001E30  6B84               	clrf	___fldiv@sign& (0+255),b
  7041   001E32                     l3729:
  7042                           
  7043                           ; BSR set to: 0
  7044   001E32  C085  F08B         	movff	___fldiv@new_exp,___fldiv@bexp
  7045   001E36                     
  7046                           ; BSR set to: 0
  7047   001E36  A18B               	btfss	___fldiv@bexp& (0+255),0,b
  7048   001E38  EF20  F00F         	goto	u4281
  7049   001E3C  EF22  F00F         	goto	u4280
  7050   001E40                     u4281:
  7051   001E40  EF25  F00F         	goto	l3735
  7052   001E44                     u4280:
  7053   001E44                     
  7054                           ; BSR set to: 0
  7055   001E44  8E64               	bsf	(___fldiv@b+2)^0,7,c
  7056   001E46  EF26  F00F         	goto	l3737
  7057   001E4A                     l3735:
  7058                           
  7059                           ; BSR set to: 0
  7060   001E4A  9E64               	bcf	(___fldiv@b+2)^0,7,c
  7061   001E4C                     l3737:
  7062                           
  7063                           ; BSR set to: 0
  7064   001E4C  90D8               	bcf	status,0,c
  7065   001E4E  318B               	rrcf	___fldiv@bexp& (0+255),w,b
  7066   001E50  6E65               	movwf	(___fldiv@b+3)^0,c
  7067   001E52  EFDF  F00D         	goto	l3653
  7068   001E56                     l907:
  7069                           
  7070                           ; BSR set to: 0
  7071   001E56  0012               	return		;funcret
  7072   001E58                     __end_of___fldiv:
  7073                           	callstack 0
  7074                           
  7075 ;; *************** function ___xxtofl *****************
  7076 ;; Defined at:
  7077 ;;		line 10 in file "C:\Program Files\Microchip\xc8\v2.50\pic\sources\c99\common\xxtofl.c"
  7078 ;; Parameters:    Size  Location     Type
  7079 ;;  sign            1    wreg     unsigned char 
  7080 ;;  val             4    5[COMRAM] long 
  7081 ;; Auto vars:     Size  Location     Type
  7082 ;;  sign            1   13[COMRAM] unsigned char 
  7083 ;;  arg             4   15[COMRAM] unsigned long 
  7084 ;;  exp             1   14[COMRAM] unsigned char 
  7085 ;; Return value:  Size  Location     Type
  7086 ;;                  4    5[COMRAM] unsigned char 
  7087 ;; Registers used:
  7088 ;;		wreg, status,2, status,0
  7089 ;; Tracked objects:
  7090 ;;		On entry : 0/0
  7091 ;;		On exit  : 0/0
  7092 ;;		Unchanged: 0/0
  7093 ;; Data sizes:     COMRAM   BANK0   BANK1   BANK2   BANK3   BANK4   BANK5
  7094 ;;      Params:         4       0       0       0       0       0       0
  7095 ;;      Locals:         6       0       0       0       0       0       0
  7096 ;;      Temps:          4       0       0       0       0       0       0
  7097 ;;      Totals:        14       0       0       0       0       0       0
  7098 ;;Total ram usage:       14 bytes
  7099 ;; Hardware stack levels used: 1
  7100 ;; Hardware stack levels required when called: 1
  7101 ;; This function calls:
  7102 ;;		Nothing
  7103 ;; This function is called by:
  7104 ;;		_calculate_angle
  7105 ;; This function uses a non-reentrant model
  7106 ;;
  7107                           
  7108                           	psect	text21
  7109   0020C0                     __ptext21:
  7110                           	callstack 0
  7111   0020C0                     ___xxtofl:
  7112                           	callstack 25
  7113                           
  7114                           ; BSR set to: 0
  7115                           ;incstack = 0
  7116                           ;___xxtofl@sign stored from wreg
  7117   0020C0  6E0E               	movwf	___xxtofl@sign^0,c
  7118   0020C2  500E               	movf	___xxtofl@sign^0,w,c
  7119   0020C4  B4D8               	btfsc	status,2,c
  7120   0020C6  EF67  F010         	goto	u4971
  7121   0020CA  EF69  F010         	goto	u4970
  7122   0020CE                     u4971:
  7123   0020CE  EF8B  F010         	goto	l980
  7124   0020D2                     u4970:
  7125   0020D2  BE09               	btfsc	(___xxtofl@val+3)^0,7,c
  7126   0020D4  EF70  F010         	goto	u4980
  7127   0020D8  EF6E  F010         	goto	u4981
  7128   0020DC                     u4981:
  7129   0020DC  EF8B  F010         	goto	l980
  7130   0020E0                     u4980:
  7131   0020E0  C006  F00A         	movff	___xxtofl@val,??___xxtofl
  7132   0020E4  C007  F00B         	movff	___xxtofl@val+1,??___xxtofl+1
  7133   0020E8  C008  F00C         	movff	___xxtofl@val+2,??___xxtofl+2
  7134   0020EC  C009  F00D         	movff	___xxtofl@val+3,??___xxtofl+3
  7135   0020F0  1E0A               	comf	??___xxtofl^0,f,c
  7136   0020F2  1E0B               	comf	(??___xxtofl+1)^0,f,c
  7137   0020F4  1E0C               	comf	(??___xxtofl+2)^0,f,c
  7138   0020F6  1E0D               	comf	(??___xxtofl+3)^0,f,c
  7139   0020F8  2A0A               	incf	??___xxtofl^0,f,c
  7140   0020FA  0E00               	movlw	0
  7141   0020FC  220B               	addwfc	(??___xxtofl+1)^0,f,c
  7142   0020FE  220C               	addwfc	(??___xxtofl+2)^0,f,c
  7143   002100  220D               	addwfc	(??___xxtofl+3)^0,f,c
  7144   002102  C00A  F010         	movff	??___xxtofl,___xxtofl@arg
  7145   002106  C00B  F011         	movff	??___xxtofl+1,___xxtofl@arg+1
  7146   00210A  C00C  F012         	movff	??___xxtofl+2,___xxtofl@arg+2
  7147   00210E  C00D  F013         	movff	??___xxtofl+3,___xxtofl@arg+3
  7148   002112  EF93  F010         	goto	l4203
  7149   002116                     l980:
  7150   002116  C006  F010         	movff	___xxtofl@val,___xxtofl@arg
  7151   00211A  C007  F011         	movff	___xxtofl@val+1,___xxtofl@arg+1
  7152   00211E  C008  F012         	movff	___xxtofl@val+2,___xxtofl@arg+2
  7153   002122  C009  F013         	movff	___xxtofl@val+3,___xxtofl@arg+3
  7154   002126                     l4203:
  7155   002126  5006               	movf	___xxtofl@val^0,w,c
  7156   002128  1007               	iorwf	(___xxtofl@val+1)^0,w,c
  7157   00212A  1008               	iorwf	(___xxtofl@val+2)^0,w,c
  7158   00212C  1009               	iorwf	(___xxtofl@val+3)^0,w,c
  7159   00212E  A4D8               	btfss	status,2,c
  7160   002130  EF9C  F010         	goto	u4991
  7161   002134  EF9E  F010         	goto	u4990
  7162   002138                     u4991:
  7163   002138  EFA8  F010         	goto	l4209
  7164   00213C                     u4990:
  7165   00213C  0E00               	movlw	0
  7166   00213E  6E06               	movwf	?___xxtofl^0,c
  7167   002140  0E00               	movlw	0
  7168   002142  6E07               	movwf	(?___xxtofl+1)^0,c
  7169   002144  0E00               	movlw	0
  7170   002146  6E08               	movwf	(?___xxtofl+2)^0,c
  7171   002148  0E00               	movlw	0
  7172   00214A  6E09               	movwf	(?___xxtofl+3)^0,c
  7173   00214C  EF39  F011         	goto	l983
  7174   002150                     l4209:
  7175   002150  0E96               	movlw	150
  7176   002152  6E0F               	movwf	___xxtofl@exp^0,c
  7177   002154  EFB2  F010         	goto	l4213
  7178   002158                     l4211:
  7179   002158  2A0F               	incf	___xxtofl@exp^0,f,c
  7180   00215A  90D8               	bcf	status,0,c
  7181   00215C  3213               	rrcf	(___xxtofl@arg+3)^0,f,c
  7182   00215E  3212               	rrcf	(___xxtofl@arg+2)^0,f,c
  7183   002160  3211               	rrcf	(___xxtofl@arg+1)^0,f,c
  7184   002162  3210               	rrcf	___xxtofl@arg^0,f,c
  7185   002164                     l4213:
  7186   002164  0E00               	movlw	0
  7187   002166  1410               	andwf	___xxtofl@arg^0,w,c
  7188   002168  6E0A               	movwf	??___xxtofl^0,c
  7189   00216A  0E00               	movlw	0
  7190   00216C  1411               	andwf	(___xxtofl@arg+1)^0,w,c
  7191   00216E  6E0B               	movwf	(??___xxtofl+1)^0,c
  7192   002170  0E00               	movlw	0
  7193   002172  1412               	andwf	(___xxtofl@arg+2)^0,w,c
  7194   002174  6E0C               	movwf	(??___xxtofl+2)^0,c
  7195   002176  0EFE               	movlw	254
  7196   002178  1413               	andwf	(___xxtofl@arg+3)^0,w,c
  7197   00217A  6E0D               	movwf	(??___xxtofl+3)^0,c
  7198   00217C  500A               	movf	??___xxtofl^0,w,c
  7199   00217E  100B               	iorwf	(??___xxtofl+1)^0,w,c
  7200   002180  100C               	iorwf	(??___xxtofl+2)^0,w,c
  7201   002182  100D               	iorwf	(??___xxtofl+3)^0,w,c
  7202   002184  A4D8               	btfss	status,2,c
  7203   002186  EFC7  F010         	goto	u5001
  7204   00218A  EFC9  F010         	goto	u5000
  7205   00218E                     u5001:
  7206   00218E  EFAC  F010         	goto	l4211
  7207   002192                     u5000:
  7208   002192  EFD7  F010         	goto	l987
  7209   002196                     l4215:
  7210   002196  2A0F               	incf	___xxtofl@exp^0,f,c
  7211   002198  0E01               	movlw	1
  7212   00219A  2610               	addwf	___xxtofl@arg^0,f,c
  7213   00219C  0E00               	movlw	0
  7214   00219E  2211               	addwfc	(___xxtofl@arg+1)^0,f,c
  7215   0021A0  2212               	addwfc	(___xxtofl@arg+2)^0,f,c
  7216   0021A2  2213               	addwfc	(___xxtofl@arg+3)^0,f,c
  7217   0021A4  90D8               	bcf	status,0,c
  7218   0021A6  3213               	rrcf	(___xxtofl@arg+3)^0,f,c
  7219   0021A8  3212               	rrcf	(___xxtofl@arg+2)^0,f,c
  7220   0021AA  3211               	rrcf	(___xxtofl@arg+1)^0,f,c
  7221   0021AC  3210               	rrcf	___xxtofl@arg^0,f,c
  7222   0021AE                     l987:
  7223   0021AE  0E00               	movlw	0
  7224   0021B0  1410               	andwf	___xxtofl@arg^0,w,c
  7225   0021B2  6E0A               	movwf	??___xxtofl^0,c
  7226   0021B4  0E00               	movlw	0
  7227   0021B6  1411               	andwf	(___xxtofl@arg+1)^0,w,c
  7228   0021B8  6E0B               	movwf	(??___xxtofl+1)^0,c
  7229   0021BA  0E00               	movlw	0
  7230   0021BC  1412               	andwf	(___xxtofl@arg+2)^0,w,c
  7231   0021BE  6E0C               	movwf	(??___xxtofl+2)^0,c
  7232   0021C0  0EFF               	movlw	255
  7233   0021C2  1413               	andwf	(___xxtofl@arg+3)^0,w,c
  7234   0021C4  6E0D               	movwf	(??___xxtofl+3)^0,c
  7235   0021C6  500A               	movf	??___xxtofl^0,w,c
  7236   0021C8  100B               	iorwf	(??___xxtofl+1)^0,w,c
  7237   0021CA  100C               	iorwf	(??___xxtofl+2)^0,w,c
  7238   0021CC  100D               	iorwf	(??___xxtofl+3)^0,w,c
  7239   0021CE  A4D8               	btfss	status,2,c
  7240   0021D0  EFEC  F010         	goto	u5011
  7241   0021D4  EFEE  F010         	goto	u5010
  7242   0021D8                     u5011:
  7243   0021D8  EFCB  F010         	goto	l4215
  7244   0021DC                     u5010:
  7245   0021DC  EFF6  F010         	goto	l4223
  7246   0021E0                     l4221:
  7247   0021E0  060F               	decf	___xxtofl@exp^0,f,c
  7248   0021E2  90D8               	bcf	status,0,c
  7249   0021E4  3610               	rlcf	___xxtofl@arg^0,f,c
  7250   0021E6  3611               	rlcf	(___xxtofl@arg+1)^0,f,c
  7251   0021E8  3612               	rlcf	(___xxtofl@arg+2)^0,f,c
  7252   0021EA  3613               	rlcf	(___xxtofl@arg+3)^0,f,c
  7253   0021EC                     l4223:
  7254   0021EC  BE12               	btfsc	(___xxtofl@arg+2)^0,7,c
  7255   0021EE  EFFB  F010         	goto	u5021
  7256   0021F2  EFFD  F010         	goto	u5020
  7257   0021F6                     u5021:
  7258   0021F6  EF05  F011         	goto	l994
  7259   0021FA                     u5020:
  7260   0021FA  0E02               	movlw	2
  7261   0021FC  600F               	cpfslt	___xxtofl@exp^0,c
  7262   0021FE  EF03  F011         	goto	u5031
  7263   002202  EF05  F011         	goto	u5030
  7264   002206                     u5031:
  7265   002206  EFF0  F010         	goto	l4221
  7266   00220A                     u5030:
  7267   00220A                     l994:
  7268   00220A  B00F               	btfsc	___xxtofl@exp^0,0,c
  7269   00220C  EF0A  F011         	goto	u5041
  7270   002210  EF0C  F011         	goto	u5040
  7271   002214                     u5041:
  7272   002214  EF0D  F011         	goto	l4229
  7273   002218                     u5040:
  7274   002218  9E12               	bcf	(___xxtofl@arg+2)^0,7,c
  7275   00221A                     l4229:
  7276   00221A  90D8               	bcf	status,0,c
  7277   00221C  320F               	rrcf	___xxtofl@exp^0,f,c
  7278   00221E  C00F  F00A         	movff	___xxtofl@exp,??___xxtofl
  7279   002222  6A0B               	clrf	(??___xxtofl+1)^0,c
  7280   002224  6A0C               	clrf	(??___xxtofl+2)^0,c
  7281   002226  6A0D               	clrf	(??___xxtofl+3)^0,c
  7282   002228  C00A  F00D         	movff	??___xxtofl,??___xxtofl+3
  7283   00222C  6A0C               	clrf	(??___xxtofl+2)^0,c
  7284   00222E  6A0B               	clrf	(??___xxtofl+1)^0,c
  7285   002230  6A0A               	clrf	??___xxtofl^0,c
  7286   002232  500A               	movf	??___xxtofl^0,w,c
  7287   002234  1210               	iorwf	___xxtofl@arg^0,f,c
  7288   002236  500B               	movf	(??___xxtofl+1)^0,w,c
  7289   002238  1211               	iorwf	(___xxtofl@arg+1)^0,f,c
  7290   00223A  500C               	movf	(??___xxtofl+2)^0,w,c
  7291   00223C  1212               	iorwf	(___xxtofl@arg+2)^0,f,c
  7292   00223E  500D               	movf	(??___xxtofl+3)^0,w,c
  7293   002240  1213               	iorwf	(___xxtofl@arg+3)^0,f,c
  7294   002242  500E               	movf	___xxtofl@sign^0,w,c
  7295   002244  B4D8               	btfsc	status,2,c
  7296   002246  EF27  F011         	goto	u5051
  7297   00224A  EF29  F011         	goto	u5050
  7298   00224E                     u5051:
  7299   00224E  EF31  F011         	goto	l4239
  7300   002252                     u5050:
  7301   002252  BE09               	btfsc	(___xxtofl@val+3)^0,7,c
  7302   002254  EF30  F011         	goto	u5060
  7303   002258  EF2E  F011         	goto	u5061
  7304   00225C                     u5061:
  7305   00225C  EF31  F011         	goto	l4239
  7306   002260                     u5060:
  7307   002260  8E13               	bsf	(___xxtofl@arg+3)^0,7,c
  7308   002262                     l4239:
  7309   002262  C010  F006         	movff	___xxtofl@arg,?___xxtofl
  7310   002266  C011  F007         	movff	___xxtofl@arg+1,?___xxtofl+1
  7311   00226A  C012  F008         	movff	___xxtofl@arg+2,?___xxtofl+2
  7312   00226E  C013  F009         	movff	___xxtofl@arg+3,?___xxtofl+3
  7313   002272                     l983:
  7314   002272  0012               	return		;funcret
  7315   002274                     __end_of___xxtofl:
  7316                           	callstack 0
  7317                           
  7318 ;; *************** function ___flge *****************
  7319 ;; Defined at:
  7320 ;;		line 4 in file "C:\Program Files\Microchip\xc8\v2.50\pic\sources\c99\common\flge.c"
  7321 ;; Parameters:    Size  Location     Type
  7322 ;;  ff1             4    5[COMRAM] unsigned char 
  7323 ;;  ff2             4    9[COMRAM] unsigned char 
  7324 ;; Auto vars:     Size  Location     Type
  7325 ;;		None
  7326 ;; Return value:  Size  Location     Type
  7327 ;;		None               void
  7328 ;; Registers used:
  7329 ;;		wreg, status,2, status,0
  7330 ;; Tracked objects:
  7331 ;;		On entry : 0/0
  7332 ;;		On exit  : 0/0
  7333 ;;		Unchanged: 0/0
  7334 ;; Data sizes:     COMRAM   BANK0   BANK1   BANK2   BANK3   BANK4   BANK5
  7335 ;;      Params:         8       0       0       0       0       0       0
  7336 ;;      Locals:         0       0       0       0       0       0       0
  7337 ;;      Temps:          4       0       0       0       0       0       0
  7338 ;;      Totals:        12       0       0       0       0       0       0
  7339 ;;Total ram usage:       12 bytes
  7340 ;; Hardware stack levels used: 1
  7341 ;; Hardware stack levels required when called: 1
  7342 ;; This function calls:
  7343 ;;		Nothing
  7344 ;; This function is called by:
  7345 ;;		_Check_Gyroscope
  7346 ;; This function uses a non-reentrant model
  7347 ;;
  7348                           
  7349                           	psect	text22
  7350   00240A                     __ptext22:
  7351                           	callstack 0
  7352   00240A                     ___flge:
  7353                           	callstack 28
  7354   00240A  0E00               	movlw	0
  7355   00240C  1406               	andwf	___flge@ff1^0,w,c
  7356   00240E  6E0E               	movwf	??___flge^0,c
  7357   002410  0E00               	movlw	0
  7358   002412  1407               	andwf	(___flge@ff1+1)^0,w,c
  7359   002414  6E0F               	movwf	(??___flge+1)^0,c
  7360   002416  0E80               	movlw	128
  7361   002418  1408               	andwf	(___flge@ff1+2)^0,w,c
  7362   00241A  6E10               	movwf	(??___flge+2)^0,c
  7363   00241C  0E7F               	movlw	127
  7364   00241E  1409               	andwf	(___flge@ff1+3)^0,w,c
  7365   002420  6E11               	movwf	(??___flge+3)^0,c
  7366   002422  500E               	movf	??___flge^0,w,c
  7367   002424  100F               	iorwf	(??___flge+1)^0,w,c
  7368   002426  1010               	iorwf	(??___flge+2)^0,w,c
  7369   002428  1011               	iorwf	(??___flge+3)^0,w,c
  7370   00242A  A4D8               	btfss	status,2,c
  7371   00242C  EF1A  F012         	goto	u5161
  7372   002430  EF1C  F012         	goto	u5160
  7373   002434                     u5161:
  7374   002434  EF24  F012         	goto	l4357
  7375   002438                     u5160:
  7376   002438  0E00               	movlw	0
  7377   00243A  6E06               	movwf	___flge@ff1^0,c
  7378   00243C  0E00               	movlw	0
  7379   00243E  6E07               	movwf	(___flge@ff1+1)^0,c
  7380   002440  0E00               	movlw	0
  7381   002442  6E08               	movwf	(___flge@ff1+2)^0,c
  7382   002444  0E00               	movlw	0
  7383   002446  6E09               	movwf	(___flge@ff1+3)^0,c
  7384   002448                     l4357:
  7385   002448  0E00               	movlw	0
  7386   00244A  140A               	andwf	___flge@ff2^0,w,c
  7387   00244C  6E0E               	movwf	??___flge^0,c
  7388   00244E  0E00               	movlw	0
  7389   002450  140B               	andwf	(___flge@ff2+1)^0,w,c
  7390   002452  6E0F               	movwf	(??___flge+1)^0,c
  7391   002454  0E80               	movlw	128
  7392   002456  140C               	andwf	(___flge@ff2+2)^0,w,c
  7393   002458  6E10               	movwf	(??___flge+2)^0,c
  7394   00245A  0E7F               	movlw	127
  7395   00245C  140D               	andwf	(___flge@ff2+3)^0,w,c
  7396   00245E  6E11               	movwf	(??___flge+3)^0,c
  7397   002460  500E               	movf	??___flge^0,w,c
  7398   002462  100F               	iorwf	(??___flge+1)^0,w,c
  7399   002464  1010               	iorwf	(??___flge+2)^0,w,c
  7400   002466  1011               	iorwf	(??___flge+3)^0,w,c
  7401   002468  A4D8               	btfss	status,2,c
  7402   00246A  EF39  F012         	goto	u5171
  7403   00246E  EF3B  F012         	goto	u5170
  7404   002472                     u5171:
  7405   002472  EF43  F012         	goto	l4361
  7406   002476                     u5170:
  7407   002476  0E00               	movlw	0
  7408   002478  6E0A               	movwf	___flge@ff2^0,c
  7409   00247A  0E00               	movlw	0
  7410   00247C  6E0B               	movwf	(___flge@ff2+1)^0,c
  7411   00247E  0E00               	movlw	0
  7412   002480  6E0C               	movwf	(___flge@ff2+2)^0,c
  7413   002482  0E00               	movlw	0
  7414   002484  6E0D               	movwf	(___flge@ff2+3)^0,c
  7415   002486                     l4361:
  7416   002486  AE09               	btfss	(___flge@ff1+3)^0,7,c
  7417   002488  EF48  F012         	goto	u5181
  7418   00248C  EF4A  F012         	goto	u5180
  7419   002490                     u5181:
  7420   002490  EF53  F012         	goto	l4365
  7421   002494                     u5180:
  7422   002494  6C06               	negf	___flge@ff1^0,c
  7423   002496  1E07               	comf	(___flge@ff1+1)^0,f,c
  7424   002498  B0D8               	btfsc	status,0,c
  7425   00249A  2A07               	incf	(___flge@ff1+1)^0,f,c
  7426   00249C  1E08               	comf	(___flge@ff1+2)^0,f,c
  7427   00249E  B0D8               	btfsc	status,0,c
  7428   0024A0  2A08               	incf	(___flge@ff1+2)^0,f,c
  7429   0024A2  0E80               	movlw	128
  7430   0024A4  5609               	subfwb	(___flge@ff1+3)^0,f,c
  7431   0024A6                     l4365:
  7432   0024A6  AE0D               	btfss	(___flge@ff2+3)^0,7,c
  7433   0024A8  EF58  F012         	goto	u5191
  7434   0024AC  EF5A  F012         	goto	u5190
  7435   0024B0                     u5191:
  7436   0024B0  EF63  F012         	goto	l590
  7437   0024B4                     u5190:
  7438   0024B4  6C0A               	negf	___flge@ff2^0,c
  7439   0024B6  1E0B               	comf	(___flge@ff2+1)^0,f,c
  7440   0024B8  B0D8               	btfsc	status,0,c
  7441   0024BA  2A0B               	incf	(___flge@ff2+1)^0,f,c
  7442   0024BC  1E0C               	comf	(___flge@ff2+2)^0,f,c
  7443   0024BE  B0D8               	btfsc	status,0,c
  7444   0024C0  2A0C               	incf	(___flge@ff2+2)^0,f,c
  7445   0024C2  0E80               	movlw	128
  7446   0024C4  560D               	subfwb	(___flge@ff2+3)^0,f,c
  7447   0024C6                     l590:
  7448   0024C6  0E00               	movlw	0
  7449   0024C8  1A06               	xorwf	___flge@ff1^0,f,c
  7450   0024CA  0E00               	movlw	0
  7451   0024CC  1A07               	xorwf	(___flge@ff1+1)^0,f,c
  7452   0024CE  0E00               	movlw	0
  7453   0024D0  1A08               	xorwf	(___flge@ff1+2)^0,f,c
  7454   0024D2  0E80               	movlw	128
  7455   0024D4  1A09               	xorwf	(___flge@ff1+3)^0,f,c
  7456   0024D6  0E00               	movlw	0
  7457   0024D8  1A0A               	xorwf	___flge@ff2^0,f,c
  7458   0024DA  0E00               	movlw	0
  7459   0024DC  1A0B               	xorwf	(___flge@ff2+1)^0,f,c
  7460   0024DE  0E00               	movlw	0
  7461   0024E0  1A0C               	xorwf	(___flge@ff2+2)^0,f,c
  7462   0024E2  0E80               	movlw	128
  7463   0024E4  1A0D               	xorwf	(___flge@ff2+3)^0,f,c
  7464   0024E6  500A               	movf	___flge@ff2^0,w,c
  7465   0024E8  5C06               	subwf	___flge@ff1^0,w,c
  7466   0024EA  500B               	movf	(___flge@ff2+1)^0,w,c
  7467   0024EC  5807               	subwfb	(___flge@ff1+1)^0,w,c
  7468   0024EE  500C               	movf	(___flge@ff2+2)^0,w,c
  7469   0024F0  5808               	subwfb	(___flge@ff1+2)^0,w,c
  7470   0024F2  500D               	movf	(___flge@ff2+3)^0,w,c
  7471   0024F4  5809               	subwfb	(___flge@ff1+3)^0,w,c
  7472   0024F6  B0D8               	btfsc	status,0,c
  7473   0024F8  EF80  F012         	goto	u5201
  7474   0024FC  EF82  F012         	goto	u5200
  7475   002500                     u5201:
  7476   002500  EF85  F012         	goto	l4371
  7477   002504                     u5200:
  7478   002504  90D8               	bcf	status,0,c
  7479   002506  EF86  F012         	goto	l595
  7480   00250A                     l4371:
  7481   00250A  80D8               	bsf	status,0,c
  7482   00250C                     l595:
  7483   00250C  0012               	return		;funcret
  7484   00250E                     __end_of___flge:
  7485                           	callstack 0
  7486                           
  7487 ;; *************** function _I2C_Write *****************
  7488 ;; Defined at:
  7489 ;;		line 124 in file "setting_hardaware/gyroscope.c"
  7490 ;; Parameters:    Size  Location     Type
  7491 ;;  data            1    wreg     unsigned char 
  7492 ;; Auto vars:     Size  Location     Type
  7493 ;;  data            1    5[COMRAM] unsigned char 
  7494 ;; Return value:  Size  Location     Type
  7495 ;;                  1    wreg      void 
  7496 ;; Registers used:
  7497 ;;		wreg
  7498 ;; Tracked objects:
  7499 ;;		On entry : 0/0
  7500 ;;		On exit  : 0/0
  7501 ;;		Unchanged: 0/0
  7502 ;; Data sizes:     COMRAM   BANK0   BANK1   BANK2   BANK3   BANK4   BANK5
  7503 ;;      Params:         0       0       0       0       0       0       0
  7504 ;;      Locals:         1       0       0       0       0       0       0
  7505 ;;      Temps:          0       0       0       0       0       0       0
  7506 ;;      Totals:         1       0       0       0       0       0       0
  7507 ;;Total ram usage:        1 bytes
  7508 ;; Hardware stack levels used: 1
  7509 ;; Hardware stack levels required when called: 1
  7510 ;; This function calls:
  7511 ;;		Nothing
  7512 ;; This function is called by:
  7513 ;;		_Gyroscope_Initialize
  7514 ;;		_Check_Gyroscope
  7515 ;;		_Calibration
  7516 ;; This function uses a non-reentrant model
  7517 ;;
  7518                           
  7519                           	psect	text23
  7520   002932                     __ptext23:
  7521                           	callstack 0
  7522   002932                     _I2C_Write:
  7523                           	callstack 27
  7524                           
  7525                           ;incstack = 0
  7526                           ;I2C_Write@data stored from wreg
  7527   002932  6E06               	movwf	I2C_Write@data^0,c
  7528   002934                     
  7529                           ;setting_hardaware/gyroscope.c: 125:     SSPBUF = data;
  7530   002934  C006  FFC9         	movff	I2C_Write@data,4041	;volatile
  7531   002938                     l293:
  7532   002938  B0C7               	btfsc	4039,0,c	;volatile
  7533   00293A  EFA1  F014         	goto	u5081
  7534   00293E  EFA3  F014         	goto	u5080
  7535   002942                     u5081:
  7536   002942  EF9C  F014         	goto	l293
  7537   002946                     u5080:
  7538   002946                     l296:
  7539   002946  BCC5               	btfsc	197,6,c	;volatile
  7540   002948  EFA8  F014         	goto	u5091
  7541   00294C  EFAA  F014         	goto	u5090
  7542   002950                     u5091:
  7543   002950  EFA3  F014         	goto	l296
  7544   002954                     u5090:
  7545   002954  0012               	return		;funcret
  7546   002956                     __end_of_I2C_Write:
  7547                           	callstack 0
  7548                           
  7549 ;; *************** function _I2C_Stop *****************
  7550 ;; Defined at:
  7551 ;;		line 119 in file "setting_hardaware/gyroscope.c"
  7552 ;; Parameters:    Size  Location     Type
  7553 ;;		None
  7554 ;; Auto vars:     Size  Location     Type
  7555 ;;		None
  7556 ;; Return value:  Size  Location     Type
  7557 ;;                  1    wreg      void 
  7558 ;; Registers used:
  7559 ;;		None
  7560 ;; Tracked objects:
  7561 ;;		On entry : 0/0
  7562 ;;		On exit  : 0/0
  7563 ;;		Unchanged: 0/0
  7564 ;; Data sizes:     COMRAM   BANK0   BANK1   BANK2   BANK3   BANK4   BANK5
  7565 ;;      Params:         0       0       0       0       0       0       0
  7566 ;;      Locals:         0       0       0       0       0       0       0
  7567 ;;      Temps:          0       0       0       0       0       0       0
  7568 ;;      Totals:         0       0       0       0       0       0       0
  7569 ;;Total ram usage:        0 bytes
  7570 ;; Hardware stack levels used: 1
  7571 ;; Hardware stack levels required when called: 1
  7572 ;; This function calls:
  7573 ;;		Nothing
  7574 ;; This function is called by:
  7575 ;;		_Gyroscope_Initialize
  7576 ;;		_Check_Gyroscope
  7577 ;;		_Calibration
  7578 ;; This function uses a non-reentrant model
  7579 ;;
  7580                           
  7581                           	psect	text24
  7582   0029A2                     __ptext24:
  7583                           	callstack 0
  7584   0029A2                     _I2C_Stop:
  7585                           	callstack 27
  7586   0029A2                     
  7587                           ;setting_hardaware/gyroscope.c: 120:     PEN = 1;
  7588   0029A2  84C5               	bsf	4037,2,c	;volatile
  7589   0029A4                     l287:
  7590   0029A4  B4C5               	btfsc	4037,2,c	;volatile
  7591   0029A6  EFD7  F014         	goto	u5101
  7592   0029AA  EFD9  F014         	goto	u5100
  7593   0029AE                     u5101:
  7594   0029AE  EFD2  F014         	goto	l287
  7595   0029B2                     u5100:
  7596   0029B2  0012               	return		;funcret
  7597   0029B4                     __end_of_I2C_Stop:
  7598                           	callstack 0
  7599                           
  7600 ;; *************** function _I2C_Start *****************
  7601 ;; Defined at:
  7602 ;;		line 113 in file "setting_hardaware/gyroscope.c"
  7603 ;; Parameters:    Size  Location     Type
  7604 ;;		None
  7605 ;; Auto vars:     Size  Location     Type
  7606 ;;		None
  7607 ;; Return value:  Size  Location     Type
  7608 ;;                  1    wreg      void 
  7609 ;; Registers used:
  7610 ;;		None
  7611 ;; Tracked objects:
  7612 ;;		On entry : 0/0
  7613 ;;		On exit  : 0/0
  7614 ;;		Unchanged: 0/0
  7615 ;; Data sizes:     COMRAM   BANK0   BANK1   BANK2   BANK3   BANK4   BANK5
  7616 ;;      Params:         0       0       0       0       0       0       0
  7617 ;;      Locals:         0       0       0       0       0       0       0
  7618 ;;      Temps:          0       0       0       0       0       0       0
  7619 ;;      Totals:         0       0       0       0       0       0       0
  7620 ;;Total ram usage:        0 bytes
  7621 ;; Hardware stack levels used: 1
  7622 ;; Hardware stack levels required when called: 1
  7623 ;; This function calls:
  7624 ;;		Nothing
  7625 ;; This function is called by:
  7626 ;;		_Gyroscope_Initialize
  7627 ;;		_Check_Gyroscope
  7628 ;;		_Calibration
  7629 ;; This function uses a non-reentrant model
  7630 ;;
  7631                           
  7632                           	psect	text25
  7633   0029B4                     __ptext25:
  7634                           	callstack 0
  7635   0029B4                     _I2C_Start:
  7636                           	callstack 27
  7637   0029B4                     
  7638                           ;setting_hardaware/gyroscope.c: 114:     SEN = 1;
  7639   0029B4  80C5               	bsf	4037,0,c	;volatile
  7640   0029B6                     l281:
  7641   0029B6  B0C5               	btfsc	4037,0,c	;volatile
  7642   0029B8  EFE0  F014         	goto	u5071
  7643   0029BC  EFE2  F014         	goto	u5070
  7644   0029C0                     u5071:
  7645   0029C0  EFDB  F014         	goto	l281
  7646   0029C4                     u5070:
  7647   0029C4  0012               	return		;funcret
  7648   0029C6                     __end_of_I2C_Start:
  7649                           	callstack 0
  7650                           
  7651 ;; *************** function _I2C_Read *****************
  7652 ;; Defined at:
  7653 ;;		line 131 in file "setting_hardaware/gyroscope.c"
  7654 ;; Parameters:    Size  Location     Type
  7655 ;;  ack             1    wreg     unsigned char 
  7656 ;; Auto vars:     Size  Location     Type
  7657 ;;  ack             1    5[COMRAM] unsigned char 
  7658 ;;  data            1    6[COMRAM] unsigned char 
  7659 ;; Return value:  Size  Location     Type
  7660 ;;                  1    wreg      unsigned char 
  7661 ;; Registers used:
  7662 ;;		wreg, status,2
  7663 ;; Tracked objects:
  7664 ;;		On entry : 0/0
  7665 ;;		On exit  : 0/0
  7666 ;;		Unchanged: 0/0
  7667 ;; Data sizes:     COMRAM   BANK0   BANK1   BANK2   BANK3   BANK4   BANK5
  7668 ;;      Params:         0       0       0       0       0       0       0
  7669 ;;      Locals:         2       0       0       0       0       0       0
  7670 ;;      Temps:          0       0       0       0       0       0       0
  7671 ;;      Totals:         2       0       0       0       0       0       0
  7672 ;;Total ram usage:        2 bytes
  7673 ;; Hardware stack levels used: 1
  7674 ;; Hardware stack levels required when called: 1
  7675 ;; This function calls:
  7676 ;;		Nothing
  7677 ;; This function is called by:
  7678 ;;		_Check_Gyroscope
  7679 ;;		_Calibration
  7680 ;; This function uses a non-reentrant model
  7681 ;;
  7682                           
  7683                           	psect	text26
  7684   0027F4                     __ptext26:
  7685                           	callstack 0
  7686   0027F4                     _I2C_Read:
  7687                           	callstack 26
  7688                           
  7689                           ;incstack = 0
  7690                           ;I2C_Read@ack stored from wreg
  7691   0027F4  6E06               	movwf	I2C_Read@ack^0,c
  7692   0027F6                     
  7693                           ;setting_hardaware/gyroscope.c: 132:     uint8_t data;;setting_hardaware/gyroscope.c: 13
      +                          3:     RCEN = 1;
  7694   0027F6  86C5               	bsf	4037,3,c	;volatile
  7695   0027F8                     l302:
  7696   0027F8  A0C7               	btfss	4039,0,c	;volatile
  7697   0027FA  EF01  F014         	goto	u5111
  7698   0027FE  EF03  F014         	goto	u5110
  7699   002802                     u5111:
  7700   002802  EFFC  F013         	goto	l302
  7701   002806                     u5110:
  7702   002806                     
  7703                           ;setting_hardaware/gyroscope.c: 135:     data = SSPBUF;
  7704   002806  CFC9 F007          	movff	4041,I2C_Read@data	;volatile
  7705   00280A                     
  7706                           ;setting_hardaware/gyroscope.c: 138:     ACKDT = ack ? 0 : 1;
  7707   00280A  5006               	movf	I2C_Read@ack^0,w,c
  7708   00280C  B4D8               	btfsc	status,2,c
  7709   00280E  EF0B  F014         	goto	u5121
  7710   002812  EF0E  F014         	goto	u5120
  7711   002816                     u5121:
  7712   002816  8AC5               	bsf	4037,5,c	;volatile
  7713   002818  EF0F  F014         	goto	u5135
  7714   00281C                     u5120:
  7715   00281C  9AC5               	bcf	4037,5,c	;volatile
  7716   00281E                     u5135:
  7717   00281E                     
  7718                           ;setting_hardaware/gyroscope.c: 139:     ACKEN = 1;
  7719   00281E  88C5               	bsf	4037,4,c	;volatile
  7720   002820                     l305:
  7721   002820  B8C5               	btfsc	4037,4,c	;volatile
  7722   002822  EF15  F014         	goto	u5141
  7723   002826  EF17  F014         	goto	u5140
  7724   00282A                     u5141:
  7725   00282A  EF10  F014         	goto	l305
  7726   00282E                     u5140:
  7727   00282E                     
  7728                           ;setting_hardaware/gyroscope.c: 141:     return data;
  7729   00282E  5007               	movf	I2C_Read@data^0,w,c
  7730   002830  0012               	return		;funcret
  7731   002832                     __end_of_I2C_Read:
  7732                           	callstack 0
  7733                           
  7734 ;; *************** function _Check_ADC *****************
  7735 ;; Defined at:
  7736 ;;		line 36 in file "setting_hardaware/adc.c"
  7737 ;; Parameters:    Size  Location     Type
  7738 ;;  prev_sensor_    2   11[COMRAM] int 
  7739 ;; Auto vars:     Size  Location     Type
  7740 ;;  bend_sensor_    2   16[COMRAM] int 
  7741 ;; Return value:  Size  Location     Type
  7742 ;;                  1    wreg      void 
  7743 ;; Registers used:
  7744 ;;		wreg, status,2, status,0, cstack
  7745 ;; Tracked objects:
  7746 ;;		On entry : 0/0
  7747 ;;		On exit  : 0/0
  7748 ;;		Unchanged: 0/0
  7749 ;; Data sizes:     COMRAM   BANK0   BANK1   BANK2   BANK3   BANK4   BANK5
  7750 ;;      Params:         2       0       0       0       0       0       0
  7751 ;;      Locals:         2       0       0       0       0       0       0
  7752 ;;      Temps:          3       0       0       0       0       0       0
  7753 ;;      Totals:         7       0       0       0       0       0       0
  7754 ;;Total ram usage:        7 bytes
  7755 ;; Hardware stack levels used: 1
  7756 ;; Hardware stack levels required when called: 2
  7757 ;; This function calls:
  7758 ;;		_ADC_Read
  7759 ;; This function is called by:
  7760 ;;		_main
  7761 ;; This function uses a non-reentrant model
  7762 ;;
  7763                           
  7764                           	psect	text27
  7765   0026D8                     __ptext27:
  7766                           	callstack 0
  7767   0026D8                     _Check_ADC:
  7768                           	callstack 28
  7769   0026D8                     
  7770                           ;setting_hardaware/adc.c: 38:     int bend_sensor_val=ADC_Read(bend_sensor_val);
  7771   0026D8  C011  F006         	movff	Check_ADC@bend_sensor_val,ADC_Read@channel
  7772   0026DC  C012  F007         	movff	Check_ADC@bend_sensor_val+1,ADC_Read@channel+1
  7773   0026E0  EC6B  F014         	call	_ADC_Read	;wreg free
  7774   0026E4  C006  F011         	movff	?_ADC_Read,Check_ADC@bend_sensor_val
  7775   0026E8  C007  F012         	movff	?_ADC_Read+1,Check_ADC@bend_sensor_val+1
  7776   0026EC                     
  7777                           ;setting_hardaware/adc.c: 40:     if(prev_sensor_val<bend_sensor_val-5 || prev_sensor_va
      +                          l>bend_sensor_val+5)
  7778   0026EC  0EFB               	movlw	251
  7779   0026EE  2411               	addwf	Check_ADC@bend_sensor_val^0,w,c
  7780   0026F0  6E0E               	movwf	??_Check_ADC^0,c
  7781   0026F2  0EFF               	movlw	255
  7782   0026F4  2012               	addwfc	(Check_ADC@bend_sensor_val+1)^0,w,c
  7783   0026F6  6E0F               	movwf	(??_Check_ADC+1)^0,c
  7784   0026F8  500E               	movf	??_Check_ADC^0,w,c
  7785   0026FA  5C0C               	subwf	Check_ADC@prev_sensor_val^0,w,c
  7786   0026FC  500D               	movf	(Check_ADC@prev_sensor_val+1)^0,w,c
  7787   0026FE  0A80               	xorlw	128
  7788   002700  6E10               	movwf	(??_Check_ADC+2)^0,c
  7789   002702  500F               	movf	(??_Check_ADC+1)^0,w,c
  7790   002704  0A80               	xorlw	128
  7791   002706  5810               	subwfb	(??_Check_ADC+2)^0,w,c
  7792   002708  A0D8               	btfss	status,0,c
  7793   00270A  EF89  F013         	goto	u5211
  7794   00270E  EF8B  F013         	goto	u5210
  7795   002712                     u5211:
  7796   002712  EFA0  F013         	goto	l30
  7797   002716                     u5210:
  7798   002716  0E05               	movlw	5
  7799   002718  2411               	addwf	Check_ADC@bend_sensor_val^0,w,c
  7800   00271A  6E0E               	movwf	??_Check_ADC^0,c
  7801   00271C  0E00               	movlw	0
  7802   00271E  2012               	addwfc	(Check_ADC@bend_sensor_val+1)^0,w,c
  7803   002720  6E0F               	movwf	(??_Check_ADC+1)^0,c
  7804   002722  500C               	movf	Check_ADC@prev_sensor_val^0,w,c
  7805   002724  5C0E               	subwf	??_Check_ADC^0,w,c
  7806   002726  500F               	movf	(??_Check_ADC+1)^0,w,c
  7807   002728  0A80               	xorlw	128
  7808   00272A  6E10               	movwf	(??_Check_ADC+2)^0,c
  7809   00272C  500D               	movf	(Check_ADC@prev_sensor_val+1)^0,w,c
  7810   00272E  0A80               	xorlw	128
  7811   002730  5810               	subwfb	(??_Check_ADC+2)^0,w,c
  7812   002732  B0D8               	btfsc	status,0,c
  7813   002734  EF9E  F013         	goto	u5221
  7814   002738  EFA0  F013         	goto	u5220
  7815   00273C                     u5221:
  7816   00273C  EFA4  F013         	goto	l4381
  7817   002740                     u5220:
  7818   002740                     l30:
  7819                           
  7820                           ;setting_hardaware/adc.c: 41:     {;setting_hardaware/adc.c: 42:         prev_sensor_val
      +                          =bend_sensor_val;
  7821   002740  C011  F00C         	movff	Check_ADC@bend_sensor_val,Check_ADC@prev_sensor_val
  7822   002744  C012  F00D         	movff	Check_ADC@bend_sensor_val+1,Check_ADC@prev_sensor_val+1
  7823   002748                     l4381:
  7824                           
  7825                           ;setting_hardaware/adc.c: 45:     if(prev_sensor_val<=0x0130)
  7826   002748  BE0D               	btfsc	(Check_ADC@prev_sensor_val+1)^0,7,c
  7827   00274A  EFB2  F013         	goto	u5230
  7828   00274E  0E31               	movlw	49
  7829   002750  5C0C               	subwf	Check_ADC@prev_sensor_val^0,w,c
  7830   002752  0E01               	movlw	1
  7831   002754  580D               	subwfb	(Check_ADC@prev_sensor_val+1)^0,w,c
  7832   002756  B0D8               	btfsc	status,0,c
  7833   002758  EFB0  F013         	goto	u5231
  7834   00275C  EFB2  F013         	goto	u5230
  7835   002760                     u5231:
  7836   002760  EFB5  F013         	goto	l31
  7837   002764                     u5230:
  7838   002764                     
  7839                           ;setting_hardaware/adc.c: 46:     {;setting_hardaware/adc.c: 47:         LATAbits.LATA6 
      +                          = 1;;
  7840   002764  8C89               	bsf	137,6,c	;volatile
  7841                           
  7842                           ;setting_hardaware/adc.c: 48:     }
  7843   002766  EFB6  F013         	goto	l33
  7844   00276A                     l31:
  7845                           
  7846                           ;setting_hardaware/adc.c: 50:     {;setting_hardaware/adc.c: 51:         LATAbits.LATA6 
      +                          = 0;;
  7847   00276A  9C89               	bcf	137,6,c	;volatile
  7848   00276C                     l33:
  7849   00276C  0012               	return		;funcret
  7850   00276E                     __end_of_Check_ADC:
  7851                           	callstack 0
  7852                           
  7853 ;; *************** function _ADC_Read *****************
  7854 ;; Defined at:
  7855 ;;		line 22 in file "setting_hardaware/adc.c"
  7856 ;; Parameters:    Size  Location     Type
  7857 ;;  channel         2    5[COMRAM] int 
  7858 ;; Auto vars:     Size  Location     Type
  7859 ;;  digital         2    9[COMRAM] int 
  7860 ;; Return value:  Size  Location     Type
  7861 ;;                  2    5[COMRAM] int 
  7862 ;; Registers used:
  7863 ;;		wreg, status,2, status,0
  7864 ;; Tracked objects:
  7865 ;;		On entry : 0/0
  7866 ;;		On exit  : 0/0
  7867 ;;		Unchanged: 0/0
  7868 ;; Data sizes:     COMRAM   BANK0   BANK1   BANK2   BANK3   BANK4   BANK5
  7869 ;;      Params:         2       0       0       0       0       0       0
  7870 ;;      Locals:         2       0       0       0       0       0       0
  7871 ;;      Temps:          2       0       0       0       0       0       0
  7872 ;;      Totals:         6       0       0       0       0       0       0
  7873 ;;Total ram usage:        6 bytes
  7874 ;; Hardware stack levels used: 1
  7875 ;; Hardware stack levels required when called: 1
  7876 ;; This function calls:
  7877 ;;		Nothing
  7878 ;; This function is called by:
  7879 ;;		_Check_ADC
  7880 ;; This function uses a non-reentrant model
  7881 ;;
  7882                           
  7883                           	psect	text28
  7884   0028D6                     __ptext28:
  7885                           	callstack 0
  7886   0028D6                     _ADC_Read:
  7887                           	callstack 28
  7888   0028D6                     
  7889                           ;setting_hardaware/adc.c: 22: int ADC_Read(int channel);setting_hardaware/adc.c: 23: {;s
      +                          etting_hardaware/adc.c: 24:     int digital;;setting_hardaware/adc.c: 26:     ADCON0bits
      +                          .ADON = 1;
  7890   0028D6  80C2               	bsf	194,0,c	;volatile
  7891                           
  7892                           ;setting_hardaware/adc.c: 27:     ADCON0bits.GO = 1;
  7893   0028D8  82C2               	bsf	194,1,c	;volatile
  7894   0028DA                     l22:
  7895   0028DA  B2C2               	btfsc	194,1,c	;volatile
  7896   0028DC  EF72  F014         	goto	u5151
  7897   0028E0  EF74  F014         	goto	u5150
  7898   0028E4                     u5151:
  7899   0028E4  EF6D  F014         	goto	l22
  7900   0028E8                     u5150:
  7901   0028E8                     
  7902                           ;setting_hardaware/adc.c: 31:     digital = (ADRESH*256) | (ADRESL);
  7903   0028E8  50C3               	movf	195,w,c	;volatile
  7904   0028EA  CFC4 F008          	movff	4036,??_ADC_Read	;volatile
  7905   0028EE  6A09               	clrf	(??_ADC_Read+1)^0,c
  7906   0028F0  C008  F009         	movff	??_ADC_Read,??_ADC_Read+1
  7907   0028F4  6A08               	clrf	??_ADC_Read^0,c
  7908   0028F6  1008               	iorwf	??_ADC_Read^0,w,c
  7909   0028F8  6E0A               	movwf	ADC_Read@digital^0,c
  7910   0028FA  5009               	movf	(??_ADC_Read+1)^0,w,c
  7911   0028FC  6E0B               	movwf	(ADC_Read@digital+1)^0,c
  7912   0028FE                     
  7913                           ;setting_hardaware/adc.c: 33:     return(digital);
  7914   0028FE  C00A  F006         	movff	ADC_Read@digital,?_ADC_Read
  7915   002902  C00B  F007         	movff	ADC_Read@digital+1,?_ADC_Read+1
  7916   002906  0012               	return		;funcret
  7917   002908                     __end_of_ADC_Read:
  7918                           	callstack 0
  7919                           
  7920 ;; *************** function _Low_ISR *****************
  7921 ;; Defined at:
  7922 ;;		line 166 in file "setting_hardaware/gyroscope.c"
  7923 ;; Parameters:    Size  Location     Type
  7924 ;;		None
  7925 ;; Auto vars:     Size  Location     Type
  7926 ;;		None
  7927 ;; Return value:  Size  Location     Type
  7928 ;;                  1    wreg      void 
  7929 ;; Registers used:
  7930 ;;		wreg, status,2, status,0
  7931 ;; Tracked objects:
  7932 ;;		On entry : 0/0
  7933 ;;		On exit  : 0/0
  7934 ;;		Unchanged: 0/0
  7935 ;; Data sizes:     COMRAM   BANK0   BANK1   BANK2   BANK3   BANK4   BANK5
  7936 ;;      Params:         0       0       0       0       0       0       0
  7937 ;;      Locals:         0       0       0       0       0       0       0
  7938 ;;      Temps:          5       0       0       0       0       0       0
  7939 ;;      Totals:         5       0       0       0       0       0       0
  7940 ;;Total ram usage:        5 bytes
  7941 ;; Hardware stack levels used: 1
  7942 ;; This function calls:
  7943 ;;		Nothing
  7944 ;; This function is called by:
  7945 ;;		Interrupt level 1
  7946 ;; This function uses a non-reentrant model
  7947 ;;
  7948                           
  7949                           	psect	intcodelo
  7950   000018                     __pintcodelo:
  7951                           	callstack 0
  7952   000018                     _Low_ISR:
  7953                           	callstack 22
  7954                           
  7955                           ;incstack = 0
  7956   000018  807A               	bsf	int$flags,0,c	;set compiler interrupt flag (level 1)
  7957   00001A  CFD8 F003          	movff	status,??_Low_ISR+2
  7958   00001E  CFE8 F004          	movff	wreg,??_Low_ISR+3
  7959   000022  CFE0 F005          	movff	bsr,??_Low_ISR+4
  7960   000026                     
  7961                           ;setting_hardaware/gyroscope.c: 167:     if(TMR2IF){
  7962   000026  A29E               	btfss	3998,1,c	;volatile
  7963   000028  EF18  F000         	goto	i1u359_21
  7964   00002C  EF1A  F000         	goto	i1u359_20
  7965   000030                     i1u359_21:
  7966   000030  EF69  F000         	goto	i1l322
  7967   000034                     i1u359_20:
  7968   000034                     
  7969                           ;setting_hardaware/gyroscope.c: 168:         TMR2IF = 0;
  7970   000034  929E               	bcf	3998,1,c	;volatile
  7971   000036                     
  7972                           ;setting_hardaware/gyroscope.c: 169:         postpostscaler = (postpostscaler+1)%8;
  7973   000036  0E01               	movlw	1
  7974   000038  0101               	movlb	1	; () banked
  7975   00003A  2526               	addwf	_postpostscaler& (0+255),w,b
  7976   00003C  6E01               	movwf	??_Low_ISR^0,c
  7977   00003E  0E00               	movlw	0
  7978   000040  2127               	addwfc	(_postpostscaler+1)& (0+255),w,b
  7979   000042  6E02               	movwf	(??_Low_ISR+1)^0,c
  7980   000044  0E07               	movlw	7
  7981   000046  1401               	andwf	??_Low_ISR^0,w,c
  7982   000048  6F26               	movwf	_postpostscaler& (0+255),b
  7983   00004A  6B27               	clrf	(_postpostscaler+1)& (0+255),b
  7984                           
  7985                           ;setting_hardaware/gyroscope.c: 170:         if(!postpostscaler){
  7986   00004C  5126               	movf	_postpostscaler& (0+255),w,b
  7987   00004E  1127               	iorwf	(_postpostscaler+1)& (0+255),w,b
  7988   000050  A4D8               	btfss	status,2,c
  7989   000052  EF2D  F000         	goto	i1u360_21
  7990   000056  EF2F  F000         	goto	i1u360_20
  7991   00005A                     i1u360_21:
  7992   00005A  EF69  F000         	goto	i1l322
  7993   00005E                     i1u360_20:
  7994   00005E                     
  7995                           ; BSR set to: 1
  7996                           ;setting_hardaware/gyroscope.c: 171:             if(dir == -1){
  7997   00005E  0100               	movlb	0	; () banked
  7998   000060  29FE               	incf	_dir& (0+255),w,b
  7999   000062  E106               	bnz	i1u361_21
  8000   000064  29FF               	incf	(_dir+1)& (0+255),w,b
  8001   000066  A4D8               	btfss	status,2,c
  8002   000068  EF38  F000         	goto	i1u361_21
  8003   00006C  EF3A  F000         	goto	i1u361_20
  8004   000070                     i1u361_21:
  8005   000070  EF4D  F000         	goto	i1l3411
  8006   000074                     i1u361_20:
  8007   000074                     
  8008                           ; BSR set to: 0
  8009                           ;setting_hardaware/gyroscope.c: 172:                 LATAbits.LATA5 = !LATAbits.LATA5;;
  8010   000074  AA89               	btfss	137,5,c	;volatile
  8011   000076  EF3F  F000         	goto	i1u362_21
  8012   00007A  EF43  F000         	goto	i1u362_20
  8013   00007E                     i1u362_21:
  8014   00007E  6A01               	clrf	??_Low_ISR^0,c
  8015   000080  2A01               	incf	??_Low_ISR^0,f,c
  8016   000082  EF44  F000         	goto	i1u363_28
  8017   000086                     i1u362_20:
  8018   000086  6A01               	clrf	??_Low_ISR^0,c
  8019   000088                     i1u363_28:
  8020   000088  3A01               	swapf	??_Low_ISR^0,f,c
  8021   00008A  4601               	rlncf	??_Low_ISR^0,f,c
  8022   00008C  5089               	movf	137,w,c	;volatile
  8023   00008E  1801               	xorwf	??_Low_ISR^0,w,c
  8024   000090  0BDF               	andlw	-33
  8025   000092  1801               	xorwf	??_Low_ISR^0,w,c
  8026   000094  6E89               	movwf	137,c	;volatile
  8027                           
  8028                           ;setting_hardaware/gyroscope.c: 173:             }else if(dir == 1){
  8029   000096  EF69  F000         	goto	i1l322
  8030   00009A                     i1l3411:
  8031                           
  8032                           ; BSR set to: 0
  8033   00009A  05FE               	decf	_dir& (0+255),w,b
  8034   00009C  11FF               	iorwf	(_dir+1)& (0+255),w,b
  8035   00009E  A4D8               	btfss	status,2,c
  8036   0000A0  EF54  F000         	goto	i1u364_21
  8037   0000A4  EF56  F000         	goto	i1u364_20
  8038   0000A8                     i1u364_21:
  8039   0000A8  EF69  F000         	goto	i1l317
  8040   0000AC                     i1u364_20:
  8041   0000AC                     
  8042                           ; BSR set to: 0
  8043                           ;setting_hardaware/gyroscope.c: 174:                 LATAbits.LATA7 = !LATAbits.LATA7;;
  8044   0000AC  AE89               	btfss	137,7,c	;volatile
  8045   0000AE  EF5B  F000         	goto	i1u365_21
  8046   0000B2  EF5F  F000         	goto	i1u365_20
  8047   0000B6                     i1u365_21:
  8048   0000B6  6A01               	clrf	??_Low_ISR^0,c
  8049   0000B8  2A01               	incf	??_Low_ISR^0,f,c
  8050   0000BA  EF60  F000         	goto	i1u366_28
  8051   0000BE                     i1u365_20:
  8052   0000BE  6A01               	clrf	??_Low_ISR^0,c
  8053   0000C0                     i1u366_28:
  8054   0000C0  3201               	rrcf	??_Low_ISR^0,f,c
  8055   0000C2  3201               	rrcf	??_Low_ISR^0,f,c
  8056   0000C4  5089               	movf	137,w,c	;volatile
  8057   0000C6  1801               	xorwf	??_Low_ISR^0,w,c
  8058   0000C8  0B7F               	andlw	-129
  8059   0000CA  1801               	xorwf	??_Low_ISR^0,w,c
  8060   0000CC  6E89               	movwf	137,c	;volatile
  8061                           
  8062                           ;setting_hardaware/gyroscope.c: 175:             }else{}
  8063   0000CE  EF69  F000         	goto	i1l322
  8064   0000D2                     i1l317:
  8065   0000D2                     i1l322:
  8066   0000D2  C005  FFE0         	movff	??_Low_ISR+4,bsr
  8067   0000D6  C004  FFE8         	movff	??_Low_ISR+3,wreg
  8068   0000DA  C003  FFD8         	movff	??_Low_ISR+2,status
  8069   0000DE  907A               	bcf	int$flags,0,c	;clear compiler interrupt flag (level 1)
  8070   0000E0  0010               	retfie	
  8071   0000E2                     __end_of_Low_ISR:
  8072                           	callstack 0
  8073                           
  8074                           	psect	rparam
  8075   000001                     ___rparam_used  equ	1
  8076   000000                     ___param_bank   equ	0
  8077   000000                     __Lparam        equ	__Lrparam
  8078   000000                     __Hparam        equ	__Hrparam
  8079                           
  8080                           	psect	temp
  8081   00007A                     btemp:
  8082                           	callstack 0
  8083   00007A                     	ds	1
  8084   00007A                     int$flags       set	btemp
  8085   00007B                     wtemp8          set	btemp+1
  8086   00007B                     ttemp5          set	btemp+1
  8087   00007E                     ttemp6          set	btemp+4
  8088   000082                     ttemp7          set	btemp+8
  8089                           
  8090                           	psect	idloc
  8091                           
  8092                           ;Config register IDLOC0 @ 0x200000
  8093                           ;	unspecified, using default values
  8094   200000                     	org	2097152
  8095   200000  FF                 	db	255
  8096                           
  8097                           ;Config register IDLOC1 @ 0x200001
  8098                           ;	unspecified, using default values
  8099   200001                     	org	2097153
  8100   200001  FF                 	db	255
  8101                           
  8102                           ;Config register IDLOC2 @ 0x200002
  8103                           ;	unspecified, using default values
  8104   200002                     	org	2097154
  8105   200002  FF                 	db	255
  8106                           
  8107                           ;Config register IDLOC3 @ 0x200003
  8108                           ;	unspecified, using default values
  8109   200003                     	org	2097155
  8110   200003  FF                 	db	255
  8111                           
  8112                           ;Config register IDLOC4 @ 0x200004
  8113                           ;	unspecified, using default values
  8114   200004                     	org	2097156
  8115   200004  FF                 	db	255
  8116                           
  8117                           ;Config register IDLOC5 @ 0x200005
  8118                           ;	unspecified, using default values
  8119   200005                     	org	2097157
  8120   200005  FF                 	db	255
  8121                           
  8122                           ;Config register IDLOC6 @ 0x200006
  8123                           ;	unspecified, using default values
  8124   200006                     	org	2097158
  8125   200006  FF                 	db	255
  8126                           
  8127                           ;Config register IDLOC7 @ 0x200007
  8128                           ;	unspecified, using default values
  8129   200007                     	org	2097159
  8130   200007  FF                 	db	255
  8131                           
  8132                           	psect	config
  8133                           
  8134                           ; Padding undefined space
  8135   300000                     	org	3145728
  8136   300000  FF                 	db	255
  8137                           
  8138                           ;Config register CONFIG1H @ 0x300001
  8139                           ;	Oscillator Selection bits
  8140                           ;	OSC = INTIO67, Internal oscillator block, port function on RA6 and RA7
  8141                           ;	Fail-Safe Clock Monitor Enable bit
  8142                           ;	FCMEN = OFF, Fail-Safe Clock Monitor disabled
  8143                           ;	Internal/External Oscillator Switchover bit
  8144                           ;	IESO = ON, Oscillator Switchover mode enabled
  8145   300001                     	org	3145729
  8146   300001  88                 	db	136
  8147                           
  8148                           ;Config register CONFIG2L @ 0x300002
  8149                           ;	Power-up Timer Enable bit
  8150                           ;	PWRT = OFF, PWRT disabled
  8151                           ;	Brown-out Reset Enable bits
  8152                           ;	BOREN = SBORDIS, Brown-out Reset enabled in hardware only (SBOREN is disabled)
  8153                           ;	Brown Out Reset Voltage bits
  8154                           ;	BORV = 3, Minimum setting
  8155   300002                     	org	3145730
  8156   300002  1F                 	db	31
  8157                           
  8158                           ;Config register CONFIG2H @ 0x300003
  8159                           ;	Watchdog Timer Enable bit
  8160                           ;	WDT = OFF, WDT disabled (control is placed on the SWDTEN bit)
  8161                           ;	Watchdog Timer Postscale Select bits
  8162                           ;	WDTPS = 1, 1:1
  8163   300003                     	org	3145731
  8164   300003  00                 	db	0
  8165                           
  8166                           ; Padding undefined space
  8167   300004                     	org	3145732
  8168   300004  FF                 	db	255
  8169                           
  8170                           ;Config register CONFIG3H @ 0x300005
  8171                           ;	CCP2 MUX bit
  8172                           ;	CCP2MX = PORTC, CCP2 input/output is multiplexed with RC1
  8173                           ;	PORTB A/D Enable bit
  8174                           ;	PBADEN = ON, PORTB<4:0> pins are configured as analog input channels on Reset
  8175                           ;	Low-Power Timer1 Oscillator Enable bit
  8176                           ;	LPT1OSC = OFF, Timer1 configured for higher power operation
  8177                           ;	MCLR Pin Enable bit
  8178                           ;	MCLRE = ON, MCLR pin enabled; RE3 input pin disabled
  8179   300005                     	org	3145733
  8180   300005  83                 	db	131
  8181                           
  8182                           ;Config register CONFIG4L @ 0x300006
  8183                           ;	Stack Full/Underflow Reset Enable bit
  8184                           ;	STVREN = ON, Stack full/underflow will cause Reset
  8185                           ;	Single-Supply ICSP Enable bit
  8186                           ;	LVP = OFF, Single-Supply ICSP disabled
  8187                           ;	Extended Instruction Set Enable bit
  8188                           ;	XINST = OFF, Instruction set extension and Indexed Addressing mode disabled (Legacy mo
      +                          de)
  8189                           ;	Background Debugger Enable bit
  8190                           ;	DEBUG = 0x1, unprogrammed default
  8191   300006                     	org	3145734
  8192   300006  81                 	db	129
  8193                           
  8194                           ; Padding undefined space
  8195   300007                     	org	3145735
  8196   300007  FF                 	db	255
  8197                           
  8198                           ;Config register CONFIG5L @ 0x300008
  8199                           ;	Code Protection bit
  8200                           ;	CP0 = OFF, Block 0 (000800-001FFFh) not code-protected
  8201                           ;	Code Protection bit
  8202                           ;	CP1 = OFF, Block 1 (002000-003FFFh) not code-protected
  8203                           ;	Code Protection bit
  8204                           ;	CP2 = OFF, Block 2 (004000-005FFFh) not code-protected
  8205                           ;	Code Protection bit
  8206                           ;	CP3 = OFF, Block 3 (006000-007FFFh) not code-protected
  8207   300008                     	org	3145736
  8208   300008  0F                 	db	15
  8209                           
  8210                           ;Config register CONFIG5H @ 0x300009
  8211                           ;	Boot Block Code Protection bit
  8212                           ;	CPB = OFF, Boot block (000000-0007FFh) not code-protected
  8213                           ;	Data EEPROM Code Protection bit
  8214                           ;	CPD = OFF, Data EEPROM not code-protected
  8215   300009                     	org	3145737
  8216   300009  C0                 	db	192
  8217                           
  8218                           ;Config register CONFIG6L @ 0x30000A
  8219                           ;	Write Protection bit
  8220                           ;	WRT0 = OFF, Block 0 (000800-001FFFh) not write-protected
  8221                           ;	Write Protection bit
  8222                           ;	WRT1 = OFF, Block 1 (002000-003FFFh) not write-protected
  8223                           ;	Write Protection bit
  8224                           ;	WRT2 = OFF, Block 2 (004000-005FFFh) not write-protected
  8225                           ;	Write Protection bit
  8226                           ;	WRT3 = OFF, Block 3 (006000-007FFFh) not write-protected
  8227   30000A                     	org	3145738
  8228   30000A  0F                 	db	15
  8229                           
  8230                           ;Config register CONFIG6H @ 0x30000B
  8231                           ;	Configuration Register Write Protection bit
  8232                           ;	WRTC = OFF, Configuration registers (300000-3000FFh) not write-protected
  8233                           ;	Boot Block Write Protection bit
  8234                           ;	WRTB = OFF, Boot block (000000-0007FFh) not write-protected
  8235                           ;	Data EEPROM Write Protection bit
  8236                           ;	WRTD = OFF, Data EEPROM not write-protected
  8237   30000B                     	org	3145739
  8238   30000B  E0                 	db	224
  8239                           
  8240                           ;Config register CONFIG7L @ 0x30000C
  8241                           ;	Table Read Protection bit
  8242                           ;	EBTR0 = OFF, Block 0 (000800-001FFFh) not protected from table reads executed in other
      +                           blocks
  8243                           ;	Table Read Protection bit
  8244                           ;	EBTR1 = OFF, Block 1 (002000-003FFFh) not protected from table reads executed in other
      +                           blocks
  8245                           ;	Table Read Protection bit
  8246                           ;	EBTR2 = OFF, Block 2 (004000-005FFFh) not protected from table reads executed in other
      +                           blocks
  8247                           ;	Table Read Protection bit
  8248                           ;	EBTR3 = OFF, Block 3 (006000-007FFFh) not protected from table reads executed in other
      +                           blocks
  8249   30000C                     	org	3145740
  8250   30000C  0F                 	db	15
  8251                           
  8252                           ;Config register CONFIG7H @ 0x30000D
  8253                           ;	Boot Block Table Read Protection bit
  8254                           ;	EBTRB = OFF, Boot block (000000-0007FFh) not protected from table reads executed in ot
      +                          her blocks
  8255   30000D                     	org	3145741
  8256   30000D  40                 	db	64
  8257                           tosu	equ	0xFFF
  8258                           tosh	equ	0xFFE
  8259                           tosl	equ	0xFFD
  8260                           stkptr	equ	0xFFC
  8261                           pclatu	equ	0xFFB
  8262                           pclath	equ	0xFFA
  8263                           pcl	equ	0xFF9
  8264                           tblptru	equ	0xFF8
  8265                           tblptrh	equ	0xFF7
  8266                           tblptrl	equ	0xFF6
  8267                           tablat	equ	0xFF5
  8268                           prodh	equ	0xFF4
  8269                           prodl	equ	0xFF3
  8270                           indf0	equ	0xFEF
  8271                           postinc0	equ	0xFEE
  8272                           postdec0	equ	0xFED
  8273                           preinc0	equ	0xFEC
  8274                           plusw0	equ	0xFEB
  8275                           fsr0h	equ	0xFEA
  8276                           fsr0l	equ	0xFE9
  8277                           wreg	equ	0xFE8
  8278                           indf1	equ	0xFE7
  8279                           postinc1	equ	0xFE6
  8280                           postdec1	equ	0xFE5
  8281                           preinc1	equ	0xFE4
  8282                           plusw1	equ	0xFE3
  8283                           fsr1h	equ	0xFE2
  8284                           fsr1l	equ	0xFE1
  8285                           bsr	equ	0xFE0
  8286                           indf2	equ	0xFDF
  8287                           postinc2	equ	0xFDE
  8288                           postdec2	equ	0xFDD
  8289                           preinc2	equ	0xFDC
  8290                           plusw2	equ	0xFDB
  8291                           fsr2h	equ	0xFDA
  8292                           fsr2l	equ	0xFD9
  8293                           status	equ	0xFD8

Data Sizes:
    Strings     3
    Constant    60
    Data        0
    BSS         84
    Persistent  0
    Stack       0

Auto Spaces:
    Space          Size  Autos    Used
    COMRAM          126    116     121
    BANK0           128    126     128
    BANK1           256      5      82
    BANK2           256      0       0
    BANK3           256      0       0
    BANK4           256      0       0
    BANK5           239      0       0

Pointer List with Targets:

    sp__GetString	PTR unsigned char  size(2) Largest target is 20
		 -> mystring(BANK1[20]), 


Critical Paths under _main in COMRAM

    _SYSTEM_Initialize->_Gyroscope_Initialize
    _Gyroscope_Initialize->_Calibration
    _sqrtf->___fladd
    _atan2f->_fabsf
    _atanf->_fabsf
    _fabsf->___fldiv
    ___flsub->___fladd
    ___fladd->___flmul
    ___flmul->___xxtofl
    ___fldiv->_sqrtf
    _Check_ADC->_ADC_Read

Critical Paths under _Low_ISR in COMRAM

    None.

Critical Paths under _main in BANK0

    _Gyroscope_Initialize->_Calibration
    _Calibration->_calculate_angle
    _Check_Gyroscope->_calculate_angle
    _calculate_angle->_atan2f
    _atan2f->_atanf
    _atanf->_fabsf
    _fabsf->___fldiv

Critical Paths under _Low_ISR in BANK0

    None.

Critical Paths under _main in BANK1

    None.

Critical Paths under _Low_ISR in BANK1

    None.

Critical Paths under _main in BANK2

    None.

Critical Paths under _Low_ISR in BANK2

    None.

Critical Paths under _main in BANK3

    None.

Critical Paths under _Low_ISR in BANK3

    None.

Critical Paths under _main in BANK4

    None.

Critical Paths under _Low_ISR in BANK4

    None.

Critical Paths under _main in BANK5

    None.

Critical Paths under _Low_ISR in BANK5

    None.

Call Graph Tables:

 ---------------------------------------------------------------------------------
 (Depth) Function   	        Calls       Base Space   Used Autos Params    Refs
 ---------------------------------------------------------------------------------
 (0) _main                                                 5     5      0   65473
                                              0 BANK1      5     5      0
                          _Check_ADC
                    _Check_Gyroscope
                  _SYSTEM_Initialize
 ---------------------------------------------------------------------------------
 (1) _SYSTEM_Initialize                                    0     0      0   30965
                     _ADC_Initialize
               _Gyroscope_Initialize
               _INTERRUPT_Initialize
              _OSCILLATOR_Initialize
                    _TMR2_Initialize
 ---------------------------------------------------------------------------------
 (2) _TMR2_Initialize                                      0     0      0       0
 ---------------------------------------------------------------------------------
 (2) _OSCILLATOR_Initialize                                0     0      0       0
 ---------------------------------------------------------------------------------
 (2) _INTERRUPT_Initialize                                 0     0      0       0
 ---------------------------------------------------------------------------------
 (2) _Gyroscope_Initialize                                 1     1      0   30965
                                            115 COMRAM     1     1      0
                        _Calibration
                           _I2C_Init
                          _I2C_Start
                           _I2C_Stop
                          _I2C_Write
 ---------------------------------------------------------------------------------
 (3) _I2C_Init                                             0     0      0       0
 ---------------------------------------------------------------------------------
 (3) _Calibration                                         10    10      0   30918
                                            113 COMRAM     2     2      0
                                            118 BANK0      8     8      0
                           _I2C_Read
                          _I2C_Start
                           _I2C_Stop
                          _I2C_Write
                    _calculate_angle
 ---------------------------------------------------------------------------------
 (2) _ADC_Initialize                                       0     0      0       0
 ---------------------------------------------------------------------------------
 (1) _Check_Gyroscope                                      8     6      2   34180
                                            113 COMRAM     2     2      0
                                            118 BANK0      6     4      2
                           _I2C_Read
                          _I2C_Start
                           _I2C_Stop
                          _I2C_Write
                             ___flge
                            ___flsub
                    _calculate_angle
 ---------------------------------------------------------------------------------
 (4) _calculate_angle                                     14     8      6   30586
                                            104 BANK0     14     8      6
                            ___fladd
                            ___fldiv
                            ___flmul
                           ___xxtofl
                             _atan2f
                              _sqrtf
 ---------------------------------------------------------------------------------
 (5) _sqrtf                                               41    37      4    1070
                                             60 COMRAM    37    33      4
                            ___fladd (ARG)
                            ___flmul (ARG)
                           ___xxtofl (ARG)
 ---------------------------------------------------------------------------------
 (5) _atan2f                                              41    33      8   21706
                                             63 BANK0     41    33      8
                            ___fladd
                            ___fldiv
                            ___flneg
                            ___flsub
                      ___fpclassifyf
                           ___xxtofl (ARG)
                              _atanf
                              _fabsf
                              _sqrtf (ARG)
 ---------------------------------------------------------------------------------
 (6) _atanf                                               46    42      4   12279
                                             17 BANK0     46    42      4
                            ___fladd
                            ___fldiv
                            ___flmul
                            ___flneg
                            ___flsub
                      ___fpclassifyf
                              _fabsf
 ---------------------------------------------------------------------------------
 (6) _fabsf                                                8     4      4      77
                                            109 COMRAM     4     0      4
                                             13 BANK0      4     4      0
                            ___fldiv (ARG)
 ---------------------------------------------------------------------------------
 (7) ___fpclassifyf                                       14    10      4     204
                                              5 COMRAM    14    10      4
 ---------------------------------------------------------------------------------
 (7) ___flsub                                              8     0      8    3151
                                             60 COMRAM     8     0      8
                            ___fladd
                            ___flmul (ARG)
 ---------------------------------------------------------------------------------
 (8) ___fladd                                             16     8      8    3050
                                             44 COMRAM    16     8      8
                            ___flmul (ARG)
                           ___xxtofl (ARG)
 ---------------------------------------------------------------------------------
 (7) ___flneg                                              4     0      4      74
                                              5 COMRAM     4     0      4
 ---------------------------------------------------------------------------------
 (7) ___flmul                                             25    17      8    2277
                                             19 COMRAM    25    17      8
                           ___xxtofl (ARG)
 ---------------------------------------------------------------------------------
 (7) ___fldiv                                             25    17      8    1719
                                             97 COMRAM    12     4      8
                                              0 BANK0     13    13      0
                            ___fladd (ARG)
                            ___flmul (ARG)
                           ___xxtofl (ARG)
                              _sqrtf (ARG)
 ---------------------------------------------------------------------------------
 (5) ___xxtofl                                            14    10      4     523
                                              5 COMRAM    14    10      4
 ---------------------------------------------------------------------------------
 (2) ___flge                                              12     4      8     278
                                              5 COMRAM    12     4      8
 ---------------------------------------------------------------------------------
 (3) _I2C_Write                                            1     1      0      47
                                              5 COMRAM     1     1      0
 ---------------------------------------------------------------------------------
 (3) _I2C_Stop                                             0     0      0       0
 ---------------------------------------------------------------------------------
 (3) _I2C_Start                                            0     0      0       0
 ---------------------------------------------------------------------------------
 (4) _I2C_Read                                             2     2      0      81
                                              5 COMRAM     2     2      0
 ---------------------------------------------------------------------------------
 (1) _Check_ADC                                            7     5      2     263
                                             11 COMRAM     7     5      2
                           _ADC_Read
 ---------------------------------------------------------------------------------
 (2) _ADC_Read                                             6     4      2      37
                                              5 COMRAM     6     4      2
 ---------------------------------------------------------------------------------
 Estimated maximum stack depth 8
 ---------------------------------------------------------------------------------
 (Depth) Function   	        Calls       Base Space   Used Autos Params    Refs
 ---------------------------------------------------------------------------------
 (9) _Low_ISR                                              5     5      0       0
                                              0 COMRAM     5     5      0
 ---------------------------------------------------------------------------------
 Estimated maximum stack depth 9
 ---------------------------------------------------------------------------------

 Call Graph Graphs:

 _main (ROOT)
   _Check_ADC
     _ADC_Read
   _Check_Gyroscope
     _I2C_Read
     _I2C_Start
     _I2C_Stop
     _I2C_Write
     ___flge
     ___flsub
       ___fladd
         ___flmul (ARG)
           ___xxtofl (ARG)
         ___xxtofl (ARG)
       ___flmul (ARG)
     _calculate_angle
       ___fladd
       ___fldiv
         ___fladd (ARG)
         ___flmul (ARG)
         ___xxtofl (ARG)
         _sqrtf (ARG)
           ___fladd (ARG)
           ___flmul (ARG)
           ___xxtofl (ARG)
       ___flmul
       ___xxtofl
       _atan2f
         ___fladd
         ___fldiv
         ___flneg
         ___flsub
         ___fpclassifyf
         ___xxtofl (ARG)
         _atanf (ARG)
           ___fladd
           ___fldiv
           ___flmul
           ___flneg
           ___flsub
           ___fpclassifyf
           _fabsf
             ___fldiv (ARG)
         _fabsf (ARG)
         _sqrtf (ARG)
       _sqrtf
   _SYSTEM_Initialize
     _ADC_Initialize
     _Gyroscope_Initialize
       _Calibration
         _I2C_Read
         _I2C_Start
         _I2C_Stop
         _I2C_Write
         _calculate_angle
       _I2C_Init
       _I2C_Start
       _I2C_Stop
       _I2C_Write
     _INTERRUPT_Initialize
     _OSCILLATOR_Initialize
     _TMR2_Initialize

 _Low_ISR (ROOT)

Address spaces:
Name               Size   Autos  Total    Usage
BIGRAM            1518      0       0      0.0%
BITBANK4           256      0       0      0.0%
BANK4              256      0       0      0.0%
BITBANK3           256      0       0      0.0%
BANK3              256      0       0      0.0%
BITBANK2           256      0       0      0.0%
BANK2              256      0       0      0.0%
BITBANK1           256      0       0      0.0%
BANK1              256      5      82     32.0%
BITBANK5           239      0       0      0.0%
BANK5              239      0       0      0.0%
BITBANK0           128      0       0      0.0%
BANK0              128    126     128    100.0%
BITCOMRAM          126      0       0      0.0%
COMRAM             126    116     121     96.0%
BITBIGSFR_1h        38      0       0      0.0%
BITBIGSFRh          18      0       0      0.0%
BITBIGSFR_1lh       14      0       0      0.0%
BITBIGSFR_5h         9      0       0      0.0%
BITBIGSFRl           9      0       0      0.0%
BITBIGSFR_2          6      0       0      0.0%
BITBIGSFR_4          3      0       0      0.0%
BITBIGSFR_3          3      0       0      0.0%
BITBIGSFR_5l         2      0       0      0.0%
STACK                0      0       0      0.0%
DATA                 0      0     331      0.0%


Microchip Technology PIC18 Macro Assembler V2.50 build 20240725155939 
Symbol Table                                                                                   Tue Jan 14 21:00:05 2025

                 ___fldiv@aexp 008C                   ___fldiv@bexp 008B                   ___fldiv@sign 0084  
                           l22 28DA                             l30 2740                             _BF 7E38  
                           l31 276A                             l25 2906                             l33 276C  
                           l19 298A                             l63 2970                             l92 29A0  
                           l95 29E6                             l98 29DE                             _pi 7D27  
                           bsr 0FE0                            l302 27F8                            l311 26D6  
                          l304 2806                            l305 2820                            l307 282E  
                          l308 2830                            l272 20BE                            l281 29B6  
                          l290 29B2                            l275 2408                            l259 289E  
                          l284 29C4                            l293 2938                            l278 29D2  
                          l287 29A4                            l296 2946                            l299 2954  
                          l590 24C6                            l920 1D76                            l912 1C7E  
                          l921 1D64                            l595 250C                            l907 1E56  
                          l909 1CBA                            l853 0FF4                            l918 1D00  
                          l870 110E                            l862 12C0                            l854 0FE2  
                          l919 1D1E                            l943 16E6                            l599 2868  
                          l855 0FA8                            l880 11CA                            l946 157C  
                          l947 159A                            l939 1386                            l867 119C  
                          l980 2116                            l956 16A8                            l948 15F2  
                          l949 15E0                            l886 1284                            l983 2272  
                          l879 11DC                            l895 27B2                            l994 220A  
                          l987 21AE                            _PR2 0FCB                            _PEN 7E2A  
                          _SEN 7E28                            _aT0 7D1F                            _aT1 7D1B  
                          _aT2 7D17                            _aT3 7D13                            _aT4 7D0F  
                          _dir 00FE          ?_Gyroscope_Initialize 0001                            _str 0100  
              _TMR2_Initialize 29D4                            wreg 0FE8                   ___flmul@aexp 0021  
     Check_ADC@prev_sensor_val 000C                   ___flmul@bexp 0026                   ___flmul@sign 0020  
                 ___flmul@temp 002B                   ___flmul@prod 0027                           l1012 0E0A  
                         l1113 28D4                           l1041 0C0E                           l1017 09B0  
                         l1009 08D4                           l1130 192A                           l1122 1AC4  
                         l1051 0CD6                           l1043 0BD8                           l1133 19EE  
                         l1126 18CC                           l1135 1A5C                           l1065 260A  
                         l1095 0220                           l1089 084E                           l4011 172C  
                         l4013 175A                           l4021 178C                           l4111 0A36  
                         l4031 17FA                           l4023 17AA                           l4015 1768  
                         l4007 16E8                           l4201 20E0                           l4113 0A4A  
                         l4105 09EC                           l4041 1880                           l4025 17D8  
                         l4017 1778                           l4009 16F8                           l4211 2158  
                         l4203 2126                           l4131 0AC2                           l4123 0A9A  
                         l4107 0A12                           l4051 191A                           l4043 188A  
                         l4221 21E0                           l4213 2164                           l4205 213C  
                         l3501 0FB6                           l3421 0E28                           l4141 0AEA  
                         l4109 0A28                           l4117 0A5E                           l4061 19FE  
                         l4053 1944                           l4045 1896                           l4029 17EC  
                         l4037 1818                           l4301 2974                           l4311 28E8  
                         l4231 221E                           l4223 21EC                           l4215 2196  
                         l3511 0FE0                           l3503 0FC2                           l3423 0E38  
                         l3431 0E60                           l3415 0E0C                           l4151 0B38  
                         l4143 0B10                           l4135 0AD6                           l4127 0AAE  
                         l4119 0A7A                           l4063 1A08                           l4055 1964  
                         l4047 18A4                           l4039 186C                           l4303 2978  
                         l4313 28FE                           l4233 2242                           l4225 21FA  
                         l4217 2198                           l4209 2150                           l3601 12A0  
                         l3521 1036                           l3513 1002                           l3505 0FC6  
                         l3441 0E90                           l3433 0E70                           l3425 0E48  
                         l3417 0E18                           l4161 0B60                           l4081 08F4  
                         l4073 0850                           l4065 1A1E                           l4057 1978  
                         l4049 190C                           l4401 1E72                           l4305 2986  
                         l4321 2960                           l4251 280A                           l4243 29B4  
                         l4235 2252                           l4227 2218                           l4219 21A4  
                         l3611 1AD4                           l3603 12AE                           l3531 1070  
                         l3523 1044                           l3515 1012                           l3507 0FD4  
                         l3451 0ED0                           l3443 0E9E                           l3435 0E76  
                         l3427 0E58                           l3419 0E26                           l4155 0B4C  
                         l4147 0B24                           l4163 0B86                           l4091 0994  
                         l4083 0912                           l4075 0876                           l4067 1A34  
                         l4059 19B6                           l4411 1E9E                           l4403 1E7A  
                         l4307 2988                           l4331 296E                           l4323 2962  
                         l4309 28D6                           l4253 281E                           l4245 2934  
                         l4237 2260                           l4229 221A                           l3701 1CFE  
                         l3621 1B14                           l3613 1AE2                           l3605 12B0  
                         l3541 10DC                           l3533 1072                           l3525 1052  
                         l3509 0FD6                           l3461 0F08                           l3453 0ED2  
                         l3445 0EA0                           l3437 0E88                           l3429 0E5A  
                         l4181 0CEA                           l4173 0C1C                           l4165 0BBC  
                         l4077 089C                           l4421 1EF0                           l4413 1EA8  
                         l4405 1E84                           l4341 2872                           l4325 2964  
                         l4317 2956                           l4333 29E0                           l4247 29A2  
                         l4239 2262                           l3711 1D86                           l3703 1D10  
                         l3631 1B38                           l3623 1B16                           l3615 1AE4  
                         l3551 1134                           l3543 10DE                           l3535 107C  
                         l3527 105E                           l3519 1026                           l3471 0F1C  
                         l3463 0F0C                           l3447 0EB0                           l3455 0ED8  
                         l3439 0E8A                           l4175 0C52                           l4167 0BE6  
                         l4095 09C4                           l4087 093A                           l4255 2274  
                         l4431 1FAA                           l4423 1F1C                           l4415 1EAC  
                         l4407 1E8C                           l4271 2610                           l4263 29C6  
                         l4351 289A                           l4343 2880                           l4327 296A  
                         l4319 295C                           l4335 29D4                           l4249 27F6  
                         l4361 2486                           l4353 240A                           l3721 1DE8  
                         l3713 1D92                           l3705 1D2E                           l3641 1B78  
                         l3633 1B46                           l3617 1AF4                           l3625 1B1C  
                         l3609 1AC6                           l3801 1430                           l3561 1162  
                         l3545 10EE                           l3529 1062                           l3537 1082  
                         l3481 0F30                           l3473 0F20                           l3465 0F10  
                         l3457 0EE8                           l3449 0EC0                           l4185 0D12  
                         l4177 0C66                           l4169 0BFA                           l4089 0992  
                         l4257 2364                           l4441 1FE8                           l4433 1FBA  
                         l4425 1F50                           l4417 1EC4                           l4409 1E94  
                         l4281 263A                           l4273 2616                           l4265 29CA  
                         l4345 2884                           l4337 286A                           l4329 296C  
                         l4371 250A                           l4363 2494                           l4355 2438  
                         l3731 1E36                           l3723 1DFE                           l3715 1DA0  
                         l3707 1D5C                           l3651 1BB6                           l3643 1B7A  
                         l3635 1B48                           l3627 1B2C                           l3619 1B04  
                         l3811 1482                           l3803 143C                           l3563 1170  
                         l3555 1148                           l3571 118E                           l3539 10A8  
                         l3547 10FE                           l3491 0F44                           l3483 0F34  
                         l3475 0F24                           l3467 0F14                           l3459 0EFA  
                         l4179 0CAE                           l4195 0DEA                           l4099 09D8  
                         l4259 23B0                           l4451 2054                           l4443 1FF0  
                         l4435 1FC0                           l4427 1F82                           l4419 1EDA  
                         l4291 2662                           l4283 2642                           l4275 2620  
                         l4267 29D0                           l4347 288A                           l4339 286E  
                         l4381 2748                           l4365 24A6                           l4357 2448  
                         l4197 20C2                           l3733 1E44                           l3725 1E18  
                         l3717 1DCA                           l3661 1BE6                           l3653 1BBE  
                         l3637 1B58                           l3645 1B80                           l3629 1B32  
                         l3821 1500                           l3813 1492                           l3805 144C  
                         l3581 11F8                           l3573 11AC                           l3565 1178  
                         l3557 1152                           l3549 1124                           l3485 0F38  
                         l3477 0F28                           l3469 0F18                           l3493 0F48  
                         l3901 25BE                           l4189 0D7E                           l4461 20A0  
                         l4453 2066                           l4437 1FD2                           l4445 1FF2  
                         l4429 1F98                           l4293 267A                           l4285 264A  
                         l4277 2626                           l4269 260C                           l4349 2890  
                         l4383 2764                           l4375 26D8                           l4367 24B4  
                         l4359 2476                           l4199 20D2                           l3735 1E4A  
                         l3727 1E30                           l3719 1DCE                           l3671 1C24  
                         l3663 1BE6                           l3655 1BC2                           l3647 1B90  
                         l3639 1B68                           l3831 157A                           l3823 1536  
                         l3815 14AE                           l3807 1458                           l3751 12DE  
                         l3591 1262                           l3583 1206                           l3575 11C2  
                         l3567 117C                           l3559 1160                           l3495 0F74  
                         l3487 0F3C                           l3479 0F2C                           l3911 28C0  
                         l4463 20B0                           l4455 2076                           l4439 1FE4  
                         l4447 200E                           l4295 2692                           l4287 2654  
                         l4279 2630                           l4391 299C                           l4471 27B8  
                         l4377 26EC                           l4369 2504                           l3737 1E4C  
                         l3729 1E32                           l3681 1C6E                           l3673 1C34  
                         l3649 1BA6                           l3841 1602                           l3833 158C  
                         l3825 1544                           l3817 14BA                           l3809 1468  
                         l3761 1324                           l3753 12EE                           l3745 12C2  
                         l3593 1282                           l3585 1240                           l3569 118C  
                         l3497 0F90                           l3489 0F40                           l3905 2602  
                         l3913 28C4                           l3921 010C                           l4457 207C  
                         l4449 2040                           l4393 1E58                           l4297 26AA  
                         l4289 265E                           l4385 298C                           l4473 27C2  
                         l4379 2716                           l3691 1CB8                           l3683 1C7C  
                         l3675 1C44                           l3667 1BFA                           l3659 1BD6  
                         l3851 1664                           l3843 160E                           l3835 15AA  
                         l3827 1562                           l3819 14D6                           l3771 1350  
                         l3763 132A                           l3755 12FE                           l3747 12CE  
                         l3595 1292                           l3579 11EC                           l3587 1242  
                         l3499 0FA0                           l3931 01A2                           l3923 010E  
                         l4459 208E                           l4467 20B6                           l4395 1E5C  
                         l4299 2972                           l4387 2994                           l4475 27CE  
                         l3693 1CCA                           l3685 1C88                           l3677 1C4A  
                         l3669 1C14                           l3861 16BC                           l3853 1678  
                         l3845 161C                           l3837 15D8                           l3829 156C  
                         l3781 13A6                           l3773 1360                           l3765 1330  
                         l3757 130E                           l3749 12DC                           l3597 1298  
                         l3589 1252                           l3909 28A0                           l3941 0206  
                         l3933 01B4                           l3925 0124                           l3917 00E6  
                         l4397 1E62                           l4389 2998                           l4477 27DA  
                         l4469 27B4                           l3695 1CE0                           l3687 1CA6  
                         l3679 1C5A                           l3863 16CA                           l3855 1692  
                         l3847 1646                           l3791 13E6                           l3775 1370  
                         l3767 133E                           l3759 1314                           l3599 129A  
                         l3951 0278                           l3935 01C8                           l3927 014A  
                         l3919 00F6                           l4399 1E6C                           l3697 1CE6  
                         l3689 1CA8                           l3865 16CC                           l3857 16A2  
                         l3849 164A                           l3793 13F2                           l3785 13BA  
                         l3777 1376                           l3769 1340                           l3881 2848  
                         l3873 276E                           l3961 03B8                           l3953 027A  
                         l3945 0226                           l3929 015E                           l3699 1CF0  
                         l3859 16AC                           l3867 16D2                           l3795 140A  
                         l3787 13C6                           l3779 1396                           l3883 2858  
                         l3875 277E                           l3891 256C                           l3971 04CC  
                         l3963 03BC                           l3955 031E                           l3947 024A  
                         l3939 01F0                           l3869 16D6                           l3797 1416  
                         l3789 13D0                           l3893 2594                           l3981 063C  
                         l3973 0500                           l3965 0460                           l3957 0322  
                         l3949 0262                           l3799 1422                           l3879 2832  
                         l3895 25A0                           l3887 250E                           l3991 0710  
                         l3983 0670                           l3975 0558                           l3967 0464  
                         l3959 03A2                           l3889 252E                           l3993 0768  
                         l3985 0680                           l3977 05B0                           l3969 0498  
                         _ADFM 7E07                           l3899 25AC                           l3995 07B6  
                         l3987 06D8                           l3979 05E4                           l3997 07EA  
                         l3999 0838                           STR_1 7D2B                           _LATA 0F89  
                         u4000 1240                           u4001 123C                           u4010 1252  
                         u4011 124E                           u4100 1B58                           u4020 1262  
                         u4101 1B54                           u4021 125E                           u4110 1B68  
                         u4030 1282                           u4111 1B64                           u4031 127E  
                         u5000 2192                           u4200 1D1E                           u4120 1BA6  
                         u4040 1292                           u5001 218E                           u4201 1D1A  
                         u4121 1BA2                           u4041 128E                           u5010 21DC  
                         u4210 1D2E                           u4130 1BE6                           u4050 12AE  
                         u5011 21D8                           u4211 1D2A                           u4131 1BE2  
                         u4051 12AA                           u5100 29B2                           u5020 21FA  
                         u4220 1D5C                           u4140 1C5A                           u4060 1AE2  
                         u4300 12EE                           u5101 29AE                           u5021 21F6  
                         u4221 1D58                           u4141 1C56                           u4061 1ADE  
                         u4301 12EA                           u5110 2806                           u5030 220A  
                         u4230 1D72                           u4150 1C7C                           u4070 1AF4  
                         u4310 12FE                           u5111 2802                           u5031 2206  
                         u4231 1D6E                           u4151 1C78                           u4071 1AF0  
                         u4311 12FA                           u5120 281C                           u5200 2504  
                         u5040 2218                           u4240 1D86                           u4160 1CA6  
                         u4080 1B04                           u4400 15AA                           u4320 133E  
                         u5121 2816                           u5201 2500                           u5041 2214  
                         u4241 1D82                           u4161 1CA2                           u4081 1B00  
                         u4401 15A6                           u4321 133A                           u5210 2716  
                         u5050 2252                           u4250 1DA0                           u4170 1CCA  
                         u4090 1B46                           u4410 15D8                           u4330 1350  
                         u5211 2712                           u5051 224E                           u4251 1D9C  
                         u4171 1CC6                           u4091 1B42                           u4411 15D4  
                         u4331 134C              ??_Check_Gyroscope 0072                           u5220 2740  
                         u5140 282E                           u5060 2260                           u4260 1DE8  
                         u4180 1CE0                           u4420 15EE                           u4340 1360  
                         u3700 0E88                           u4500 256C                           u5300 2054  
                         u5221 273C                           u5141 282A                           u5061 225C  
                         u4261 1DE4                           u4181 1CDC                           u4421 15EA  
                         u4341 135C                           u3701 0E84                           u4501 2568  
                         u5301 2050                           u5150 28E8                           u5230 2764  
                         u5070 29C4                           u4270 1E18                           u4190 1CFE  
                         u4430 1602                           u4350 1396                           u3710 0E9E  
                         u4510 2594                           u5310 2066                           u5151 28E4  
                         u5231 2760                           u5135 281E                           u5071 29C0  
                         u4271 1E14                           u4191 1CFA                           u4431 15FE  
                         u4351 1392                           u3711 0E9A                           u4511 2590  
                         u5311 2062                           u5080 2946                           u5160 2438  
                         u4280 1E44                           u4440 161C                           u4360 13A6  
                         u3800 0FD4                           u3720 0EB0                           u4520 25BE  
                         u4600 01B4                           u5320 208E                           u5240 1F82  
                         u5081 2942                           u5161 2434                           u4281 1E40  
                         u4441 1618                           u4361 13A2                           u3801 0FD0  
                         u3721 0EAC                           u4521 25BA                           u4601 01B0  
                         u5321 208A                           u5241 1F7E                           u5090 2954  
                         u5170 2476                           u4450 1664                           u4370 1520  
                         u4290 12DC                           u3810 0FF4                           u3730 0EC0  
                         u4610 0206                           u5330 20A0                           u5250 1F98  
                         u5091 2950                           u5171 2472                           u4451 1660  
                         u4291 12D8                           u3811 0FF0                           u3731 0EBC  
                         u4611 0202                           u5331 209C                           u5251 1F94  
                         u5180 2494                           u4460 1692                           u4380 157A  
                         u3900 1134                           u3820 1002                           u3740 0EFA  
                         u4540 25F8                           u4620 021C                           u4700 1768  
                         u5260 1FAA                           u5181 2490                           u4461 168E  
                         u4381 1576                           u3901 1130                           u3821 0FFE  
                         u3741 0EF6                           u4541 25F2                           u4621 0218  
                         u4701 1764                           u5261 1FA6                           u5190 24B4  
                         u4470 16CA                           u4390 159A                           u3910 1160  
                         u3830 1012                           u3750 0F08                           u3670 0E26  
                         u4550 25FA                           u4630 0262                           u4710 17AA  
                         u5270 1FD2                           u5191 24B0                           u4471 16C6  
                         u4391 1596                           u4375 1516                           u3911 115C  
                         u3831 100E                           u3751 0F04                           u3671 0E22  
                         u4535 25D0                           u4631 025E                           u4711 17A6  
                         u5271 1FCE                           u4480 2848                           u3920 1170  
                         u3840 1044                           u3760 0F74                           u3680 0E38  
                         u4640 0278                           u4560 0108                           u4800 1A34  
                         u4720 17D8                           u5280 1FE4                           u4481 2844  
                         u3921 116C                           u3841 1040                           u3761 0F70  
                         u3681 0E34                           u4641 0274                           u4561 0102  
                         u4801 1A30                           u4721 17D4                           u5281 1FE0  
                         u3930 118C                           u3850 1052                           u3770 0F8C  
                         u3690 0E48                           u4490 254E                           u4650 03B8  
                         u4570 010A                           u4730 17FA                           u5290 2040  
                         u3931 1188                           u3851 104E                           u3771 0F86  
                         u3691 0E44                           u4651 03B4                           u4731 17F6  
                         u5291 203C                           u5347 27E2                           u3940 119C  
                         u3860 1070                           u3780 0F8E                           u4660 0680  
                         u4580 0124                           u4900 0A7A                           u4820 0876  
                         _RCEN 7E2B                           u3941 1198                           u3861 106C  
                         u4661 067C                           u4581 0120                           u4901 0A76  
                         u4821 0872                           u5357 2878                           u3950 11AC  
                         u3870 10A8                           u3790 0FB6                           u4670 084A  
                         u4590 014A                           u4910 0A96                           u4830 089C  
                         u4750 186C                           u3951 11A8                           u3871 10A4  
                         u3791 0FB2                           u4495 2544                           u4671 0846  
                         u4591 0146                           u4911 0A92                           u4831 0898  
                         u4815 1AA0                           u4751 1868                           u5367 1FFC  
                         u3960 11C2                           u3880 10EE                           u4920 0BBC  
                         u4840 0912                           u4760 18A4                           u4680 172C  
                         u3961 11BE                           u3881 10EA                           u4921 0BB8  
                         u4841 090E                           u4761 18A0                           u4745 182C  
                         u4681 1728                           u3970 11D8                           u3890 1124  
                         u4930 0BD8                           u4850 095A                           u4770 191A  
                         u4746 1836                           u4690 175A                           u3971 11D4  
                         u3891 1120                           u4931 0BD4                           u4771 1916  
                         u4747 1846                           u4691 1756                           u3980 11EC  
                         u4940 0BE6                           u4860 0984                           u4780 19B6  
                         u3981 11E8                           u4941 0BE2                           u4781 19B2  
                         u3990 1206                           u4950 0C1C                           u4870 09AC  
                         u4790 1A1E                           u3991 1202                           u4951 0C18  
                         u4871 09A8                           u4855 0950                           u4791 1A1A  
                         u4960 0C52                           u4880 0A28                           u4961 0C4E  
                         u4881 0A24                           u4865 097A                           u4970 20D2  
                         u4890 0A36                           u4971 20CE                           u4891 0A32  
                         u4980 20E0                           u4981 20DC                           u4990 213C  
                         u4991 2138                           _accX 012C                           _accY 012A  
                         _accZ 0128                           _main 27B4               __end_of_I2C_Init 29D4  
             __end_of_I2C_Read 2832                           btemp 007A               __end_of_I2C_Stop 29B4  
             __end_of_ADC_Read 2908                  ___fpclassifyf 250E                           prodh 0FF4  
                         prodl 0FF3                           start 00E2                ___fldiv@new_exp 0085  
                 ___param_bank 0000                    _Calibration 260C                __end_of_Low_ISR 00E2  
__end_of_OSCILLATOR_Initialize 29E8                __end_of___fladd 12C2                          ?_main 0001  
                        _ACKEN 7E2C                          _ACKDT 7E2D                __end_of___fldiv 1E58  
             ?_calculate_angle 00E8                __end_of___flneg 286A                __end_of___flmul 16E8  
              __end_of___flsub 27B4                          _T2CON 0FCA                          _IRCF0 7E9C  
                        _IRCF1 7E9D                          _IRCF2 7E9E                          i1l322 00D2  
                        i1l317 00D2                          _RCREG 0FAE                          _SPBRG 0FAF  
                        _TRISA 0F92                          _TRISB 0F93                          _TXREG 0FAD  
                        _fabsf 28A0                          _angle 011C                          _atanf 00E6  
                        _count 0132                          _errno 0124                          _pi_lo 7D23  
                        _sqrtf 16E8              __end_of_I2C_Start 29C6              __end_of_I2C_Write 2956  
                        tablat 0FF5                          ttemp5 007B                          ttemp6 007E  
                        ttemp7 0082                          status 0FD8                          wtemp8 007B  
               ?___fpclassifyf 0006                __initialization 2908                   __end_of_main 27F4  
      __end_of_TMR2_Initialize 29E0                         ??_main 014D         ??_Gyroscope_Initialize 0074  
                __activetblptr 0002                 _postpostscaler 0126                         ?_fabsf 006E  
                       ?_atanf 0091                         _ADCON1 0FC1                         _ADRESH 0FC4  
                       _ADRESL 0FC3                         ?_sqrtf 003D                         i1l3401 0026  
                       i1l3411 009A                         i1l3403 0034                         i1l3413 00AC  
                       i1l3405 0036                         i1l3407 005E                         i1l3409 0074  
                       _OSCCON 0FD3                         _TMR2IF 7CF1                         _SSPADD 0FC8  
                       _SSPBUF 0FC9               __end_of___xxtofl 2274                      ??_Low_ISR 0001  
                       ___flge 240A                      ??___fladd 0035                      ??___fldiv 006A  
                    ??___flneg 000A                      ??___flmul 001C                         _atan2f 0850  
                    ??___flsub 0045                         _atanhi 7CFF                         _atanlo 7CEF  
              ADC_Read@channel 0006                         _lenStr 0134                         fabsf@u 008D  
                       fabsf@x 006E                ADC_Read@digital 000A                         clear_0 290E  
                       atanf@w 00B2                         atanf@x 0091                         atanf@z 00B7  
                       isa$std 0001                      ?_I2C_Init 0001                      ?_I2C_Read 0001  
                    ?_I2C_Stop 0001                ___fpclassifyf@e 000E                ___fpclassifyf@u 0010  
                    ?_ADC_Read 0006                ___fpclassifyf@x 0006           _Check_Gyroscope$1900 00F8  
                 __mediumconst 7CEE                         tblptrh 0FF7                         tblptrl 0FF6  
                       tblptru 0FF8              __end_of_Check_ADC 276E                         sqrtf@i 004A  
                       sqrtf@m 0056                         sqrtf@q 004E                         sqrtf@r 005A  
                       sqrtf@s 0046                         sqrtf@t 0052                         sqrtf@x 003D  
                   ___flge@ff1 0006                ??___fpclassifyf 000A                     ___flge@ff2 000A  
                 ___xxtofl@arg 0010                   ___xxtofl@exp 000F              _SYSTEM_Initialize 298C  
                 ___xxtofl@val 0006                     __accesstop 0080        __end_of__initialization 2924  
                   ___flneg@f1 0006             ?_SYSTEM_Initialize 0001                  ___rparam_used 0001  
               __pcstackCOMRAM 0001            ??_SYSTEM_Initialize 0075                  __end_of_fabsf 28D6  
                __end_of_atanf 0850                  __end_of_pi_lo 7D27                  __end_of_sqrtf 1AC6  
             ?_TMR2_Initialize 0001                     __end_of_pi 7D2B                _Check_Gyroscope 1E58  
                   ??_I2C_Init 0006                     ??_I2C_Read 0006                     ??_I2C_Stop 0006  
                   ??_ADC_Read 0008                Calibration@accX 00F6                Calibration@accZ 00F8  
                      ??_fabsf 0072                        ??_atanf 0072      __end_of_SYSTEM_Initialize 29A2  
                      ??_sqrtf 0041                     __pbssBANK0 00FE                     __pbssBANK1 0100  
                   _atanf$1910 009D                     _atanf$1906 00A9                     _atanf$1907 0095  
                   _atanf$1908 00AD                     _atanf$1909 0099                   I2C_Read@data 0007  
                 ?_Calibration 0001                        ?___flge 0006                        ?_atan2f 00BF  
                      _CCP1CON 0FBD                      ?___xxtofl 0006                        _SSPCON1 0FC6  
                      _SSPCON2 0FC5                        _SSPSTAT 0FC7                      _I2C_Start 29B4  
                    _I2C_Write 2932                        _Low_ISR 0018                        __Hparam 0000  
                      __Lparam 0000                        ___fladd 0E0C        __end_of_Check_Gyroscope 20C0  
                      ___fldiv 1AC6                        ___flneg 2832                        ___flmul 12C2  
                      ___flsub 276E                        __pcinit 2908                        __ramtop 0600  
                      __ptext0 27B4                        __ptext1 298C                        __ptext2 29D4  
                      __ptext3 29E0                        __ptext4 2956                        __ptext5 286A  
                      __ptext6 29C6                        __ptext7 260C                        __ptext8 2972  
                      __ptext9 1E58          _OSCILLATOR_Initialize 29E0                        atan2f@m 00E7  
                      atan2f@x 00C3                        atan2f@y 00BF                        atan2f@z 00DB  
                   ??___xxtofl 000A                        atanf@s1 00A1                        atanf@s2 00A5  
                      atanf@id 00B6                        atanf@ix 00BB           end_of_initialization 2924  
                __Lmediumconst 7CEE                     ?_I2C_Start 0001                     ?_I2C_Write 0001  
                    _RCSTAbits 0FAB                        postinc0 0FEE                        sqrtf@ix 005E  
     Check_ADC@bend_sensor_val 0011                    ___fladd@grs 003C                  ___xxtofl@sign 000E  
                    _TRISAbits 0F92                      _TRISCbits 0F94                    ___fldiv@grs 0087  
                  ___fldiv@rem 0080                    ___flmul@grs 0022                      _Check_ADC 26D8  
                    _TXSTAbits 0FAC   __end_of_INTERRUPT_Initialize 2972               ?_Check_Gyroscope 00F6  
               __end_of___flge 250E                 __end_of_atan2f 0E0C                    _BAUDCONbits 0FB8  
               __end_of_atanhi 7D0F                 __end_of_atanlo 7CFF                 _ADC_Initialize 2972  
       ?_OSCILLATOR_Initialize 0001            start_initialization 2908                    __end_of_aT0 7D23  
                  __end_of_aT1 7D1F                    __end_of_aT2 7D1B                    __end_of_aT3 7D17  
                  __end_of_aT4 7D13           Calibration@accX_high 00FA           Calibration@accZ_high 00FC  
                   ?_Check_ADC 000C          __end_of___fpclassifyf 260C                    ??_I2C_Start 0006  
            ??_calculate_angle 0072                    ??_I2C_Write 0006                       ??___flge 000E  
                     ??_atan2f 00C7         __end_of_ADC_Initialize 298C                    _atan2f$1903 00CF  
                  _atan2f$1904 00D3                    _atan2f$1905 00D7                main@blinker_dir 0150  
                    ___fladd@a 0031                      ___fladd@b 002D                      ___fldiv@a 0066  
                    ___fldiv@b 0062                      _accX_high 0079                      _accY_high 0078  
                    ___flmul@a 0018                      ___flmul@b 0014                      _accZ_high 0137  
                  __pbssCOMRAM 0075                      ___flsub@a 0041                      ___flsub@b 003D  
                __pcstackBANK0 0080                  __pcstackBANK1 014D                       ?_Low_ISR 0001  
                  I2C_Read@ack 0006                  __pmediumconst 7CEE                       ?___fladd 002D  
                     ?___fldiv 0062                       ?___flneg 0006                       ?___flmul 0014  
                     ?___flsub 003D                ?_ADC_Initialize 0001       main@prev_bend_sensor_val 014E  
                  __pintcodelo 0018           _calculate_angle$1901 00EE           _calculate_angle$1902 00F2  
                    fabsf@F465 0114                       _I2C_Init 29C6                       _I2C_Read 27F4  
                     _I2C_Stop 29A2                       _ADC_Read 28D6           _INTERRUPT_Initialize 2956  
                  _isConnected 0130                    ??_Check_ADC 000E                       _LATAbits 0F89  
                     _LATBbits 0F8A                       _IPR1bits 0F9F                       _PIE1bits 0F9D  
                     i1u360_20 005E                       i1u360_21 005A                       i1u361_20 0074  
                     i1u361_21 0070                       i1u362_20 0086                       i1u362_21 007E  
                     i1u364_20 00AC                       i1u363_28 0088                       i1u364_21 00A8  
                     i1u365_20 00BE                       i1u365_21 00B6                       i1u366_28 00C0  
                     i1u359_20 0034                       i1u359_21 0030                       _PIR1bits 0F9E  
                    atanf@sign 00B1                       _RCONbits 0FD0                     _ADCON0bits 0FC2  
   Check_Gyroscope@blinker_dir 00F6                     _ADCON2bits 0FC0                    _needSendMsg 012E  
        ?_INTERRUPT_Initialize 0001              ??_TMR2_Initialize 0006            Calibration@accX_low 00FB  
          Calibration@accZ_low 00FD   __end_of_Gyroscope_Initialize 28A0                       __Hrparam 0000  
                     __Lrparam 0000                  I2C_Write@data 0006        ??_OSCILLATOR_Initialize 0006  
                     _accX_low 0138                       _accY_low 0077                       _accZ_low 0136  
           ___fpclassifyf@F465 0118                       ___xxtofl 20C0                _calculate_angle 2274  
                 _pitch_offset 0120                       __ptext10 2274                       __ptext11 16E8  
                     __ptext20 1AC6                       __ptext12 0850                       __ptext21 20C0  
                     __ptext13 00E6                       __ptext22 240A                       __ptext14 28A0  
                     __ptext23 2932                       __ptext15 250E                       __ptext24 29A2  
                     __ptext16 276E                       __ptext25 29B4                       __ptext17 0E0C  
                     __ptext26 27F4                       __ptext18 2832                       __ptext27 26D8  
                     __ptext19 12C2                       __ptext28 28D6                       _from_mid 0075  
                     atan2f@ix 00DF                       atan2f@iy 00E3                  ??_Calibration 0072  
                     isa$xinst 0000                       int$flags 007A                       _mystring 0139  
                   _INTCONbits 0FF2         ??_INTERRUPT_Initialize 0006                       intlevel1 0000  
             ??_ADC_Initialize 0006        __end_of_calculate_angle 240A            __end_of_Calibration 26D8  
         _Gyroscope_Initialize 286A                    _SSPCON2bits 0FC5                  ___fladd@signs 0039  
                 ___fladd@aexp 003A                   ___fladd@bexp 003B            calculate_angle@accX 00E8  
          calculate_angle@accY 00EA            calculate_angle@accZ 00EC  
