

Microchip MPLAB XC8 Assembler V2.50 build 20240725155939 
                                                                                               Sat Jan 11 16:06:09 2025

Microchip MPLAB XC8 C Compiler v2.50 (Free license) build 20240725155939 Og1 
     1                           	processor	18F4520
     2                           	fnconf	rparam,??,?,0
     3                           	pagewidth 120
     4                           	opt	flic
     5                           	psect	smallconst,global,reloc=2,class=SMALLCONST,space=0,delta=1,noexec
     6                           	psect	cinit,global,reloc=2,class=CODE,space=0,delta=1
     7                           	psect	bssBANK0,global,class=BANK0,space=1,delta=1,lowdata,noexec
     8                           	psect	cstackBANK0,global,class=BANK0,space=1,delta=1,lowdata,noexec
     9                           	psect	cstackCOMRAM,global,class=COMRAM,space=1,delta=1,lowdata,noexec
    10                           	psect	text0,global,reloc=2,class=CODE,space=0,delta=1
    11                           	psect	text1,global,reloc=2,class=CODE,space=0,delta=1
    12                           	psect	text2,global,reloc=2,class=CODE,space=0,delta=1,group=1
    13                           	psect	text3,global,reloc=2,class=CODE,space=0,delta=1
    14                           	psect	text4,global,reloc=2,class=CODE,space=0,delta=1
    15                           	psect	text5,global,reloc=2,class=CODE,space=0,delta=1,group=2
    16                           	psect	text6,global,reloc=2,class=CODE,space=0,delta=1,group=2
    17                           	psect	text7,global,reloc=2,class=CODE,space=0,delta=1,group=2
    18                           	psect	text8,global,reloc=2,class=CODE,space=0,delta=1,group=2
    19                           	psect	text9,global,reloc=2,class=CODE,space=0,delta=1,group=1
    20                           	psect	text10,global,reloc=2,class=CODE,space=0,delta=1,group=1
    21                           	psect	text11,global,reloc=2,class=CODE,space=0,delta=1,group=1
    22                           	psect	text12,global,reloc=2,class=CODE,space=0,delta=1,group=1
    23                           	psect	text13,global,reloc=2,class=CODE,space=0,delta=1,group=1
    24                           	psect	text14,global,reloc=2,class=CODE,space=0,delta=1,group=1
    25                           	psect	text15,global,reloc=2,class=CODE,space=0,delta=1
    26                           	psect	text16,global,reloc=2,class=CODE,space=0,delta=1
    27                           	psect	text17,global,reloc=2,class=CODE,space=0,delta=1
    28                           	psect	text18,global,reloc=2,class=CODE,space=0,delta=1
    29                           	psect	intsave_regs,global,class=BIGRAM,space=1,delta=1,noexec
    30                           	psect	rparam,global,class=COMRAM,space=1,delta=1,noexec
    31                           	psect	idloc,global,abs,ovrld,class=IDLOC,space=5,delta=1,noexec
    32                           	psect	config,global,abs,ovrld,class=CONFIG,space=4,delta=1,noexec
    33   000000                     
    34                           ; Generated 25/07/2024 GMT
    35                           ; 
    36                           ; Copyright © 2024, Microchip Technology Inc. and its subsidiaries ("Microchip")
    37                           ; All rights reserved.
    38                           ; 
    39                           ; This software is developed by Microchip Technology Inc. and its subsidiaries ("Microch
      +                          ip").
    40                           ; 
    41                           ; Redistribution and use in source and binary forms, with or without modification, are
    42                           ; permitted provided that the following conditions are met:
    43                           ; 
    44                           ;     1. Redistributions of source code must retain the above copyright notice, this lis
      +                          t of
    45                           ;        conditions and the following disclaimer.
    46                           ; 
    47                           ;     2. Redistributions in binary form must reproduce the above copyright notice, this 
      +                          list
    48                           ;        of conditions and the following disclaimer in the documentation and/or other
    49                           ;        materials provided with the distribution. Publication is not required when
    50                           ;        this file is used in an embedded application.
    51                           ; 
    52                           ;     3. Microchip's name may not be used to endorse or promote products derived from th
      +                          is
    53                           ;        software without specific prior written permission.
    54                           ; 
    55                           ; THIS SOFTWARE IS PROVIDED BY MICROCHIP "AS IS" AND ANY EXPRESS OR IMPLIED WARRANTIES,
    56                           ; INCLUDING, BUT NOT LIMITED TO, THE IMPLIED WARRANTIES OF MERCHANTABILITY AND FITNESS F
      +                          OR
    57                           ; PURPOSE ARE DISCLAIMED.  IN NO EVENT SHALL MICROCHIP BE LIABLE FOR ANY DIRECT, INDIREC
      +                          T,
    58                           ; INCIDENTAL, SPECIAL, EXEMPLARY, OR CONSEQUENTIAL DAMAGES (INCLUDING BUT NOT LIMITED TO
    59                           ; PROCUREMENT OF SUBSTITUTE GOODS OR SERVICES; LOSS OF USE, DATA OR PROFITS; OR BUSINESS
    60                           ; INTERRUPTION) HOWSOEVER CAUSED AND ON ANY THEORY OF LIABILITY, WHETHER IN CONTRACT, ST
      +                          RICT
    61                           ; LIABILITY, OR TORT (INCLUDING NEGLIGENCE OR OTHERWISE) ARISING IN ANY WAY OUT OF THE U
      +                          SE OF
    62                           ; THIS SOFTWARE, EVEN IF ADVISED OF THE POSSIBILITY OF SUCH DAMAGE.
    63                           ; 
    64                           ; 
    65                           ; Code-generator required, PIC18F4520 Definitions
    66                           ; 
    67                           ; SFR Addresses
    68   000FE0                     bsr             equ	4064
    69   000FE9                     fsr0            equ	4073
    70   000FEA                     fsr0h           equ	4074
    71   000FE9                     fsr0l           equ	4073
    72   000FE1                     fsr1            equ	4065
    73   000FE2                     fsr1h           equ	4066
    74   000FE1                     fsr1l           equ	4065
    75   000FD9                     fsr2            equ	4057
    76   000FDA                     fsr2h           equ	4058
    77   000FD9                     fsr2l           equ	4057
    78   000FEF                     indf0           equ	4079
    79   000FE7                     indf1           equ	4071
    80   000FDF                     indf2           equ	4063
    81   000FF2                     intcon          equ	4082
    82   000000                     nvmcon          equ	0
    83   000FF9                     pcl             equ	4089
    84   000FFA                     pclath          equ	4090
    85   000FFB                     pclatu          equ	4091
    86   000FEB                     plusw0          equ	4075
    87   000FE3                     plusw1          equ	4067
    88   000FDB                     plusw2          equ	4059
    89   000FED                     postdec0        equ	4077
    90   000FE5                     postdec1        equ	4069
    91   000FDD                     postdec2        equ	4061
    92   000FEE                     postinc0        equ	4078
    93   000FE6                     postinc1        equ	4070
    94   000FDE                     postinc2        equ	4062
    95   000FEC                     preinc0         equ	4076
    96   000FE4                     preinc1         equ	4068
    97   000FDC                     preinc2         equ	4060
    98   000FF3                     prod            equ	4083
    99   000FF4                     prodh           equ	4084
   100   000FF3                     prodl           equ	4083
   101   000FD8                     status          equ	4056
   102   000FF5                     tablat          equ	4085
   103   000FF6                     tblptr          equ	4086
   104   000FF7                     tblptrh         equ	4087
   105   000FF6                     tblptrl         equ	4086
   106   000FF8                     tblptru         equ	4088
   107   000FFD                     tosl            equ	4093
   108   000FE8                     wreg            equ	4072
   109   000F80                     PORTA           equ	3968	;# 
   110   000F81                     PORTB           equ	3969	;# 
   111   000F82                     PORTC           equ	3970	;# 
   112   000F83                     PORTD           equ	3971	;# 
   113   000F84                     PORTE           equ	3972	;# 
   114   000F89                     LATA            equ	3977	;# 
   115   000F8A                     LATB            equ	3978	;# 
   116   000F8B                     LATC            equ	3979	;# 
   117   000F8C                     LATD            equ	3980	;# 
   118   000F8D                     LATE            equ	3981	;# 
   119   000F92                     TRISA           equ	3986	;# 
   120   000F92                     DDRA            equ	3986	;# 
   121   000F93                     TRISB           equ	3987	;# 
   122   000F93                     DDRB            equ	3987	;# 
   123   000F94                     TRISC           equ	3988	;# 
   124   000F94                     DDRC            equ	3988	;# 
   125   000F95                     TRISD           equ	3989	;# 
   126   000F95                     DDRD            equ	3989	;# 
   127   000F96                     TRISE           equ	3990	;# 
   128   000F96                     DDRE            equ	3990	;# 
   129   000F9B                     OSCTUNE         equ	3995	;# 
   130   000F9D                     PIE1            equ	3997	;# 
   131   000F9E                     PIR1            equ	3998	;# 
   132   000F9F                     IPR1            equ	3999	;# 
   133   000FA0                     PIE2            equ	4000	;# 
   134   000FA1                     PIR2            equ	4001	;# 
   135   000FA2                     IPR2            equ	4002	;# 
   136   000FA6                     EECON1          equ	4006	;# 
   137   000FA7                     EECON2          equ	4007	;# 
   138   000FA8                     EEDATA          equ	4008	;# 
   139   000FA9                     EEADR           equ	4009	;# 
   140   000FAB                     RCSTA           equ	4011	;# 
   141   000FAB                     RCSTA1          equ	4011	;# 
   142   000FAC                     TXSTA           equ	4012	;# 
   143   000FAC                     TXSTA1          equ	4012	;# 
   144   000FAD                     TXREG           equ	4013	;# 
   145   000FAD                     TXREG1          equ	4013	;# 
   146   000FAE                     RCREG           equ	4014	;# 
   147   000FAE                     RCREG1          equ	4014	;# 
   148   000FAF                     SPBRG           equ	4015	;# 
   149   000FAF                     SPBRG1          equ	4015	;# 
   150   000FB0                     SPBRGH          equ	4016	;# 
   151   000FB1                     T3CON           equ	4017	;# 
   152   000FB2                     TMR3            equ	4018	;# 
   153   000FB2                     TMR3L           equ	4018	;# 
   154   000FB3                     TMR3H           equ	4019	;# 
   155   000FB4                     CMCON           equ	4020	;# 
   156   000FB5                     CVRCON          equ	4021	;# 
   157   000FB6                     ECCP1AS         equ	4022	;# 
   158   000FB6                     ECCPAS          equ	4022	;# 
   159   000FB7                     PWM1CON         equ	4023	;# 
   160   000FB7                     ECCP1DEL        equ	4023	;# 
   161   000FB8                     BAUDCON         equ	4024	;# 
   162   000FB8                     BAUDCTL         equ	4024	;# 
   163   000FBA                     CCP2CON         equ	4026	;# 
   164   000FBB                     CCPR2           equ	4027	;# 
   165   000FBB                     CCPR2L          equ	4027	;# 
   166   000FBC                     CCPR2H          equ	4028	;# 
   167   000FBD                     CCP1CON         equ	4029	;# 
   168   000FBE                     CCPR1           equ	4030	;# 
   169   000FBE                     CCPR1L          equ	4030	;# 
   170   000FBF                     CCPR1H          equ	4031	;# 
   171   000FC0                     ADCON2          equ	4032	;# 
   172   000FC1                     ADCON1          equ	4033	;# 
   173   000FC2                     ADCON0          equ	4034	;# 
   174   000FC3                     ADRES           equ	4035	;# 
   175   000FC3                     ADRESL          equ	4035	;# 
   176   000FC4                     ADRESH          equ	4036	;# 
   177   000FC5                     SSPCON2         equ	4037	;# 
   178   000FC6                     SSPCON1         equ	4038	;# 
   179   000FC7                     SSPSTAT         equ	4039	;# 
   180   000FC8                     SSPADD          equ	4040	;# 
   181   000FC9                     SSPBUF          equ	4041	;# 
   182   000FCA                     T2CON           equ	4042	;# 
   183   000FCB                     PR2             equ	4043	;# 
   184   000FCB                     MEMCON          equ	4043	;# 
   185   000FCC                     TMR2            equ	4044	;# 
   186   000FCD                     T1CON           equ	4045	;# 
   187   000FCE                     TMR1            equ	4046	;# 
   188   000FCE                     TMR1L           equ	4046	;# 
   189   000FCF                     TMR1H           equ	4047	;# 
   190   000FD0                     RCON            equ	4048	;# 
   191   000FD1                     WDTCON          equ	4049	;# 
   192   000FD2                     HLVDCON         equ	4050	;# 
   193   000FD2                     LVDCON          equ	4050	;# 
   194   000FD3                     OSCCON          equ	4051	;# 
   195   000FD5                     T0CON           equ	4053	;# 
   196   000FD6                     TMR0            equ	4054	;# 
   197   000FD6                     TMR0L           equ	4054	;# 
   198   000FD7                     TMR0H           equ	4055	;# 
   199   000FD8                     STATUS          equ	4056	;# 
   200   000FD9                     FSR2            equ	4057	;# 
   201   000FD9                     FSR2L           equ	4057	;# 
   202   000FDA                     FSR2H           equ	4058	;# 
   203   000FDB                     PLUSW2          equ	4059	;# 
   204   000FDC                     PREINC2         equ	4060	;# 
   205   000FDD                     POSTDEC2        equ	4061	;# 
   206   000FDE                     POSTINC2        equ	4062	;# 
   207   000FDF                     INDF2           equ	4063	;# 
   208   000FE0                     BSR             equ	4064	;# 
   209   000FE1                     FSR1            equ	4065	;# 
   210   000FE1                     FSR1L           equ	4065	;# 
   211   000FE2                     FSR1H           equ	4066	;# 
   212   000FE3                     PLUSW1          equ	4067	;# 
   213   000FE4                     PREINC1         equ	4068	;# 
   214   000FE5                     POSTDEC1        equ	4069	;# 
   215   000FE6                     POSTINC1        equ	4070	;# 
   216   000FE7                     INDF1           equ	4071	;# 
   217   000FE8                     WREG            equ	4072	;# 
   218   000FE9                     FSR0            equ	4073	;# 
   219   000FE9                     FSR0L           equ	4073	;# 
   220   000FEA                     FSR0H           equ	4074	;# 
   221   000FEB                     PLUSW0          equ	4075	;# 
   222   000FEC                     PREINC0         equ	4076	;# 
   223   000FED                     POSTDEC0        equ	4077	;# 
   224   000FEE                     POSTINC0        equ	4078	;# 
   225   000FEF                     INDF0           equ	4079	;# 
   226   000FF0                     INTCON3         equ	4080	;# 
   227   000FF1                     INTCON2         equ	4081	;# 
   228   000FF2                     INTCON          equ	4082	;# 
   229   000FF3                     PROD            equ	4083	;# 
   230   000FF3                     PRODL           equ	4083	;# 
   231   000FF4                     PRODH           equ	4084	;# 
   232   000FF5                     TABLAT          equ	4085	;# 
   233   000FF6                     TBLPTR          equ	4086	;# 
   234   000FF6                     TBLPTRL         equ	4086	;# 
   235   000FF7                     TBLPTRH         equ	4087	;# 
   236   000FF8                     TBLPTRU         equ	4088	;# 
   237   000FF9                     PCLAT           equ	4089	;# 
   238   000FF9                     PC              equ	4089	;# 
   239   000FF9                     PCL             equ	4089	;# 
   240   000FFA                     PCLATH          equ	4090	;# 
   241   000FFB                     PCLATU          equ	4091	;# 
   242   000FFC                     STKPTR          equ	4092	;# 
   243   000FFD                     TOS             equ	4093	;# 
   244   000FFD                     TOSL            equ	4093	;# 
   245   000FFE                     TOSH            equ	4094	;# 
   246   000FFF                     TOSU            equ	4095	;# 
   247                           
   248                           	psect	smallconst
   249   000600                     __psmallconst:
   250                           	callstack 0
   251   000600  00                 	db	0
   252   000601                     _atanlo:
   253                           	callstack 0
   254   000601  3769               	dw	14185
   255   000603  31AC               	dw	12716
   256   000605  2168               	dw	8552
   257   000607  3322               	dw	13090
   258   000609  0FB4               	dw	4020
   259   00060B  3314               	dw	13076
   260   00060D  2168               	dw	8552
   261   00060F  33A2               	dw	13218
   262   000611                     __end_of_atanlo:
   263                           	callstack 0
   264   000611                     _atanhi:
   265                           	callstack 0
   266   000611  6338               	dw	25400
   267   000613  3EED               	dw	16109
   268   000615  0FDA               	dw	4058
   269   000617  3F49               	dw	16201
   270   000619  985E               	dw	39006
   271   00061B  3F7B               	dw	16251
   272   00061D  0FDA               	dw	4058
   273   00061F  3FC9               	dw	16329
   274   000621                     __end_of_atanhi:
   275                           	callstack 0
   276   000621  AC25               	dw	44069
   277   000623  3D7C               	dw	15740
   278   000625                     __end_of_aT4:
   279                           	callstack 0
   280   000625  1247               	dw	4679
   281   000627  BDDA               	dw	48602
   282   000629                     __end_of_aT3:
   283                           	callstack 0
   284   000629  F50D               	dw	62733
   285   00062B  3E11               	dw	15889
   286   00062D                     __end_of_aT2:
   287                           	callstack 0
   288   00062D  CA98               	dw	51864
   289   00062F  BE4C               	dw	48716
   290   000631                     __end_of_aT1:
   291                           	callstack 0
   292   000631  AAA9               	dw	43689
   293   000633  3EAA               	dw	16042
   294   000635                     __end_of_aT0:
   295                           	callstack 0
   296   000635  BD2E               	dw	48430
   297   000637  B3BB               	dw	46011
   298   000639                     __end_of_pi_lo:
   299                           	callstack 0
   300   000639  0FDB               	dw	4059
   301   00063B  4049               	dw	16457
   302   00063D                     __end_of_pi:
   303                           	callstack 0
   304   007E2C                     _ACKEN          set	32300
   305   007E2D                     _ACKDT          set	32301
   306   007E2B                     _RCEN           set	32299
   307   007E38                     _BF             set	32312
   308   007E2A                     _PEN            set	32298
   309   007E28                     _SEN            set	32296
   310   000F89                     _LATA           set	3977
   311   000F92                     _TRISA          set	3986
   312   000FC5                     _SSPCON2bits    set	4037
   313   000FC9                     _SSPBUF         set	4041
   314   000FC7                     _SSPSTAT        set	4039
   315   000FC8                     _SSPADD         set	4040
   316   000FC5                     _SSPCON2        set	4037
   317   000FC6                     _SSPCON1        set	4038
   318   000FD3                     _OSCCON         set	4051
   319   00063D  00                 	db	0	; dummy byte at the end
   320   000002                     __activetblptr  equ	2
   321                           
   322                           ; #config settings
   323                           
   324                           	psect	cinit
   325   002814                     __pcinit:
   326                           	callstack 0
   327   002814                     start_initialization:
   328                           	callstack 0
   329   002814                     __initialization:
   330                           	callstack 0
   331                           
   332                           ; Clear objects allocated to BANK0 (12 bytes)
   333   002814  EE00  F0D7         	lfsr	0,__pbssBANK0
   334   002818  0E0C               	movlw	12
   335   00281A                     clear_0:
   336   00281A  6AEE               	clrf	postinc0,c
   337   00281C  06E8               	decf	wreg,f,c
   338   00281E  E1FD               	bnz	clear_0
   339   002820                     end_of_initialization:
   340                           	callstack 0
   341   002820                     __end_of__initialization:
   342                           	callstack 0
   343   002820  0E00               	movlw	low (__Lmediumconst shr (0+16))
   344   002822  6EF8               	movwf	tblptru,c
   345   002824  0100               	movlb	0
   346   002826  EFC4  F010         	goto	_main	;jump to C main() function
   347                           
   348                           	psect	bssBANK0
   349   0000D7                     __pbssBANK0:
   350                           	callstack 0
   351   0000D7                     fabsf@F465:
   352                           	callstack 0
   353   0000D7                     	ds	4
   354   0000DB                     ___fpclassifyf@F465:
   355                           	callstack 0
   356   0000DB                     	ds	4
   357   0000DF                     _pitch_offset:
   358                           	callstack 0
   359   0000DF                     	ds	4
   360                           
   361                           	psect	cstackBANK0
   362   000080                     __pcstackBANK0:
   363                           	callstack 0
   364   000080                     _atanf$847:
   365                           	callstack 0
   366                           
   367                           ; 4 bytes @ 0x0
   368   000080                     	ds	4
   369   000084                     _atanf$849:
   370                           	callstack 0
   371                           
   372                           ; 4 bytes @ 0x4
   373   000084                     	ds	4
   374   000088                     _atanf$850:
   375                           	callstack 0
   376                           
   377                           ; 4 bytes @ 0x8
   378   000088                     	ds	4
   379   00008C                     atanf@s1:
   380                           	callstack 0
   381                           
   382                           ; 4 bytes @ 0xC
   383   00008C                     	ds	4
   384   000090                     atanf@s2:
   385                           	callstack 0
   386                           
   387                           ; 4 bytes @ 0x10
   388   000090                     	ds	4
   389   000094                     _atanf$846:
   390                           	callstack 0
   391                           
   392                           ; 4 bytes @ 0x14
   393   000094                     	ds	4
   394   000098                     _atanf$848:
   395                           	callstack 0
   396                           
   397                           ; 4 bytes @ 0x18
   398   000098                     	ds	4
   399   00009C                     atanf@sign:
   400                           	callstack 0
   401                           
   402                           ; 1 bytes @ 0x1C
   403   00009C                     	ds	1
   404   00009D                     atanf@w:
   405                           	callstack 0
   406                           
   407                           ; 4 bytes @ 0x1D
   408   00009D                     	ds	4
   409   0000A1                     atanf@id:
   410                           	callstack 0
   411                           
   412                           ; 1 bytes @ 0x21
   413   0000A1                     	ds	1
   414   0000A2                     atanf@z:
   415                           	callstack 0
   416                           
   417                           ; 4 bytes @ 0x22
   418   0000A2                     	ds	4
   419   0000A6                     atanf@ix:
   420                           	callstack 0
   421                           
   422                           ; 4 bytes @ 0x26
   423   0000A6                     	ds	4
   424   0000AA                     _atan2f$843:
   425                           	callstack 0
   426                           
   427                           ; 4 bytes @ 0x2A
   428   0000AA                     	ds	4
   429   0000AE                     _atan2f$844:
   430                           	callstack 0
   431                           
   432                           ; 4 bytes @ 0x2E
   433   0000AE                     	ds	4
   434   0000B2                     _atan2f$845:
   435                           	callstack 0
   436                           
   437                           ; 4 bytes @ 0x32
   438   0000B2                     	ds	4
   439   0000B6                     atan2f@z:
   440                           	callstack 0
   441                           
   442                           ; 4 bytes @ 0x36
   443   0000B6                     	ds	4
   444   0000BA                     atan2f@ix:
   445                           	callstack 0
   446                           
   447                           ; 4 bytes @ 0x3A
   448   0000BA                     	ds	4
   449   0000BE                     atan2f@iy:
   450                           	callstack 0
   451                           
   452                           ; 4 bytes @ 0x3E
   453   0000BE                     	ds	4
   454   0000C2                     atan2f@m:
   455                           	callstack 0
   456                           
   457                           ; 1 bytes @ 0x42
   458   0000C2                     	ds	1
   459   0000C3                     ?_calculate_angle:
   460                           	callstack 0
   461   0000C3                     calculate_angle@accX:
   462                           	callstack 0
   463                           
   464                           ; 2 bytes @ 0x43
   465   0000C3                     	ds	2
   466   0000C5                     calculate_angle@accZ:
   467                           	callstack 0
   468                           
   469                           ; 2 bytes @ 0x45
   470   0000C5                     	ds	2
   471   0000C7                     _main$840:
   472                           	callstack 0
   473                           
   474                           ; 4 bytes @ 0x47
   475   0000C7                     	ds	4
   476   0000CB                     main@accX:
   477                           	callstack 0
   478                           
   479                           ; 2 bytes @ 0x4B
   480   0000CB                     	ds	2
   481   0000CD                     main@accZ:
   482                           	callstack 0
   483                           
   484                           ; 2 bytes @ 0x4D
   485   0000CD                     	ds	2
   486   0000CF                     main@accX_high:
   487                           	callstack 0
   488                           
   489                           ; 1 bytes @ 0x4F
   490   0000CF                     	ds	1
   491   0000D0                     main@accX_low:
   492                           	callstack 0
   493                           
   494                           ; 1 bytes @ 0x50
   495   0000D0                     	ds	1
   496   0000D1                     main@accZ_high:
   497                           	callstack 0
   498                           
   499                           ; 1 bytes @ 0x51
   500   0000D1                     	ds	1
   501   0000D2                     main@accZ_low:
   502                           	callstack 0
   503                           
   504                           ; 1 bytes @ 0x52
   505   0000D2                     	ds	1
   506   0000D3                     main@angle:
   507                           	callstack 0
   508                           
   509                           ; 4 bytes @ 0x53
   510   0000D3                     	ds	4
   511                           
   512                           	psect	cstackCOMRAM
   513   000001                     __pcstackCOMRAM:
   514                           	callstack 0
   515   000001                     ?___fpclassifyf:
   516                           	callstack 0
   517   000001                     ?___flneg:
   518                           	callstack 0
   519   000001                     ?___xxtofl:
   520                           	callstack 0
   521   000001                     I2C_Write@data:
   522                           	callstack 0
   523   000001                     I2C_Read@ack:
   524                           	callstack 0
   525   000001                     ___flge@ff1:
   526                           	callstack 0
   527   000001                     ___flneg@f1:
   528                           	callstack 0
   529   000001                     ___xxtofl@val:
   530                           	callstack 0
   531   000001                     ___fpclassifyf@x:
   532                           	callstack 0
   533   000001                     
   534                           ; 1 bytes @ 0x0
   535   000001                     	ds	1
   536   000002                     I2C_Read@data:
   537                           	callstack 0
   538                           
   539                           ; 1 bytes @ 0x1
   540   000002                     	ds	3
   541   000005                     ___flge@ff2:
   542                           	callstack 0
   543   000005                     ??___fpclassifyf:
   544   000005                     ??___xxtofl:
   545                           
   546                           ; 1 bytes @ 0x4
   547   000005                     	ds	4
   548   000009                     ___xxtofl@sign:
   549                           	callstack 0
   550   000009                     ___fpclassifyf@e:
   551                           	callstack 0
   552   000009                     ??___flge:
   553                           
   554                           ; 1 bytes @ 0x8
   555   000009                     	ds	1
   556   00000A                     ___xxtofl@exp:
   557                           	callstack 0
   558                           
   559                           ; 1 bytes @ 0x9
   560   00000A                     	ds	1
   561   00000B                     ___xxtofl@arg:
   562                           	callstack 0
   563   00000B                     ___fpclassifyf@u:
   564                           	callstack 0
   565                           
   566                           ; 4 bytes @ 0xA
   567   00000B                     	ds	4
   568   00000F                     ?___flmul:
   569                           	callstack 0
   570   00000F                     ___flmul@b:
   571                           	callstack 0
   572                           
   573                           ; 4 bytes @ 0xE
   574   00000F                     	ds	4
   575   000013                     ___flmul@a:
   576                           	callstack 0
   577                           
   578                           ; 4 bytes @ 0x12
   579   000013                     	ds	4
   580   000017                     ??___flmul:
   581                           
   582                           ; 1 bytes @ 0x16
   583   000017                     	ds	4
   584   00001B                     ___flmul@sign:
   585                           	callstack 0
   586                           
   587                           ; 1 bytes @ 0x1A
   588   00001B                     	ds	1
   589   00001C                     ___flmul@grs:
   590                           	callstack 0
   591                           
   592                           ; 4 bytes @ 0x1B
   593   00001C                     	ds	4
   594   000020                     ___flmul@aexp:
   595                           	callstack 0
   596                           
   597                           ; 1 bytes @ 0x1F
   598   000020                     	ds	1
   599   000021                     ___flmul@bexp:
   600                           	callstack 0
   601                           
   602                           ; 1 bytes @ 0x20
   603   000021                     	ds	1
   604   000022                     ___flmul@prod:
   605                           	callstack 0
   606                           
   607                           ; 4 bytes @ 0x21
   608   000022                     	ds	4
   609   000026                     ___flmul@temp:
   610                           	callstack 0
   611                           
   612                           ; 2 bytes @ 0x25
   613   000026                     	ds	2
   614   000028                     ?___fladd:
   615                           	callstack 0
   616   000028                     ___fladd@b:
   617                           	callstack 0
   618                           
   619                           ; 4 bytes @ 0x27
   620   000028                     	ds	4
   621   00002C                     ___fladd@a:
   622                           	callstack 0
   623                           
   624                           ; 4 bytes @ 0x2B
   625   00002C                     	ds	4
   626   000030                     ??___fladd:
   627                           
   628                           ; 1 bytes @ 0x2F
   629   000030                     	ds	4
   630   000034                     ___fladd@signs:
   631                           	callstack 0
   632                           
   633                           ; 1 bytes @ 0x33
   634   000034                     	ds	1
   635   000035                     ___fladd@aexp:
   636                           	callstack 0
   637                           
   638                           ; 1 bytes @ 0x34
   639   000035                     	ds	1
   640   000036                     ___fladd@bexp:
   641                           	callstack 0
   642                           
   643                           ; 1 bytes @ 0x35
   644   000036                     	ds	1
   645   000037                     ___fladd@grs:
   646                           	callstack 0
   647                           
   648                           ; 1 bytes @ 0x36
   649   000037                     	ds	1
   650   000038                     ?___fldiv:
   651                           	callstack 0
   652   000038                     ?___flsub:
   653                           	callstack 0
   654   000038                     ___flsub@b:
   655                           	callstack 0
   656   000038                     ___fldiv@b:
   657                           	callstack 0
   658                           
   659                           ; 4 bytes @ 0x37
   660   000038                     	ds	4
   661   00003C                     ___flsub@a:
   662                           	callstack 0
   663   00003C                     ___fldiv@a:
   664                           	callstack 0
   665                           
   666                           ; 4 bytes @ 0x3B
   667   00003C                     	ds	4
   668   000040                     ??___fldiv:
   669   000040                     
   670                           ; 1 bytes @ 0x3F
   671   000040                     	ds	4
   672   000044                     ___fldiv@rem:
   673                           	callstack 0
   674                           
   675                           ; 4 bytes @ 0x43
   676   000044                     	ds	4
   677   000048                     ___fldiv@sign:
   678                           	callstack 0
   679                           
   680                           ; 1 bytes @ 0x47
   681   000048                     	ds	1
   682   000049                     ___fldiv@new_exp:
   683                           	callstack 0
   684                           
   685                           ; 2 bytes @ 0x48
   686   000049                     	ds	2
   687   00004B                     ___fldiv@grs:
   688                           	callstack 0
   689                           
   690                           ; 4 bytes @ 0x4A
   691   00004B                     	ds	4
   692   00004F                     ___fldiv@bexp:
   693                           	callstack 0
   694                           
   695                           ; 1 bytes @ 0x4E
   696   00004F                     	ds	1
   697   000050                     ___fldiv@aexp:
   698                           	callstack 0
   699                           
   700                           ; 1 bytes @ 0x4F
   701   000050                     	ds	1
   702   000051                     ?_fabsf:
   703                           	callstack 0
   704   000051                     fabsf@x:
   705                           	callstack 0
   706                           
   707                           ; 4 bytes @ 0x50
   708   000051                     	ds	4
   709   000055                     fabsf@u:
   710                           	callstack 0
   711   000055                     
   712                           ; 1 bytes @ 0x54
   713   000055                     	ds	4
   714   000059                     ?_atanf:
   715                           	callstack 0
   716   000059                     atanf@x:
   717                           	callstack 0
   718                           
   719                           ; 4 bytes @ 0x58
   720   000059                     	ds	4
   721   00005D                     ??_atanf:
   722                           
   723                           ; 1 bytes @ 0x5C
   724   00005D                     	ds	1
   725   00005E                     ?_atan2f:
   726                           	callstack 0
   727   00005E                     atan2f@y:
   728                           	callstack 0
   729                           
   730                           ; 4 bytes @ 0x5D
   731   00005E                     	ds	4
   732   000062                     atan2f@x:
   733                           	callstack 0
   734                           
   735                           ; 4 bytes @ 0x61
   736   000062                     	ds	4
   737   000066                     ??_atan2f:
   738                           
   739                           ; 1 bytes @ 0x65
   740   000066                     	ds	8
   741   00006E                     _calculate_angle$841:
   742                           	callstack 0
   743   00006E                     ??_Calibration:
   744   00006E                     
   745                           ; 1 bytes @ 0x6D
   746   00006E                     	ds	2
   747   000070                     _Calibration$842:
   748                           	callstack 0
   749                           
   750                           ; 4 bytes @ 0x6F
   751   000070                     	ds	4
   752   000074                     Calibration@accX:
   753                           	callstack 0
   754                           
   755                           ; 2 bytes @ 0x73
   756   000074                     	ds	2
   757   000076                     Calibration@accZ:
   758                           	callstack 0
   759                           
   760                           ; 2 bytes @ 0x75
   761   000076                     	ds	2
   762   000078                     Calibration@accX_high:
   763                           	callstack 0
   764                           
   765                           ; 1 bytes @ 0x77
   766   000078                     	ds	1
   767   000079                     Calibration@accX_low:
   768                           	callstack 0
   769                           
   770                           ; 1 bytes @ 0x78
   771   000079                     	ds	1
   772   00007A                     Calibration@accZ_high:
   773                           	callstack 0
   774                           
   775                           ; 1 bytes @ 0x79
   776   00007A                     	ds	1
   777   00007B                     Calibration@accZ_low:
   778                           	callstack 0
   779                           
   780                           ; 1 bytes @ 0x7A
   781   00007B                     	ds	1
   782   00007C                     ??_main:
   783                           
   784                           ; 1 bytes @ 0x7B
   785   00007C                     	ds	2
   786                           
   787 ;;
   788 ;;Main: autosize = 0, tempsize = 2, incstack = 0, save=0
   789 ;;
   790 ;; *************** function _main *****************
   791 ;; Defined at:
   792 ;;		line 34 in file "main.c"
   793 ;; Parameters:    Size  Location     Type
   794 ;;		None
   795 ;; Auto vars:     Size  Location     Type
   796 ;;  angle           4   83[BANK0 ] float 
   797 ;;  accZ            2   77[BANK0 ] short 
   798 ;;  accX            2   75[BANK0 ] short 
   799 ;;  accZ_low        1   82[BANK0 ] unsigned char 
   800 ;;  accZ_high       1   81[BANK0 ] unsigned char 
   801 ;;  accX_low        1   80[BANK0 ] unsigned char 
   802 ;;  accX_high       1   79[BANK0 ] unsigned char 
   803 ;; Return value:  Size  Location     Type
   804 ;;                  1    wreg      void 
   805 ;; Registers used:
   806 ;;		wreg, status,2, status,0, tblptrl, tblptrh, tblptru, prodl, prodh, cstack
   807 ;; Tracked objects:
   808 ;;		On entry : 0/0
   809 ;;		On exit  : 0/0
   810 ;;		Unchanged: 0/0
   811 ;; Data sizes:     COMRAM   BANK0   BANK1   BANK2   BANK3   BANK4   BANK5
   812 ;;      Params:         0       0       0       0       0       0       0
   813 ;;      Locals:         0      16       0       0       0       0       0
   814 ;;      Temps:          2       0       0       0       0       0       0
   815 ;;      Totals:         2      16       0       0       0       0       0
   816 ;;Total ram usage:       18 bytes
   817 ;; Hardware stack levels required when called: 5
   818 ;; This function calls:
   819 ;;		_Calibration
   820 ;;		_I2C_Init
   821 ;;		_I2C_Read
   822 ;;		_I2C_Start
   823 ;;		_I2C_Stop
   824 ;;		_I2C_Write
   825 ;;		___flge
   826 ;;		___flsub
   827 ;;		_calculate_angle
   828 ;; This function is called by:
   829 ;;		Startup code after reset
   830 ;; This function uses a non-reentrant model
   831 ;;
   832                           
   833                           	psect	text0
   834   002188                     __ptext0:
   835                           	callstack 0
   836   002188                     _main:
   837                           	callstack 26
   838   002188                     
   839                           ;main.c: 35:     I2C_Stop();
   840   002188  0E60               	movlw	96
   841   00218A  6ED3               	movwf	211,c	;volatile
   842   00218C                     
   843                           ;main.c: 36: ;main.c: 37: ;main.c: 38:     TRISA = 0x00;;main.c: 41: 
   844   00218C  EC27  F014         	call	_I2C_Init	;wreg free
   845   002190                     
   846                           ;main.c: 42: 
   847   002190  0E82               	movlw	130
   848   002192  6E7C               	movwf	??_main^0,c
   849   002194  0EDE               	movlw	222
   850   002196                     u2837:
   851   002196  2EE8               	decfsz	wreg,f,c
   852   002198  D7FE               	bra	u2837
   853   00219A  2E7C               	decfsz	??_main^0,f,c
   854   00219C  D7FC               	bra	u2837
   855   00219E                     
   856                           ;main.c: 45:         I2C_Start();
   857   00219E  EC1E  F014         	call	_I2C_Start	;wreg free
   858   0021A2                     
   859                           ;main.c: 46:         I2C_Write(0x68 << 1);
   860   0021A2  0ED0               	movlw	208
   861   0021A4  ECF8  F013         	call	_I2C_Write
   862   0021A8                     
   863                           ;main.c: 47:         I2C_Write(0x3B);
   864   0021A8  0E6B               	movlw	107
   865   0021AA  ECF8  F013         	call	_I2C_Write
   866   0021AE                     
   867                           ;main.c: 48:         I2C_Start();
   868   0021AE  0E00               	movlw	0
   869   0021B0  ECF8  F013         	call	_I2C_Write
   870                           
   871                           ;main.c: 49:         I2C_Write((0x68 << 1) | 1);
   872   0021B4  EC15  F014         	call	_I2C_Stop	;wreg free
   873   0021B8                     
   874                           ;main.c: 52:         accX_low = I2C_Read(1);
   875   0021B8  6A92               	clrf	146,c	;volatile
   876   0021BA                     
   877                           ;main.c: 53:         accZ_high = I2C_Read(1);
   878   0021BA  6A89               	clrf	137,c	;volatile
   879   0021BC                     
   880                           ;main.c: 54:         accZ_low = I2C_Read(0);
   881   0021BC  EC8C  F011         	call	_Calibration	;wreg free
   882   0021C0                     l2640:
   883                           
   884                           ;main.c: 59:         accZ = (accZ_high << 8) | accZ_low;
   885   0021C0  EC1E  F014         	call	_I2C_Start	;wreg free
   886   0021C4                     
   887                           ;main.c: 60: 
   888   0021C4  0ED0               	movlw	208
   889   0021C6  ECF8  F013         	call	_I2C_Write
   890   0021CA                     
   891                           ;main.c: 61: 
   892   0021CA  0E3B               	movlw	59
   893   0021CC  ECF8  F013         	call	_I2C_Write
   894   0021D0                     
   895                           ;main.c: 62:         angle = calculate_angle(accX, accZ) - pitch_offset;
   896   0021D0  EC1E  F014         	call	_I2C_Start	;wreg free
   897   0021D4                     
   898                           ;main.c: 63: 
   899   0021D4  0ED1               	movlw	209
   900   0021D6  ECF8  F013         	call	_I2C_Write
   901   0021DA                     
   902                           ;main.c: 65:         if (angle > 45.0) {
   903   0021DA  0E01               	movlw	1
   904   0021DC  ECA3  F013         	call	_I2C_Read
   905   0021E0  0100               	movlb	0	; () banked
   906   0021E2  6FCF               	movwf	main@accX_high& (0+255),b
   907   0021E4                     
   908                           ; BSR set to: 0
   909                           ;main.c: 66:             LATA = 0x01;
   910   0021E4  0E01               	movlw	1
   911   0021E6  ECA3  F013         	call	_I2C_Read
   912   0021EA  0100               	movlb	0	; () banked
   913   0021EC  6FD0               	movwf	main@accX_low& (0+255),b
   914   0021EE                     
   915                           ; BSR set to: 0
   916                           ;main.c: 67:         } else if (angle < -45.0) {
   917   0021EE  0E01               	movlw	1
   918   0021F0  ECA3  F013         	call	_I2C_Read
   919   0021F4  0100               	movlb	0	; () banked
   920   0021F6  6FD1               	movwf	main@accZ_high& (0+255),b
   921   0021F8                     
   922                           ; BSR set to: 0
   923                           ;main.c: 68:             LATA = 0x02;
   924   0021F8  0E00               	movlw	0
   925   0021FA  ECA3  F013         	call	_I2C_Read
   926   0021FE  0100               	movlb	0	; () banked
   927   002200  6FD2               	movwf	main@accZ_low& (0+255),b
   928   002202                     
   929                           ; BSR set to: 0
   930                           ;main.c: 69:         } else {
   931   002202  EC15  F014         	call	_I2C_Stop	;wreg free
   932   002206                     
   933                           ;main.c: 72: 
   934   002206  0100               	movlb	0	; () banked
   935   002208  51D0               	movf	main@accX_low& (0+255),w,b
   936   00220A  C0CF  F07C         	movff	main@accX_high,??_main
   937   00220E  6A7D               	clrf	(??_main+1)^0,c
   938   002210  C07C  F07D         	movff	??_main,??_main+1
   939   002214  6A7C               	clrf	??_main^0,c
   940   002216  107C               	iorwf	??_main^0,w,c
   941   002218  6FCB               	movwf	main@accX& (0+255),b
   942   00221A  507D               	movf	(??_main+1)^0,w,c
   943   00221C  6FCC               	movwf	(main@accX+1)& (0+255),b
   944   00221E                     
   945                           ; BSR set to: 0
   946                           ;main.c: 73:         _delay((unsigned long)((100)*(4000000/4000.0)));
   947   00221E  51D2               	movf	main@accZ_low& (0+255),w,b
   948   002220  C0D1  F07C         	movff	main@accZ_high,??_main
   949   002224  6A7D               	clrf	(??_main+1)^0,c
   950   002226  C07C  F07D         	movff	??_main,??_main+1
   951   00222A  6A7C               	clrf	??_main^0,c
   952   00222C  107C               	iorwf	??_main^0,w,c
   953   00222E  6FCD               	movwf	main@accZ& (0+255),b
   954   002230  507D               	movf	(??_main+1)^0,w,c
   955   002232  6FCE               	movwf	(main@accZ+1)& (0+255),b
   956   002234                     
   957                           ; BSR set to: 0
   958                           ;main.c: 76: 
   959   002234  C0CD  F0C5         	movff	main@accZ,calculate_angle@accZ
   960   002238  C0CE  F0C6         	movff	main@accZ+1,calculate_angle@accZ+1
   961   00223C  C0CB  F0C3         	movff	main@accX,calculate_angle@accX
   962   002240  C0CC  F0C4         	movff	main@accX+1,calculate_angle@accX+1
   963   002244  EC21  F013         	call	_calculate_angle	;wreg free
   964   002248  C0C3  F0C7         	movff	?_calculate_angle,_main$840
   965   00224C  C0C4  F0C8         	movff	?_calculate_angle+1,_main$840+1
   966   002250  C0C5  F0C9         	movff	?_calculate_angle+2,_main$840+2
   967   002254  C0C6  F0CA         	movff	?_calculate_angle+3,_main$840+3
   968   002258                     
   969                           ;main.c: 76: 
   970   002258  C0C7  F038         	movff	_main$840,___flsub@b
   971   00225C  C0C8  F039         	movff	_main$840+1,___flsub@b+1
   972   002260  C0C9  F03A         	movff	_main$840+2,___flsub@b+2
   973   002264  C0CA  F03B         	movff	_main$840+3,___flsub@b+3
   974   002268  C0DF  F03C         	movff	_pitch_offset,___flsub@a
   975   00226C  C0E0  F03D         	movff	_pitch_offset+1,___flsub@a+1
   976   002270  C0E1  F03E         	movff	_pitch_offset+2,___flsub@a+2
   977   002274  C0E2  F03F         	movff	_pitch_offset+3,___flsub@a+3
   978   002278  EC80  F013         	call	___flsub	;wreg free
   979   00227C  C038  F0D3         	movff	?___flsub,main@angle
   980   002280  C039  F0D4         	movff	?___flsub+1,main@angle+1
   981   002284  C03A  F0D5         	movff	?___flsub+2,main@angle+2
   982   002288  C03B  F0D6         	movff	?___flsub+3,main@angle+3
   983   00228C                     
   984                           ;main.c: 79:     return atan2f((float)(accX - 0),(float)(accZ - 0)) * 180.0 / 3.14159265
      +                          358979323846;
   985   00228C  0E00               	movlw	0
   986   00228E  6E01               	movwf	___flge@ff1^0,c
   987   002290  0E00               	movlw	0
   988   002292  6E02               	movwf	(___flge@ff1+1)^0,c
   989   002294  0E34               	movlw	52
   990   002296  6E03               	movwf	(___flge@ff1+2)^0,c
   991   002298  0E42               	movlw	66
   992   00229A  6E04               	movwf	(___flge@ff1+3)^0,c
   993   00229C  C0D3  F005         	movff	main@angle,___flge@ff2
   994   0022A0  C0D4  F006         	movff	main@angle+1,___flge@ff2+1
   995   0022A4  C0D5  F007         	movff	main@angle+2,___flge@ff2+2
   996   0022A8  C0D6  F008         	movff	main@angle+3,___flge@ff2+3
   997   0022AC  EC20  F012         	call	___flge	;wreg free
   998   0022B0  B0D8               	btfsc	status,0,c
   999   0022B2  EF5D  F011         	goto	u2811
  1000   0022B6  EF5F  F011         	goto	u2810
  1001   0022BA                     u2811:
  1002   0022BA  EF63  F011         	goto	l2672
  1003   0022BE                     u2810:
  1004   0022BE                     
  1005                           ;main.c: 80: }
  1006   0022BE  0E01               	movlw	1
  1007   0022C0  6E89               	movwf	137,c	;volatile
  1008                           
  1009                           ;main.c: 81: 
  1010   0022C2  EF81  F011         	goto	l2676
  1011   0022C6                     l2672:
  1012   0022C6  C0D3  F001         	movff	main@angle,___flge@ff1
  1013   0022CA  C0D4  F002         	movff	main@angle+1,___flge@ff1+1
  1014   0022CE  C0D5  F003         	movff	main@angle+2,___flge@ff1+2
  1015   0022D2  C0D6  F004         	movff	main@angle+3,___flge@ff1+3
  1016   0022D6  0E00               	movlw	0
  1017   0022D8  6E05               	movwf	___flge@ff2^0,c
  1018   0022DA  0E00               	movlw	0
  1019   0022DC  6E06               	movwf	(___flge@ff2+1)^0,c
  1020   0022DE  0E34               	movlw	52
  1021   0022E0  6E07               	movwf	(___flge@ff2+2)^0,c
  1022   0022E2  0EC2               	movlw	194
  1023   0022E4  6E08               	movwf	(___flge@ff2+3)^0,c
  1024   0022E6  EC20  F012         	call	___flge	;wreg free
  1025   0022EA  B0D8               	btfsc	status,0,c
  1026   0022EC  EF7A  F011         	goto	u2821
  1027   0022F0  EF7C  F011         	goto	u2820
  1028   0022F4                     u2821:
  1029   0022F4  EF80  F011         	goto	l58
  1030   0022F8                     u2820:
  1031   0022F8                     
  1032                           ;main.c: 82: 
  1033   0022F8  0E02               	movlw	2
  1034   0022FA  6E89               	movwf	137,c	;volatile
  1035                           
  1036                           ;main.c: 83: void I2C_Init(void) {
  1037   0022FC  EF81  F011         	goto	l2676
  1038   002300                     l58:
  1039                           
  1040                           ;main.c: 84:     SSPCON1 = 0x28;
  1041   002300  6A89               	clrf	137,c	;volatile
  1042   002302                     l2676:
  1043                           
  1044                           ;main.c: 87:     SSPADD = 9;
  1045   002302  0E82               	movlw	130
  1046   002304  6E7C               	movwf	??_main^0,c
  1047   002306  0EDE               	movlw	222
  1048   002308                     u2847:
  1049   002308  2EE8               	decfsz	wreg,f,c
  1050   00230A  D7FE               	bra	u2847
  1051   00230C  2E7C               	decfsz	??_main^0,f,c
  1052   00230E  D7FC               	bra	u2847
  1053   002310  EFE0  F010         	goto	l2640
  1054   002314  EF00  F000         	goto	start
  1055   002318                     __end_of_main:
  1056                           	callstack 0
  1057                           
  1058 ;; *************** function _calculate_angle *****************
  1059 ;; Defined at:
  1060 ;;		line 92 in file "main.c"
  1061 ;; Parameters:    Size  Location     Type
  1062 ;;  accX            2   67[BANK0 ] short 
  1063 ;;  accZ            2   69[BANK0 ] short 
  1064 ;; Auto vars:     Size  Location     Type
  1065 ;;		None
  1066 ;; Return value:  Size  Location     Type
  1067 ;;                  4   67[BANK0 ] float 
  1068 ;; Registers used:
  1069 ;;		wreg, status,2, status,0, tblptrl, tblptrh, tblptru, prodl, prodh, cstack
  1070 ;; Tracked objects:
  1071 ;;		On entry : 0/0
  1072 ;;		On exit  : 0/0
  1073 ;;		Unchanged: 0/0
  1074 ;; Data sizes:     COMRAM   BANK0   BANK1   BANK2   BANK3   BANK4   BANK5
  1075 ;;      Params:         0       4       0       0       0       0       0
  1076 ;;      Locals:         4       0       0       0       0       0       0
  1077 ;;      Temps:          0       0       0       0       0       0       0
  1078 ;;      Totals:         4       4       0       0       0       0       0
  1079 ;;Total ram usage:        8 bytes
  1080 ;; Hardware stack levels used: 1
  1081 ;; Hardware stack levels required when called: 4
  1082 ;; This function calls:
  1083 ;;		___fldiv
  1084 ;;		___flmul
  1085 ;;		___xxtofl
  1086 ;;		_atan2f
  1087 ;; This function is called by:
  1088 ;;		_main
  1089 ;; This function uses a non-reentrant model
  1090 ;;
  1091                           
  1092                           	psect	text1
  1093   002642                     __ptext1:
  1094                           	callstack 0
  1095   002642                     _calculate_angle:
  1096                           	callstack 26
  1097   002642                     
  1098                           ;main.c: 93:     SEN = 1;
  1099   002642  C0C5  F001         	movff	calculate_angle@accZ,___xxtofl@val
  1100   002646  C0C6  F002         	movff	calculate_angle@accZ+1,___xxtofl@val+1
  1101   00264A  0E00               	movlw	0
  1102   00264C  BE02               	btfsc	(___xxtofl@val+1)^0,7,c
  1103   00264E  0EFF               	movlw	-1
  1104   002650  6E03               	movwf	(___xxtofl@val+2)^0,c
  1105   002652  6E04               	movwf	(___xxtofl@val+3)^0,c
  1106   002654  0E01               	movlw	1
  1107   002656  ECEA  F00F         	call	___xxtofl
  1108   00265A  C001  F062         	movff	?___xxtofl,atan2f@x
  1109   00265E  C002  F063         	movff	?___xxtofl+1,atan2f@x+1
  1110   002662  C003  F064         	movff	?___xxtofl+2,atan2f@x+2
  1111   002666  C004  F065         	movff	?___xxtofl+3,atan2f@x+3
  1112   00266A  C0C3  F001         	movff	calculate_angle@accX,___xxtofl@val
  1113   00266E  C0C4  F002         	movff	calculate_angle@accX+1,___xxtofl@val+1
  1114   002672  0E00               	movlw	0
  1115   002674  BE02               	btfsc	(___xxtofl@val+1)^0,7,c
  1116   002676  0EFF               	movlw	-1
  1117   002678  6E03               	movwf	(___xxtofl@val+2)^0,c
  1118   00267A  6E04               	movwf	(___xxtofl@val+3)^0,c
  1119   00267C  0E01               	movlw	1
  1120   00267E  ECEA  F00F         	call	___xxtofl
  1121   002682  C001  F05E         	movff	?___xxtofl,atan2f@y
  1122   002686  C002  F05F         	movff	?___xxtofl+1,atan2f@y+1
  1123   00268A  C003  F060         	movff	?___xxtofl+2,atan2f@y+2
  1124   00268E  C004  F061         	movff	?___xxtofl+3,atan2f@y+3
  1125   002692  ECD6  F006         	call	_atan2f	;wreg free
  1126   002696  C05E  F06E         	movff	?_atan2f,_calculate_angle$841
  1127   00269A  C05F  F06F         	movff	?_atan2f+1,_calculate_angle$841+1
  1128   00269E  C060  F070         	movff	?_atan2f+2,_calculate_angle$841+2
  1129   0026A2  C061  F071         	movff	?_atan2f+3,_calculate_angle$841+3
  1130   0026A6                     
  1131                           ;main.c: 93:     SEN = 1;
  1132   0026A6  0E00               	movlw	0
  1133   0026A8  6E13               	movwf	___flmul@a^0,c
  1134   0026AA  0E00               	movlw	0
  1135   0026AC  6E14               	movwf	(___flmul@a+1)^0,c
  1136   0026AE  0E34               	movlw	52
  1137   0026B0  6E15               	movwf	(___flmul@a+2)^0,c
  1138   0026B2  0E43               	movlw	67
  1139   0026B4  6E16               	movwf	(___flmul@a+3)^0,c
  1140   0026B6  C06E  F00F         	movff	_calculate_angle$841,___flmul@b
  1141   0026BA  C06F  F010         	movff	_calculate_angle$841+1,___flmul@b+1
  1142   0026BE  C070  F011         	movff	_calculate_angle$841+2,___flmul@b+2
  1143   0026C2  C071  F012         	movff	_calculate_angle$841+3,___flmul@b+3
  1144   0026C6  EC0F  F00C         	call	___flmul	;wreg free
  1145   0026CA  C00F  F038         	movff	?___flmul,___fldiv@b
  1146   0026CE  C010  F039         	movff	?___flmul+1,___fldiv@b+1
  1147   0026D2  C011  F03A         	movff	?___flmul+2,___fldiv@b+2
  1148   0026D6  C012  F03B         	movff	?___flmul+3,___fldiv@b+3
  1149   0026DA  0EDB               	movlw	219
  1150   0026DC  6E3C               	movwf	___fldiv@a^0,c
  1151   0026DE  0E0F               	movlw	15
  1152   0026E0  6E3D               	movwf	(___fldiv@a+1)^0,c
  1153   0026E2  0E49               	movlw	73
  1154   0026E4  6E3E               	movwf	(___fldiv@a+2)^0,c
  1155   0026E6  0E40               	movlw	64
  1156   0026E8  6E3F               	movwf	(___fldiv@a+3)^0,c
  1157   0026EA  EC22  F00E         	call	___fldiv	;wreg free
  1158   0026EE  C038  F0C3         	movff	?___fldiv,?_calculate_angle
  1159   0026F2  C039  F0C4         	movff	?___fldiv+1,?_calculate_angle+1
  1160   0026F6  C03A  F0C5         	movff	?___fldiv+2,?_calculate_angle+2
  1161   0026FA  C03B  F0C6         	movff	?___fldiv+3,?_calculate_angle+3
  1162   0026FE  0012               	return		;funcret
  1163   002700                     __end_of_calculate_angle:
  1164                           	callstack 0
  1165                           
  1166 ;; *************** function ___flge *****************
  1167 ;; Defined at:
  1168 ;;		line 4 in file "C:\Program Files\Microchip\xc8\v2.50\pic\sources\c99\common\flge.c"
  1169 ;; Parameters:    Size  Location     Type
  1170 ;;  ff1             4    0[COMRAM] float 
  1171 ;;  ff2             4    4[COMRAM] float 
  1172 ;; Auto vars:     Size  Location     Type
  1173 ;;		None
  1174 ;; Return value:  Size  Location     Type
  1175 ;;		None               void
  1176 ;; Registers used:
  1177 ;;		wreg, status,2, status,0
  1178 ;; Tracked objects:
  1179 ;;		On entry : 0/0
  1180 ;;		On exit  : 0/0
  1181 ;;		Unchanged: 0/0
  1182 ;; Data sizes:     COMRAM   BANK0   BANK1   BANK2   BANK3   BANK4   BANK5
  1183 ;;      Params:         8       0       0       0       0       0       0
  1184 ;;      Locals:         0       0       0       0       0       0       0
  1185 ;;      Temps:          4       0       0       0       0       0       0
  1186 ;;      Totals:        12       0       0       0       0       0       0
  1187 ;;Total ram usage:       12 bytes
  1188 ;; Hardware stack levels used: 1
  1189 ;; This function calls:
  1190 ;;		Nothing
  1191 ;; This function is called by:
  1192 ;;		_main
  1193 ;; This function uses a non-reentrant model
  1194 ;;
  1195                           
  1196                           	psect	text2
  1197   002440                     __ptext2:
  1198                           	callstack 0
  1199   002440                     ___flge:
  1200                           	callstack 30
  1201   002440  0E00               	movlw	0
  1202   002442  1401               	andwf	___flge@ff1^0,w,c
  1203   002444  6E09               	movwf	??___flge^0,c
  1204   002446  0E00               	movlw	0
  1205   002448  1402               	andwf	(___flge@ff1+1)^0,w,c
  1206   00244A  6E0A               	movwf	(??___flge+1)^0,c
  1207   00244C  0E80               	movlw	128
  1208   00244E  1403               	andwf	(___flge@ff1+2)^0,w,c
  1209   002450  6E0B               	movwf	(??___flge+2)^0,c
  1210   002452  0E7F               	movlw	127
  1211   002454  1404               	andwf	(___flge@ff1+3)^0,w,c
  1212   002456  6E0C               	movwf	(??___flge+3)^0,c
  1213   002458  5009               	movf	??___flge^0,w,c
  1214   00245A  100A               	iorwf	(??___flge+1)^0,w,c
  1215   00245C  100B               	iorwf	(??___flge+2)^0,w,c
  1216   00245E  100C               	iorwf	(??___flge+3)^0,w,c
  1217   002460  A4D8               	btfss	status,2,c
  1218   002462  EF35  F012         	goto	u2761
  1219   002466  EF37  F012         	goto	u2760
  1220   00246A                     u2761:
  1221   00246A  EF3F  F012         	goto	l2602
  1222   00246E                     u2760:
  1223   00246E  0E00               	movlw	0
  1224   002470  6E01               	movwf	___flge@ff1^0,c
  1225   002472  0E00               	movlw	0
  1226   002474  6E02               	movwf	(___flge@ff1+1)^0,c
  1227   002476  0E00               	movlw	0
  1228   002478  6E03               	movwf	(___flge@ff1+2)^0,c
  1229   00247A  0E00               	movlw	0
  1230   00247C  6E04               	movwf	(___flge@ff1+3)^0,c
  1231   00247E                     l2602:
  1232   00247E  0E00               	movlw	0
  1233   002480  1405               	andwf	___flge@ff2^0,w,c
  1234   002482  6E09               	movwf	??___flge^0,c
  1235   002484  0E00               	movlw	0
  1236   002486  1406               	andwf	(___flge@ff2+1)^0,w,c
  1237   002488  6E0A               	movwf	(??___flge+1)^0,c
  1238   00248A  0E80               	movlw	128
  1239   00248C  1407               	andwf	(___flge@ff2+2)^0,w,c
  1240   00248E  6E0B               	movwf	(??___flge+2)^0,c
  1241   002490  0E7F               	movlw	127
  1242   002492  1408               	andwf	(___flge@ff2+3)^0,w,c
  1243   002494  6E0C               	movwf	(??___flge+3)^0,c
  1244   002496  5009               	movf	??___flge^0,w,c
  1245   002498  100A               	iorwf	(??___flge+1)^0,w,c
  1246   00249A  100B               	iorwf	(??___flge+2)^0,w,c
  1247   00249C  100C               	iorwf	(??___flge+3)^0,w,c
  1248   00249E  A4D8               	btfss	status,2,c
  1249   0024A0  EF54  F012         	goto	u2771
  1250   0024A4  EF56  F012         	goto	u2770
  1251   0024A8                     u2771:
  1252   0024A8  EF5E  F012         	goto	l2606
  1253   0024AC                     u2770:
  1254   0024AC  0E00               	movlw	0
  1255   0024AE  6E05               	movwf	___flge@ff2^0,c
  1256   0024B0  0E00               	movlw	0
  1257   0024B2  6E06               	movwf	(___flge@ff2+1)^0,c
  1258   0024B4  0E00               	movlw	0
  1259   0024B6  6E07               	movwf	(___flge@ff2+2)^0,c
  1260   0024B8  0E00               	movlw	0
  1261   0024BA  6E08               	movwf	(___flge@ff2+3)^0,c
  1262   0024BC                     l2606:
  1263   0024BC  AE04               	btfss	(___flge@ff1+3)^0,7,c
  1264   0024BE  EF63  F012         	goto	u2781
  1265   0024C2  EF65  F012         	goto	u2780
  1266   0024C6                     u2781:
  1267   0024C6  EF6E  F012         	goto	l2610
  1268   0024CA                     u2780:
  1269   0024CA  6C01               	negf	___flge@ff1^0,c
  1270   0024CC  1E02               	comf	(___flge@ff1+1)^0,f,c
  1271   0024CE  B0D8               	btfsc	status,0,c
  1272   0024D0  2A02               	incf	(___flge@ff1+1)^0,f,c
  1273   0024D2  1E03               	comf	(___flge@ff1+2)^0,f,c
  1274   0024D4  B0D8               	btfsc	status,0,c
  1275   0024D6  2A03               	incf	(___flge@ff1+2)^0,f,c
  1276   0024D8  0E80               	movlw	128
  1277   0024DA  5604               	subfwb	(___flge@ff1+3)^0,f,c
  1278   0024DC                     l2610:
  1279   0024DC  AE08               	btfss	(___flge@ff2+3)^0,7,c
  1280   0024DE  EF73  F012         	goto	u2791
  1281   0024E2  EF75  F012         	goto	u2790
  1282   0024E6                     u2791:
  1283   0024E6  EF7E  F012         	goto	l369
  1284   0024EA                     u2790:
  1285   0024EA  6C05               	negf	___flge@ff2^0,c
  1286   0024EC  1E06               	comf	(___flge@ff2+1)^0,f,c
  1287   0024EE  B0D8               	btfsc	status,0,c
  1288   0024F0  2A06               	incf	(___flge@ff2+1)^0,f,c
  1289   0024F2  1E07               	comf	(___flge@ff2+2)^0,f,c
  1290   0024F4  B0D8               	btfsc	status,0,c
  1291   0024F6  2A07               	incf	(___flge@ff2+2)^0,f,c
  1292   0024F8  0E80               	movlw	128
  1293   0024FA  5608               	subfwb	(___flge@ff2+3)^0,f,c
  1294   0024FC                     l369:
  1295   0024FC  0E00               	movlw	0
  1296   0024FE  1A01               	xorwf	___flge@ff1^0,f,c
  1297   002500  0E00               	movlw	0
  1298   002502  1A02               	xorwf	(___flge@ff1+1)^0,f,c
  1299   002504  0E00               	movlw	0
  1300   002506  1A03               	xorwf	(___flge@ff1+2)^0,f,c
  1301   002508  0E80               	movlw	128
  1302   00250A  1A04               	xorwf	(___flge@ff1+3)^0,f,c
  1303   00250C  0E00               	movlw	0
  1304   00250E  1A05               	xorwf	___flge@ff2^0,f,c
  1305   002510  0E00               	movlw	0
  1306   002512  1A06               	xorwf	(___flge@ff2+1)^0,f,c
  1307   002514  0E00               	movlw	0
  1308   002516  1A07               	xorwf	(___flge@ff2+2)^0,f,c
  1309   002518  0E80               	movlw	128
  1310   00251A  1A08               	xorwf	(___flge@ff2+3)^0,f,c
  1311   00251C  5005               	movf	___flge@ff2^0,w,c
  1312   00251E  5C01               	subwf	___flge@ff1^0,w,c
  1313   002520  5006               	movf	(___flge@ff2+1)^0,w,c
  1314   002522  5802               	subwfb	(___flge@ff1+1)^0,w,c
  1315   002524  5007               	movf	(___flge@ff2+2)^0,w,c
  1316   002526  5803               	subwfb	(___flge@ff1+2)^0,w,c
  1317   002528  5008               	movf	(___flge@ff2+3)^0,w,c
  1318   00252A  5804               	subwfb	(___flge@ff1+3)^0,w,c
  1319   00252C  B0D8               	btfsc	status,0,c
  1320   00252E  EF9B  F012         	goto	u2801
  1321   002532  EF9D  F012         	goto	u2800
  1322   002536                     u2801:
  1323   002536  EFA0  F012         	goto	l2616
  1324   00253A                     u2800:
  1325   00253A  90D8               	bcf	status,0,c
  1326   00253C  EFA1  F012         	goto	l374
  1327   002540                     l2616:
  1328   002540  80D8               	bsf	status,0,c
  1329   002542                     l374:
  1330   002542  0012               	return		;funcret
  1331   002544                     __end_of___flge:
  1332                           	callstack 0
  1333                           
  1334 ;; *************** function _I2C_Init *****************
  1335 ;; Defined at:
  1336 ;;		line 97 in file "main.c"
  1337 ;; Parameters:    Size  Location     Type
  1338 ;;		None
  1339 ;; Auto vars:     Size  Location     Type
  1340 ;;		None
  1341 ;; Return value:  Size  Location     Type
  1342 ;;                  1    wreg      void 
  1343 ;; Registers used:
  1344 ;;		wreg, status,2
  1345 ;; Tracked objects:
  1346 ;;		On entry : 0/0
  1347 ;;		On exit  : 0/0
  1348 ;;		Unchanged: 0/0
  1349 ;; Data sizes:     COMRAM   BANK0   BANK1   BANK2   BANK3   BANK4   BANK5
  1350 ;;      Params:         0       0       0       0       0       0       0
  1351 ;;      Locals:         0       0       0       0       0       0       0
  1352 ;;      Temps:          0       0       0       0       0       0       0
  1353 ;;      Totals:         0       0       0       0       0       0       0
  1354 ;;Total ram usage:        0 bytes
  1355 ;; Hardware stack levels used: 1
  1356 ;; This function calls:
  1357 ;;		Nothing
  1358 ;; This function is called by:
  1359 ;;		_main
  1360 ;; This function uses a non-reentrant model
  1361 ;;
  1362                           
  1363                           	psect	text3
  1364   00284E                     __ptext3:
  1365                           	callstack 0
  1366   00284E                     _I2C_Init:
  1367                           	callstack 30
  1368   00284E                     
  1369                           ;main.c: 98: void I2C_Stop(void) {
  1370   00284E  0E28               	movlw	40
  1371   002850  6EC6               	movwf	198,c	;volatile
  1372   002852                     
  1373                           ;main.c: 99:     PEN = 1;
  1374   002852  6AC5               	clrf	197,c	;volatile
  1375                           
  1376                           ;main.c: 101: }
  1377   002854  0E09               	movlw	9
  1378   002856  6EC8               	movwf	200,c	;volatile
  1379   002858                     
  1380                           ;main.c: 102: 
  1381   002858  6AC7               	clrf	199,c	;volatile
  1382   00285A  0012               	return		;funcret
  1383   00285C                     __end_of_I2C_Init:
  1384                           	callstack 0
  1385                           
  1386 ;; *************** function _Calibration *****************
  1387 ;; Defined at:
  1388 ;;		line 137 in file "main.c"
  1389 ;; Parameters:    Size  Location     Type
  1390 ;;		None
  1391 ;; Auto vars:     Size  Location     Type
  1392 ;;  accZ            2  117[COMRAM] short 
  1393 ;;  accX            2  115[COMRAM] short 
  1394 ;;  accZ_low        1  122[COMRAM] unsigned char 
  1395 ;;  accZ_high       1  121[COMRAM] unsigned char 
  1396 ;;  accX_low        1  120[COMRAM] unsigned char 
  1397 ;;  accX_high       1  119[COMRAM] unsigned char 
  1398 ;; Return value:  Size  Location     Type
  1399 ;;                  1    wreg      void 
  1400 ;; Registers used:
  1401 ;;		wreg, status,2, status,0, tblptrl, tblptrh, tblptru, prodl, prodh, cstack
  1402 ;; Tracked objects:
  1403 ;;		On entry : 0/0
  1404 ;;		On exit  : 0/0
  1405 ;;		Unchanged: 0/0
  1406 ;; Data sizes:     COMRAM   BANK0   BANK1   BANK2   BANK3   BANK4   BANK5
  1407 ;;      Params:         0       0       0       0       0       0       0
  1408 ;;      Locals:        12       0       0       0       0       0       0
  1409 ;;      Temps:          2       0       0       0       0       0       0
  1410 ;;      Totals:        14       0       0       0       0       0       0
  1411 ;;Total ram usage:       14 bytes
  1412 ;; Hardware stack levels used: 1
  1413 ;; Hardware stack levels required when called: 4
  1414 ;; This function calls:
  1415 ;;		_I2C_Read
  1416 ;;		_I2C_Start
  1417 ;;		_I2C_Stop
  1418 ;;		_I2C_Write
  1419 ;;		___fldiv
  1420 ;;		___flmul
  1421 ;;		___xxtofl
  1422 ;;		_atan2f
  1423 ;; This function is called by:
  1424 ;;		_main
  1425 ;; This function uses a non-reentrant model
  1426 ;;
  1427                           
  1428                           	psect	text4
  1429   002318                     __ptext4:
  1430                           	callstack 0
  1431   002318                     _Calibration:
  1432                           	callstack 26
  1433   002318                     
  1434                           ;main.c: 138:     accZ = (accZ_high << 8) | accZ_low;;main.c: 139:     pitch_offset = at
      +                          an2f((float)accX,(float)accZ) * 180.0 / 3.14159265358979323846;;main.c: 140: }
  1435   002318  EC1E  F014         	call	_I2C_Start	;wreg free
  1436   00231C  0ED0               	movlw	208
  1437   00231E  ECF8  F013         	call	_I2C_Write
  1438   002322  0E3B               	movlw	59
  1439   002324  ECF8  F013         	call	_I2C_Write
  1440   002328  EC1E  F014         	call	_I2C_Start	;wreg free
  1441   00232C  0ED1               	movlw	209
  1442   00232E  ECF8  F013         	call	_I2C_Write
  1443   002332  0E01               	movlw	1
  1444   002334  ECA3  F013         	call	_I2C_Read
  1445   002338  6E78               	movwf	Calibration@accX_high^0,c
  1446   00233A  0E01               	movlw	1
  1447   00233C  ECA3  F013         	call	_I2C_Read
  1448   002340  6E79               	movwf	Calibration@accX_low^0,c
  1449   002342  0E01               	movlw	1
  1450   002344  ECA3  F013         	call	_I2C_Read
  1451   002348  6E7A               	movwf	Calibration@accZ_high^0,c
  1452   00234A  0E00               	movlw	0
  1453   00234C  ECA3  F013         	call	_I2C_Read
  1454   002350  6E7B               	movwf	Calibration@accZ_low^0,c
  1455   002352  EC15  F014         	call	_I2C_Stop	;wreg free
  1456   002356  5079               	movf	Calibration@accX_low^0,w,c
  1457   002358  C078  F06E         	movff	Calibration@accX_high,??_Calibration
  1458   00235C  6A6F               	clrf	(??_Calibration+1)^0,c
  1459   00235E  C06E  F06F         	movff	??_Calibration,??_Calibration+1
  1460   002362  6A6E               	clrf	??_Calibration^0,c
  1461   002364  106E               	iorwf	??_Calibration^0,w,c
  1462   002366  6E74               	movwf	Calibration@accX^0,c
  1463   002368  506F               	movf	(??_Calibration+1)^0,w,c
  1464   00236A  6E75               	movwf	(Calibration@accX+1)^0,c
  1465   00236C  507B               	movf	Calibration@accZ_low^0,w,c
  1466   00236E  C07A  F06E         	movff	Calibration@accZ_high,??_Calibration
  1467   002372  6A6F               	clrf	(??_Calibration+1)^0,c
  1468   002374  C06E  F06F         	movff	??_Calibration,??_Calibration+1
  1469   002378  6A6E               	clrf	??_Calibration^0,c
  1470   00237A  106E               	iorwf	??_Calibration^0,w,c
  1471   00237C  6E76               	movwf	Calibration@accZ^0,c
  1472   00237E  506F               	movf	(??_Calibration+1)^0,w,c
  1473   002380  6E77               	movwf	(Calibration@accZ+1)^0,c
  1474   002382  C076  F001         	movff	Calibration@accZ,___xxtofl@val
  1475   002386  C077  F002         	movff	Calibration@accZ+1,___xxtofl@val+1
  1476   00238A  0E00               	movlw	0
  1477   00238C  BE02               	btfsc	(___xxtofl@val+1)^0,7,c
  1478   00238E  0EFF               	movlw	-1
  1479   002390  6E03               	movwf	(___xxtofl@val+2)^0,c
  1480   002392  6E04               	movwf	(___xxtofl@val+3)^0,c
  1481   002394  0E01               	movlw	1
  1482   002396  ECEA  F00F         	call	___xxtofl
  1483   00239A  C001  F062         	movff	?___xxtofl,atan2f@x
  1484   00239E  C002  F063         	movff	?___xxtofl+1,atan2f@x+1
  1485   0023A2  C003  F064         	movff	?___xxtofl+2,atan2f@x+2
  1486   0023A6  C004  F065         	movff	?___xxtofl+3,atan2f@x+3
  1487   0023AA  C074  F001         	movff	Calibration@accX,___xxtofl@val
  1488   0023AE  C075  F002         	movff	Calibration@accX+1,___xxtofl@val+1
  1489   0023B2  0E00               	movlw	0
  1490   0023B4  BE02               	btfsc	(___xxtofl@val+1)^0,7,c
  1491   0023B6  0EFF               	movlw	-1
  1492   0023B8  6E03               	movwf	(___xxtofl@val+2)^0,c
  1493   0023BA  6E04               	movwf	(___xxtofl@val+3)^0,c
  1494   0023BC  0E01               	movlw	1
  1495   0023BE  ECEA  F00F         	call	___xxtofl
  1496   0023C2  C001  F05E         	movff	?___xxtofl,atan2f@y
  1497   0023C6  C002  F05F         	movff	?___xxtofl+1,atan2f@y+1
  1498   0023CA  C003  F060         	movff	?___xxtofl+2,atan2f@y+2
  1499   0023CE  C004  F061         	movff	?___xxtofl+3,atan2f@y+3
  1500   0023D2  ECD6  F006         	call	_atan2f	;wreg free
  1501   0023D6  C05E  F070         	movff	?_atan2f,_Calibration$842
  1502   0023DA  C05F  F071         	movff	?_atan2f+1,_Calibration$842+1
  1503   0023DE  C060  F072         	movff	?_atan2f+2,_Calibration$842+2
  1504   0023E2  C061  F073         	movff	?_atan2f+3,_Calibration$842+3
  1505   0023E6  0E00               	movlw	0
  1506   0023E8  6E13               	movwf	___flmul@a^0,c
  1507   0023EA  0E00               	movlw	0
  1508   0023EC  6E14               	movwf	(___flmul@a+1)^0,c
  1509   0023EE  0E34               	movlw	52
  1510   0023F0  6E15               	movwf	(___flmul@a+2)^0,c
  1511   0023F2  0E43               	movlw	67
  1512   0023F4  6E16               	movwf	(___flmul@a+3)^0,c
  1513   0023F6  C070  F00F         	movff	_Calibration$842,___flmul@b
  1514   0023FA  C071  F010         	movff	_Calibration$842+1,___flmul@b+1
  1515   0023FE  C072  F011         	movff	_Calibration$842+2,___flmul@b+2
  1516   002402  C073  F012         	movff	_Calibration$842+3,___flmul@b+3
  1517   002406  EC0F  F00C         	call	___flmul	;wreg free
  1518   00240A  C00F  F038         	movff	?___flmul,___fldiv@b
  1519   00240E  C010  F039         	movff	?___flmul+1,___fldiv@b+1
  1520   002412  C011  F03A         	movff	?___flmul+2,___fldiv@b+2
  1521   002416  C012  F03B         	movff	?___flmul+3,___fldiv@b+3
  1522   00241A  0EDB               	movlw	219
  1523   00241C  6E3C               	movwf	___fldiv@a^0,c
  1524   00241E  0E0F               	movlw	15
  1525   002420  6E3D               	movwf	(___fldiv@a+1)^0,c
  1526   002422  0E49               	movlw	73
  1527   002424  6E3E               	movwf	(___fldiv@a+2)^0,c
  1528   002426  0E40               	movlw	64
  1529   002428  6E3F               	movwf	(___fldiv@a+3)^0,c
  1530   00242A  EC22  F00E         	call	___fldiv	;wreg free
  1531   00242E  C038  F0DF         	movff	?___fldiv,_pitch_offset
  1532   002432  C039  F0E0         	movff	?___fldiv+1,_pitch_offset+1
  1533   002436  C03A  F0E1         	movff	?___fldiv+2,_pitch_offset+2
  1534   00243A  C03B  F0E2         	movff	?___fldiv+3,_pitch_offset+3
  1535   00243E  0012               	return		;funcret
  1536   002440                     __end_of_Calibration:
  1537                           	callstack 0
  1538                           
  1539 ;; *************** function _atan2f *****************
  1540 ;; Defined at:
  1541 ;;		line 22 in file "C:\Program Files\Microchip\xc8\v2.50\pic\sources\c99\common\atan2f.c"
  1542 ;; Parameters:    Size  Location     Type
  1543 ;;  y               4   93[COMRAM] float 
  1544 ;;  x               4   97[COMRAM] float 
  1545 ;; Auto vars:     Size  Location     Type
  1546 ;;  iy              4   62[BANK0 ] struct .
  1547 ;;  ix              4   58[BANK0 ] struct .
  1548 ;;  z               4   54[BANK0 ] float 
  1549 ;;  m               1   66[BANK0 ] unsigned char 
  1550 ;; Return value:  Size  Location     Type
  1551 ;;                  4   93[COMRAM] float 
  1552 ;; Registers used:
  1553 ;;		wreg, status,2, status,0, tblptrl, tblptrh, tblptru, prodl, prodh, cstack
  1554 ;; Tracked objects:
  1555 ;;		On entry : 0/0
  1556 ;;		On exit  : 0/0
  1557 ;;		Unchanged: 0/0
  1558 ;; Data sizes:     COMRAM   BANK0   BANK1   BANK2   BANK3   BANK4   BANK5
  1559 ;;      Params:         8       0       0       0       0       0       0
  1560 ;;      Locals:         0      25       0       0       0       0       0
  1561 ;;      Temps:          8       0       0       0       0       0       0
  1562 ;;      Totals:        16      25       0       0       0       0       0
  1563 ;;Total ram usage:       41 bytes
  1564 ;; Hardware stack levels used: 1
  1565 ;; Hardware stack levels required when called: 3
  1566 ;; This function calls:
  1567 ;;		___fladd
  1568 ;;		___fldiv
  1569 ;;		___flneg
  1570 ;;		___flsub
  1571 ;;		___fpclassifyf
  1572 ;;		_atanf
  1573 ;;		_fabsf
  1574 ;; This function is called by:
  1575 ;;		_calculate_angle
  1576 ;;		_Calibration
  1577 ;; This function uses a non-reentrant model
  1578 ;;
  1579                           
  1580                           	psect	text5
  1581   000DAC                     __ptext5:
  1582                           	callstack 0
  1583   000DAC                     _atan2f:
  1584                           	callstack 26
  1585   000DAC  C062  F001         	movff	atan2f@x,___fpclassifyf@x
  1586   000DB0  C063  F002         	movff	atan2f@x+1,___fpclassifyf@x+1
  1587   000DB4  C064  F003         	movff	atan2f@x+2,___fpclassifyf@x+2
  1588   000DB8  C065  F004         	movff	atan2f@x+3,___fpclassifyf@x+3
  1589   000DBC  ECA2  F012         	call	___fpclassifyf	;wreg free
  1590   000DC0  5001               	movf	?___fpclassifyf^0,w,c
  1591   000DC2  1002               	iorwf	(?___fpclassifyf+1)^0,w,c
  1592   000DC4  B4D8               	btfsc	status,2,c
  1593   000DC6  EFE7  F006         	goto	u2511
  1594   000DCA  EFE9  F006         	goto	u2510
  1595   000DCE                     u2511:
  1596   000DCE  EFFC  F006         	goto	l2394
  1597   000DD2                     u2510:
  1598   000DD2  C05E  F001         	movff	atan2f@y,___fpclassifyf@x
  1599   000DD6  C05F  F002         	movff	atan2f@y+1,___fpclassifyf@x+1
  1600   000DDA  C060  F003         	movff	atan2f@y+2,___fpclassifyf@x+2
  1601   000DDE  C061  F004         	movff	atan2f@y+3,___fpclassifyf@x+3
  1602   000DE2  ECA2  F012         	call	___fpclassifyf	;wreg free
  1603   000DE6  5001               	movf	?___fpclassifyf^0,w,c
  1604   000DE8  1002               	iorwf	(?___fpclassifyf+1)^0,w,c
  1605   000DEA  A4D8               	btfss	status,2,c
  1606   000DEC  EFFA  F006         	goto	u2521
  1607   000DF0  EFFC  F006         	goto	u2520
  1608   000DF4                     u2521:
  1609   000DF4  EF18  F007         	goto	l788
  1610   000DF8                     u2520:
  1611   000DF8                     l2394:
  1612   000DF8  C062  F028         	movff	atan2f@x,___fladd@b
  1613   000DFC  C063  F029         	movff	atan2f@x+1,___fladd@b+1
  1614   000E00  C064  F02A         	movff	atan2f@x+2,___fladd@b+2
  1615   000E04  C065  F02B         	movff	atan2f@x+3,___fladd@b+3
  1616   000E08  C05E  F02C         	movff	atan2f@y,___fladd@a
  1617   000E0C  C05F  F02D         	movff	atan2f@y+1,___fladd@a+1
  1618   000E10  C060  F02E         	movff	atan2f@y+2,___fladd@a+2
  1619   000E14  C061  F02F         	movff	atan2f@y+3,___fladd@a+3
  1620   000E18  ECB4  F009         	call	___fladd	;wreg free
  1621   000E1C  C028  F05E         	movff	?___fladd,?_atan2f
  1622   000E20  C029  F05F         	movff	?___fladd+1,?_atan2f+1
  1623   000E24  C02A  F060         	movff	?___fladd+2,?_atan2f+2
  1624   000E28  C02B  F061         	movff	?___fladd+3,?_atan2f+3
  1625   000E2C  EFB3  F009         	goto	l791
  1626   000E30                     l788:
  1627   000E30  C062  F0BA         	movff	atan2f@x,atan2f@ix
  1628   000E34  C063  F0BB         	movff	atan2f@x+1,atan2f@ix+1
  1629   000E38  C064  F0BC         	movff	atan2f@x+2,atan2f@ix+2
  1630   000E3C  C065  F0BD         	movff	atan2f@x+3,atan2f@ix+3
  1631   000E40  C05E  F0BE         	movff	atan2f@y,atan2f@iy
  1632   000E44  C05F  F0BF         	movff	atan2f@y+1,atan2f@iy+1
  1633   000E48  C060  F0C0         	movff	atan2f@y+2,atan2f@iy+2
  1634   000E4C  C061  F0C1         	movff	atan2f@y+3,atan2f@iy+3
  1635   000E50  0E80               	movlw	128
  1636   000E52  0100               	movlb	0	; () banked
  1637   000E54  19BC               	xorwf	(atan2f@ix+2)& (0+255),w,b
  1638   000E56  E109               	bnz	u2531
  1639   000E58  0E3F               	movlw	63
  1640   000E5A  19BD               	xorwf	(atan2f@ix+3)& (0+255),w,b
  1641   000E5C  11BA               	iorwf	atan2f@ix& (0+255),w,b
  1642   000E5E  11BB               	iorwf	(atan2f@ix+1)& (0+255),w,b
  1643   000E60  A4D8               	btfss	status,2,c
  1644   000E62  EF35  F007         	goto	u2531
  1645   000E66  EF37  F007         	goto	u2530
  1646   000E6A                     u2531:
  1647   000E6A  EF4B  F007         	goto	l2404
  1648   000E6E                     u2530:
  1649   000E6E                     
  1650                           ; BSR set to: 0
  1651   000E6E  C05E  F059         	movff	atan2f@y,atanf@x
  1652   000E72  C05F  F05A         	movff	atan2f@y+1,atanf@x+1
  1653   000E76  C060  F05B         	movff	atan2f@y+2,atanf@x+2
  1654   000E7A  C061  F05C         	movff	atan2f@y+3,atanf@x+3
  1655   000E7E  EC1F  F003         	call	_atanf	;wreg free
  1656   000E82  C059  F05E         	movff	?_atanf,?_atan2f
  1657   000E86  C05A  F05F         	movff	?_atanf+1,?_atan2f+1
  1658   000E8A  C05B  F060         	movff	?_atanf+2,?_atan2f+2
  1659   000E8E  C05C  F061         	movff	?_atanf+3,?_atan2f+3
  1660   000E92  EFB3  F009         	goto	l791
  1661   000E96                     l2404:
  1662                           
  1663                           ; BSR set to: 0
  1664   000E96  C0BA  F066         	movff	atan2f@ix,??_atan2f
  1665   000E9A  C0BB  F067         	movff	atan2f@ix+1,??_atan2f+1
  1666   000E9E  C0BC  F068         	movff	atan2f@ix+2,??_atan2f+2
  1667   000EA2  C0BD  F069         	movff	atan2f@ix+3,??_atan2f+3
  1668   000EA6  0E1F               	movlw	31
  1669   000EA8  EF5B  F007         	goto	u2540
  1670   000EAC                     u2545:
  1671   000EAC  90D8               	bcf	status,0,c
  1672   000EAE  3269               	rrcf	(??_atan2f+3)^0,f,c
  1673   000EB0  3268               	rrcf	(??_atan2f+2)^0,f,c
  1674   000EB2  3267               	rrcf	(??_atan2f+1)^0,f,c
  1675   000EB4  3266               	rrcf	??_atan2f^0,f,c
  1676   000EB6                     u2540:
  1677   000EB6  2EE8               	decfsz	wreg,f,c
  1678   000EB8  EF56  F007         	goto	u2545
  1679   000EBC  0E02               	movlw	2
  1680   000EBE  1666               	andwf	??_atan2f^0,f,c
  1681   000EC0  C0BE  F06A         	movff	atan2f@iy,??_atan2f+4
  1682   000EC4  C0BF  F06B         	movff	atan2f@iy+1,??_atan2f+5
  1683   000EC8  C0C0  F06C         	movff	atan2f@iy+2,??_atan2f+6
  1684   000ECC  C0C1  F06D         	movff	atan2f@iy+3,??_atan2f+7
  1685   000ED0  0E20               	movlw	32
  1686   000ED2  EF70  F007         	goto	u2550
  1687   000ED6                     u2555:
  1688   000ED6  90D8               	bcf	status,0,c
  1689   000ED8  326D               	rrcf	(??_atan2f+7)^0,f,c
  1690   000EDA  326C               	rrcf	(??_atan2f+6)^0,f,c
  1691   000EDC  326B               	rrcf	(??_atan2f+5)^0,f,c
  1692   000EDE  326A               	rrcf	(??_atan2f+4)^0,f,c
  1693   000EE0                     u2550:
  1694   000EE0  2EE8               	decfsz	wreg,f,c
  1695   000EE2  EF6B  F007         	goto	u2555
  1696   000EE6  506A               	movf	(??_atan2f+4)^0,w,c
  1697   000EE8  0B01               	andlw	1
  1698   000EEA  1066               	iorwf	??_atan2f^0,w,c
  1699   000EEC  6FC2               	movwf	atan2f@m& (0+255),b
  1700   000EEE                     
  1701                           ; BSR set to: 0
  1702   000EEE  9FBD               	bcf	(atan2f@ix+3)& (0+255),7,b
  1703   000EF0                     
  1704                           ; BSR set to: 0
  1705   000EF0  9FC1               	bcf	(atan2f@iy+3)& (0+255),7,b
  1706   000EF2  51BE               	movf	atan2f@iy& (0+255),w,b
  1707   000EF4  11BF               	iorwf	(atan2f@iy+1)& (0+255),w,b
  1708   000EF6  11C0               	iorwf	(atan2f@iy+2)& (0+255),w,b
  1709   000EF8  11C1               	iorwf	(atan2f@iy+3)& (0+255),w,b
  1710   000EFA  A4D8               	btfss	status,2,c
  1711   000EFC  EF82  F007         	goto	u2561
  1712   000F00  EF84  F007         	goto	u2560
  1713   000F04                     u2561:
  1714   000F04  EFB7  F007         	goto	l2424
  1715   000F08                     u2560:
  1716   000F08  EFA4  F007         	goto	l2422
  1717   000F0C                     l796:
  1718                           
  1719                           ; BSR set to: 0
  1720   000F0C  C05E  F05E         	movff	atan2f@y,?_atan2f
  1721   000F10  C05F  F05F         	movff	atan2f@y+1,?_atan2f+1
  1722   000F14  C060  F060         	movff	atan2f@y+2,?_atan2f+2
  1723   000F18  C061  F061         	movff	atan2f@y+3,?_atan2f+3
  1724   000F1C  EFB3  F009         	goto	l791
  1725   000F20                     l2412:
  1726                           
  1727                           ; BSR set to: 0
  1728   000F20  0EDB               	movlw	219
  1729   000F22  6E5E               	movwf	?_atan2f^0,c
  1730   000F24  0E0F               	movlw	15
  1731   000F26  6E5F               	movwf	(?_atan2f+1)^0,c
  1732   000F28  0E49               	movlw	73
  1733   000F2A  6E60               	movwf	(?_atan2f+2)^0,c
  1734   000F2C  0E40               	movlw	64
  1735   000F2E  6E61               	movwf	(?_atan2f+3)^0,c
  1736   000F30  EFB3  F009         	goto	l791
  1737   000F34                     l2416:
  1738                           
  1739                           ; BSR set to: 0
  1740   000F34  0EDB               	movlw	219
  1741   000F36  6E5E               	movwf	?_atan2f^0,c
  1742   000F38  0E0F               	movlw	15
  1743   000F3A  6E5F               	movwf	(?_atan2f+1)^0,c
  1744   000F3C  0E49               	movlw	73
  1745   000F3E  6E60               	movwf	(?_atan2f+2)^0,c
  1746   000F40  0EC0               	movlw	192
  1747   000F42  6E61               	movwf	(?_atan2f+3)^0,c
  1748   000F44  EFB3  F009         	goto	l791
  1749   000F48                     l2422:
  1750                           
  1751                           ; BSR set to: 0
  1752   000F48  51C2               	movf	atan2f@m& (0+255),w,b
  1753                           
  1754                           ; Switch size 1, requested type "simple"
  1755                           ; Number of cases is 4, Range of values is 0 to 3
  1756                           ; switch strategies available:
  1757                           ; Name         Instructions Cycles
  1758                           ; simple_byte           13     7 (average)
  1759                           ;	Chosen strategy is simple_byte
  1760   000F4A  0A00               	xorlw	0	; case 0
  1761   000F4C  B4D8               	btfsc	status,2,c
  1762   000F4E  EF86  F007         	goto	l796
  1763   000F52  0A01               	xorlw	1	; case 1
  1764   000F54  B4D8               	btfsc	status,2,c
  1765   000F56  EF86  F007         	goto	l796
  1766   000F5A  0A03               	xorlw	3	; case 2
  1767   000F5C  B4D8               	btfsc	status,2,c
  1768   000F5E  EF90  F007         	goto	l2412
  1769   000F62  0A01               	xorlw	1	; case 3
  1770   000F64  B4D8               	btfsc	status,2,c
  1771   000F66  EF9A  F007         	goto	l2416
  1772   000F6A  EFB7  F007         	goto	l2424
  1773   000F6E                     l2424:
  1774                           
  1775                           ; BSR set to: 0
  1776   000F6E  51BA               	movf	atan2f@ix& (0+255),w,b
  1777   000F70  11BB               	iorwf	(atan2f@ix+1)& (0+255),w,b
  1778   000F72  11BC               	iorwf	(atan2f@ix+2)& (0+255),w,b
  1779   000F74  11BD               	iorwf	(atan2f@ix+3)& (0+255),w,b
  1780   000F76  A4D8               	btfss	status,2,c
  1781   000F78  EFC0  F007         	goto	u2571
  1782   000F7C  EFC2  F007         	goto	u2570
  1783   000F80                     u2571:
  1784   000F80  EFDD  F007         	goto	l2434
  1785   000F84                     u2570:
  1786   000F84                     
  1787                           ; BSR set to: 0
  1788   000F84  B1C2               	btfsc	atan2f@m& (0+255),0,b
  1789   000F86  EFC7  F007         	goto	u2581
  1790   000F8A  EFC9  F007         	goto	u2580
  1791   000F8E                     u2581:
  1792   000F8E  EFD3  F007         	goto	l2430
  1793   000F92                     u2580:
  1794   000F92                     
  1795                           ; BSR set to: 0
  1796   000F92  0EDB               	movlw	219
  1797   000F94  6E5E               	movwf	?_atan2f^0,c
  1798   000F96  0E0F               	movlw	15
  1799   000F98  6E5F               	movwf	(?_atan2f+1)^0,c
  1800   000F9A  0EC9               	movlw	201
  1801   000F9C  6E60               	movwf	(?_atan2f+2)^0,c
  1802   000F9E  0E3F               	movlw	63
  1803   000FA0  6E61               	movwf	(?_atan2f+3)^0,c
  1804   000FA2  EFB3  F009         	goto	l791
  1805   000FA6                     l2430:
  1806                           
  1807                           ; BSR set to: 0
  1808   000FA6  0EDB               	movlw	219
  1809   000FA8  6E5E               	movwf	?_atan2f^0,c
  1810   000FAA  0E0F               	movlw	15
  1811   000FAC  6E5F               	movwf	(?_atan2f+1)^0,c
  1812   000FAE  0EC9               	movlw	201
  1813   000FB0  6E60               	movwf	(?_atan2f+2)^0,c
  1814   000FB2  0EBF               	movlw	191
  1815   000FB4  6E61               	movwf	(?_atan2f+3)^0,c
  1816   000FB6  EFB3  F009         	goto	l791
  1817   000FBA                     l2434:
  1818                           
  1819                           ; BSR set to: 0
  1820   000FBA  0E80               	movlw	128
  1821   000FBC  19BC               	xorwf	(atan2f@ix+2)& (0+255),w,b
  1822   000FBE  E109               	bnz	u2591
  1823   000FC0  0E7F               	movlw	127
  1824   000FC2  19BD               	xorwf	(atan2f@ix+3)& (0+255),w,b
  1825   000FC4  11BA               	iorwf	atan2f@ix& (0+255),w,b
  1826   000FC6  11BB               	iorwf	(atan2f@ix+1)& (0+255),w,b
  1827   000FC8  A4D8               	btfss	status,2,c
  1828   000FCA  EFE9  F007         	goto	u2591
  1829   000FCE  EFEB  F007         	goto	u2590
  1830   000FD2                     u2591:
  1831   000FD2  EF71  F008         	goto	l2480
  1832   000FD6                     u2590:
  1833   000FD6                     
  1834                           ; BSR set to: 0
  1835   000FD6  0E80               	movlw	128
  1836   000FD8  19C0               	xorwf	(atan2f@iy+2)& (0+255),w,b
  1837   000FDA  E109               	bnz	u2601
  1838   000FDC  0E7F               	movlw	127
  1839   000FDE  19C1               	xorwf	(atan2f@iy+3)& (0+255),w,b
  1840   000FE0  11BE               	iorwf	atan2f@iy& (0+255),w,b
  1841   000FE2  11BF               	iorwf	(atan2f@iy+1)& (0+255),w,b
  1842   000FE4  A4D8               	btfss	status,2,c
  1843   000FE6  EFF7  F007         	goto	u2601
  1844   000FEA  EFF9  F007         	goto	u2600
  1845   000FEE                     u2601:
  1846   000FEE  EF5E  F008         	goto	l2478
  1847   000FF2                     u2600:
  1848   000FF2  EF23  F008         	goto	l2458
  1849   000FF6                     l2440:
  1850                           
  1851                           ; BSR set to: 0
  1852   000FF6  0EDB               	movlw	219
  1853   000FF8  6E5E               	movwf	?_atan2f^0,c
  1854   000FFA  0E0F               	movlw	15
  1855   000FFC  6E5F               	movwf	(?_atan2f+1)^0,c
  1856   000FFE  0E49               	movlw	73
  1857   001000  6E60               	movwf	(?_atan2f+2)^0,c
  1858   001002  0E3F               	movlw	63
  1859   001004  6E61               	movwf	(?_atan2f+3)^0,c
  1860   001006  EFB3  F009         	goto	l791
  1861   00100A                     l2444:
  1862                           
  1863                           ; BSR set to: 0
  1864   00100A  0EDB               	movlw	219
  1865   00100C  6E5E               	movwf	?_atan2f^0,c
  1866   00100E  0E0F               	movlw	15
  1867   001010  6E5F               	movwf	(?_atan2f+1)^0,c
  1868   001012  0E49               	movlw	73
  1869   001014  6E60               	movwf	(?_atan2f+2)^0,c
  1870   001016  0EBF               	movlw	191
  1871   001018  6E61               	movwf	(?_atan2f+3)^0,c
  1872   00101A  EFB3  F009         	goto	l791
  1873   00101E                     l2448:
  1874                           
  1875                           ; BSR set to: 0
  1876   00101E  0EE4               	movlw	228
  1877   001020  6E5E               	movwf	?_atan2f^0,c
  1878   001022  0ECB               	movlw	203
  1879   001024  6E5F               	movwf	(?_atan2f+1)^0,c
  1880   001026  0E16               	movlw	22
  1881   001028  6E60               	movwf	(?_atan2f+2)^0,c
  1882   00102A  0E40               	movlw	64
  1883   00102C  6E61               	movwf	(?_atan2f+3)^0,c
  1884   00102E  EFB3  F009         	goto	l791
  1885   001032                     l2452:
  1886                           
  1887                           ; BSR set to: 0
  1888   001032  0EE4               	movlw	228
  1889   001034  6E5E               	movwf	?_atan2f^0,c
  1890   001036  0ECB               	movlw	203
  1891   001038  6E5F               	movwf	(?_atan2f+1)^0,c
  1892   00103A  0E16               	movlw	22
  1893   00103C  6E60               	movwf	(?_atan2f+2)^0,c
  1894   00103E  0EC0               	movlw	192
  1895   001040  6E61               	movwf	(?_atan2f+3)^0,c
  1896   001042  EFB3  F009         	goto	l791
  1897   001046                     l2458:
  1898                           
  1899                           ; BSR set to: 0
  1900   001046  51C2               	movf	atan2f@m& (0+255),w,b
  1901                           
  1902                           ; Switch size 1, requested type "simple"
  1903                           ; Number of cases is 4, Range of values is 0 to 3
  1904                           ; switch strategies available:
  1905                           ; Name         Instructions Cycles
  1906                           ; simple_byte           13     7 (average)
  1907                           ;	Chosen strategy is simple_byte
  1908   001048  0A00               	xorlw	0	; case 0
  1909   00104A  B4D8               	btfsc	status,2,c
  1910   00104C  EFFB  F007         	goto	l2440
  1911   001050  0A01               	xorlw	1	; case 1
  1912   001052  B4D8               	btfsc	status,2,c
  1913   001054  EF05  F008         	goto	l2444
  1914   001058  0A03               	xorlw	3	; case 2
  1915   00105A  B4D8               	btfsc	status,2,c
  1916   00105C  EF0F  F008         	goto	l2448
  1917   001060  0A01               	xorlw	1	; case 3
  1918   001062  B4D8               	btfsc	status,2,c
  1919   001064  EF19  F008         	goto	l2452
  1920   001068  EF71  F008         	goto	l2480
  1921   00106C                     l2460:
  1922                           
  1923                           ; BSR set to: 0
  1924   00106C  0E00               	movlw	0
  1925   00106E  6E5E               	movwf	?_atan2f^0,c
  1926   001070  0E00               	movlw	0
  1927   001072  6E5F               	movwf	(?_atan2f+1)^0,c
  1928   001074  0E00               	movlw	0
  1929   001076  6E60               	movwf	(?_atan2f+2)^0,c
  1930   001078  0E00               	movlw	0
  1931   00107A  6E61               	movwf	(?_atan2f+3)^0,c
  1932   00107C  EFB3  F009         	goto	l791
  1933   001080                     l2464:
  1934                           
  1935                           ; BSR set to: 0
  1936   001080  0E00               	movlw	0
  1937   001082  6E5E               	movwf	?_atan2f^0,c
  1938   001084  0E00               	movlw	0
  1939   001086  6E5F               	movwf	(?_atan2f+1)^0,c
  1940   001088  0E00               	movlw	0
  1941   00108A  6E60               	movwf	(?_atan2f+2)^0,c
  1942   00108C  0E80               	movlw	128
  1943   00108E  6E61               	movwf	(?_atan2f+3)^0,c
  1944   001090  EFB3  F009         	goto	l791
  1945   001094                     l2468:
  1946                           
  1947                           ; BSR set to: 0
  1948   001094  0EDB               	movlw	219
  1949   001096  6E5E               	movwf	?_atan2f^0,c
  1950   001098  0E0F               	movlw	15
  1951   00109A  6E5F               	movwf	(?_atan2f+1)^0,c
  1952   00109C  0E49               	movlw	73
  1953   00109E  6E60               	movwf	(?_atan2f+2)^0,c
  1954   0010A0  0E40               	movlw	64
  1955   0010A2  6E61               	movwf	(?_atan2f+3)^0,c
  1956   0010A4  EFB3  F009         	goto	l791
  1957   0010A8                     l2472:
  1958                           
  1959                           ; BSR set to: 0
  1960   0010A8  0EDB               	movlw	219
  1961   0010AA  6E5E               	movwf	?_atan2f^0,c
  1962   0010AC  0E0F               	movlw	15
  1963   0010AE  6E5F               	movwf	(?_atan2f+1)^0,c
  1964   0010B0  0E49               	movlw	73
  1965   0010B2  6E60               	movwf	(?_atan2f+2)^0,c
  1966   0010B4  0EC0               	movlw	192
  1967   0010B6  6E61               	movwf	(?_atan2f+3)^0,c
  1968   0010B8  EFB3  F009         	goto	l791
  1969   0010BC                     l2478:
  1970                           
  1971                           ; BSR set to: 0
  1972   0010BC  51C2               	movf	atan2f@m& (0+255),w,b
  1973                           
  1974                           ; Switch size 1, requested type "simple"
  1975                           ; Number of cases is 4, Range of values is 0 to 3
  1976                           ; switch strategies available:
  1977                           ; Name         Instructions Cycles
  1978                           ; simple_byte           13     7 (average)
  1979                           ;	Chosen strategy is simple_byte
  1980   0010BE  0A00               	xorlw	0	; case 0
  1981   0010C0  B4D8               	btfsc	status,2,c
  1982   0010C2  EF36  F008         	goto	l2460
  1983   0010C6  0A01               	xorlw	1	; case 1
  1984   0010C8  B4D8               	btfsc	status,2,c
  1985   0010CA  EF40  F008         	goto	l2464
  1986   0010CE  0A03               	xorlw	3	; case 2
  1987   0010D0  B4D8               	btfsc	status,2,c
  1988   0010D2  EF4A  F008         	goto	l2468
  1989   0010D6  0A01               	xorlw	1	; case 3
  1990   0010D8  B4D8               	btfsc	status,2,c
  1991   0010DA  EF54  F008         	goto	l2472
  1992   0010DE  EF71  F008         	goto	l2480
  1993   0010E2                     l2480:
  1994                           
  1995                           ; BSR set to: 0
  1996   0010E2  0E00               	movlw	0
  1997   0010E4  25BA               	addwf	atan2f@ix& (0+255),w,b
  1998   0010E6  6E66               	movwf	??_atan2f^0,c
  1999   0010E8  0E00               	movlw	0
  2000   0010EA  21BB               	addwfc	(atan2f@ix+1)& (0+255),w,b
  2001   0010EC  6E67               	movwf	(??_atan2f+1)^0,c
  2002   0010EE  0E00               	movlw	0
  2003   0010F0  21BC               	addwfc	(atan2f@ix+2)& (0+255),w,b
  2004   0010F2  6E68               	movwf	(??_atan2f+2)^0,c
  2005   0010F4  0E0D               	movlw	13
  2006   0010F6  21BD               	addwfc	(atan2f@ix+3)& (0+255),w,b
  2007   0010F8  6E69               	movwf	(??_atan2f+3)^0,c
  2008   0010FA  51BE               	movf	atan2f@iy& (0+255),w,b
  2009   0010FC  5C66               	subwf	??_atan2f^0,w,c
  2010   0010FE  51BF               	movf	(atan2f@iy+1)& (0+255),w,b
  2011   001100  5867               	subwfb	(??_atan2f+1)^0,w,c
  2012   001102  51C0               	movf	(atan2f@iy+2)& (0+255),w,b
  2013   001104  5868               	subwfb	(??_atan2f+2)^0,w,c
  2014   001106  51C1               	movf	(atan2f@iy+3)& (0+255),w,b
  2015   001108  5869               	subwfb	(??_atan2f+3)^0,w,c
  2016   00110A  A0D8               	btfss	status,0,c
  2017   00110C  EF8A  F008         	goto	u2611
  2018   001110  EF8C  F008         	goto	u2610
  2019   001114                     u2611:
  2020   001114  EF9A  F008         	goto	l822
  2021   001118                     u2610:
  2022   001118                     
  2023                           ; BSR set to: 0
  2024   001118  0E80               	movlw	128
  2025   00111A  19C0               	xorwf	(atan2f@iy+2)& (0+255),w,b
  2026   00111C  E109               	bnz	u2621
  2027   00111E  0E7F               	movlw	127
  2028   001120  19C1               	xorwf	(atan2f@iy+3)& (0+255),w,b
  2029   001122  11BE               	iorwf	atan2f@iy& (0+255),w,b
  2030   001124  11BF               	iorwf	(atan2f@iy+1)& (0+255),w,b
  2031   001126  A4D8               	btfss	status,2,c
  2032   001128  EF98  F008         	goto	u2621
  2033   00112C  EF9A  F008         	goto	u2620
  2034   001130                     u2621:
  2035   001130  EFB5  F008         	goto	l820
  2036   001134                     u2620:
  2037   001134                     l822:
  2038                           
  2039                           ; BSR set to: 0
  2040   001134  B1C2               	btfsc	atan2f@m& (0+255),0,b
  2041   001136  EF9F  F008         	goto	u2631
  2042   00113A  EFA1  F008         	goto	u2630
  2043   00113E                     u2631:
  2044   00113E  EFAB  F008         	goto	l2486
  2045   001142                     u2630:
  2046   001142                     
  2047                           ; BSR set to: 0
  2048   001142  0EDB               	movlw	219
  2049   001144  6E5E               	movwf	?_atan2f^0,c
  2050   001146  0E0F               	movlw	15
  2051   001148  6E5F               	movwf	(?_atan2f+1)^0,c
  2052   00114A  0EC9               	movlw	201
  2053   00114C  6E60               	movwf	(?_atan2f+2)^0,c
  2054   00114E  0E3F               	movlw	63
  2055   001150  6E61               	movwf	(?_atan2f+3)^0,c
  2056   001152  EFB3  F009         	goto	l791
  2057   001156                     l2486:
  2058                           
  2059                           ; BSR set to: 0
  2060   001156  0EDB               	movlw	219
  2061   001158  6E5E               	movwf	?_atan2f^0,c
  2062   00115A  0E0F               	movlw	15
  2063   00115C  6E5F               	movwf	(?_atan2f+1)^0,c
  2064   00115E  0EC9               	movlw	201
  2065   001160  6E60               	movwf	(?_atan2f+2)^0,c
  2066   001162  0EBF               	movlw	191
  2067   001164  6E61               	movwf	(?_atan2f+3)^0,c
  2068   001166  EFB3  F009         	goto	l791
  2069   00116A                     l820:
  2070                           
  2071                           ; BSR set to: 0
  2072   00116A  A3C2               	btfss	atan2f@m& (0+255),1,b
  2073   00116C  EFBA  F008         	goto	u2641
  2074   001170  EFBC  F008         	goto	u2640
  2075   001174                     u2641:
  2076   001174  EFE1  F008         	goto	l2494
  2077   001178                     u2640:
  2078   001178                     
  2079                           ; BSR set to: 0
  2080   001178  0E00               	movlw	0
  2081   00117A  25BE               	addwf	atan2f@iy& (0+255),w,b
  2082   00117C  6E66               	movwf	??_atan2f^0,c
  2083   00117E  0E00               	movlw	0
  2084   001180  21BF               	addwfc	(atan2f@iy+1)& (0+255),w,b
  2085   001182  6E67               	movwf	(??_atan2f+1)^0,c
  2086   001184  0E00               	movlw	0
  2087   001186  21C0               	addwfc	(atan2f@iy+2)& (0+255),w,b
  2088   001188  6E68               	movwf	(??_atan2f+2)^0,c
  2089   00118A  0E0D               	movlw	13
  2090   00118C  21C1               	addwfc	(atan2f@iy+3)& (0+255),w,b
  2091   00118E  6E69               	movwf	(??_atan2f+3)^0,c
  2092   001190  51BA               	movf	atan2f@ix& (0+255),w,b
  2093   001192  5C66               	subwf	??_atan2f^0,w,c
  2094   001194  51BB               	movf	(atan2f@ix+1)& (0+255),w,b
  2095   001196  5867               	subwfb	(??_atan2f+1)^0,w,c
  2096   001198  51BC               	movf	(atan2f@ix+2)& (0+255),w,b
  2097   00119A  5868               	subwfb	(??_atan2f+2)^0,w,c
  2098   00119C  51BD               	movf	(atan2f@ix+3)& (0+255),w,b
  2099   00119E  5869               	subwfb	(??_atan2f+3)^0,w,c
  2100   0011A0  B0D8               	btfsc	status,0,c
  2101   0011A2  EFD5  F008         	goto	u2651
  2102   0011A6  EFD7  F008         	goto	u2650
  2103   0011AA                     u2651:
  2104   0011AA  EFE1  F008         	goto	l2494
  2105   0011AE                     u2650:
  2106   0011AE                     
  2107                           ; BSR set to: 0
  2108   0011AE  0E00               	movlw	0
  2109   0011B0  6FB6               	movwf	atan2f@z& (0+255),b
  2110   0011B2  0E00               	movlw	0
  2111   0011B4  6FB7               	movwf	(atan2f@z+1)& (0+255),b
  2112   0011B6  0E00               	movlw	0
  2113   0011B8  6FB8               	movwf	(atan2f@z+2)& (0+255),b
  2114   0011BA  0E00               	movlw	0
  2115   0011BC  6FB9               	movwf	(atan2f@z+3)& (0+255),b
  2116   0011BE  EFA3  F009         	goto	l2512
  2117   0011C2                     l2494:
  2118                           
  2119                           ; BSR set to: 0
  2120   0011C2  C05E  F038         	movff	atan2f@y,___fldiv@b
  2121   0011C6  C05F  F039         	movff	atan2f@y+1,___fldiv@b+1
  2122   0011CA  C060  F03A         	movff	atan2f@y+2,___fldiv@b+2
  2123   0011CE  C061  F03B         	movff	atan2f@y+3,___fldiv@b+3
  2124   0011D2  C062  F03C         	movff	atan2f@x,___fldiv@a
  2125   0011D6  C063  F03D         	movff	atan2f@x+1,___fldiv@a+1
  2126   0011DA  C064  F03E         	movff	atan2f@x+2,___fldiv@a+2
  2127   0011DE  C065  F03F         	movff	atan2f@x+3,___fldiv@a+3
  2128   0011E2  EC22  F00E         	call	___fldiv	;wreg free
  2129   0011E6  C038  F051         	movff	?___fldiv,fabsf@x
  2130   0011EA  C039  F052         	movff	?___fldiv+1,fabsf@x+1
  2131   0011EE  C03A  F053         	movff	?___fldiv+2,fabsf@x+2
  2132   0011F2  C03B  F054         	movff	?___fldiv+3,fabsf@x+3
  2133   0011F6  ECDE  F013         	call	_fabsf	;wreg free
  2134   0011FA  C051  F0AA         	movff	?_fabsf,_atan2f$843
  2135   0011FE  C052  F0AB         	movff	?_fabsf+1,_atan2f$843+1
  2136   001202  C053  F0AC         	movff	?_fabsf+2,_atan2f$843+2
  2137   001206  C054  F0AD         	movff	?_fabsf+3,_atan2f$843+3
  2138   00120A  C0AA  F059         	movff	_atan2f$843,atanf@x
  2139   00120E  C0AB  F05A         	movff	_atan2f$843+1,atanf@x+1
  2140   001212  C0AC  F05B         	movff	_atan2f$843+2,atanf@x+2
  2141   001216  C0AD  F05C         	movff	_atan2f$843+3,atanf@x+3
  2142   00121A  EC1F  F003         	call	_atanf	;wreg free
  2143   00121E  C059  F0B6         	movff	?_atanf,atan2f@z
  2144   001222  C05A  F0B7         	movff	?_atanf+1,atan2f@z+1
  2145   001226  C05B  F0B8         	movff	?_atanf+2,atan2f@z+2
  2146   00122A  C05C  F0B9         	movff	?_atanf+3,atan2f@z+3
  2147   00122E  EFA3  F009         	goto	l2512
  2148   001232                     l830:
  2149                           
  2150                           ; BSR set to: 0
  2151   001232  C0B6  F05E         	movff	atan2f@z,?_atan2f
  2152   001236  C0B7  F05F         	movff	atan2f@z+1,?_atan2f+1
  2153   00123A  C0B8  F060         	movff	atan2f@z+2,?_atan2f+2
  2154   00123E  C0B9  F061         	movff	atan2f@z+3,?_atan2f+3
  2155   001242  EFB3  F009         	goto	l791
  2156   001246                     l2498:
  2157                           
  2158                           ; BSR set to: 0
  2159   001246  C0B6  F001         	movff	atan2f@z,___flneg@f1
  2160   00124A  C0B7  F002         	movff	atan2f@z+1,___flneg@f1+1
  2161   00124E  C0B8  F003         	movff	atan2f@z+2,___flneg@f1+2
  2162   001252  C0B9  F004         	movff	atan2f@z+3,___flneg@f1+3
  2163   001256  ECC2  F013         	call	___flneg	;wreg free
  2164   00125A  C001  F05E         	movff	?___flneg,?_atan2f
  2165   00125E  C002  F05F         	movff	?___flneg+1,?_atan2f+1
  2166   001262  C003  F060         	movff	?___flneg+2,?_atan2f+2
  2167   001266  C004  F061         	movff	?___flneg+3,?_atan2f+3
  2168   00126A  EFB3  F009         	goto	l791
  2169   00126E                     l2502:
  2170                           
  2171                           ; BSR set to: 0
  2172   00126E  0E2E               	movlw	46
  2173   001270  6E2C               	movwf	___fladd@a^0,c
  2174   001272  0EBD               	movlw	189
  2175   001274  6E2D               	movwf	(___fladd@a+1)^0,c
  2176   001276  0EBB               	movlw	187
  2177   001278  6E2E               	movwf	(___fladd@a+2)^0,c
  2178   00127A  0E33               	movlw	51
  2179   00127C  6E2F               	movwf	(___fladd@a+3)^0,c
  2180   00127E  C0B6  F028         	movff	atan2f@z,___fladd@b
  2181   001282  C0B7  F029         	movff	atan2f@z+1,___fladd@b+1
  2182   001286  C0B8  F02A         	movff	atan2f@z+2,___fladd@b+2
  2183   00128A  C0B9  F02B         	movff	atan2f@z+3,___fladd@b+3
  2184   00128E  ECB4  F009         	call	___fladd	;wreg free
  2185   001292  C028  F0AE         	movff	?___fladd,_atan2f$844
  2186   001296  C029  F0AF         	movff	?___fladd+1,_atan2f$844+1
  2187   00129A  C02A  F0B0         	movff	?___fladd+2,_atan2f$844+2
  2188   00129E  C02B  F0B1         	movff	?___fladd+3,_atan2f$844+3
  2189   0012A2  0EDB               	movlw	219
  2190   0012A4  6E38               	movwf	___flsub@b^0,c
  2191   0012A6  0E0F               	movlw	15
  2192   0012A8  6E39               	movwf	(___flsub@b+1)^0,c
  2193   0012AA  0E49               	movlw	73
  2194   0012AC  6E3A               	movwf	(___flsub@b+2)^0,c
  2195   0012AE  0E40               	movlw	64
  2196   0012B0  6E3B               	movwf	(___flsub@b+3)^0,c
  2197   0012B2  C0AE  F03C         	movff	_atan2f$844,___flsub@a
  2198   0012B6  C0AF  F03D         	movff	_atan2f$844+1,___flsub@a+1
  2199   0012BA  C0B0  F03E         	movff	_atan2f$844+2,___flsub@a+2
  2200   0012BE  C0B1  F03F         	movff	_atan2f$844+3,___flsub@a+3
  2201   0012C2  EC80  F013         	call	___flsub	;wreg free
  2202   0012C6  C038  F05E         	movff	?___flsub,?_atan2f
  2203   0012CA  C039  F05F         	movff	?___flsub+1,?_atan2f+1
  2204   0012CE  C03A  F060         	movff	?___flsub+2,?_atan2f+2
  2205   0012D2  C03B  F061         	movff	?___flsub+3,?_atan2f+3
  2206   0012D6  EFB3  F009         	goto	l791
  2207   0012DA                     l2506:
  2208                           
  2209                           ; BSR set to: 0
  2210   0012DA  0E2E               	movlw	46
  2211   0012DC  6E2C               	movwf	___fladd@a^0,c
  2212   0012DE  0EBD               	movlw	189
  2213   0012E0  6E2D               	movwf	(___fladd@a+1)^0,c
  2214   0012E2  0EBB               	movlw	187
  2215   0012E4  6E2E               	movwf	(___fladd@a+2)^0,c
  2216   0012E6  0E33               	movlw	51
  2217   0012E8  6E2F               	movwf	(___fladd@a+3)^0,c
  2218   0012EA  C0B6  F028         	movff	atan2f@z,___fladd@b
  2219   0012EE  C0B7  F029         	movff	atan2f@z+1,___fladd@b+1
  2220   0012F2  C0B8  F02A         	movff	atan2f@z+2,___fladd@b+2
  2221   0012F6  C0B9  F02B         	movff	atan2f@z+3,___fladd@b+3
  2222   0012FA  ECB4  F009         	call	___fladd	;wreg free
  2223   0012FE  C028  F0B2         	movff	?___fladd,_atan2f$845
  2224   001302  C029  F0B3         	movff	?___fladd+1,_atan2f$845+1
  2225   001306  C02A  F0B4         	movff	?___fladd+2,_atan2f$845+2
  2226   00130A  C02B  F0B5         	movff	?___fladd+3,_atan2f$845+3
  2227   00130E  C0B2  F028         	movff	_atan2f$845,___fladd@b
  2228   001312  C0B3  F029         	movff	_atan2f$845+1,___fladd@b+1
  2229   001316  C0B4  F02A         	movff	_atan2f$845+2,___fladd@b+2
  2230   00131A  C0B5  F02B         	movff	_atan2f$845+3,___fladd@b+3
  2231   00131E  0EDB               	movlw	219
  2232   001320  6E2C               	movwf	___fladd@a^0,c
  2233   001322  0E0F               	movlw	15
  2234   001324  6E2D               	movwf	(___fladd@a+1)^0,c
  2235   001326  0E49               	movlw	73
  2236   001328  6E2E               	movwf	(___fladd@a+2)^0,c
  2237   00132A  0EC0               	movlw	192
  2238   00132C  6E2F               	movwf	(___fladd@a+3)^0,c
  2239   00132E  ECB4  F009         	call	___fladd	;wreg free
  2240   001332  C028  F05E         	movff	?___fladd,?_atan2f
  2241   001336  C029  F05F         	movff	?___fladd+1,?_atan2f+1
  2242   00133A  C02A  F060         	movff	?___fladd+2,?_atan2f+2
  2243   00133E  C02B  F061         	movff	?___fladd+3,?_atan2f+3
  2244   001342  EFB3  F009         	goto	l791
  2245   001346                     l2512:
  2246   001346  0100               	movlb	0	; () banked
  2247   001348  51C2               	movf	atan2f@m& (0+255),w,b
  2248                           
  2249                           ; Switch size 1, requested type "simple"
  2250                           ; Number of cases is 3, Range of values is 0 to 2
  2251                           ; switch strategies available:
  2252                           ; Name         Instructions Cycles
  2253                           ; simple_byte           10     6 (average)
  2254                           ;	Chosen strategy is simple_byte
  2255   00134A  0A00               	xorlw	0	; case 0
  2256   00134C  B4D8               	btfsc	status,2,c
  2257   00134E  EF19  F009         	goto	l830
  2258   001352  0A01               	xorlw	1	; case 1
  2259   001354  B4D8               	btfsc	status,2,c
  2260   001356  EF23  F009         	goto	l2498
  2261   00135A  0A03               	xorlw	3	; case 2
  2262   00135C  B4D8               	btfsc	status,2,c
  2263   00135E  EF37  F009         	goto	l2502
  2264   001362  EF6D  F009         	goto	l2506
  2265   001366                     l791:
  2266   001366  0012               	return		;funcret
  2267   001368                     __end_of_atan2f:
  2268                           	callstack 0
  2269                           
  2270 ;; *************** function _atanf *****************
  2271 ;; Defined at:
  2272 ;;		line 40 in file "C:\Program Files\Microchip\xc8\v2.50\pic\sources\c99\common\atanf.c"
  2273 ;; Parameters:    Size  Location     Type
  2274 ;;  x               4   88[COMRAM] float 
  2275 ;; Auto vars:     Size  Location     Type
  2276 ;;  ix              4   38[BANK0 ] struct .
  2277 ;;  z               4   34[BANK0 ] float 
  2278 ;;  w               4   29[BANK0 ] float 
  2279 ;;  s2              4   16[BANK0 ] float 
  2280 ;;  s1              4   12[BANK0 ] float 
  2281 ;;  id              1   33[BANK0 ] char 
  2282 ;;  sign            1   28[BANK0 ] _Bool 
  2283 ;; Return value:  Size  Location     Type
  2284 ;;                  4   88[COMRAM] float 
  2285 ;; Registers used:
  2286 ;;		wreg, status,2, status,0, tblptrl, tblptrh, tblptru, prodl, prodh, cstack
  2287 ;; Tracked objects:
  2288 ;;		On entry : 0/0
  2289 ;;		On exit  : 0/0
  2290 ;;		Unchanged: 0/0
  2291 ;; Data sizes:     COMRAM   BANK0   BANK1   BANK2   BANK3   BANK4   BANK5
  2292 ;;      Params:         4       0       0       0       0       0       0
  2293 ;;      Locals:         0      42       0       0       0       0       0
  2294 ;;      Temps:          1       0       0       0       0       0       0
  2295 ;;      Totals:         5      42       0       0       0       0       0
  2296 ;;Total ram usage:       47 bytes
  2297 ;; Hardware stack levels used: 1
  2298 ;; Hardware stack levels required when called: 2
  2299 ;; This function calls:
  2300 ;;		___fladd
  2301 ;;		___fldiv
  2302 ;;		___flmul
  2303 ;;		___flneg
  2304 ;;		___flsub
  2305 ;;		___fpclassifyf
  2306 ;;		_fabsf
  2307 ;; This function is called by:
  2308 ;;		_atan2f
  2309 ;; This function uses a non-reentrant model
  2310 ;;
  2311                           
  2312                           	psect	text6
  2313   00063E                     __ptext6:
  2314                           	callstack 0
  2315   00063E                     _atanf:
  2316                           	callstack 26
  2317   00063E  C059  F0A6         	movff	atanf@x,atanf@ix
  2318   000642  C05A  F0A7         	movff	atanf@x+1,atanf@ix+1
  2319   000646  C05B  F0A8         	movff	atanf@x+2,atanf@ix+2
  2320   00064A  C05C  F0A9         	movff	atanf@x+3,atanf@ix+3
  2321   00064E  0100               	movlb	0	; () banked
  2322   000650  BFA9               	btfsc	(atanf@ix+3)& (0+255),7,b
  2323   000652  EF2D  F003         	goto	u2311
  2324   000656  EF30  F003         	goto	u2310
  2325   00065A                     u2311:
  2326   00065A  0E01               	movlw	1
  2327   00065C  EF31  F003         	goto	u2320
  2328   000660                     u2310:
  2329   000660  0E00               	movlw	0
  2330   000662                     u2320:
  2331   000662  6F9C               	movwf	atanf@sign& (0+255),b
  2332   000664                     
  2333                           ; BSR set to: 0
  2334   000664  9FA9               	bcf	(atanf@ix+3)& (0+255),7,b
  2335   000666                     
  2336                           ; BSR set to: 0
  2337   000666  0E80               	movlw	128
  2338   000668  5DA8               	subwf	(atanf@ix+2)& (0+255),w,b
  2339   00066A  0E4C               	movlw	76
  2340   00066C  59A9               	subwfb	(atanf@ix+3)& (0+255),w,b
  2341   00066E  A0D8               	btfss	status,0,c
  2342   000670  EF3C  F003         	goto	u2331
  2343   000674  EF3E  F003         	goto	u2330
  2344   000678                     u2331:
  2345   000678  EFA4  F003         	goto	l2310
  2346   00067C                     u2330:
  2347   00067C                     
  2348                           ; BSR set to: 0
  2349   00067C  C059  F001         	movff	atanf@x,___fpclassifyf@x
  2350   000680  C05A  F002         	movff	atanf@x+1,___fpclassifyf@x+1
  2351   000684  C05B  F003         	movff	atanf@x+2,___fpclassifyf@x+2
  2352   000688  C05C  F004         	movff	atanf@x+3,___fpclassifyf@x+3
  2353   00068C  ECA2  F012         	call	___fpclassifyf	;wreg free
  2354   000690  5001               	movf	?___fpclassifyf^0,w,c
  2355   000692  1002               	iorwf	(?___fpclassifyf+1)^0,w,c
  2356   000694  A4D8               	btfss	status,2,c
  2357   000696  EF4F  F003         	goto	u2341
  2358   00069A  EF51  F003         	goto	u2340
  2359   00069E                     u2341:
  2360   00069E  EF5B  F003         	goto	l2300
  2361   0006A2                     u2340:
  2362   0006A2                     l2298:
  2363   0006A2  C059  F059         	movff	atanf@x,?_atanf
  2364   0006A6  C05A  F05A         	movff	atanf@x+1,?_atanf+1
  2365   0006AA  C05B  F05B         	movff	atanf@x+2,?_atanf+2
  2366   0006AE  C05C  F05C         	movff	atanf@x+3,?_atanf+3
  2367   0006B2  EFD5  F006         	goto	l868
  2368   0006B6                     l2300:
  2369   0006B6  0E1D               	movlw	low (_atanhi+12)
  2370   0006B8  6EF6               	movwf	tblptrl,c
  2371   0006BA                     	if	1	;There is more than 1 active tblptr byte
  2372   0006BA  0E06               	movlw	high __smallconst
  2373   0006BC  6EF7               	movwf	tblptrh,c
  2374   0006BE                     	endif
  2375   0006BE                     	if	0	;tblptru may be non-zero
  2376   0006BE                     	endif
  2377   0006BE                     	if	0	;tblptru may be non-zero
  2378   0006BE                     	endif
  2379   0006BE  0009               	tblrd		*+
  2380   0006C0  CFF5 F028          	movff	tablat,___fladd@b
  2381   0006C4  0009               	tblrd		*+
  2382   0006C6  CFF5 F029          	movff	tablat,___fladd@b+1
  2383   0006CA  0009               	tblrd		*+
  2384   0006CC  CFF5 F02A          	movff	tablat,___fladd@b+2
  2385   0006D0  000A               	tblrd		*-
  2386   0006D2  CFF5 F02B          	movff	tablat,___fladd@b+3
  2387   0006D6  0E00               	movlw	0
  2388   0006D8  6E2C               	movwf	___fladd@a^0,c
  2389   0006DA  0E00               	movlw	0
  2390   0006DC  6E2D               	movwf	(___fladd@a+1)^0,c
  2391   0006DE  0E80               	movlw	128
  2392   0006E0  6E2E               	movwf	(___fladd@a+2)^0,c
  2393   0006E2  0E03               	movlw	3
  2394   0006E4  6E2F               	movwf	(___fladd@a+3)^0,c
  2395   0006E6  ECB4  F009         	call	___fladd	;wreg free
  2396   0006EA  C028  F0A2         	movff	?___fladd,atanf@z
  2397   0006EE  C029  F0A3         	movff	?___fladd+1,atanf@z+1
  2398   0006F2  C02A  F0A4         	movff	?___fladd+2,atanf@z+2
  2399   0006F6  C02B  F0A5         	movff	?___fladd+3,atanf@z+3
  2400   0006FA  0100               	movlb	0	; () banked
  2401   0006FC  519C               	movf	atanf@sign& (0+255),w,b
  2402   0006FE  A4D8               	btfss	status,2,c
  2403   000700  EF84  F003         	goto	u2351
  2404   000704  EF86  F003         	goto	u2350
  2405   000708                     u2351:
  2406   000708  EF90  F003         	goto	l2306
  2407   00070C                     u2350:
  2408   00070C                     l2304:
  2409                           
  2410                           ; BSR set to: 0
  2411   00070C  C0A2  F059         	movff	atanf@z,?_atanf
  2412   000710  C0A3  F05A         	movff	atanf@z+1,?_atanf+1
  2413   000714  C0A4  F05B         	movff	atanf@z+2,?_atanf+2
  2414   000718  C0A5  F05C         	movff	atanf@z+3,?_atanf+3
  2415   00071C  EFD5  F006         	goto	l868
  2416   000720                     l2306:
  2417                           
  2418                           ; BSR set to: 0
  2419   000720  C0A2  F001         	movff	atanf@z,___flneg@f1
  2420   000724  C0A3  F002         	movff	atanf@z+1,___flneg@f1+1
  2421   000728  C0A4  F003         	movff	atanf@z+2,___flneg@f1+2
  2422   00072C  C0A5  F004         	movff	atanf@z+3,___flneg@f1+3
  2423   000730  ECC2  F013         	call	___flneg	;wreg free
  2424   000734  C001  F059         	movff	?___flneg,?_atanf
  2425   000738  C002  F05A         	movff	?___flneg+1,?_atanf+1
  2426   00073C  C003  F05B         	movff	?___flneg+2,?_atanf+2
  2427   000740  C004  F05C         	movff	?___flneg+3,?_atanf+3
  2428   000744  EFD5  F006         	goto	l868
  2429   000748                     l2310:
  2430                           
  2431                           ; BSR set to: 0
  2432   000748  0EE0               	movlw	224
  2433   00074A  5DA8               	subwf	(atanf@ix+2)& (0+255),w,b
  2434   00074C  0E3E               	movlw	62
  2435   00074E  59A9               	subwfb	(atanf@ix+3)& (0+255),w,b
  2436   000750  B0D8               	btfsc	status,0,c
  2437   000752  EFAD  F003         	goto	u2361
  2438   000756  EFAF  F003         	goto	u2360
  2439   00075A                     u2361:
  2440   00075A  EFBF  F003         	goto	l2316
  2441   00075E                     u2360:
  2442   00075E                     
  2443                           ; BSR set to: 0
  2444   00075E  0E80               	movlw	128
  2445   000760  5DA8               	subwf	(atanf@ix+2)& (0+255),w,b
  2446   000762  0E39               	movlw	57
  2447   000764  59A9               	subwfb	(atanf@ix+3)& (0+255),w,b
  2448   000766  B0D8               	btfsc	status,0,c
  2449   000768  EFB8  F003         	goto	u2371
  2450   00076C  EFBA  F003         	goto	u2370
  2451   000770                     u2371:
  2452   000770  EFBC  F003         	goto	l874
  2453   000774                     u2370:
  2454   000774  EF51  F003         	goto	l2298
  2455   000778                     l874:
  2456                           
  2457                           ; BSR set to: 0
  2458   000778  69A1               	setf	atanf@id& (0+255),b
  2459   00077A  EFF8  F004         	goto	l2340
  2460   00077E                     l2316:
  2461                           
  2462                           ; BSR set to: 0
  2463   00077E  C059  F051         	movff	atanf@x,fabsf@x
  2464   000782  C05A  F052         	movff	atanf@x+1,fabsf@x+1
  2465   000786  C05B  F053         	movff	atanf@x+2,fabsf@x+2
  2466   00078A  C05C  F054         	movff	atanf@x+3,fabsf@x+3
  2467   00078E  ECDE  F013         	call	_fabsf	;wreg free
  2468   000792  C051  F059         	movff	?_fabsf,atanf@x
  2469   000796  C052  F05A         	movff	?_fabsf+1,atanf@x+1
  2470   00079A  C053  F05B         	movff	?_fabsf+2,atanf@x+2
  2471   00079E  C054  F05C         	movff	?_fabsf+3,atanf@x+3
  2472   0007A2  0E98               	movlw	152
  2473   0007A4  0100               	movlb	0	; () banked
  2474   0007A6  5DA8               	subwf	(atanf@ix+2)& (0+255),w,b
  2475   0007A8  0E3F               	movlw	63
  2476   0007AA  59A9               	subwfb	(atanf@ix+3)& (0+255),w,b
  2477   0007AC  B0D8               	btfsc	status,0,c
  2478   0007AE  EFDB  F003         	goto	u2381
  2479   0007B2  EFDD  F003         	goto	u2380
  2480   0007B6                     u2381:
  2481   0007B6  EF7D  F004         	goto	l2330
  2482   0007BA                     u2380:
  2483   0007BA                     
  2484                           ; BSR set to: 0
  2485   0007BA  0E30               	movlw	48
  2486   0007BC  5DA8               	subwf	(atanf@ix+2)& (0+255),w,b
  2487   0007BE  0E3F               	movlw	63
  2488   0007C0  59A9               	subwfb	(atanf@ix+3)& (0+255),w,b
  2489   0007C2  B0D8               	btfsc	status,0,c
  2490   0007C4  EFE6  F003         	goto	u2391
  2491   0007C8  EFE8  F003         	goto	u2390
  2492   0007CC                     u2391:
  2493   0007CC  EF3B  F004         	goto	l2326
  2494   0007D0                     u2390:
  2495   0007D0                     
  2496                           ; BSR set to: 0
  2497   0007D0  6BA1               	clrf	atanf@id& (0+255),b
  2498   0007D2                     
  2499                           ; BSR set to: 0
  2500   0007D2  0E00               	movlw	0
  2501   0007D4  6E2C               	movwf	___fladd@a^0,c
  2502   0007D6  0E00               	movlw	0
  2503   0007D8  6E2D               	movwf	(___fladd@a+1)^0,c
  2504   0007DA  0E80               	movlw	128
  2505   0007DC  6E2E               	movwf	(___fladd@a+2)^0,c
  2506   0007DE  0EBF               	movlw	191
  2507   0007E0  6E2F               	movwf	(___fladd@a+3)^0,c
  2508   0007E2  0E00               	movlw	0
  2509   0007E4  6E13               	movwf	___flmul@a^0,c
  2510   0007E6  0E00               	movlw	0
  2511   0007E8  6E14               	movwf	(___flmul@a+1)^0,c
  2512   0007EA  0E00               	movlw	0
  2513   0007EC  6E15               	movwf	(___flmul@a+2)^0,c
  2514   0007EE  0E40               	movlw	64
  2515   0007F0  6E16               	movwf	(___flmul@a+3)^0,c
  2516   0007F2  C059  F00F         	movff	atanf@x,___flmul@b
  2517   0007F6  C05A  F010         	movff	atanf@x+1,___flmul@b+1
  2518   0007FA  C05B  F011         	movff	atanf@x+2,___flmul@b+2
  2519   0007FE  C05C  F012         	movff	atanf@x+3,___flmul@b+3
  2520   000802  EC0F  F00C         	call	___flmul	;wreg free
  2521   000806  C00F  F028         	movff	?___flmul,___fladd@b
  2522   00080A  C010  F029         	movff	?___flmul+1,___fladd@b+1
  2523   00080E  C011  F02A         	movff	?___flmul+2,___fladd@b+2
  2524   000812  C012  F02B         	movff	?___flmul+3,___fladd@b+3
  2525   000816  ECB4  F009         	call	___fladd	;wreg free
  2526   00081A  C028  F038         	movff	?___fladd,___fldiv@b
  2527   00081E  C029  F039         	movff	?___fladd+1,___fldiv@b+1
  2528   000822  C02A  F03A         	movff	?___fladd+2,___fldiv@b+2
  2529   000826  C02B  F03B         	movff	?___fladd+3,___fldiv@b+3
  2530   00082A  0E00               	movlw	0
  2531   00082C  6E2C               	movwf	___fladd@a^0,c
  2532   00082E  0E00               	movlw	0
  2533   000830  6E2D               	movwf	(___fladd@a+1)^0,c
  2534   000832  0E00               	movlw	0
  2535   000834  6E2E               	movwf	(___fladd@a+2)^0,c
  2536   000836  0E40               	movlw	64
  2537   000838  6E2F               	movwf	(___fladd@a+3)^0,c
  2538   00083A  C059  F028         	movff	atanf@x,___fladd@b
  2539   00083E  C05A  F029         	movff	atanf@x+1,___fladd@b+1
  2540   000842  C05B  F02A         	movff	atanf@x+2,___fladd@b+2
  2541   000846  C05C  F02B         	movff	atanf@x+3,___fladd@b+3
  2542   00084A  ECB4  F009         	call	___fladd	;wreg free
  2543   00084E  C028  F03C         	movff	?___fladd,___fldiv@a
  2544   000852  C029  F03D         	movff	?___fladd+1,___fldiv@a+1
  2545   000856  C02A  F03E         	movff	?___fladd+2,___fldiv@a+2
  2546   00085A  C02B  F03F         	movff	?___fladd+3,___fldiv@a+3
  2547   00085E  EC22  F00E         	call	___fldiv	;wreg free
  2548   000862  C038  F059         	movff	?___fldiv,atanf@x
  2549   000866  C039  F05A         	movff	?___fldiv+1,atanf@x+1
  2550   00086A  C03A  F05B         	movff	?___fldiv+2,atanf@x+2
  2551   00086E  C03B  F05C         	movff	?___fldiv+3,atanf@x+3
  2552   000872  EFF8  F004         	goto	l2340
  2553   000876                     l2326:
  2554                           
  2555                           ; BSR set to: 0
  2556   000876  0E01               	movlw	1
  2557   000878  6FA1               	movwf	atanf@id& (0+255),b
  2558   00087A                     
  2559                           ; BSR set to: 0
  2560   00087A  0E00               	movlw	0
  2561   00087C  6E2C               	movwf	___fladd@a^0,c
  2562   00087E  0E00               	movlw	0
  2563   000880  6E2D               	movwf	(___fladd@a+1)^0,c
  2564   000882  0E80               	movlw	128
  2565   000884  6E2E               	movwf	(___fladd@a+2)^0,c
  2566   000886  0EBF               	movlw	191
  2567   000888  6E2F               	movwf	(___fladd@a+3)^0,c
  2568   00088A  C059  F028         	movff	atanf@x,___fladd@b
  2569   00088E  C05A  F029         	movff	atanf@x+1,___fladd@b+1
  2570   000892  C05B  F02A         	movff	atanf@x+2,___fladd@b+2
  2571   000896  C05C  F02B         	movff	atanf@x+3,___fladd@b+3
  2572   00089A  ECB4  F009         	call	___fladd	;wreg free
  2573   00089E  C028  F038         	movff	?___fladd,___fldiv@b
  2574   0008A2  C029  F039         	movff	?___fladd+1,___fldiv@b+1
  2575   0008A6  C02A  F03A         	movff	?___fladd+2,___fldiv@b+2
  2576   0008AA  C02B  F03B         	movff	?___fladd+3,___fldiv@b+3
  2577   0008AE  0E00               	movlw	0
  2578   0008B0  6E2C               	movwf	___fladd@a^0,c
  2579   0008B2  0E00               	movlw	0
  2580   0008B4  6E2D               	movwf	(___fladd@a+1)^0,c
  2581   0008B6  0E80               	movlw	128
  2582   0008B8  6E2E               	movwf	(___fladd@a+2)^0,c
  2583   0008BA  0E3F               	movlw	63
  2584   0008BC  6E2F               	movwf	(___fladd@a+3)^0,c
  2585   0008BE  C059  F028         	movff	atanf@x,___fladd@b
  2586   0008C2  C05A  F029         	movff	atanf@x+1,___fladd@b+1
  2587   0008C6  C05B  F02A         	movff	atanf@x+2,___fladd@b+2
  2588   0008CA  C05C  F02B         	movff	atanf@x+3,___fladd@b+3
  2589   0008CE  ECB4  F009         	call	___fladd	;wreg free
  2590   0008D2  C028  F03C         	movff	?___fladd,___fldiv@a
  2591   0008D6  C029  F03D         	movff	?___fladd+1,___fldiv@a+1
  2592   0008DA  C02A  F03E         	movff	?___fladd+2,___fldiv@a+2
  2593   0008DE  C02B  F03F         	movff	?___fladd+3,___fldiv@a+3
  2594   0008E2  EC22  F00E         	call	___fldiv	;wreg free
  2595   0008E6  C038  F059         	movff	?___fldiv,atanf@x
  2596   0008EA  C039  F05A         	movff	?___fldiv+1,atanf@x+1
  2597   0008EE  C03A  F05B         	movff	?___fldiv+2,atanf@x+2
  2598   0008F2  C03B  F05C         	movff	?___fldiv+3,atanf@x+3
  2599   0008F6  EFF8  F004         	goto	l2340
  2600   0008FA                     l2330:
  2601                           
  2602                           ; BSR set to: 0
  2603   0008FA  0E1C               	movlw	28
  2604   0008FC  5DA8               	subwf	(atanf@ix+2)& (0+255),w,b
  2605   0008FE  0E40               	movlw	64
  2606   000900  59A9               	subwfb	(atanf@ix+3)& (0+255),w,b
  2607   000902  B0D8               	btfsc	status,0,c
  2608   000904  EF86  F004         	goto	u2401
  2609   000908  EF88  F004         	goto	u2400
  2610   00090C                     u2401:
  2611   00090C  EFDC  F004         	goto	l2336
  2612   000910                     u2400:
  2613   000910                     
  2614                           ; BSR set to: 0
  2615   000910  0E02               	movlw	2
  2616   000912  6FA1               	movwf	atanf@id& (0+255),b
  2617   000914                     
  2618                           ; BSR set to: 0
  2619   000914  0E00               	movlw	0
  2620   000916  6E2C               	movwf	___fladd@a^0,c
  2621   000918  0E00               	movlw	0
  2622   00091A  6E2D               	movwf	(___fladd@a+1)^0,c
  2623   00091C  0EC0               	movlw	192
  2624   00091E  6E2E               	movwf	(___fladd@a+2)^0,c
  2625   000920  0EBF               	movlw	191
  2626   000922  6E2F               	movwf	(___fladd@a+3)^0,c
  2627   000924  C059  F028         	movff	atanf@x,___fladd@b
  2628   000928  C05A  F029         	movff	atanf@x+1,___fladd@b+1
  2629   00092C  C05B  F02A         	movff	atanf@x+2,___fladd@b+2
  2630   000930  C05C  F02B         	movff	atanf@x+3,___fladd@b+3
  2631   000934  ECB4  F009         	call	___fladd	;wreg free
  2632   000938  C028  F038         	movff	?___fladd,___fldiv@b
  2633   00093C  C029  F039         	movff	?___fladd+1,___fldiv@b+1
  2634   000940  C02A  F03A         	movff	?___fladd+2,___fldiv@b+2
  2635   000944  C02B  F03B         	movff	?___fladd+3,___fldiv@b+3
  2636   000948  0E00               	movlw	0
  2637   00094A  6E2C               	movwf	___fladd@a^0,c
  2638   00094C  0E00               	movlw	0
  2639   00094E  6E2D               	movwf	(___fladd@a+1)^0,c
  2640   000950  0E80               	movlw	128
  2641   000952  6E2E               	movwf	(___fladd@a+2)^0,c
  2642   000954  0E3F               	movlw	63
  2643   000956  6E2F               	movwf	(___fladd@a+3)^0,c
  2644   000958  0E00               	movlw	0
  2645   00095A  6E13               	movwf	___flmul@a^0,c
  2646   00095C  0E00               	movlw	0
  2647   00095E  6E14               	movwf	(___flmul@a+1)^0,c
  2648   000960  0EC0               	movlw	192
  2649   000962  6E15               	movwf	(___flmul@a+2)^0,c
  2650   000964  0E3F               	movlw	63
  2651   000966  6E16               	movwf	(___flmul@a+3)^0,c
  2652   000968  C059  F00F         	movff	atanf@x,___flmul@b
  2653   00096C  C05A  F010         	movff	atanf@x+1,___flmul@b+1
  2654   000970  C05B  F011         	movff	atanf@x+2,___flmul@b+2
  2655   000974  C05C  F012         	movff	atanf@x+3,___flmul@b+3
  2656   000978  EC0F  F00C         	call	___flmul	;wreg free
  2657   00097C  C00F  F028         	movff	?___flmul,___fladd@b
  2658   000980  C010  F029         	movff	?___flmul+1,___fladd@b+1
  2659   000984  C011  F02A         	movff	?___flmul+2,___fladd@b+2
  2660   000988  C012  F02B         	movff	?___flmul+3,___fladd@b+3
  2661   00098C  ECB4  F009         	call	___fladd	;wreg free
  2662   000990  C028  F03C         	movff	?___fladd,___fldiv@a
  2663   000994  C029  F03D         	movff	?___fladd+1,___fldiv@a+1
  2664   000998  C02A  F03E         	movff	?___fladd+2,___fldiv@a+2
  2665   00099C  C02B  F03F         	movff	?___fladd+3,___fldiv@a+3
  2666   0009A0  EC22  F00E         	call	___fldiv	;wreg free
  2667   0009A4  C038  F059         	movff	?___fldiv,atanf@x
  2668   0009A8  C039  F05A         	movff	?___fldiv+1,atanf@x+1
  2669   0009AC  C03A  F05B         	movff	?___fldiv+2,atanf@x+2
  2670   0009B0  C03B  F05C         	movff	?___fldiv+3,atanf@x+3
  2671   0009B4  EFF8  F004         	goto	l2340
  2672   0009B8                     l2336:
  2673                           
  2674                           ; BSR set to: 0
  2675   0009B8  0E03               	movlw	3
  2676   0009BA  6FA1               	movwf	atanf@id& (0+255),b
  2677   0009BC                     
  2678                           ; BSR set to: 0
  2679   0009BC  0E00               	movlw	0
  2680   0009BE  6E38               	movwf	___fldiv@b^0,c
  2681   0009C0  0E00               	movlw	0
  2682   0009C2  6E39               	movwf	(___fldiv@b+1)^0,c
  2683   0009C4  0E80               	movlw	128
  2684   0009C6  6E3A               	movwf	(___fldiv@b+2)^0,c
  2685   0009C8  0EBF               	movlw	191
  2686   0009CA  6E3B               	movwf	(___fldiv@b+3)^0,c
  2687   0009CC  C059  F03C         	movff	atanf@x,___fldiv@a
  2688   0009D0  C05A  F03D         	movff	atanf@x+1,___fldiv@a+1
  2689   0009D4  C05B  F03E         	movff	atanf@x+2,___fldiv@a+2
  2690   0009D8  C05C  F03F         	movff	atanf@x+3,___fldiv@a+3
  2691   0009DC  EC22  F00E         	call	___fldiv	;wreg free
  2692   0009E0  C038  F059         	movff	?___fldiv,atanf@x
  2693   0009E4  C039  F05A         	movff	?___fldiv+1,atanf@x+1
  2694   0009E8  C03A  F05B         	movff	?___fldiv+2,atanf@x+2
  2695   0009EC  C03B  F05C         	movff	?___fldiv+3,atanf@x+3
  2696   0009F0                     l2340:
  2697   0009F0  C059  F00F         	movff	atanf@x,___flmul@b
  2698   0009F4  C05A  F010         	movff	atanf@x+1,___flmul@b+1
  2699   0009F8  C05B  F011         	movff	atanf@x+2,___flmul@b+2
  2700   0009FC  C05C  F012         	movff	atanf@x+3,___flmul@b+3
  2701   000A00  C059  F013         	movff	atanf@x,___flmul@a
  2702   000A04  C05A  F014         	movff	atanf@x+1,___flmul@a+1
  2703   000A08  C05B  F015         	movff	atanf@x+2,___flmul@a+2
  2704   000A0C  C05C  F016         	movff	atanf@x+3,___flmul@a+3
  2705   000A10  EC0F  F00C         	call	___flmul	;wreg free
  2706   000A14  C00F  F0A2         	movff	?___flmul,atanf@z
  2707   000A18  C010  F0A3         	movff	?___flmul+1,atanf@z+1
  2708   000A1C  C011  F0A4         	movff	?___flmul+2,atanf@z+2
  2709   000A20  C012  F0A5         	movff	?___flmul+3,atanf@z+3
  2710   000A24  C0A2  F00F         	movff	atanf@z,___flmul@b
  2711   000A28  C0A3  F010         	movff	atanf@z+1,___flmul@b+1
  2712   000A2C  C0A4  F011         	movff	atanf@z+2,___flmul@b+2
  2713   000A30  C0A5  F012         	movff	atanf@z+3,___flmul@b+3
  2714   000A34  C0A2  F013         	movff	atanf@z,___flmul@a
  2715   000A38  C0A3  F014         	movff	atanf@z+1,___flmul@a+1
  2716   000A3C  C0A4  F015         	movff	atanf@z+2,___flmul@a+2
  2717   000A40  C0A5  F016         	movff	atanf@z+3,___flmul@a+3
  2718   000A44  EC0F  F00C         	call	___flmul	;wreg free
  2719   000A48  C00F  F09D         	movff	?___flmul,atanf@w
  2720   000A4C  C010  F09E         	movff	?___flmul+1,atanf@w+1
  2721   000A50  C011  F09F         	movff	?___flmul+2,atanf@w+2
  2722   000A54  C012  F0A0         	movff	?___flmul+3,atanf@w+3
  2723   000A58  0E0D               	movlw	13
  2724   000A5A  6E2C               	movwf	___fladd@a^0,c
  2725   000A5C  0EF5               	movlw	245
  2726   000A5E  6E2D               	movwf	(___fladd@a+1)^0,c
  2727   000A60  0E11               	movlw	17
  2728   000A62  6E2E               	movwf	(___fladd@a+2)^0,c
  2729   000A64  0E3E               	movlw	62
  2730   000A66  6E2F               	movwf	(___fladd@a+3)^0,c
  2731   000A68  0E25               	movlw	37
  2732   000A6A  6E13               	movwf	___flmul@a^0,c
  2733   000A6C  0EAC               	movlw	172
  2734   000A6E  6E14               	movwf	(___flmul@a+1)^0,c
  2735   000A70  0E7C               	movlw	124
  2736   000A72  6E15               	movwf	(___flmul@a+2)^0,c
  2737   000A74  0E3D               	movlw	61
  2738   000A76  6E16               	movwf	(___flmul@a+3)^0,c
  2739   000A78  C09D  F00F         	movff	atanf@w,___flmul@b
  2740   000A7C  C09E  F010         	movff	atanf@w+1,___flmul@b+1
  2741   000A80  C09F  F011         	movff	atanf@w+2,___flmul@b+2
  2742   000A84  C0A0  F012         	movff	atanf@w+3,___flmul@b+3
  2743   000A88  EC0F  F00C         	call	___flmul	;wreg free
  2744   000A8C  C00F  F028         	movff	?___flmul,___fladd@b
  2745   000A90  C010  F029         	movff	?___flmul+1,___fladd@b+1
  2746   000A94  C011  F02A         	movff	?___flmul+2,___fladd@b+2
  2747   000A98  C012  F02B         	movff	?___flmul+3,___fladd@b+3
  2748   000A9C  ECB4  F009         	call	___fladd	;wreg free
  2749   000AA0  C028  F094         	movff	?___fladd,_atanf$846
  2750   000AA4  C029  F095         	movff	?___fladd+1,_atanf$846+1
  2751   000AA8  C02A  F096         	movff	?___fladd+2,_atanf$846+2
  2752   000AAC  C02B  F097         	movff	?___fladd+3,_atanf$846+3
  2753   000AB0  0EA9               	movlw	169
  2754   000AB2  6E2C               	movwf	___fladd@a^0,c
  2755   000AB4  0EAA               	movlw	170
  2756   000AB6  6E2D               	movwf	(___fladd@a+1)^0,c
  2757   000AB8  0EAA               	movlw	170
  2758   000ABA  6E2E               	movwf	(___fladd@a+2)^0,c
  2759   000ABC  0E3E               	movlw	62
  2760   000ABE  6E2F               	movwf	(___fladd@a+3)^0,c
  2761   000AC0  C09D  F013         	movff	atanf@w,___flmul@a
  2762   000AC4  C09E  F014         	movff	atanf@w+1,___flmul@a+1
  2763   000AC8  C09F  F015         	movff	atanf@w+2,___flmul@a+2
  2764   000ACC  C0A0  F016         	movff	atanf@w+3,___flmul@a+3
  2765   000AD0  C094  F00F         	movff	_atanf$846,___flmul@b
  2766   000AD4  C095  F010         	movff	_atanf$846+1,___flmul@b+1
  2767   000AD8  C096  F011         	movff	_atanf$846+2,___flmul@b+2
  2768   000ADC  C097  F012         	movff	_atanf$846+3,___flmul@b+3
  2769   000AE0  EC0F  F00C         	call	___flmul	;wreg free
  2770   000AE4  C00F  F028         	movff	?___flmul,___fladd@b
  2771   000AE8  C010  F029         	movff	?___flmul+1,___fladd@b+1
  2772   000AEC  C011  F02A         	movff	?___flmul+2,___fladd@b+2
  2773   000AF0  C012  F02B         	movff	?___flmul+3,___fladd@b+3
  2774   000AF4  ECB4  F009         	call	___fladd	;wreg free
  2775   000AF8  C028  F080         	movff	?___fladd,_atanf$847
  2776   000AFC  C029  F081         	movff	?___fladd+1,_atanf$847+1
  2777   000B00  C02A  F082         	movff	?___fladd+2,_atanf$847+2
  2778   000B04  C02B  F083         	movff	?___fladd+3,_atanf$847+3
  2779   000B08  C080  F00F         	movff	_atanf$847,___flmul@b
  2780   000B0C  C081  F010         	movff	_atanf$847+1,___flmul@b+1
  2781   000B10  C082  F011         	movff	_atanf$847+2,___flmul@b+2
  2782   000B14  C083  F012         	movff	_atanf$847+3,___flmul@b+3
  2783   000B18  C0A2  F013         	movff	atanf@z,___flmul@a
  2784   000B1C  C0A3  F014         	movff	atanf@z+1,___flmul@a+1
  2785   000B20  C0A4  F015         	movff	atanf@z+2,___flmul@a+2
  2786   000B24  C0A5  F016         	movff	atanf@z+3,___flmul@a+3
  2787   000B28  EC0F  F00C         	call	___flmul	;wreg free
  2788   000B2C  C00F  F08C         	movff	?___flmul,atanf@s1
  2789   000B30  C010  F08D         	movff	?___flmul+1,atanf@s1+1
  2790   000B34  C011  F08E         	movff	?___flmul+2,atanf@s1+2
  2791   000B38  C012  F08F         	movff	?___flmul+3,atanf@s1+3
  2792   000B3C  0E98               	movlw	152
  2793   000B3E  6E2C               	movwf	___fladd@a^0,c
  2794   000B40  0ECA               	movlw	202
  2795   000B42  6E2D               	movwf	(___fladd@a+1)^0,c
  2796   000B44  0E4C               	movlw	76
  2797   000B46  6E2E               	movwf	(___fladd@a+2)^0,c
  2798   000B48  0EBE               	movlw	190
  2799   000B4A  6E2F               	movwf	(___fladd@a+3)^0,c
  2800   000B4C  0E47               	movlw	71
  2801   000B4E  6E13               	movwf	___flmul@a^0,c
  2802   000B50  0E12               	movlw	18
  2803   000B52  6E14               	movwf	(___flmul@a+1)^0,c
  2804   000B54  0EDA               	movlw	218
  2805   000B56  6E15               	movwf	(___flmul@a+2)^0,c
  2806   000B58  0EBD               	movlw	189
  2807   000B5A  6E16               	movwf	(___flmul@a+3)^0,c
  2808   000B5C  C09D  F00F         	movff	atanf@w,___flmul@b
  2809   000B60  C09E  F010         	movff	atanf@w+1,___flmul@b+1
  2810   000B64  C09F  F011         	movff	atanf@w+2,___flmul@b+2
  2811   000B68  C0A0  F012         	movff	atanf@w+3,___flmul@b+3
  2812   000B6C  EC0F  F00C         	call	___flmul	;wreg free
  2813   000B70  C00F  F028         	movff	?___flmul,___fladd@b
  2814   000B74  C010  F029         	movff	?___flmul+1,___fladd@b+1
  2815   000B78  C011  F02A         	movff	?___flmul+2,___fladd@b+2
  2816   000B7C  C012  F02B         	movff	?___flmul+3,___fladd@b+3
  2817   000B80  ECB4  F009         	call	___fladd	;wreg free
  2818   000B84  C028  F094         	movff	?___fladd,_atanf$846
  2819   000B88  C029  F095         	movff	?___fladd+1,_atanf$846+1
  2820   000B8C  C02A  F096         	movff	?___fladd+2,_atanf$846+2
  2821   000B90  C02B  F097         	movff	?___fladd+3,_atanf$846+3
  2822   000B94  C094  F00F         	movff	_atanf$846,___flmul@b
  2823   000B98  C095  F010         	movff	_atanf$846+1,___flmul@b+1
  2824   000B9C  C096  F011         	movff	_atanf$846+2,___flmul@b+2
  2825   000BA0  C097  F012         	movff	_atanf$846+3,___flmul@b+3
  2826   000BA4  C09D  F013         	movff	atanf@w,___flmul@a
  2827   000BA8  C09E  F014         	movff	atanf@w+1,___flmul@a+1
  2828   000BAC  C09F  F015         	movff	atanf@w+2,___flmul@a+2
  2829   000BB0  C0A0  F016         	movff	atanf@w+3,___flmul@a+3
  2830   000BB4  EC0F  F00C         	call	___flmul	;wreg free
  2831   000BB8  C00F  F090         	movff	?___flmul,atanf@s2
  2832   000BBC  C010  F091         	movff	?___flmul+1,atanf@s2+1
  2833   000BC0  C011  F092         	movff	?___flmul+2,atanf@s2+2
  2834   000BC4  C012  F093         	movff	?___flmul+3,atanf@s2+3
  2835   000BC8  0100               	movlb	0	; () banked
  2836   000BCA  BFA1               	btfsc	atanf@id& (0+255),7,b
  2837   000BCC  EFEC  F005         	goto	u2410
  2838   000BD0  EFEA  F005         	goto	u2411
  2839   000BD4                     u2411:
  2840   000BD4  EF34  F006         	goto	l2362
  2841   000BD8                     u2410:
  2842   000BD8                     
  2843                           ; BSR set to: 0
  2844   000BD8  C059  F013         	movff	atanf@x,___flmul@a
  2845   000BDC  C05A  F014         	movff	atanf@x+1,___flmul@a+1
  2846   000BE0  C05B  F015         	movff	atanf@x+2,___flmul@a+2
  2847   000BE4  C05C  F016         	movff	atanf@x+3,___flmul@a+3
  2848   000BE8  C090  F02C         	movff	atanf@s2,___fladd@a
  2849   000BEC  C091  F02D         	movff	atanf@s2+1,___fladd@a+1
  2850   000BF0  C092  F02E         	movff	atanf@s2+2,___fladd@a+2
  2851   000BF4  C093  F02F         	movff	atanf@s2+3,___fladd@a+3
  2852   000BF8  C08C  F028         	movff	atanf@s1,___fladd@b
  2853   000BFC  C08D  F029         	movff	atanf@s1+1,___fladd@b+1
  2854   000C00  C08E  F02A         	movff	atanf@s1+2,___fladd@b+2
  2855   000C04  C08F  F02B         	movff	atanf@s1+3,___fladd@b+3
  2856   000C08  ECB4  F009         	call	___fladd	;wreg free
  2857   000C0C  C028  F00F         	movff	?___fladd,___flmul@b
  2858   000C10  C029  F010         	movff	?___fladd+1,___flmul@b+1
  2859   000C14  C02A  F011         	movff	?___fladd+2,___flmul@b+2
  2860   000C18  C02B  F012         	movff	?___fladd+3,___flmul@b+3
  2861   000C1C  EC0F  F00C         	call	___flmul	;wreg free
  2862   000C20  C00F  F098         	movff	?___flmul,_atanf$848
  2863   000C24  C010  F099         	movff	?___flmul+1,_atanf$848+1
  2864   000C28  C011  F09A         	movff	?___flmul+2,_atanf$848+2
  2865   000C2C  C012  F09B         	movff	?___flmul+3,_atanf$848+3
  2866   000C30  C059  F038         	movff	atanf@x,___flsub@b
  2867   000C34  C05A  F039         	movff	atanf@x+1,___flsub@b+1
  2868   000C38  C05B  F03A         	movff	atanf@x+2,___flsub@b+2
  2869   000C3C  C05C  F03B         	movff	atanf@x+3,___flsub@b+3
  2870   000C40  C098  F03C         	movff	_atanf$848,___flsub@a
  2871   000C44  C099  F03D         	movff	_atanf$848+1,___flsub@a+1
  2872   000C48  C09A  F03E         	movff	_atanf$848+2,___flsub@a+2
  2873   000C4C  C09B  F03F         	movff	_atanf$848+3,___flsub@a+3
  2874   000C50  EC80  F013         	call	___flsub	;wreg free
  2875   000C54  C038  F059         	movff	?___flsub,?_atanf
  2876   000C58  C039  F05A         	movff	?___flsub+1,?_atanf+1
  2877   000C5C  C03A  F05B         	movff	?___flsub+2,?_atanf+2
  2878   000C60  C03B  F05C         	movff	?___flsub+3,?_atanf+3
  2879   000C64  EFD5  F006         	goto	l868
  2880   000C68                     l2362:
  2881                           
  2882                           ; BSR set to: 0
  2883   000C68  C059  F013         	movff	atanf@x,___flmul@a
  2884   000C6C  C05A  F014         	movff	atanf@x+1,___flmul@a+1
  2885   000C70  C05B  F015         	movff	atanf@x+2,___flmul@a+2
  2886   000C74  C05C  F016         	movff	atanf@x+3,___flmul@a+3
  2887   000C78  C090  F02C         	movff	atanf@s2,___fladd@a
  2888   000C7C  C091  F02D         	movff	atanf@s2+1,___fladd@a+1
  2889   000C80  C092  F02E         	movff	atanf@s2+2,___fladd@a+2
  2890   000C84  C093  F02F         	movff	atanf@s2+3,___fladd@a+3
  2891   000C88  C08C  F028         	movff	atanf@s1,___fladd@b
  2892   000C8C  C08D  F029         	movff	atanf@s1+1,___fladd@b+1
  2893   000C90  C08E  F02A         	movff	atanf@s1+2,___fladd@b+2
  2894   000C94  C08F  F02B         	movff	atanf@s1+3,___fladd@b+3
  2895   000C98  ECB4  F009         	call	___fladd	;wreg free
  2896   000C9C  C028  F00F         	movff	?___fladd,___flmul@b
  2897   000CA0  C029  F010         	movff	?___fladd+1,___flmul@b+1
  2898   000CA4  C02A  F011         	movff	?___fladd+2,___flmul@b+2
  2899   000CA8  C02B  F012         	movff	?___fladd+3,___flmul@b+3
  2900   000CAC  EC0F  F00C         	call	___flmul	;wreg free
  2901   000CB0  C00F  F098         	movff	?___flmul,_atanf$848
  2902   000CB4  C010  F099         	movff	?___flmul+1,_atanf$848+1
  2903   000CB8  C011  F09A         	movff	?___flmul+2,_atanf$848+2
  2904   000CBC  C012  F09B         	movff	?___flmul+3,_atanf$848+3
  2905   000CC0  0100               	movlb	0	; () banked
  2906   000CC2  51A1               	movf	atanf@id& (0+255),w,b
  2907   000CC4  0D04               	mullw	4
  2908   000CC6  50F3               	movf	243,w,c
  2909   000CC8  0F01               	addlw	low _atanlo
  2910   000CCA  6E5D               	movwf	??_atanf^0,c
  2911   000CCC  C05D  FFF6         	movff	??_atanf,tblptrl
  2912   000CD0                     	if	1	;There is more than 1 active tblptr byte
  2913   000CD0  0E06               	movlw	high __smallconst
  2914   000CD2  6EF7               	movwf	tblptrh,c
  2915   000CD4                     	endif
  2916   000CD4                     	if	0	;tblptru may be non-zero
  2917   000CD4                     	endif
  2918   000CD4                     	if	0	;tblptru may be non-zero
  2919   000CD4                     	endif
  2920   000CD4  0009               	tblrd		*+
  2921   000CD6  CFF5 F03C          	movff	tablat,___flsub@a
  2922   000CDA  0009               	tblrd		*+
  2923   000CDC  CFF5 F03D          	movff	tablat,___flsub@a+1
  2924   000CE0  0009               	tblrd		*+
  2925   000CE2  CFF5 F03E          	movff	tablat,___flsub@a+2
  2926   000CE6  000A               	tblrd		*-
  2927   000CE8  CFF5 F03F          	movff	tablat,___flsub@a+3
  2928   000CEC  C098  F038         	movff	_atanf$848,___flsub@b
  2929   000CF0  C099  F039         	movff	_atanf$848+1,___flsub@b+1
  2930   000CF4  C09A  F03A         	movff	_atanf$848+2,___flsub@b+2
  2931   000CF8  C09B  F03B         	movff	_atanf$848+3,___flsub@b+3
  2932   000CFC  EC80  F013         	call	___flsub	;wreg free
  2933   000D00  C038  F084         	movff	?___flsub,_atanf$849
  2934   000D04  C039  F085         	movff	?___flsub+1,_atanf$849+1
  2935   000D08  C03A  F086         	movff	?___flsub+2,_atanf$849+2
  2936   000D0C  C03B  F087         	movff	?___flsub+3,_atanf$849+3
  2937   000D10  C059  F03C         	movff	atanf@x,___flsub@a
  2938   000D14  C05A  F03D         	movff	atanf@x+1,___flsub@a+1
  2939   000D18  C05B  F03E         	movff	atanf@x+2,___flsub@a+2
  2940   000D1C  C05C  F03F         	movff	atanf@x+3,___flsub@a+3
  2941   000D20  C084  F038         	movff	_atanf$849,___flsub@b
  2942   000D24  C085  F039         	movff	_atanf$849+1,___flsub@b+1
  2943   000D28  C086  F03A         	movff	_atanf$849+2,___flsub@b+2
  2944   000D2C  C087  F03B         	movff	_atanf$849+3,___flsub@b+3
  2945   000D30  EC80  F013         	call	___flsub	;wreg free
  2946   000D34  C038  F088         	movff	?___flsub,_atanf$850
  2947   000D38  C039  F089         	movff	?___flsub+1,_atanf$850+1
  2948   000D3C  C03A  F08A         	movff	?___flsub+2,_atanf$850+2
  2949   000D40  C03B  F08B         	movff	?___flsub+3,_atanf$850+3
  2950   000D44  0100               	movlb	0	; () banked
  2951   000D46  51A1               	movf	atanf@id& (0+255),w,b
  2952   000D48  0D04               	mullw	4
  2953   000D4A  50F3               	movf	243,w,c
  2954   000D4C  0F11               	addlw	low _atanhi
  2955   000D4E  6E5D               	movwf	??_atanf^0,c
  2956   000D50  C05D  FFF6         	movff	??_atanf,tblptrl
  2957   000D54                     	if	1	;There is more than 1 active tblptr byte
  2958   000D54  0E06               	movlw	high __smallconst
  2959   000D56  6EF7               	movwf	tblptrh,c
  2960   000D58                     	endif
  2961   000D58                     	if	0	;tblptru may be non-zero
  2962   000D58                     	endif
  2963   000D58                     	if	0	;tblptru may be non-zero
  2964   000D58                     	endif
  2965   000D58  0009               	tblrd		*+
  2966   000D5A  CFF5 F038          	movff	tablat,___flsub@b
  2967   000D5E  0009               	tblrd		*+
  2968   000D60  CFF5 F039          	movff	tablat,___flsub@b+1
  2969   000D64  0009               	tblrd		*+
  2970   000D66  CFF5 F03A          	movff	tablat,___flsub@b+2
  2971   000D6A  000A               	tblrd		*-
  2972   000D6C  CFF5 F03B          	movff	tablat,___flsub@b+3
  2973   000D70  C088  F03C         	movff	_atanf$850,___flsub@a
  2974   000D74  C089  F03D         	movff	_atanf$850+1,___flsub@a+1
  2975   000D78  C08A  F03E         	movff	_atanf$850+2,___flsub@a+2
  2976   000D7C  C08B  F03F         	movff	_atanf$850+3,___flsub@a+3
  2977   000D80  EC80  F013         	call	___flsub	;wreg free
  2978   000D84  C038  F0A2         	movff	?___flsub,atanf@z
  2979   000D88  C039  F0A3         	movff	?___flsub+1,atanf@z+1
  2980   000D8C  C03A  F0A4         	movff	?___flsub+2,atanf@z+2
  2981   000D90  C03B  F0A5         	movff	?___flsub+3,atanf@z+3
  2982   000D94  0100               	movlb	0	; () banked
  2983   000D96  519C               	movf	atanf@sign& (0+255),w,b
  2984   000D98  A4D8               	btfss	status,2,c
  2985   000D9A  EFD1  F006         	goto	u2421
  2986   000D9E  EFD3  F006         	goto	u2420
  2987   000DA2                     u2421:
  2988   000DA2  EF90  F003         	goto	l2306
  2989   000DA6                     u2420:
  2990   000DA6  EF86  F003         	goto	l2304
  2991   000DAA                     l868:
  2992   000DAA  0012               	return		;funcret
  2993   000DAC                     __end_of_atanf:
  2994                           	callstack 0
  2995                           
  2996 ;; *************** function _fabsf *****************
  2997 ;; Defined at:
  2998 ;;		line 4 in file "C:\Program Files\Microchip\xc8\v2.50\pic\sources\c99\common\fabsf.c"
  2999 ;; Parameters:    Size  Location     Type
  3000 ;;  x               4   80[COMRAM] float 
  3001 ;; Auto vars:     Size  Location     Type
  3002 ;;  u               4   84[COMRAM] struct .
  3003 ;; Return value:  Size  Location     Type
  3004 ;;                  4   80[COMRAM] float 
  3005 ;; Registers used:
  3006 ;;		status,2, status,0
  3007 ;; Tracked objects:
  3008 ;;		On entry : 0/0
  3009 ;;		On exit  : 0/0
  3010 ;;		Unchanged: 0/0
  3011 ;; Data sizes:     COMRAM   BANK0   BANK1   BANK2   BANK3   BANK4   BANK5
  3012 ;;      Params:         4       0       0       0       0       0       0
  3013 ;;      Locals:         4       0       0       0       0       0       0
  3014 ;;      Temps:          0       0       0       0       0       0       0
  3015 ;;      Totals:         8       0       0       0       0       0       0
  3016 ;;Total ram usage:        8 bytes
  3017 ;; Hardware stack levels used: 1
  3018 ;; This function calls:
  3019 ;;		Nothing
  3020 ;; This function is called by:
  3021 ;;		_atan2f
  3022 ;;		_atanf
  3023 ;; This function uses a non-reentrant model
  3024 ;;
  3025                           
  3026                           	psect	text7
  3027   0027BC                     __ptext7:
  3028                           	callstack 0
  3029   0027BC                     _fabsf:
  3030                           	callstack 28
  3031   0027BC  C0D7  F055         	movff	fabsf@F465,fabsf@u
  3032   0027C0  C0D8  F056         	movff	fabsf@F465+1,fabsf@u+1
  3033   0027C4  C0D9  F057         	movff	fabsf@F465+2,fabsf@u+2
  3034   0027C8  C0DA  F058         	movff	fabsf@F465+3,fabsf@u+3
  3035   0027CC  C051  F055         	movff	fabsf@x,fabsf@u
  3036   0027D0  C052  F056         	movff	fabsf@x+1,fabsf@u+1
  3037   0027D4  C053  F057         	movff	fabsf@x+2,fabsf@u+2
  3038   0027D8  C054  F058         	movff	fabsf@x+3,fabsf@u+3
  3039   0027DC  9E58               	bcf	(fabsf@u+3)^0,7,c
  3040   0027DE  C055  F051         	movff	fabsf@u,?_fabsf
  3041   0027E2  C056  F052         	movff	fabsf@u+1,?_fabsf+1
  3042   0027E6  C057  F053         	movff	fabsf@u+2,?_fabsf+2
  3043   0027EA  C058  F054         	movff	fabsf@u+3,?_fabsf+3
  3044   0027EE  0012               	return		;funcret
  3045   0027F0                     __end_of_fabsf:
  3046                           	callstack 0
  3047                           
  3048 ;; *************** function ___fpclassifyf *****************
  3049 ;; Defined at:
  3050 ;;		line 4 in file "C:\Program Files\Microchip\xc8\v2.50\pic\sources\c99\common\__fpclassifyf.c"
  3051 ;; Parameters:    Size  Location     Type
  3052 ;;  x               4    0[COMRAM] float 
  3053 ;; Auto vars:     Size  Location     Type
  3054 ;;  u               4   10[COMRAM] struct .
  3055 ;;  e               2    8[COMRAM] int 
  3056 ;; Return value:  Size  Location     Type
  3057 ;;                  2    0[COMRAM] int 
  3058 ;; Registers used:
  3059 ;;		wreg, status,2, status,0
  3060 ;; Tracked objects:
  3061 ;;		On entry : 0/0
  3062 ;;		On exit  : 0/0
  3063 ;;		Unchanged: 0/0
  3064 ;; Data sizes:     COMRAM   BANK0   BANK1   BANK2   BANK3   BANK4   BANK5
  3065 ;;      Params:         4       0       0       0       0       0       0
  3066 ;;      Locals:         6       0       0       0       0       0       0
  3067 ;;      Temps:          4       0       0       0       0       0       0
  3068 ;;      Totals:        14       0       0       0       0       0       0
  3069 ;;Total ram usage:       14 bytes
  3070 ;; Hardware stack levels used: 1
  3071 ;; This function calls:
  3072 ;;		Nothing
  3073 ;; This function is called by:
  3074 ;;		_atan2f
  3075 ;;		_atanf
  3076 ;; This function uses a non-reentrant model
  3077 ;;
  3078                           
  3079                           	psect	text8
  3080   002544                     __ptext8:
  3081                           	callstack 0
  3082   002544                     ___fpclassifyf:
  3083                           	callstack 27
  3084   002544  C0DB  F00B         	movff	___fpclassifyf@F465,___fpclassifyf@u
  3085   002548  C0DC  F00C         	movff	___fpclassifyf@F465+1,___fpclassifyf@u+1
  3086   00254C  C0DD  F00D         	movff	___fpclassifyf@F465+2,___fpclassifyf@u+2
  3087   002550  C0DE  F00E         	movff	___fpclassifyf@F465+3,___fpclassifyf@u+3
  3088   002554  C001  F00B         	movff	___fpclassifyf@x,___fpclassifyf@u
  3089   002558  C002  F00C         	movff	___fpclassifyf@x+1,___fpclassifyf@u+1
  3090   00255C  C003  F00D         	movff	___fpclassifyf@x+2,___fpclassifyf@u+2
  3091   002560  C004  F00E         	movff	___fpclassifyf@x+3,___fpclassifyf@u+3
  3092   002564  C00B  F005         	movff	___fpclassifyf@u,??___fpclassifyf
  3093   002568  C00C  F006         	movff	___fpclassifyf@u+1,??___fpclassifyf+1
  3094   00256C  C00D  F007         	movff	___fpclassifyf@u+2,??___fpclassifyf+2
  3095   002570  C00E  F008         	movff	___fpclassifyf@u+3,??___fpclassifyf+3
  3096   002574  0E18               	movlw	24
  3097   002576  EFC2  F012         	goto	u2240
  3098   00257A                     u2245:
  3099   00257A  90D8               	bcf	status,0,c
  3100   00257C  3208               	rrcf	(??___fpclassifyf+3)^0,f,c
  3101   00257E  3207               	rrcf	(??___fpclassifyf+2)^0,f,c
  3102   002580  3206               	rrcf	(??___fpclassifyf+1)^0,f,c
  3103   002582  3205               	rrcf	??___fpclassifyf^0,f,c
  3104   002584                     u2240:
  3105   002584  2EE8               	decfsz	wreg,f,c
  3106   002586  EFBD  F012         	goto	u2245
  3107   00258A  5005               	movf	??___fpclassifyf^0,w,c
  3108   00258C  6E09               	movwf	___fpclassifyf@e^0,c
  3109   00258E  6A0A               	clrf	(___fpclassifyf@e+1)^0,c
  3110   002590  5009               	movf	___fpclassifyf@e^0,w,c
  3111   002592  100A               	iorwf	(___fpclassifyf@e+1)^0,w,c
  3112   002594  A4D8               	btfss	status,2,c
  3113   002596  EFCF  F012         	goto	u2251
  3114   00259A  EFD1  F012         	goto	u2250
  3115   00259E                     u2251:
  3116   00259E  EFF1  F012         	goto	l2270
  3117   0025A2                     u2250:
  3118   0025A2  90D8               	bcf	status,0,c
  3119   0025A4  340B               	rlcf	___fpclassifyf@u^0,w,c
  3120   0025A6  6E05               	movwf	??___fpclassifyf^0,c
  3121   0025A8  340C               	rlcf	(___fpclassifyf@u+1)^0,w,c
  3122   0025AA  6E06               	movwf	(??___fpclassifyf+1)^0,c
  3123   0025AC  340D               	rlcf	(___fpclassifyf@u+2)^0,w,c
  3124   0025AE  6E07               	movwf	(??___fpclassifyf+2)^0,c
  3125   0025B0  340E               	rlcf	(___fpclassifyf@u+3)^0,w,c
  3126   0025B2  6E08               	movwf	(??___fpclassifyf+3)^0,c
  3127   0025B4  5005               	movf	??___fpclassifyf^0,w,c
  3128   0025B6  1006               	iorwf	(??___fpclassifyf+1)^0,w,c
  3129   0025B8  1007               	iorwf	(??___fpclassifyf+2)^0,w,c
  3130   0025BA  1008               	iorwf	(??___fpclassifyf+3)^0,w,c
  3131   0025BC  A4D8               	btfss	status,2,c
  3132   0025BE  EFE3  F012         	goto	u2261
  3133   0025C2  EFE5  F012         	goto	u2260
  3134   0025C6                     u2261:
  3135   0025C6  EFEB  F012         	goto	l2266
  3136   0025CA                     u2260:
  3137   0025CA  0E00               	movlw	0
  3138   0025CC  6E02               	movwf	(?___fpclassifyf+1)^0,c
  3139   0025CE  0E02               	movlw	2
  3140   0025D0  6E01               	movwf	?___fpclassifyf^0,c
  3141   0025D2  EF20  F013         	goto	l844
  3142   0025D6                     l2266:
  3143   0025D6  0E00               	movlw	0
  3144   0025D8  6E02               	movwf	(?___fpclassifyf+1)^0,c
  3145   0025DA  0E03               	movlw	3
  3146   0025DC  6E01               	movwf	?___fpclassifyf^0,c
  3147   0025DE  EF20  F013         	goto	l844
  3148   0025E2                     l2270:
  3149   0025E2  2809               	incf	___fpclassifyf@e^0,w,c
  3150   0025E4  100A               	iorwf	(___fpclassifyf@e+1)^0,w,c
  3151   0025E6  A4D8               	btfss	status,2,c
  3152   0025E8  EFF8  F012         	goto	u2271
  3153   0025EC  EFFA  F012         	goto	u2270
  3154   0025F0                     u2271:
  3155   0025F0  EF1C  F013         	goto	l2276
  3156   0025F4                     u2270:
  3157   0025F4  C00B  F005         	movff	___fpclassifyf@u,??___fpclassifyf
  3158   0025F8  C00C  F006         	movff	___fpclassifyf@u+1,??___fpclassifyf+1
  3159   0025FC  C00D  F007         	movff	___fpclassifyf@u+2,??___fpclassifyf+2
  3160   002600  C00E  F008         	movff	___fpclassifyf@u+3,??___fpclassifyf+3
  3161   002604  0E09               	movlw	9
  3162   002606                     u2285:
  3163   002606  90D8               	bcf	status,0,c
  3164   002608  3605               	rlcf	??___fpclassifyf^0,f,c
  3165   00260A  3606               	rlcf	(??___fpclassifyf+1)^0,f,c
  3166   00260C  3607               	rlcf	(??___fpclassifyf+2)^0,f,c
  3167   00260E  3608               	rlcf	(??___fpclassifyf+3)^0,f,c
  3168   002610  2EE8               	decfsz	wreg,f,c
  3169   002612  EF03  F013         	goto	u2285
  3170   002616  5005               	movf	??___fpclassifyf^0,w,c
  3171   002618  1006               	iorwf	(??___fpclassifyf+1)^0,w,c
  3172   00261A  1007               	iorwf	(??___fpclassifyf+2)^0,w,c
  3173   00261C  1008               	iorwf	(??___fpclassifyf+3)^0,w,c
  3174   00261E  B4D8               	btfsc	status,2,c
  3175   002620  EF14  F013         	goto	u2291
  3176   002624  EF17  F013         	goto	u2290
  3177   002628                     u2291:
  3178   002628  0E01               	movlw	1
  3179   00262A  EF18  F013         	goto	u2300
  3180   00262E                     u2290:
  3181   00262E  0E00               	movlw	0
  3182   002630                     u2300:
  3183   002630  6E01               	movwf	?___fpclassifyf^0,c
  3184   002632  6A02               	clrf	(?___fpclassifyf+1)^0,c
  3185   002634  EF20  F013         	goto	l844
  3186   002638                     l2276:
  3187   002638  0E00               	movlw	0
  3188   00263A  6E02               	movwf	(?___fpclassifyf+1)^0,c
  3189   00263C  0E04               	movlw	4
  3190   00263E  6E01               	movwf	?___fpclassifyf^0,c
  3191   002640                     l844:
  3192   002640  0012               	return		;funcret
  3193   002642                     __end_of___fpclassifyf:
  3194                           	callstack 0
  3195                           
  3196 ;; *************** function ___flsub *****************
  3197 ;; Defined at:
  3198 ;;		line 245 in file "C:\Program Files\Microchip\xc8\v2.50\pic\sources\c99\common\sprcadd.c"
  3199 ;; Parameters:    Size  Location     Type
  3200 ;;  b               4   55[COMRAM] int 
  3201 ;;  a               4   59[COMRAM] int 
  3202 ;; Auto vars:     Size  Location     Type
  3203 ;;		None
  3204 ;; Return value:  Size  Location     Type
  3205 ;;                  4   55[COMRAM] int 
  3206 ;; Registers used:
  3207 ;;		wreg, status,2, status,0, cstack
  3208 ;; Tracked objects:
  3209 ;;		On entry : 0/0
  3210 ;;		On exit  : 0/0
  3211 ;;		Unchanged: 0/0
  3212 ;; Data sizes:     COMRAM   BANK0   BANK1   BANK2   BANK3   BANK4   BANK5
  3213 ;;      Params:         8       0       0       0       0       0       0
  3214 ;;      Locals:         0       0       0       0       0       0       0
  3215 ;;      Temps:          0       0       0       0       0       0       0
  3216 ;;      Totals:         8       0       0       0       0       0       0
  3217 ;;Total ram usage:        8 bytes
  3218 ;; Hardware stack levels used: 1
  3219 ;; Hardware stack levels required when called: 1
  3220 ;; This function calls:
  3221 ;;		___fladd
  3222 ;; This function is called by:
  3223 ;;		_main
  3224 ;;		_atan2f
  3225 ;;		_atanf
  3226 ;; This function uses a non-reentrant model
  3227 ;;
  3228                           
  3229                           	psect	text9
  3230   002700                     __ptext9:
  3231                           	callstack 0
  3232   002700                     ___flsub:
  3233                           	callstack 26
  3234   002700  0E00               	movlw	0
  3235   002702  1A3C               	xorwf	___flsub@a^0,f,c
  3236   002704  0E00               	movlw	0
  3237   002706  1A3D               	xorwf	(___flsub@a+1)^0,f,c
  3238   002708  0E00               	movlw	0
  3239   00270A  1A3E               	xorwf	(___flsub@a+2)^0,f,c
  3240   00270C  0E80               	movlw	128
  3241   00270E  1A3F               	xorwf	(___flsub@a+3)^0,f,c
  3242   002710  C038  F028         	movff	___flsub@b,___fladd@b
  3243   002714  C039  F029         	movff	___flsub@b+1,___fladd@b+1
  3244   002718  C03A  F02A         	movff	___flsub@b+2,___fladd@b+2
  3245   00271C  C03B  F02B         	movff	___flsub@b+3,___fladd@b+3
  3246   002720  C03C  F02C         	movff	___flsub@a,___fladd@a
  3247   002724  C03D  F02D         	movff	___flsub@a+1,___fladd@a+1
  3248   002728  C03E  F02E         	movff	___flsub@a+2,___fladd@a+2
  3249   00272C  C03F  F02F         	movff	___flsub@a+3,___fladd@a+3
  3250   002730  ECB4  F009         	call	___fladd	;wreg free
  3251   002734  C028  F038         	movff	?___fladd,?___flsub
  3252   002738  C029  F039         	movff	?___fladd+1,?___flsub+1
  3253   00273C  C02A  F03A         	movff	?___fladd+2,?___flsub+2
  3254   002740  C02B  F03B         	movff	?___fladd+3,?___flsub+3
  3255   002744  0012               	return		;funcret
  3256   002746                     __end_of___flsub:
  3257                           	callstack 0
  3258                           
  3259 ;; *************** function ___fladd *****************
  3260 ;; Defined at:
  3261 ;;		line 10 in file "C:\Program Files\Microchip\xc8\v2.50\pic\sources\c99\common\sprcadd.c"
  3262 ;; Parameters:    Size  Location     Type
  3263 ;;  b               4   39[COMRAM] int 
  3264 ;;  a               4   43[COMRAM] int 
  3265 ;; Auto vars:     Size  Location     Type
  3266 ;;  grs             1   54[COMRAM] unsigned char 
  3267 ;;  bexp            1   53[COMRAM] unsigned char 
  3268 ;;  aexp            1   52[COMRAM] unsigned char 
  3269 ;;  signs           1   51[COMRAM] unsigned char 
  3270 ;; Return value:  Size  Location     Type
  3271 ;;                  4   39[COMRAM] unsigned char 
  3272 ;; Registers used:
  3273 ;;		wreg, status,2, status,0
  3274 ;; Tracked objects:
  3275 ;;		On entry : 0/0
  3276 ;;		On exit  : 0/0
  3277 ;;		Unchanged: 0/0
  3278 ;; Data sizes:     COMRAM   BANK0   BANK1   BANK2   BANK3   BANK4   BANK5
  3279 ;;      Params:         8       0       0       0       0       0       0
  3280 ;;      Locals:         4       0       0       0       0       0       0
  3281 ;;      Temps:          4       0       0       0       0       0       0
  3282 ;;      Totals:        16       0       0       0       0       0       0
  3283 ;;Total ram usage:       16 bytes
  3284 ;; Hardware stack levels used: 1
  3285 ;; This function calls:
  3286 ;;		Nothing
  3287 ;; This function is called by:
  3288 ;;		___flsub
  3289 ;;		_atan2f
  3290 ;;		_atanf
  3291 ;; This function uses a non-reentrant model
  3292 ;;
  3293                           
  3294                           	psect	text10
  3295   001368                     __ptext10:
  3296                           	callstack 0
  3297   001368                     ___fladd:
  3298                           	callstack 26
  3299   001368  502B               	movf	(___fladd@b+3)^0,w,c
  3300   00136A  0B80               	andlw	128
  3301   00136C  6E34               	movwf	___fladd@signs^0,c
  3302   00136E  502B               	movf	(___fladd@b+3)^0,w,c
  3303   001370  242B               	addwf	(___fladd@b+3)^0,w,c
  3304   001372  6E36               	movwf	___fladd@bexp^0,c
  3305   001374  AE2A               	btfss	(___fladd@b+2)^0,7,c
  3306   001376  EFBF  F009         	goto	u1421
  3307   00137A  EFC1  F009         	goto	u1420
  3308   00137E                     u1421:
  3309   00137E  EFC2  F009         	goto	l1792
  3310   001382                     u1420:
  3311   001382  8036               	bsf	___fladd@bexp^0,0,c
  3312   001384                     l1792:
  3313   001384  5036               	movf	___fladd@bexp^0,w,c
  3314   001386  B4D8               	btfsc	status,2,c
  3315   001388  EFC8  F009         	goto	u1431
  3316   00138C  EFCA  F009         	goto	u1430
  3317   001390                     u1431:
  3318   001390  EFDE  F009         	goto	l1802
  3319   001394                     u1430:
  3320   001394  2836               	incf	___fladd@bexp^0,w,c
  3321   001396  A4D8               	btfss	status,2,c
  3322   001398  EFD0  F009         	goto	u1441
  3323   00139C  EFD2  F009         	goto	u1440
  3324   0013A0                     u1441:
  3325   0013A0  EFDA  F009         	goto	l1798
  3326   0013A4                     u1440:
  3327   0013A4  0E00               	movlw	0
  3328   0013A6  6E28               	movwf	___fladd@b^0,c
  3329   0013A8  0E00               	movlw	0
  3330   0013AA  6E29               	movwf	(___fladd@b+1)^0,c
  3331   0013AC  0E00               	movlw	0
  3332   0013AE  6E2A               	movwf	(___fladd@b+2)^0,c
  3333   0013B0  0E00               	movlw	0
  3334   0013B2  6E2B               	movwf	(___fladd@b+3)^0,c
  3335   0013B4                     l1798:
  3336   0013B4  8E2A               	bsf	(___fladd@b+2)^0,7,c
  3337   0013B6  6A2B               	clrf	(___fladd@b+3)^0,c
  3338   0013B8  EFE6  F009         	goto	l1804
  3339   0013BC                     l1802:
  3340   0013BC  0E00               	movlw	0
  3341   0013BE  6E28               	movwf	___fladd@b^0,c
  3342   0013C0  0E00               	movlw	0
  3343   0013C2  6E29               	movwf	(___fladd@b+1)^0,c
  3344   0013C4  0E00               	movlw	0
  3345   0013C6  6E2A               	movwf	(___fladd@b+2)^0,c
  3346   0013C8  0E00               	movlw	0
  3347   0013CA  6E2B               	movwf	(___fladd@b+3)^0,c
  3348   0013CC                     l1804:
  3349   0013CC  502F               	movf	(___fladd@a+3)^0,w,c
  3350   0013CE  0B80               	andlw	128
  3351   0013D0  6E35               	movwf	___fladd@aexp^0,c
  3352   0013D2  5034               	movf	___fladd@signs^0,w,c
  3353   0013D4  1835               	xorwf	___fladd@aexp^0,w,c
  3354   0013D6  B4D8               	btfsc	status,2,c
  3355   0013D8  EFF0  F009         	goto	u1451
  3356   0013DC  EFF2  F009         	goto	u1450
  3357   0013E0                     u1451:
  3358   0013E0  EFF3  F009         	goto	l1810
  3359   0013E4                     u1450:
  3360   0013E4  8C34               	bsf	___fladd@signs^0,6,c
  3361   0013E6                     l1810:
  3362   0013E6  502F               	movf	(___fladd@a+3)^0,w,c
  3363   0013E8  242F               	addwf	(___fladd@a+3)^0,w,c
  3364   0013EA  6E35               	movwf	___fladd@aexp^0,c
  3365   0013EC  AE2E               	btfss	(___fladd@a+2)^0,7,c
  3366   0013EE  EFFB  F009         	goto	u1461
  3367   0013F2  EFFD  F009         	goto	u1460
  3368   0013F6                     u1461:
  3369   0013F6  EFFE  F009         	goto	l1816
  3370   0013FA                     u1460:
  3371   0013FA  8035               	bsf	___fladd@aexp^0,0,c
  3372   0013FC                     l1816:
  3373   0013FC  5035               	movf	___fladd@aexp^0,w,c
  3374   0013FE  B4D8               	btfsc	status,2,c
  3375   001400  EF04  F00A         	goto	u1471
  3376   001404  EF06  F00A         	goto	u1470
  3377   001408                     u1471:
  3378   001408  EF1A  F00A         	goto	l1826
  3379   00140C                     u1470:
  3380   00140C  2835               	incf	___fladd@aexp^0,w,c
  3381   00140E  A4D8               	btfss	status,2,c
  3382   001410  EF0C  F00A         	goto	u1481
  3383   001414  EF0E  F00A         	goto	u1480
  3384   001418                     u1481:
  3385   001418  EF16  F00A         	goto	l1822
  3386   00141C                     u1480:
  3387   00141C  0E00               	movlw	0
  3388   00141E  6E2C               	movwf	___fladd@a^0,c
  3389   001420  0E00               	movlw	0
  3390   001422  6E2D               	movwf	(___fladd@a+1)^0,c
  3391   001424  0E00               	movlw	0
  3392   001426  6E2E               	movwf	(___fladd@a+2)^0,c
  3393   001428  0E00               	movlw	0
  3394   00142A  6E2F               	movwf	(___fladd@a+3)^0,c
  3395   00142C                     l1822:
  3396   00142C  8E2E               	bsf	(___fladd@a+2)^0,7,c
  3397   00142E  6A2F               	clrf	(___fladd@a+3)^0,c
  3398   001430  EF22  F00A         	goto	l1828
  3399   001434                     l1826:
  3400   001434  0E00               	movlw	0
  3401   001436  6E2C               	movwf	___fladd@a^0,c
  3402   001438  0E00               	movlw	0
  3403   00143A  6E2D               	movwf	(___fladd@a+1)^0,c
  3404   00143C  0E00               	movlw	0
  3405   00143E  6E2E               	movwf	(___fladd@a+2)^0,c
  3406   001440  0E00               	movlw	0
  3407   001442  6E2F               	movwf	(___fladd@a+3)^0,c
  3408   001444                     l1828:
  3409   001444  5036               	movf	___fladd@bexp^0,w,c
  3410   001446  5C35               	subwf	___fladd@aexp^0,w,c
  3411   001448  B0D8               	btfsc	status,0,c
  3412   00144A  EF29  F00A         	goto	u1491
  3413   00144E  EF2B  F00A         	goto	u1490
  3414   001452                     u1491:
  3415   001452  EF52  F00A         	goto	l1864
  3416   001456                     u1490:
  3417   001456  AC34               	btfss	___fladd@signs^0,6,c
  3418   001458  EF30  F00A         	goto	u1501
  3419   00145C  EF32  F00A         	goto	u1500
  3420   001460                     u1501:
  3421   001460  EF34  F00A         	goto	l1834
  3422   001464                     u1500:
  3423   001464  0E80               	movlw	128
  3424   001466  1A34               	xorwf	___fladd@signs^0,f,c
  3425   001468                     l1834:
  3426   001468  C036  F037         	movff	___fladd@bexp,___fladd@grs
  3427   00146C  C035  F036         	movff	___fladd@aexp,___fladd@bexp
  3428   001470  C037  F035         	movff	___fladd@grs,___fladd@aexp
  3429   001474  C028  F037         	movff	___fladd@b,___fladd@grs
  3430   001478  C02C  F028         	movff	___fladd@a,___fladd@b
  3431   00147C  C037  F02C         	movff	___fladd@grs,___fladd@a
  3432   001480  C029  F037         	movff	___fladd@b+1,___fladd@grs
  3433   001484  C02D  F029         	movff	___fladd@a+1,___fladd@b+1
  3434   001488  C037  F02D         	movff	___fladd@grs,___fladd@a+1
  3435   00148C  C02A  F037         	movff	___fladd@b+2,___fladd@grs
  3436   001490  C02E  F02A         	movff	___fladd@a+2,___fladd@b+2
  3437   001494  C037  F02E         	movff	___fladd@grs,___fladd@a+2
  3438   001498  C02B  F037         	movff	___fladd@b+3,___fladd@grs
  3439   00149C  C02F  F02B         	movff	___fladd@a+3,___fladd@b+3
  3440   0014A0  C037  F02F         	movff	___fladd@grs,___fladd@a+3
  3441   0014A4                     l1864:
  3442   0014A4  6A37               	clrf	___fladd@grs^0,c
  3443   0014A6  5036               	movf	___fladd@bexp^0,w,c
  3444   0014A8  C035  F030         	movff	___fladd@aexp,??___fladd
  3445   0014AC  6A31               	clrf	(??___fladd+1)^0,c
  3446   0014AE  5E30               	subwf	??___fladd^0,f,c
  3447   0014B0  0E00               	movlw	0
  3448   0014B2  5A31               	subwfb	(??___fladd+1)^0,f,c
  3449   0014B4  BE31               	btfsc	(??___fladd+1)^0,7,c
  3450   0014B6  EF66  F00A         	goto	u1511
  3451   0014BA  5031               	movf	(??___fladd+1)^0,w,c
  3452   0014BC  E109               	bnz	u1510
  3453   0014BE  0E1A               	movlw	26
  3454   0014C0  5C30               	subwf	??___fladd^0,w,c
  3455   0014C2  A0D8               	btfss	status,0,c
  3456   0014C4  EF66  F00A         	goto	u1511
  3457   0014C8  EF68  F00A         	goto	u1510
  3458   0014CC                     u1511:
  3459   0014CC  EF9F  F00A         	goto	l633
  3460   0014D0                     u1510:
  3461   0014D0  5028               	movf	___fladd@b^0,w,c
  3462   0014D2  1029               	iorwf	(___fladd@b+1)^0,w,c
  3463   0014D4  102A               	iorwf	(___fladd@b+2)^0,w,c
  3464   0014D6  102B               	iorwf	(___fladd@b+3)^0,w,c
  3465   0014D8  A4D8               	btfss	status,2,c
  3466   0014DA  EF71  F00A         	goto	u1521
  3467   0014DE  EF74  F00A         	goto	u1520
  3468   0014E2                     u1521:
  3469   0014E2  0E01               	movlw	1
  3470   0014E4  EF75  F00A         	goto	u1530
  3471   0014E8                     u1520:
  3472   0014E8  0E00               	movlw	0
  3473   0014EA                     u1530:
  3474   0014EA  6E37               	movwf	___fladd@grs^0,c
  3475   0014EC  0E00               	movlw	0
  3476   0014EE  6E28               	movwf	___fladd@b^0,c
  3477   0014F0  0E00               	movlw	0
  3478   0014F2  6E29               	movwf	(___fladd@b+1)^0,c
  3479   0014F4  0E00               	movlw	0
  3480   0014F6  6E2A               	movwf	(___fladd@b+2)^0,c
  3481   0014F8  0E00               	movlw	0
  3482   0014FA  6E2B               	movwf	(___fladd@b+3)^0,c
  3483   0014FC  C035  F036         	movff	___fladd@aexp,___fladd@bexp
  3484   001500  EFA8  F00A         	goto	l632
  3485   001504                     l634:
  3486   001504  A037               	btfss	___fladd@grs^0,0,c
  3487   001506  EF87  F00A         	goto	u1541
  3488   00150A  EF89  F00A         	goto	u1540
  3489   00150E                     u1541:
  3490   00150E  EF8F  F00A         	goto	l1874
  3491   001512                     u1540:
  3492   001512  90D8               	bcf	status,0,c
  3493   001514  3037               	rrcf	___fladd@grs^0,w,c
  3494   001516  0901               	iorlw	1
  3495   001518  6E37               	movwf	___fladd@grs^0,c
  3496   00151A  EF91  F00A         	goto	l1876
  3497   00151E                     l1874:
  3498   00151E  90D8               	bcf	status,0,c
  3499   001520  3237               	rrcf	___fladd@grs^0,f,c
  3500   001522                     l1876:
  3501   001522  A028               	btfss	___fladd@b^0,0,c
  3502   001524  EF96  F00A         	goto	u1551
  3503   001528  EF98  F00A         	goto	u1550
  3504   00152C                     u1551:
  3505   00152C  EF99  F00A         	goto	l1880
  3506   001530                     u1550:
  3507   001530  8E37               	bsf	___fladd@grs^0,7,c
  3508   001532                     l1880:
  3509   001532  342B               	rlcf	(___fladd@b+3)^0,w,c
  3510   001534  322B               	rrcf	(___fladd@b+3)^0,f,c
  3511   001536  322A               	rrcf	(___fladd@b+2)^0,f,c
  3512   001538  3229               	rrcf	(___fladd@b+1)^0,f,c
  3513   00153A  3228               	rrcf	___fladd@b^0,f,c
  3514   00153C  2A36               	incf	___fladd@bexp^0,f,c
  3515   00153E                     l633:
  3516   00153E  5035               	movf	___fladd@aexp^0,w,c
  3517   001540  5C36               	subwf	___fladd@bexp^0,w,c
  3518   001542  A0D8               	btfss	status,0,c
  3519   001544  EFA6  F00A         	goto	u1561
  3520   001548  EFA8  F00A         	goto	u1560
  3521   00154C                     u1561:
  3522   00154C  EF82  F00A         	goto	l634
  3523   001550                     u1560:
  3524   001550                     l632:
  3525   001550  BC34               	btfsc	___fladd@signs^0,6,c
  3526   001552  EFAD  F00A         	goto	u1571
  3527   001556  EFAF  F00A         	goto	u1570
  3528   00155A                     u1571:
  3529   00155A  EFEF  F00A         	goto	l1908
  3530   00155E                     u1570:
  3531   00155E  5036               	movf	___fladd@bexp^0,w,c
  3532   001560  A4D8               	btfss	status,2,c
  3533   001562  EFB5  F00A         	goto	u1581
  3534   001566  EFB7  F00A         	goto	u1580
  3535   00156A                     u1581:
  3536   00156A  EFC1  F00A         	goto	l1890
  3537   00156E                     u1580:
  3538   00156E  0E00               	movlw	0
  3539   001570  6E28               	movwf	?___fladd^0,c
  3540   001572  0E00               	movlw	0
  3541   001574  6E29               	movwf	(?___fladd+1)^0,c
  3542   001576  0E00               	movlw	0
  3543   001578  6E2A               	movwf	(?___fladd+2)^0,c
  3544   00157A  0E00               	movlw	0
  3545   00157C  6E2B               	movwf	(?___fladd+3)^0,c
  3546   00157E  EF0E  F00C         	goto	l641
  3547   001582                     l1890:
  3548   001582  502C               	movf	___fladd@a^0,w,c
  3549   001584  2628               	addwf	___fladd@b^0,f,c
  3550   001586  502D               	movf	(___fladd@a+1)^0,w,c
  3551   001588  2229               	addwfc	(___fladd@b+1)^0,f,c
  3552   00158A  502E               	movf	(___fladd@a+2)^0,w,c
  3553   00158C  222A               	addwfc	(___fladd@b+2)^0,f,c
  3554   00158E  502F               	movf	(___fladd@a+3)^0,w,c
  3555   001590  222B               	addwfc	(___fladd@b+3)^0,f,c
  3556   001592  A02B               	btfss	(___fladd@b+3)^0,0,c
  3557   001594  EFCE  F00A         	goto	u1591
  3558   001598  EFD0  F00A         	goto	u1590
  3559   00159C                     u1591:
  3560   00159C  EF7C  F00B         	goto	l646
  3561   0015A0                     u1590:
  3562   0015A0  A037               	btfss	___fladd@grs^0,0,c
  3563   0015A2  EFD5  F00A         	goto	u1601
  3564   0015A6  EFD7  F00A         	goto	u1600
  3565   0015AA                     u1601:
  3566   0015AA  EFDD  F00A         	goto	l1898
  3567   0015AE                     u1600:
  3568   0015AE  90D8               	bcf	status,0,c
  3569   0015B0  3037               	rrcf	___fladd@grs^0,w,c
  3570   0015B2  0901               	iorlw	1
  3571   0015B4  6E37               	movwf	___fladd@grs^0,c
  3572   0015B6  EFDF  F00A         	goto	l1900
  3573   0015BA                     l1898:
  3574   0015BA  90D8               	bcf	status,0,c
  3575   0015BC  3237               	rrcf	___fladd@grs^0,f,c
  3576   0015BE                     l1900:
  3577   0015BE  A028               	btfss	___fladd@b^0,0,c
  3578   0015C0  EFE4  F00A         	goto	u1611
  3579   0015C4  EFE6  F00A         	goto	u1610
  3580   0015C8                     u1611:
  3581   0015C8  EFE7  F00A         	goto	l1904
  3582   0015CC                     u1610:
  3583   0015CC  8E37               	bsf	___fladd@grs^0,7,c
  3584   0015CE                     l1904:
  3585   0015CE  342B               	rlcf	(___fladd@b+3)^0,w,c
  3586   0015D0  322B               	rrcf	(___fladd@b+3)^0,f,c
  3587   0015D2  322A               	rrcf	(___fladd@b+2)^0,f,c
  3588   0015D4  3229               	rrcf	(___fladd@b+1)^0,f,c
  3589   0015D6  3228               	rrcf	___fladd@b^0,f,c
  3590   0015D8  2A36               	incf	___fladd@bexp^0,f,c
  3591   0015DA  EF7C  F00B         	goto	l646
  3592   0015DE                     l1908:
  3593   0015DE  502C               	movf	___fladd@a^0,w,c
  3594   0015E0  5C28               	subwf	___fladd@b^0,w,c
  3595   0015E2  502D               	movf	(___fladd@a+1)^0,w,c
  3596   0015E4  5829               	subwfb	(___fladd@b+1)^0,w,c
  3597   0015E6  502E               	movf	(___fladd@a+2)^0,w,c
  3598   0015E8  582A               	subwfb	(___fladd@b+2)^0,w,c
  3599   0015EA  502B               	movf	(___fladd@b+3)^0,w,c
  3600   0015EC  0A80               	xorlw	128
  3601   0015EE  6E30               	movwf	??___fladd^0,c
  3602   0015F0  502F               	movf	(___fladd@a+3)^0,w,c
  3603   0015F2  0A80               	xorlw	128
  3604   0015F4  5830               	subwfb	??___fladd^0,w,c
  3605   0015F6  B0D8               	btfsc	status,0,c
  3606   0015F8  EF00  F00B         	goto	u1621
  3607   0015FC  EF02  F00B         	goto	u1620
  3608   001600                     u1621:
  3609   001600  EF2D  F00B         	goto	l1918
  3610   001604                     u1620:
  3611   001604  5028               	movf	___fladd@b^0,w,c
  3612   001606  5C2C               	subwf	___fladd@a^0,w,c
  3613   001608  6E30               	movwf	??___fladd^0,c
  3614   00160A  5029               	movf	(___fladd@b+1)^0,w,c
  3615   00160C  582D               	subwfb	(___fladd@a+1)^0,w,c
  3616   00160E  6E31               	movwf	(??___fladd+1)^0,c
  3617   001610  502A               	movf	(___fladd@b+2)^0,w,c
  3618   001612  582E               	subwfb	(___fladd@a+2)^0,w,c
  3619   001614  6E32               	movwf	(??___fladd+2)^0,c
  3620   001616  502B               	movf	(___fladd@b+3)^0,w,c
  3621   001618  582F               	subwfb	(___fladd@a+3)^0,w,c
  3622   00161A  6E33               	movwf	(??___fladd+3)^0,c
  3623   00161C  0EFF               	movlw	255
  3624   00161E  2430               	addwf	??___fladd^0,w,c
  3625   001620  6E28               	movwf	___fladd@b^0,c
  3626   001622  0EFF               	movlw	255
  3627   001624  2031               	addwfc	(??___fladd+1)^0,w,c
  3628   001626  6E29               	movwf	(___fladd@b+1)^0,c
  3629   001628  0EFF               	movlw	255
  3630   00162A  2032               	addwfc	(??___fladd+2)^0,w,c
  3631   00162C  6E2A               	movwf	(___fladd@b+2)^0,c
  3632   00162E  0EFF               	movlw	255
  3633   001630  2033               	addwfc	(??___fladd+3)^0,w,c
  3634   001632  6E2B               	movwf	(___fladd@b+3)^0,c
  3635   001634  0E80               	movlw	128
  3636   001636  1A34               	xorwf	___fladd@signs^0,f,c
  3637   001638  6C37               	negf	___fladd@grs^0,c
  3638   00163A  5037               	movf	___fladd@grs^0,w,c
  3639   00163C  A4D8               	btfss	status,2,c
  3640   00163E  EF23  F00B         	goto	u1631
  3641   001642  EF25  F00B         	goto	u1630
  3642   001646                     u1631:
  3643   001646  EF35  F00B         	goto	l649
  3644   00164A                     u1630:
  3645   00164A  0E01               	movlw	1
  3646   00164C  2628               	addwf	___fladd@b^0,f,c
  3647   00164E  0E00               	movlw	0
  3648   001650  2229               	addwfc	(___fladd@b+1)^0,f,c
  3649   001652  222A               	addwfc	(___fladd@b+2)^0,f,c
  3650   001654  222B               	addwfc	(___fladd@b+3)^0,f,c
  3651   001656  EF35  F00B         	goto	l649
  3652   00165A                     l1918:
  3653   00165A  502C               	movf	___fladd@a^0,w,c
  3654   00165C  5E28               	subwf	___fladd@b^0,f,c
  3655   00165E  502D               	movf	(___fladd@a+1)^0,w,c
  3656   001660  5A29               	subwfb	(___fladd@b+1)^0,f,c
  3657   001662  502E               	movf	(___fladd@a+2)^0,w,c
  3658   001664  5A2A               	subwfb	(___fladd@b+2)^0,f,c
  3659   001666  502F               	movf	(___fladd@a+3)^0,w,c
  3660   001668  5A2B               	subwfb	(___fladd@b+3)^0,f,c
  3661   00166A                     l649:
  3662   00166A  5028               	movf	___fladd@b^0,w,c
  3663   00166C  1029               	iorwf	(___fladd@b+1)^0,w,c
  3664   00166E  102A               	iorwf	(___fladd@b+2)^0,w,c
  3665   001670  102B               	iorwf	(___fladd@b+3)^0,w,c
  3666   001672  A4D8               	btfss	status,2,c
  3667   001674  EF3E  F00B         	goto	u1641
  3668   001678  EF40  F00B         	goto	u1640
  3669   00167C                     u1641:
  3670   00167C  EF75  F00B         	goto	l1942
  3671   001680                     u1640:
  3672   001680  5037               	movf	___fladd@grs^0,w,c
  3673   001682  A4D8               	btfss	status,2,c
  3674   001684  EF46  F00B         	goto	u1651
  3675   001688  EF48  F00B         	goto	u1650
  3676   00168C                     u1651:
  3677   00168C  EF75  F00B         	goto	l1942
  3678   001690                     u1650:
  3679   001690  0E00               	movlw	0
  3680   001692  6E28               	movwf	?___fladd^0,c
  3681   001694  0E00               	movlw	0
  3682   001696  6E29               	movwf	(?___fladd+1)^0,c
  3683   001698  0E00               	movlw	0
  3684   00169A  6E2A               	movwf	(?___fladd+2)^0,c
  3685   00169C  0E00               	movlw	0
  3686   00169E  6E2B               	movwf	(?___fladd+3)^0,c
  3687   0016A0  EF0E  F00C         	goto	l641
  3688   0016A4                     l1926:
  3689   0016A4  90D8               	bcf	status,0,c
  3690   0016A6  3628               	rlcf	___fladd@b^0,f,c
  3691   0016A8  3629               	rlcf	(___fladd@b+1)^0,f,c
  3692   0016AA  362A               	rlcf	(___fladd@b+2)^0,f,c
  3693   0016AC  362B               	rlcf	(___fladd@b+3)^0,f,c
  3694   0016AE  AE37               	btfss	___fladd@grs^0,7,c
  3695   0016B0  EF5C  F00B         	goto	u1661
  3696   0016B4  EF5E  F00B         	goto	u1660
  3697   0016B8                     u1661:
  3698   0016B8  EF5F  F00B         	goto	l1932
  3699   0016BC                     u1660:
  3700   0016BC  8028               	bsf	___fladd@b^0,0,c
  3701   0016BE                     l1932:
  3702   0016BE  A037               	btfss	___fladd@grs^0,0,c
  3703   0016C0  EF64  F00B         	goto	u1671
  3704   0016C4  EF66  F00B         	goto	u1670
  3705   0016C8                     u1671:
  3706   0016C8  EF6A  F00B         	goto	l1936
  3707   0016CC                     u1670:
  3708   0016CC  80D8               	bsf	status,0,c
  3709   0016CE  3637               	rlcf	___fladd@grs^0,f,c
  3710   0016D0  EF6C  F00B         	goto	l1938
  3711   0016D4                     l1936:
  3712   0016D4  90D8               	bcf	status,0,c
  3713   0016D6  3637               	rlcf	___fladd@grs^0,f,c
  3714   0016D8                     l1938:
  3715   0016D8  5036               	movf	___fladd@bexp^0,w,c
  3716   0016DA  B4D8               	btfsc	status,2,c
  3717   0016DC  EF72  F00B         	goto	u1681
  3718   0016E0  EF74  F00B         	goto	u1680
  3719   0016E4                     u1681:
  3720   0016E4  EF75  F00B         	goto	l1942
  3721   0016E8                     u1680:
  3722   0016E8  0636               	decf	___fladd@bexp^0,f,c
  3723   0016EA                     l1942:
  3724   0016EA  AE2A               	btfss	(___fladd@b+2)^0,7,c
  3725   0016EC  EF7A  F00B         	goto	u1691
  3726   0016F0  EF7C  F00B         	goto	u1690
  3727   0016F4                     u1691:
  3728   0016F4  EF52  F00B         	goto	l1926
  3729   0016F8                     u1690:
  3730   0016F8                     l646:
  3731   0016F8  6A35               	clrf	___fladd@aexp^0,c
  3732   0016FA  AE37               	btfss	___fladd@grs^0,7,c
  3733   0016FC  EF82  F00B         	goto	u1701
  3734   001700  EF84  F00B         	goto	u1700
  3735   001704                     u1701:
  3736   001704  EF9C  F00B         	goto	l658
  3737   001708                     u1700:
  3738   001708  C037  F030         	movff	___fladd@grs,??___fladd
  3739   00170C  0E7F               	movlw	127
  3740   00170E  1630               	andwf	??___fladd^0,f,c
  3741   001710  B4D8               	btfsc	status,2,c
  3742   001712  EF8D  F00B         	goto	u1711
  3743   001716  EF8F  F00B         	goto	u1710
  3744   00171A                     u1711:
  3745   00171A  EF93  F00B         	goto	l659
  3746   00171E                     u1710:
  3747   00171E                     l1946:
  3748   00171E  0E01               	movlw	1
  3749   001720  6E35               	movwf	___fladd@aexp^0,c
  3750   001722  EF9C  F00B         	goto	l658
  3751   001726                     l659:
  3752   001726  A028               	btfss	___fladd@b^0,0,c
  3753   001728  EF98  F00B         	goto	u1721
  3754   00172C  EF9A  F00B         	goto	u1720
  3755   001730                     u1721:
  3756   001730  EF9C  F00B         	goto	l658
  3757   001734                     u1720:
  3758   001734  EF8F  F00B         	goto	l1946
  3759   001738                     l658:
  3760   001738  5035               	movf	___fladd@aexp^0,w,c
  3761   00173A  B4D8               	btfsc	status,2,c
  3762   00173C  EFA2  F00B         	goto	u1731
  3763   001740  EFA4  F00B         	goto	u1730
  3764   001744                     u1731:
  3765   001744  EFCF  F00B         	goto	l1958
  3766   001748                     u1730:
  3767   001748  0E01               	movlw	1
  3768   00174A  2628               	addwf	___fladd@b^0,f,c
  3769   00174C  0E00               	movlw	0
  3770   00174E  2229               	addwfc	(___fladd@b+1)^0,f,c
  3771   001750  222A               	addwfc	(___fladd@b+2)^0,f,c
  3772   001752  222B               	addwfc	(___fladd@b+3)^0,f,c
  3773   001754  A02B               	btfss	(___fladd@b+3)^0,0,c
  3774   001756  EFAF  F00B         	goto	u1741
  3775   00175A  EFB1  F00B         	goto	u1740
  3776   00175E                     u1741:
  3777   00175E  EFCF  F00B         	goto	l1958
  3778   001762                     u1740:
  3779   001762  C028  F030         	movff	___fladd@b,??___fladd
  3780   001766  C029  F031         	movff	___fladd@b+1,??___fladd+1
  3781   00176A  C02A  F032         	movff	___fladd@b+2,??___fladd+2
  3782   00176E  C02B  F033         	movff	___fladd@b+3,??___fladd+3
  3783   001772  3433               	rlcf	(??___fladd+3)^0,w,c
  3784   001774  3233               	rrcf	(??___fladd+3)^0,f,c
  3785   001776  3232               	rrcf	(??___fladd+2)^0,f,c
  3786   001778  3231               	rrcf	(??___fladd+1)^0,f,c
  3787   00177A  3230               	rrcf	??___fladd^0,f,c
  3788   00177C  C030  F028         	movff	??___fladd,___fladd@b
  3789   001780  C031  F029         	movff	??___fladd+1,___fladd@b+1
  3790   001784  C032  F02A         	movff	??___fladd+2,___fladd@b+2
  3791   001788  C033  F02B         	movff	??___fladd+3,___fladd@b+3
  3792   00178C  2836               	incf	___fladd@bexp^0,w,c
  3793   00178E  B4D8               	btfsc	status,2,c
  3794   001790  EFCC  F00B         	goto	u1751
  3795   001794  EFCE  F00B         	goto	u1750
  3796   001798                     u1751:
  3797   001798  EFCF  F00B         	goto	l1958
  3798   00179C                     u1750:
  3799   00179C  2A36               	incf	___fladd@bexp^0,f,c
  3800   00179E                     l1958:
  3801   00179E  2836               	incf	___fladd@bexp^0,w,c
  3802   0017A0  B4D8               	btfsc	status,2,c
  3803   0017A2  EFD5  F00B         	goto	u1761
  3804   0017A6  EFD7  F00B         	goto	u1760
  3805   0017AA                     u1761:
  3806   0017AA  EFDF  F00B         	goto	l1962
  3807   0017AE                     u1760:
  3808   0017AE  5036               	movf	___fladd@bexp^0,w,c
  3809   0017B0  A4D8               	btfss	status,2,c
  3810   0017B2  EFDD  F00B         	goto	u1771
  3811   0017B6  EFDF  F00B         	goto	u1770
  3812   0017BA                     u1771:
  3813   0017BA  EFF0  F00B         	goto	l665
  3814   0017BE                     u1770:
  3815   0017BE                     l1962:
  3816   0017BE  0E00               	movlw	0
  3817   0017C0  6E28               	movwf	___fladd@b^0,c
  3818   0017C2  0E00               	movlw	0
  3819   0017C4  6E29               	movwf	(___fladd@b+1)^0,c
  3820   0017C6  0E00               	movlw	0
  3821   0017C8  6E2A               	movwf	(___fladd@b+2)^0,c
  3822   0017CA  0E00               	movlw	0
  3823   0017CC  6E2B               	movwf	(___fladd@b+3)^0,c
  3824   0017CE  5036               	movf	___fladd@bexp^0,w,c
  3825   0017D0  A4D8               	btfss	status,2,c
  3826   0017D2  EFED  F00B         	goto	u1781
  3827   0017D6  EFEF  F00B         	goto	u1780
  3828   0017DA                     u1781:
  3829   0017DA  EFF0  F00B         	goto	l665
  3830   0017DE                     u1780:
  3831   0017DE  6A34               	clrf	___fladd@signs^0,c
  3832   0017E0                     l665:
  3833   0017E0  A036               	btfss	___fladd@bexp^0,0,c
  3834   0017E2  EFF5  F00B         	goto	u1791
  3835   0017E6  EFF7  F00B         	goto	u1790
  3836   0017EA                     u1791:
  3837   0017EA  EFFA  F00B         	goto	l1968
  3838   0017EE                     u1790:
  3839   0017EE  8E2A               	bsf	(___fladd@b+2)^0,7,c
  3840   0017F0  EFFB  F00B         	goto	l1970
  3841   0017F4                     l1968:
  3842   0017F4  9E2A               	bcf	(___fladd@b+2)^0,7,c
  3843   0017F6                     l1970:
  3844   0017F6  90D8               	bcf	status,0,c
  3845   0017F8  3036               	rrcf	___fladd@bexp^0,w,c
  3846   0017FA  6E2B               	movwf	(___fladd@b+3)^0,c
  3847   0017FC  AE34               	btfss	___fladd@signs^0,7,c
  3848   0017FE  EF03  F00C         	goto	u1801
  3849   001802  EF05  F00C         	goto	u1800
  3850   001806                     u1801:
  3851   001806  EF06  F00C         	goto	l1976
  3852   00180A                     u1800:
  3853   00180A  8E2B               	bsf	(___fladd@b+3)^0,7,c
  3854   00180C                     l1976:
  3855   00180C  C028  F028         	movff	___fladd@b,?___fladd
  3856   001810  C029  F029         	movff	___fladd@b+1,?___fladd+1
  3857   001814  C02A  F02A         	movff	___fladd@b+2,?___fladd+2
  3858   001818  C02B  F02B         	movff	___fladd@b+3,?___fladd+3
  3859   00181C                     l641:
  3860   00181C  0012               	return		;funcret
  3861   00181E                     __end_of___fladd:
  3862                           	callstack 0
  3863                           
  3864 ;; *************** function ___flneg *****************
  3865 ;; Defined at:
  3866 ;;		line 15 in file "C:\Program Files\Microchip\xc8\v2.50\pic\sources\c99\common\flneg.c"
  3867 ;; Parameters:    Size  Location     Type
  3868 ;;  f1              4    0[COMRAM] unsigned char 
  3869 ;; Auto vars:     Size  Location     Type
  3870 ;;		None
  3871 ;; Return value:  Size  Location     Type
  3872 ;;                  4    0[COMRAM] unsigned char 
  3873 ;; Registers used:
  3874 ;;		wreg, status,2, status,0
  3875 ;; Tracked objects:
  3876 ;;		On entry : 0/0
  3877 ;;		On exit  : 0/0
  3878 ;;		Unchanged: 0/0
  3879 ;; Data sizes:     COMRAM   BANK0   BANK1   BANK2   BANK3   BANK4   BANK5
  3880 ;;      Params:         4       0       0       0       0       0       0
  3881 ;;      Locals:         0       0       0       0       0       0       0
  3882 ;;      Temps:          0       0       0       0       0       0       0
  3883 ;;      Totals:         4       0       0       0       0       0       0
  3884 ;;Total ram usage:        4 bytes
  3885 ;; Hardware stack levels used: 1
  3886 ;; This function calls:
  3887 ;;		Nothing
  3888 ;; This function is called by:
  3889 ;;		_atan2f
  3890 ;;		_atanf
  3891 ;; This function uses a non-reentrant model
  3892 ;;
  3893                           
  3894                           	psect	text11
  3895   002784                     __ptext11:
  3896                           	callstack 0
  3897   002784                     ___flneg:
  3898                           	callstack 27
  3899   002784  5001               	movf	___flneg@f1^0,w,c
  3900   002786  1002               	iorwf	(___flneg@f1+1)^0,w,c
  3901   002788  1003               	iorwf	(___flneg@f1+2)^0,w,c
  3902   00278A  1004               	iorwf	(___flneg@f1+3)^0,w,c
  3903   00278C  B4D8               	btfsc	status,2,c
  3904   00278E  EFCB  F013         	goto	u2231
  3905   002792  EFCD  F013         	goto	u2230
  3906   002796                     u2231:
  3907   002796  EFD5  F013         	goto	l2254
  3908   00279A                     u2230:
  3909   00279A  0E00               	movlw	0
  3910   00279C  1A01               	xorwf	___flneg@f1^0,f,c
  3911   00279E  0E00               	movlw	0
  3912   0027A0  1A02               	xorwf	(___flneg@f1+1)^0,f,c
  3913   0027A2  0E00               	movlw	0
  3914   0027A4  1A03               	xorwf	(___flneg@f1+2)^0,f,c
  3915   0027A6  0E80               	movlw	128
  3916   0027A8  1A04               	xorwf	(___flneg@f1+3)^0,f,c
  3917   0027AA                     l2254:
  3918   0027AA  C001  F001         	movff	___flneg@f1,?___flneg
  3919   0027AE  C002  F002         	movff	___flneg@f1+1,?___flneg+1
  3920   0027B2  C003  F003         	movff	___flneg@f1+2,?___flneg+2
  3921   0027B6  C004  F004         	movff	___flneg@f1+3,?___flneg+3
  3922   0027BA  0012               	return		;funcret
  3923   0027BC                     __end_of___flneg:
  3924                           	callstack 0
  3925                           
  3926 ;; *************** function ___flmul *****************
  3927 ;; Defined at:
  3928 ;;		line 8 in file "C:\Program Files\Microchip\xc8\v2.50\pic\sources\c99\common\sprcmul.c"
  3929 ;; Parameters:    Size  Location     Type
  3930 ;;  b               4   14[COMRAM] unsigned char 
  3931 ;;  a               4   18[COMRAM] unsigned char 
  3932 ;; Auto vars:     Size  Location     Type
  3933 ;;  prod            4   33[COMRAM] struct .
  3934 ;;  grs             4   27[COMRAM] unsigned long 
  3935 ;;  temp            2   37[COMRAM] struct .
  3936 ;;  bexp            1   32[COMRAM] unsigned char 
  3937 ;;  aexp            1   31[COMRAM] unsigned char 
  3938 ;;  sign            1   26[COMRAM] unsigned char 
  3939 ;; Return value:  Size  Location     Type
  3940 ;;                  4   14[COMRAM] unsigned char 
  3941 ;; Registers used:
  3942 ;;		wreg, status,2, status,0, prodl, prodh
  3943 ;; Tracked objects:
  3944 ;;		On entry : 0/0
  3945 ;;		On exit  : 0/0
  3946 ;;		Unchanged: 0/0
  3947 ;; Data sizes:     COMRAM   BANK0   BANK1   BANK2   BANK3   BANK4   BANK5
  3948 ;;      Params:         8       0       0       0       0       0       0
  3949 ;;      Locals:        13       0       0       0       0       0       0
  3950 ;;      Temps:          4       0       0       0       0       0       0
  3951 ;;      Totals:        25       0       0       0       0       0       0
  3952 ;;Total ram usage:       25 bytes
  3953 ;; Hardware stack levels used: 1
  3954 ;; This function calls:
  3955 ;;		Nothing
  3956 ;; This function is called by:
  3957 ;;		_calculate_angle
  3958 ;;		_Calibration
  3959 ;;		_atanf
  3960 ;; This function uses a non-reentrant model
  3961 ;;
  3962                           
  3963                           	psect	text12
  3964   00181E                     __ptext12:
  3965                           	callstack 0
  3966   00181E                     ___flmul:
  3967                           	callstack 27
  3968   00181E  5012               	movf	(___flmul@b+3)^0,w,c
  3969   001820  0B80               	andlw	128
  3970   001822  6E1B               	movwf	___flmul@sign^0,c
  3971   001824  5012               	movf	(___flmul@b+3)^0,w,c
  3972   001826  2412               	addwf	(___flmul@b+3)^0,w,c
  3973   001828  6E21               	movwf	___flmul@bexp^0,c
  3974   00182A  AE11               	btfss	(___flmul@b+2)^0,7,c
  3975   00182C  EF1A  F00C         	goto	u2041
  3976   001830  EF1C  F00C         	goto	u2040
  3977   001834                     u2041:
  3978   001834  EF1D  F00C         	goto	l2122
  3979   001838                     u2040:
  3980   001838  8021               	bsf	___flmul@bexp^0,0,c
  3981   00183A                     l2122:
  3982   00183A  5021               	movf	___flmul@bexp^0,w,c
  3983   00183C  B4D8               	btfsc	status,2,c
  3984   00183E  EF23  F00C         	goto	u2051
  3985   001842  EF25  F00C         	goto	u2050
  3986   001846                     u2051:
  3987   001846  EF38  F00C         	goto	l2130
  3988   00184A                     u2050:
  3989   00184A  2821               	incf	___flmul@bexp^0,w,c
  3990   00184C  A4D8               	btfss	status,2,c
  3991   00184E  EF2B  F00C         	goto	u2061
  3992   001852  EF2D  F00C         	goto	u2060
  3993   001856                     u2061:
  3994   001856  EF35  F00C         	goto	l2128
  3995   00185A                     u2060:
  3996   00185A  0E00               	movlw	0
  3997   00185C  6E0F               	movwf	___flmul@b^0,c
  3998   00185E  0E00               	movlw	0
  3999   001860  6E10               	movwf	(___flmul@b+1)^0,c
  4000   001862  0E00               	movlw	0
  4001   001864  6E11               	movwf	(___flmul@b+2)^0,c
  4002   001866  0E00               	movlw	0
  4003   001868  6E12               	movwf	(___flmul@b+3)^0,c
  4004   00186A                     l2128:
  4005   00186A  8E11               	bsf	(___flmul@b+2)^0,7,c
  4006   00186C  EF40  F00C         	goto	l2132
  4007   001870                     l2130:
  4008   001870  0E00               	movlw	0
  4009   001872  6E0F               	movwf	___flmul@b^0,c
  4010   001874  0E00               	movlw	0
  4011   001876  6E10               	movwf	(___flmul@b+1)^0,c
  4012   001878  0E00               	movlw	0
  4013   00187A  6E11               	movwf	(___flmul@b+2)^0,c
  4014   00187C  0E00               	movlw	0
  4015   00187E  6E12               	movwf	(___flmul@b+3)^0,c
  4016   001880                     l2132:
  4017   001880  5016               	movf	(___flmul@a+3)^0,w,c
  4018   001882  0B80               	andlw	128
  4019   001884  1A1B               	xorwf	___flmul@sign^0,f,c
  4020   001886  5016               	movf	(___flmul@a+3)^0,w,c
  4021   001888  2416               	addwf	(___flmul@a+3)^0,w,c
  4022   00188A  6E20               	movwf	___flmul@aexp^0,c
  4023   00188C  AE15               	btfss	(___flmul@a+2)^0,7,c
  4024   00188E  EF4B  F00C         	goto	u2071
  4025   001892  EF4D  F00C         	goto	u2070
  4026   001896                     u2071:
  4027   001896  EF4E  F00C         	goto	l2140
  4028   00189A                     u2070:
  4029   00189A  8020               	bsf	___flmul@aexp^0,0,c
  4030   00189C                     l2140:
  4031   00189C  5020               	movf	___flmul@aexp^0,w,c
  4032   00189E  B4D8               	btfsc	status,2,c
  4033   0018A0  EF54  F00C         	goto	u2081
  4034   0018A4  EF56  F00C         	goto	u2080
  4035   0018A8                     u2081:
  4036   0018A8  EF69  F00C         	goto	l2148
  4037   0018AC                     u2080:
  4038   0018AC  2820               	incf	___flmul@aexp^0,w,c
  4039   0018AE  A4D8               	btfss	status,2,c
  4040   0018B0  EF5C  F00C         	goto	u2091
  4041   0018B4  EF5E  F00C         	goto	u2090
  4042   0018B8                     u2091:
  4043   0018B8  EF66  F00C         	goto	l2146
  4044   0018BC                     u2090:
  4045   0018BC  0E00               	movlw	0
  4046   0018BE  6E13               	movwf	___flmul@a^0,c
  4047   0018C0  0E00               	movlw	0
  4048   0018C2  6E14               	movwf	(___flmul@a+1)^0,c
  4049   0018C4  0E00               	movlw	0
  4050   0018C6  6E15               	movwf	(___flmul@a+2)^0,c
  4051   0018C8  0E00               	movlw	0
  4052   0018CA  6E16               	movwf	(___flmul@a+3)^0,c
  4053   0018CC                     l2146:
  4054   0018CC  8E15               	bsf	(___flmul@a+2)^0,7,c
  4055   0018CE  EF71  F00C         	goto	l718
  4056   0018D2                     l2148:
  4057   0018D2  0E00               	movlw	0
  4058   0018D4  6E13               	movwf	___flmul@a^0,c
  4059   0018D6  0E00               	movlw	0
  4060   0018D8  6E14               	movwf	(___flmul@a+1)^0,c
  4061   0018DA  0E00               	movlw	0
  4062   0018DC  6E15               	movwf	(___flmul@a+2)^0,c
  4063   0018DE  0E00               	movlw	0
  4064   0018E0  6E16               	movwf	(___flmul@a+3)^0,c
  4065   0018E2                     l718:
  4066   0018E2  5020               	movf	___flmul@aexp^0,w,c
  4067   0018E4  B4D8               	btfsc	status,2,c
  4068   0018E6  EF77  F00C         	goto	u2101
  4069   0018EA  EF79  F00C         	goto	u2100
  4070   0018EE                     u2101:
  4071   0018EE  EF81  F00C         	goto	l2152
  4072   0018F2                     u2100:
  4073   0018F2  5021               	movf	___flmul@bexp^0,w,c
  4074   0018F4  A4D8               	btfss	status,2,c
  4075   0018F6  EF7F  F00C         	goto	u2111
  4076   0018FA  EF81  F00C         	goto	u2110
  4077   0018FE                     u2111:
  4078   0018FE  EF8B  F00C         	goto	l2156
  4079   001902                     u2110:
  4080   001902                     l2152:
  4081   001902  0E00               	movlw	0
  4082   001904  6E0F               	movwf	?___flmul^0,c
  4083   001906  0E00               	movlw	0
  4084   001908  6E10               	movwf	(?___flmul+1)^0,c
  4085   00190A  0E00               	movlw	0
  4086   00190C  6E11               	movwf	(?___flmul+2)^0,c
  4087   00190E  0E00               	movlw	0
  4088   001910  6E12               	movwf	(?___flmul+3)^0,c
  4089   001912  EF21  F00E         	goto	l722
  4090   001916                     l2156:
  4091   001916  5015               	movf	(___flmul@a+2)^0,w,c
  4092   001918  020F               	mulwf	___flmul@b^0,c
  4093   00191A  CFF3 F026          	movff	prodl,___flmul@temp
  4094   00191E  CFF4 F027          	movff	prodh,___flmul@temp+1
  4095   001922  5026               	movf	___flmul@temp^0,w,c
  4096   001924  6E1C               	movwf	___flmul@grs^0,c
  4097   001926  6A1D               	clrf	(___flmul@grs+1)^0,c
  4098   001928  6A1E               	clrf	(___flmul@grs+2)^0,c
  4099   00192A  6A1F               	clrf	(___flmul@grs+3)^0,c
  4100   00192C  5027               	movf	(___flmul@temp+1)^0,w,c
  4101   00192E  6E22               	movwf	___flmul@prod^0,c
  4102   001930  6A23               	clrf	(___flmul@prod+1)^0,c
  4103   001932  6A24               	clrf	(___flmul@prod+2)^0,c
  4104   001934  6A25               	clrf	(___flmul@prod+3)^0,c
  4105   001936  5014               	movf	(___flmul@a+1)^0,w,c
  4106   001938  0210               	mulwf	(___flmul@b+1)^0,c
  4107   00193A  CFF3 F026          	movff	prodl,___flmul@temp
  4108   00193E  CFF4 F027          	movff	prodh,___flmul@temp+1
  4109   001942  5026               	movf	___flmul@temp^0,w,c
  4110   001944  261C               	addwf	___flmul@grs^0,f,c
  4111   001946  0E00               	movlw	0
  4112   001948  221D               	addwfc	(___flmul@grs+1)^0,f,c
  4113   00194A  221E               	addwfc	(___flmul@grs+2)^0,f,c
  4114   00194C  221F               	addwfc	(___flmul@grs+3)^0,f,c
  4115   00194E  5027               	movf	(___flmul@temp+1)^0,w,c
  4116   001950  2622               	addwf	___flmul@prod^0,f,c
  4117   001952  0E00               	movlw	0
  4118   001954  2223               	addwfc	(___flmul@prod+1)^0,f,c
  4119   001956  2224               	addwfc	(___flmul@prod+2)^0,f,c
  4120   001958  2225               	addwfc	(___flmul@prod+3)^0,f,c
  4121   00195A  5013               	movf	___flmul@a^0,w,c
  4122   00195C  0211               	mulwf	(___flmul@b+2)^0,c
  4123   00195E  CFF3 F026          	movff	prodl,___flmul@temp
  4124   001962  CFF4 F027          	movff	prodh,___flmul@temp+1
  4125   001966  5026               	movf	___flmul@temp^0,w,c
  4126   001968  261C               	addwf	___flmul@grs^0,f,c
  4127   00196A  0E00               	movlw	0
  4128   00196C  221D               	addwfc	(___flmul@grs+1)^0,f,c
  4129   00196E  221E               	addwfc	(___flmul@grs+2)^0,f,c
  4130   001970  221F               	addwfc	(___flmul@grs+3)^0,f,c
  4131   001972  5027               	movf	(___flmul@temp+1)^0,w,c
  4132   001974  2622               	addwf	___flmul@prod^0,f,c
  4133   001976  0E00               	movlw	0
  4134   001978  2223               	addwfc	(___flmul@prod+1)^0,f,c
  4135   00197A  2224               	addwfc	(___flmul@prod+2)^0,f,c
  4136   00197C  2225               	addwfc	(___flmul@prod+3)^0,f,c
  4137   00197E  C01E  F01F         	movff	___flmul@grs+2,___flmul@grs+3
  4138   001982  C01D  F01E         	movff	___flmul@grs+1,___flmul@grs+2
  4139   001986  C01C  F01D         	movff	___flmul@grs,___flmul@grs+1
  4140   00198A  6A1C               	clrf	___flmul@grs^0,c
  4141   00198C  5013               	movf	___flmul@a^0,w,c
  4142   00198E  0210               	mulwf	(___flmul@b+1)^0,c
  4143   001990  CFF3 F026          	movff	prodl,___flmul@temp
  4144   001994  CFF4 F027          	movff	prodh,___flmul@temp+1
  4145   001998  5026               	movf	___flmul@temp^0,w,c
  4146   00199A  261C               	addwf	___flmul@grs^0,f,c
  4147   00199C  5027               	movf	(___flmul@temp+1)^0,w,c
  4148   00199E  221D               	addwfc	(___flmul@grs+1)^0,f,c
  4149   0019A0  0E00               	movlw	0
  4150   0019A2  221E               	addwfc	(___flmul@grs+2)^0,f,c
  4151   0019A4  0E00               	movlw	0
  4152   0019A6  221F               	addwfc	(___flmul@grs+3)^0,f,c
  4153   0019A8  5014               	movf	(___flmul@a+1)^0,w,c
  4154   0019AA  020F               	mulwf	___flmul@b^0,c
  4155   0019AC  CFF3 F026          	movff	prodl,___flmul@temp
  4156   0019B0  CFF4 F027          	movff	prodh,___flmul@temp+1
  4157   0019B4  5026               	movf	___flmul@temp^0,w,c
  4158   0019B6  261C               	addwf	___flmul@grs^0,f,c
  4159   0019B8  5027               	movf	(___flmul@temp+1)^0,w,c
  4160   0019BA  221D               	addwfc	(___flmul@grs+1)^0,f,c
  4161   0019BC  0E00               	movlw	0
  4162   0019BE  221E               	addwfc	(___flmul@grs+2)^0,f,c
  4163   0019C0  0E00               	movlw	0
  4164   0019C2  221F               	addwfc	(___flmul@grs+3)^0,f,c
  4165   0019C4  C01E  F01F         	movff	___flmul@grs+2,___flmul@grs+3
  4166   0019C8  C01D  F01E         	movff	___flmul@grs+1,___flmul@grs+2
  4167   0019CC  C01C  F01D         	movff	___flmul@grs,___flmul@grs+1
  4168   0019D0  6A1C               	clrf	___flmul@grs^0,c
  4169   0019D2  5013               	movf	___flmul@a^0,w,c
  4170   0019D4  020F               	mulwf	___flmul@b^0,c
  4171   0019D6  CFF3 F026          	movff	prodl,___flmul@temp
  4172   0019DA  CFF4 F027          	movff	prodh,___flmul@temp+1
  4173   0019DE  5026               	movf	___flmul@temp^0,w,c
  4174   0019E0  261C               	addwf	___flmul@grs^0,f,c
  4175   0019E2  5027               	movf	(___flmul@temp+1)^0,w,c
  4176   0019E4  221D               	addwfc	(___flmul@grs+1)^0,f,c
  4177   0019E6  0E00               	movlw	0
  4178   0019E8  221E               	addwfc	(___flmul@grs+2)^0,f,c
  4179   0019EA  0E00               	movlw	0
  4180   0019EC  221F               	addwfc	(___flmul@grs+3)^0,f,c
  4181   0019EE  5015               	movf	(___flmul@a+2)^0,w,c
  4182   0019F0  0210               	mulwf	(___flmul@b+1)^0,c
  4183   0019F2  CFF3 F026          	movff	prodl,___flmul@temp
  4184   0019F6  CFF4 F027          	movff	prodh,___flmul@temp+1
  4185   0019FA  5026               	movf	___flmul@temp^0,w,c
  4186   0019FC  2622               	addwf	___flmul@prod^0,f,c
  4187   0019FE  5027               	movf	(___flmul@temp+1)^0,w,c
  4188   001A00  2223               	addwfc	(___flmul@prod+1)^0,f,c
  4189   001A02  0E00               	movlw	0
  4190   001A04  2224               	addwfc	(___flmul@prod+2)^0,f,c
  4191   001A06  0E00               	movlw	0
  4192   001A08  2225               	addwfc	(___flmul@prod+3)^0,f,c
  4193   001A0A  5014               	movf	(___flmul@a+1)^0,w,c
  4194   001A0C  0211               	mulwf	(___flmul@b+2)^0,c
  4195   001A0E  CFF3 F026          	movff	prodl,___flmul@temp
  4196   001A12  CFF4 F027          	movff	prodh,___flmul@temp+1
  4197   001A16  5026               	movf	___flmul@temp^0,w,c
  4198   001A18  2622               	addwf	___flmul@prod^0,f,c
  4199   001A1A  5027               	movf	(___flmul@temp+1)^0,w,c
  4200   001A1C  2223               	addwfc	(___flmul@prod+1)^0,f,c
  4201   001A1E  0E00               	movlw	0
  4202   001A20  2224               	addwfc	(___flmul@prod+2)^0,f,c
  4203   001A22  0E00               	movlw	0
  4204   001A24  2225               	addwfc	(___flmul@prod+3)^0,f,c
  4205   001A26  5015               	movf	(___flmul@a+2)^0,w,c
  4206   001A28  0211               	mulwf	(___flmul@b+2)^0,c
  4207   001A2A  CFF3 F026          	movff	prodl,___flmul@temp
  4208   001A2E  CFF4 F027          	movff	prodh,___flmul@temp+1
  4209   001A32  5026               	movf	___flmul@temp^0,w,c
  4210   001A34  6E17               	movwf	??___flmul^0,c
  4211   001A36  5027               	movf	(___flmul@temp+1)^0,w,c
  4212   001A38  6E18               	movwf	(??___flmul+1)^0,c
  4213   001A3A  6A19               	clrf	(??___flmul+2)^0,c
  4214   001A3C  6A1A               	clrf	(??___flmul+3)^0,c
  4215   001A3E  C019  F01A         	movff	??___flmul+2,??___flmul+3
  4216   001A42  C018  F019         	movff	??___flmul+1,??___flmul+2
  4217   001A46  C017  F018         	movff	??___flmul,??___flmul+1
  4218   001A4A  6A17               	clrf	??___flmul^0,c
  4219   001A4C  5017               	movf	??___flmul^0,w,c
  4220   001A4E  2622               	addwf	___flmul@prod^0,f,c
  4221   001A50  5018               	movf	(??___flmul+1)^0,w,c
  4222   001A52  2223               	addwfc	(___flmul@prod+1)^0,f,c
  4223   001A54  5019               	movf	(??___flmul+2)^0,w,c
  4224   001A56  2224               	addwfc	(___flmul@prod+2)^0,f,c
  4225   001A58  501A               	movf	(??___flmul+3)^0,w,c
  4226   001A5A  2225               	addwfc	(___flmul@prod+3)^0,f,c
  4227   001A5C  C01C  F017         	movff	___flmul@grs,??___flmul
  4228   001A60  C01D  F018         	movff	___flmul@grs+1,??___flmul+1
  4229   001A64  C01E  F019         	movff	___flmul@grs+2,??___flmul+2
  4230   001A68  C01F  F01A         	movff	___flmul@grs+3,??___flmul+3
  4231   001A6C  0E19               	movlw	25
  4232   001A6E  EF3E  F00D         	goto	u2120
  4233   001A72                     u2125:
  4234   001A72  90D8               	bcf	status,0,c
  4235   001A74  321A               	rrcf	(??___flmul+3)^0,f,c
  4236   001A76  3219               	rrcf	(??___flmul+2)^0,f,c
  4237   001A78  3218               	rrcf	(??___flmul+1)^0,f,c
  4238   001A7A  3217               	rrcf	??___flmul^0,f,c
  4239   001A7C                     u2120:
  4240   001A7C  2EE8               	decfsz	wreg,f,c
  4241   001A7E  EF39  F00D         	goto	u2125
  4242   001A82  5017               	movf	??___flmul^0,w,c
  4243   001A84  2622               	addwf	___flmul@prod^0,f,c
  4244   001A86  5018               	movf	(??___flmul+1)^0,w,c
  4245   001A88  2223               	addwfc	(___flmul@prod+1)^0,f,c
  4246   001A8A  5019               	movf	(??___flmul+2)^0,w,c
  4247   001A8C  2224               	addwfc	(___flmul@prod+2)^0,f,c
  4248   001A8E  501A               	movf	(??___flmul+3)^0,w,c
  4249   001A90  2225               	addwfc	(___flmul@prod+3)^0,f,c
  4250   001A92  C01E  F01F         	movff	___flmul@grs+2,___flmul@grs+3
  4251   001A96  C01D  F01E         	movff	___flmul@grs+1,___flmul@grs+2
  4252   001A9A  C01C  F01D         	movff	___flmul@grs,___flmul@grs+1
  4253   001A9E  6A1C               	clrf	___flmul@grs^0,c
  4254   001AA0  5020               	movf	___flmul@aexp^0,w,c
  4255   001AA2  C021  F017         	movff	___flmul@bexp,??___flmul
  4256   001AA6  6A18               	clrf	(??___flmul+1)^0,c
  4257   001AA8  2617               	addwf	??___flmul^0,f,c
  4258   001AAA  0E00               	movlw	0
  4259   001AAC  2218               	addwfc	(??___flmul+1)^0,f,c
  4260   001AAE  0E82               	movlw	130
  4261   001AB0  2417               	addwf	??___flmul^0,w,c
  4262   001AB2  6E26               	movwf	___flmul@temp^0,c
  4263   001AB4  0EFF               	movlw	255
  4264   001AB6  2018               	addwfc	(??___flmul+1)^0,w,c
  4265   001AB8  6E27               	movwf	(___flmul@temp+1)^0,c
  4266   001ABA  EF74  F00D         	goto	l2204
  4267   001ABE                     l2198:
  4268   001ABE  90D8               	bcf	status,0,c
  4269   001AC0  3622               	rlcf	___flmul@prod^0,f,c
  4270   001AC2  3623               	rlcf	(___flmul@prod+1)^0,f,c
  4271   001AC4  3624               	rlcf	(___flmul@prod+2)^0,f,c
  4272   001AC6  3625               	rlcf	(___flmul@prod+3)^0,f,c
  4273   001AC8  AE1F               	btfss	(___flmul@grs+3)^0,7,c
  4274   001ACA  EF69  F00D         	goto	u2131
  4275   001ACE  EF6B  F00D         	goto	u2130
  4276   001AD2                     u2131:
  4277   001AD2  EF6C  F00D         	goto	l725
  4278   001AD6                     u2130:
  4279   001AD6  8022               	bsf	___flmul@prod^0,0,c
  4280   001AD8                     l725:
  4281   001AD8  90D8               	bcf	status,0,c
  4282   001ADA  361C               	rlcf	___flmul@grs^0,f,c
  4283   001ADC  361D               	rlcf	(___flmul@grs+1)^0,f,c
  4284   001ADE  361E               	rlcf	(___flmul@grs+2)^0,f,c
  4285   001AE0  361F               	rlcf	(___flmul@grs+3)^0,f,c
  4286   001AE2  0626               	decf	___flmul@temp^0,f,c
  4287   001AE4  A0D8               	btfss	status,0,c
  4288   001AE6  0627               	decf	(___flmul@temp+1)^0,f,c
  4289   001AE8                     l2204:
  4290   001AE8  AE24               	btfss	(___flmul@prod+2)^0,7,c
  4291   001AEA  EF79  F00D         	goto	u2141
  4292   001AEE  EF7B  F00D         	goto	u2140
  4293   001AF2                     u2141:
  4294   001AF2  EF5F  F00D         	goto	l2198
  4295   001AF6                     u2140:
  4296   001AF6  6A20               	clrf	___flmul@aexp^0,c
  4297   001AF8  AE1F               	btfss	(___flmul@grs+3)^0,7,c
  4298   001AFA  EF81  F00D         	goto	u2151
  4299   001AFE  EF83  F00D         	goto	u2150
  4300   001B02                     u2151:
  4301   001B02  EFA7  F00D         	goto	l727
  4302   001B06                     u2150:
  4303   001B06  0EFF               	movlw	255
  4304   001B08  141C               	andwf	___flmul@grs^0,w,c
  4305   001B0A  6E17               	movwf	??___flmul^0,c
  4306   001B0C  0EFF               	movlw	255
  4307   001B0E  141D               	andwf	(___flmul@grs+1)^0,w,c
  4308   001B10  6E18               	movwf	(??___flmul+1)^0,c
  4309   001B12  0EFF               	movlw	255
  4310   001B14  141E               	andwf	(___flmul@grs+2)^0,w,c
  4311   001B16  6E19               	movwf	(??___flmul+2)^0,c
  4312   001B18  0E7F               	movlw	127
  4313   001B1A  141F               	andwf	(___flmul@grs+3)^0,w,c
  4314   001B1C  6E1A               	movwf	(??___flmul+3)^0,c
  4315   001B1E  5017               	movf	??___flmul^0,w,c
  4316   001B20  1018               	iorwf	(??___flmul+1)^0,w,c
  4317   001B22  1019               	iorwf	(??___flmul+2)^0,w,c
  4318   001B24  101A               	iorwf	(??___flmul+3)^0,w,c
  4319   001B26  B4D8               	btfsc	status,2,c
  4320   001B28  EF98  F00D         	goto	u2161
  4321   001B2C  EF9A  F00D         	goto	u2160
  4322   001B30                     u2161:
  4323   001B30  EF9E  F00D         	goto	l728
  4324   001B34                     u2160:
  4325   001B34                     l2208:
  4326   001B34  0E01               	movlw	1
  4327   001B36  6E20               	movwf	___flmul@aexp^0,c
  4328   001B38  EFA7  F00D         	goto	l727
  4329   001B3C                     l728:
  4330   001B3C  A022               	btfss	___flmul@prod^0,0,c
  4331   001B3E  EFA3  F00D         	goto	u2171
  4332   001B42  EFA5  F00D         	goto	u2170
  4333   001B46                     u2171:
  4334   001B46  EFA7  F00D         	goto	l727
  4335   001B4A                     u2170:
  4336   001B4A  EF9A  F00D         	goto	l2208
  4337   001B4E                     l727:
  4338   001B4E  5020               	movf	___flmul@aexp^0,w,c
  4339   001B50  B4D8               	btfsc	status,2,c
  4340   001B52  EFAD  F00D         	goto	u2181
  4341   001B56  EFAF  F00D         	goto	u2180
  4342   001B5A                     u2181:
  4343   001B5A  EFD3  F00D         	goto	l2220
  4344   001B5E                     u2180:
  4345   001B5E  0E01               	movlw	1
  4346   001B60  2622               	addwf	___flmul@prod^0,f,c
  4347   001B62  0E00               	movlw	0
  4348   001B64  2223               	addwfc	(___flmul@prod+1)^0,f,c
  4349   001B66  2224               	addwfc	(___flmul@prod+2)^0,f,c
  4350   001B68  2225               	addwfc	(___flmul@prod+3)^0,f,c
  4351   001B6A  A025               	btfss	(___flmul@prod+3)^0,0,c
  4352   001B6C  EFBA  F00D         	goto	u2191
  4353   001B70  EFBC  F00D         	goto	u2190
  4354   001B74                     u2191:
  4355   001B74  EFD3  F00D         	goto	l2220
  4356   001B78                     u2190:
  4357   001B78  C022  F017         	movff	___flmul@prod,??___flmul
  4358   001B7C  C023  F018         	movff	___flmul@prod+1,??___flmul+1
  4359   001B80  C024  F019         	movff	___flmul@prod+2,??___flmul+2
  4360   001B84  C025  F01A         	movff	___flmul@prod+3,??___flmul+3
  4361   001B88  341A               	rlcf	(??___flmul+3)^0,w,c
  4362   001B8A  321A               	rrcf	(??___flmul+3)^0,f,c
  4363   001B8C  3219               	rrcf	(??___flmul+2)^0,f,c
  4364   001B8E  3218               	rrcf	(??___flmul+1)^0,f,c
  4365   001B90  3217               	rrcf	??___flmul^0,f,c
  4366   001B92  C017  F022         	movff	??___flmul,___flmul@prod
  4367   001B96  C018  F023         	movff	??___flmul+1,___flmul@prod+1
  4368   001B9A  C019  F024         	movff	??___flmul+2,___flmul@prod+2
  4369   001B9E  C01A  F025         	movff	??___flmul+3,___flmul@prod+3
  4370   001BA2  4A26               	infsnz	___flmul@temp^0,f,c
  4371   001BA4  2A27               	incf	(___flmul@temp+1)^0,f,c
  4372   001BA6                     l2220:
  4373   001BA6  BE27               	btfsc	(___flmul@temp+1)^0,7,c
  4374   001BA8  EFDE  F00D         	goto	u2201
  4375   001BAC  5027               	movf	(___flmul@temp+1)^0,w,c
  4376   001BAE  E108               	bnz	u2200
  4377   001BB0  2826               	incf	___flmul@temp^0,w,c
  4378   001BB2  A0D8               	btfss	status,0,c
  4379   001BB4  EFDE  F00D         	goto	u2201
  4380   001BB8  EFE0  F00D         	goto	u2200
  4381   001BBC                     u2201:
  4382   001BBC  EFEA  F00D         	goto	l2224
  4383   001BC0                     u2200:
  4384   001BC0  0E00               	movlw	0
  4385   001BC2  6E22               	movwf	___flmul@prod^0,c
  4386   001BC4  0E00               	movlw	0
  4387   001BC6  6E23               	movwf	(___flmul@prod+1)^0,c
  4388   001BC8  0E80               	movlw	128
  4389   001BCA  6E24               	movwf	(___flmul@prod+2)^0,c
  4390   001BCC  0E7F               	movlw	127
  4391   001BCE  6E25               	movwf	(___flmul@prod+3)^0,c
  4392   001BD0  EF17  F00E         	goto	l2238
  4393   001BD4                     l2224:
  4394   001BD4  BE27               	btfsc	(___flmul@temp+1)^0,7,c
  4395   001BD6  EFF7  F00D         	goto	u2210
  4396   001BDA  5027               	movf	(___flmul@temp+1)^0,w,c
  4397   001BDC  E106               	bnz	u2211
  4398   001BDE  0426               	decf	___flmul@temp^0,w,c
  4399   001BE0  B0D8               	btfsc	status,0,c
  4400   001BE2  EFF5  F00D         	goto	u2211
  4401   001BE6  EFF7  F00D         	goto	u2210
  4402   001BEA                     u2211:
  4403   001BEA  EF02  F00E         	goto	l735
  4404   001BEE                     u2210:
  4405   001BEE  0E00               	movlw	0
  4406   001BF0  6E22               	movwf	___flmul@prod^0,c
  4407   001BF2  0E00               	movlw	0
  4408   001BF4  6E23               	movwf	(___flmul@prod+1)^0,c
  4409   001BF6  0E00               	movlw	0
  4410   001BF8  6E24               	movwf	(___flmul@prod+2)^0,c
  4411   001BFA  0E00               	movlw	0
  4412   001BFC  6E25               	movwf	(___flmul@prod+3)^0,c
  4413   001BFE  6A1B               	clrf	___flmul@sign^0,c
  4414   001C00  EF17  F00E         	goto	l2238
  4415   001C04                     l735:
  4416   001C04  C026  F021         	movff	___flmul@temp,___flmul@bexp
  4417   001C08  0EFF               	movlw	255
  4418   001C0A  1622               	andwf	___flmul@prod^0,f,c
  4419   001C0C  0EFF               	movlw	255
  4420   001C0E  1623               	andwf	(___flmul@prod+1)^0,f,c
  4421   001C10  0E7F               	movlw	127
  4422   001C12  1624               	andwf	(___flmul@prod+2)^0,f,c
  4423   001C14  0E00               	movlw	0
  4424   001C16  1625               	andwf	(___flmul@prod+3)^0,f,c
  4425   001C18  A021               	btfss	___flmul@bexp^0,0,c
  4426   001C1A  EF11  F00E         	goto	u2221
  4427   001C1E  EF13  F00E         	goto	u2220
  4428   001C22                     u2221:
  4429   001C22  EF14  F00E         	goto	l2236
  4430   001C26                     u2220:
  4431   001C26  8E24               	bsf	(___flmul@prod+2)^0,7,c
  4432   001C28                     l2236:
  4433   001C28  90D8               	bcf	status,0,c
  4434   001C2A  3021               	rrcf	___flmul@bexp^0,w,c
  4435   001C2C  6E25               	movwf	(___flmul@prod+3)^0,c
  4436   001C2E                     l2238:
  4437   001C2E  501B               	movf	___flmul@sign^0,w,c
  4438   001C30  1225               	iorwf	(___flmul@prod+3)^0,f,c
  4439   001C32  C022  F00F         	movff	___flmul@prod,?___flmul
  4440   001C36  C023  F010         	movff	___flmul@prod+1,?___flmul+1
  4441   001C3A  C024  F011         	movff	___flmul@prod+2,?___flmul+2
  4442   001C3E  C025  F012         	movff	___flmul@prod+3,?___flmul+3
  4443   001C42                     l722:
  4444   001C42  0012               	return		;funcret
  4445   001C44                     __end_of___flmul:
  4446                           	callstack 0
  4447                           
  4448 ;; *************** function ___fldiv *****************
  4449 ;; Defined at:
  4450 ;;		line 11 in file "C:\Program Files\Microchip\xc8\v2.50\pic\sources\c99\common\sprcdiv.c"
  4451 ;; Parameters:    Size  Location     Type
  4452 ;;  b               4   55[COMRAM] unsigned char 
  4453 ;;  a               4   59[COMRAM] unsigned char 
  4454 ;; Auto vars:     Size  Location     Type
  4455 ;;  grs             4   74[COMRAM] unsigned long 
  4456 ;;  rem             4   67[COMRAM] unsigned long 
  4457 ;;  new_exp         2   72[COMRAM] short 
  4458 ;;  aexp            1   79[COMRAM] unsigned char 
  4459 ;;  bexp            1   78[COMRAM] unsigned char 
  4460 ;;  sign            1   71[COMRAM] unsigned char 
  4461 ;; Return value:  Size  Location     Type
  4462 ;;                  4   55[COMRAM] unsigned char 
  4463 ;; Registers used:
  4464 ;;		wreg, status,2, status,0
  4465 ;; Tracked objects:
  4466 ;;		On entry : 0/0
  4467 ;;		On exit  : 0/0
  4468 ;;		Unchanged: 0/0
  4469 ;; Data sizes:     COMRAM   BANK0   BANK1   BANK2   BANK3   BANK4   BANK5
  4470 ;;      Params:         8       0       0       0       0       0       0
  4471 ;;      Locals:        13       0       0       0       0       0       0
  4472 ;;      Temps:          4       0       0       0       0       0       0
  4473 ;;      Totals:        25       0       0       0       0       0       0
  4474 ;;Total ram usage:       25 bytes
  4475 ;; Hardware stack levels used: 1
  4476 ;; This function calls:
  4477 ;;		Nothing
  4478 ;; This function is called by:
  4479 ;;		_calculate_angle
  4480 ;;		_Calibration
  4481 ;;		_atan2f
  4482 ;;		_atanf
  4483 ;; This function uses a non-reentrant model
  4484 ;;
  4485                           
  4486                           	psect	text13
  4487   001C44                     __ptext13:
  4488                           	callstack 0
  4489   001C44                     ___fldiv:
  4490                           	callstack 27
  4491   001C44  503B               	movf	(___fldiv@b+3)^0,w,c
  4492   001C46  0B80               	andlw	128
  4493   001C48  6E48               	movwf	___fldiv@sign^0,c
  4494   001C4A  503B               	movf	(___fldiv@b+3)^0,w,c
  4495   001C4C  243B               	addwf	(___fldiv@b+3)^0,w,c
  4496   001C4E  6E4F               	movwf	___fldiv@bexp^0,c
  4497   001C50  AE3A               	btfss	(___fldiv@b+2)^0,7,c
  4498   001C52  EF2D  F00E         	goto	u1811
  4499   001C56  EF2F  F00E         	goto	u1810
  4500   001C5A                     u1811:
  4501   001C5A  EF30  F00E         	goto	l1986
  4502   001C5E                     u1810:
  4503   001C5E  804F               	bsf	___fldiv@bexp^0,0,c
  4504   001C60                     l1986:
  4505   001C60  504F               	movf	___fldiv@bexp^0,w,c
  4506   001C62  B4D8               	btfsc	status,2,c
  4507   001C64  EF36  F00E         	goto	u1821
  4508   001C68  EF38  F00E         	goto	u1820
  4509   001C6C                     u1821:
  4510   001C6C  EF4C  F00E         	goto	l1996
  4511   001C70                     u1820:
  4512   001C70  284F               	incf	___fldiv@bexp^0,w,c
  4513   001C72  A4D8               	btfss	status,2,c
  4514   001C74  EF3E  F00E         	goto	u1831
  4515   001C78  EF40  F00E         	goto	u1830
  4516   001C7C                     u1831:
  4517   001C7C  EF48  F00E         	goto	l1992
  4518   001C80                     u1830:
  4519   001C80  0E00               	movlw	0
  4520   001C82  6E38               	movwf	___fldiv@b^0,c
  4521   001C84  0E00               	movlw	0
  4522   001C86  6E39               	movwf	(___fldiv@b+1)^0,c
  4523   001C88  0E00               	movlw	0
  4524   001C8A  6E3A               	movwf	(___fldiv@b+2)^0,c
  4525   001C8C  0E00               	movlw	0
  4526   001C8E  6E3B               	movwf	(___fldiv@b+3)^0,c
  4527   001C90                     l1992:
  4528   001C90  8E3A               	bsf	(___fldiv@b+2)^0,7,c
  4529   001C92  6A3B               	clrf	(___fldiv@b+3)^0,c
  4530   001C94  EF54  F00E         	goto	l1998
  4531   001C98                     l1996:
  4532   001C98  0E00               	movlw	0
  4533   001C9A  6E38               	movwf	___fldiv@b^0,c
  4534   001C9C  0E00               	movlw	0
  4535   001C9E  6E39               	movwf	(___fldiv@b+1)^0,c
  4536   001CA0  0E00               	movlw	0
  4537   001CA2  6E3A               	movwf	(___fldiv@b+2)^0,c
  4538   001CA4  0E00               	movlw	0
  4539   001CA6  6E3B               	movwf	(___fldiv@b+3)^0,c
  4540   001CA8                     l1998:
  4541   001CA8  503F               	movf	(___fldiv@a+3)^0,w,c
  4542   001CAA  0B80               	andlw	128
  4543   001CAC  1A48               	xorwf	___fldiv@sign^0,f,c
  4544   001CAE  503F               	movf	(___fldiv@a+3)^0,w,c
  4545   001CB0  243F               	addwf	(___fldiv@a+3)^0,w,c
  4546   001CB2  6E50               	movwf	___fldiv@aexp^0,c
  4547   001CB4  AE3E               	btfss	(___fldiv@a+2)^0,7,c
  4548   001CB6  EF5F  F00E         	goto	u1841
  4549   001CBA  EF61  F00E         	goto	u1840
  4550   001CBE                     u1841:
  4551   001CBE  EF62  F00E         	goto	l2006
  4552   001CC2                     u1840:
  4553   001CC2  8050               	bsf	___fldiv@aexp^0,0,c
  4554   001CC4                     l2006:
  4555   001CC4  5050               	movf	___fldiv@aexp^0,w,c
  4556   001CC6  B4D8               	btfsc	status,2,c
  4557   001CC8  EF68  F00E         	goto	u1851
  4558   001CCC  EF6A  F00E         	goto	u1850
  4559   001CD0                     u1851:
  4560   001CD0  EF7E  F00E         	goto	l2016
  4561   001CD4                     u1850:
  4562   001CD4  2850               	incf	___fldiv@aexp^0,w,c
  4563   001CD6  A4D8               	btfss	status,2,c
  4564   001CD8  EF70  F00E         	goto	u1861
  4565   001CDC  EF72  F00E         	goto	u1860
  4566   001CE0                     u1861:
  4567   001CE0  EF7A  F00E         	goto	l2012
  4568   001CE4                     u1860:
  4569   001CE4  0E00               	movlw	0
  4570   001CE6  6E3C               	movwf	___fldiv@a^0,c
  4571   001CE8  0E00               	movlw	0
  4572   001CEA  6E3D               	movwf	(___fldiv@a+1)^0,c
  4573   001CEC  0E00               	movlw	0
  4574   001CEE  6E3E               	movwf	(___fldiv@a+2)^0,c
  4575   001CF0  0E00               	movlw	0
  4576   001CF2  6E3F               	movwf	(___fldiv@a+3)^0,c
  4577   001CF4                     l2012:
  4578   001CF4  8E3E               	bsf	(___fldiv@a+2)^0,7,c
  4579   001CF6  6A3F               	clrf	(___fldiv@a+3)^0,c
  4580   001CF8  EF86  F00E         	goto	l2018
  4581   001CFC                     l2016:
  4582   001CFC  0E00               	movlw	0
  4583   001CFE  6E3C               	movwf	___fldiv@a^0,c
  4584   001D00  0E00               	movlw	0
  4585   001D02  6E3D               	movwf	(___fldiv@a+1)^0,c
  4586   001D04  0E00               	movlw	0
  4587   001D06  6E3E               	movwf	(___fldiv@a+2)^0,c
  4588   001D08  0E00               	movlw	0
  4589   001D0A  6E3F               	movwf	(___fldiv@a+3)^0,c
  4590   001D0C                     l2018:
  4591   001D0C  503C               	movf	___fldiv@a^0,w,c
  4592   001D0E  103D               	iorwf	(___fldiv@a+1)^0,w,c
  4593   001D10  103E               	iorwf	(___fldiv@a+2)^0,w,c
  4594   001D12  103F               	iorwf	(___fldiv@a+3)^0,w,c
  4595   001D14  A4D8               	btfss	status,2,c
  4596   001D16  EF8F  F00E         	goto	u1871
  4597   001D1A  EF91  F00E         	goto	u1870
  4598   001D1E                     u1871:
  4599   001D1E  EFA9  F00E         	goto	l2030
  4600   001D22                     u1870:
  4601   001D22  0E00               	movlw	0
  4602   001D24  6E38               	movwf	___fldiv@b^0,c
  4603   001D26  0E00               	movlw	0
  4604   001D28  6E39               	movwf	(___fldiv@b+1)^0,c
  4605   001D2A  0E00               	movlw	0
  4606   001D2C  6E3A               	movwf	(___fldiv@b+2)^0,c
  4607   001D2E  0E00               	movlw	0
  4608   001D30  6E3B               	movwf	(___fldiv@b+3)^0,c
  4609   001D32  0E80               	movlw	128
  4610   001D34  123A               	iorwf	(___fldiv@b+2)^0,f,c
  4611   001D36  0E7F               	movlw	127
  4612   001D38  123B               	iorwf	(___fldiv@b+3)^0,f,c
  4613   001D3A                     l2024:
  4614   001D3A  5048               	movf	___fldiv@sign^0,w,c
  4615   001D3C  123B               	iorwf	(___fldiv@b+3)^0,f,c
  4616   001D3E  C038  F038         	movff	___fldiv@b,?___fldiv
  4617   001D42  C039  F039         	movff	___fldiv@b+1,?___fldiv+1
  4618   001D46  C03A  F03A         	movff	___fldiv@b+2,?___fldiv+2
  4619   001D4A  C03B  F03B         	movff	___fldiv@b+3,?___fldiv+3
  4620   001D4E  EFE9  F00F         	goto	l686
  4621   001D52                     l2030:
  4622   001D52  504F               	movf	___fldiv@bexp^0,w,c
  4623   001D54  A4D8               	btfss	status,2,c
  4624   001D56  EFAF  F00E         	goto	u1881
  4625   001D5A  EFB1  F00E         	goto	u1880
  4626   001D5E                     u1881:
  4627   001D5E  EFBB  F00E         	goto	l2038
  4628   001D62                     u1880:
  4629   001D62  0E00               	movlw	0
  4630   001D64  6E38               	movwf	?___fldiv^0,c
  4631   001D66  0E00               	movlw	0
  4632   001D68  6E39               	movwf	(?___fldiv+1)^0,c
  4633   001D6A  0E00               	movlw	0
  4634   001D6C  6E3A               	movwf	(?___fldiv+2)^0,c
  4635   001D6E  0E00               	movlw	0
  4636   001D70  6E3B               	movwf	(?___fldiv+3)^0,c
  4637   001D72  EFE9  F00F         	goto	l686
  4638   001D76                     l2038:
  4639   001D76  5050               	movf	___fldiv@aexp^0,w,c
  4640   001D78  C04F  F040         	movff	___fldiv@bexp,??___fldiv
  4641   001D7C  6A41               	clrf	(??___fldiv+1)^0,c
  4642   001D7E  5E40               	subwf	??___fldiv^0,f,c
  4643   001D80  0E00               	movlw	0
  4644   001D82  5A41               	subwfb	(??___fldiv+1)^0,f,c
  4645   001D84  0E7F               	movlw	127
  4646   001D86  2440               	addwf	??___fldiv^0,w,c
  4647   001D88  6E49               	movwf	___fldiv@new_exp^0,c
  4648   001D8A  0E00               	movlw	0
  4649   001D8C  2041               	addwfc	(??___fldiv+1)^0,w,c
  4650   001D8E  6E4A               	movwf	(___fldiv@new_exp+1)^0,c
  4651   001D90  C038  F044         	movff	___fldiv@b,___fldiv@rem
  4652   001D94  C039  F045         	movff	___fldiv@b+1,___fldiv@rem+1
  4653   001D98  C03A  F046         	movff	___fldiv@b+2,___fldiv@rem+2
  4654   001D9C  C03B  F047         	movff	___fldiv@b+3,___fldiv@rem+3
  4655   001DA0  0E00               	movlw	0
  4656   001DA2  6E38               	movwf	___fldiv@b^0,c
  4657   001DA4  0E00               	movlw	0
  4658   001DA6  6E39               	movwf	(___fldiv@b+1)^0,c
  4659   001DA8  0E00               	movlw	0
  4660   001DAA  6E3A               	movwf	(___fldiv@b+2)^0,c
  4661   001DAC  0E00               	movlw	0
  4662   001DAE  6E3B               	movwf	(___fldiv@b+3)^0,c
  4663   001DB0  0E00               	movlw	0
  4664   001DB2  6E4B               	movwf	___fldiv@grs^0,c
  4665   001DB4  0E00               	movlw	0
  4666   001DB6  6E4C               	movwf	(___fldiv@grs+1)^0,c
  4667   001DB8  0E00               	movlw	0
  4668   001DBA  6E4D               	movwf	(___fldiv@grs+2)^0,c
  4669   001DBC  0E00               	movlw	0
  4670   001DBE  6E4E               	movwf	(___fldiv@grs+3)^0,c
  4671   001DC0  6A50               	clrf	___fldiv@aexp^0,c
  4672   001DC2  EF1B  F00F         	goto	l688
  4673   001DC6                     l2048:
  4674   001DC6  5050               	movf	___fldiv@aexp^0,w,c
  4675   001DC8  B4D8               	btfsc	status,2,c
  4676   001DCA  EFE9  F00E         	goto	u1891
  4677   001DCE  EFEB  F00E         	goto	u1890
  4678   001DD2                     u1891:
  4679   001DD2  EF02  F00F         	goto	l2056
  4680   001DD6                     u1890:
  4681   001DD6  90D8               	bcf	status,0,c
  4682   001DD8  3644               	rlcf	___fldiv@rem^0,f,c
  4683   001DDA  3645               	rlcf	(___fldiv@rem+1)^0,f,c
  4684   001DDC  3646               	rlcf	(___fldiv@rem+2)^0,f,c
  4685   001DDE  3647               	rlcf	(___fldiv@rem+3)^0,f,c
  4686   001DE0  90D8               	bcf	status,0,c
  4687   001DE2  3638               	rlcf	___fldiv@b^0,f,c
  4688   001DE4  3639               	rlcf	(___fldiv@b+1)^0,f,c
  4689   001DE6  363A               	rlcf	(___fldiv@b+2)^0,f,c
  4690   001DE8  363B               	rlcf	(___fldiv@b+3)^0,f,c
  4691   001DEA  AE4E               	btfss	(___fldiv@grs+3)^0,7,c
  4692   001DEC  EFFA  F00E         	goto	u1901
  4693   001DF0  EFFC  F00E         	goto	u1900
  4694   001DF4                     u1901:
  4695   001DF4  EFFD  F00E         	goto	l691
  4696   001DF8                     u1900:
  4697   001DF8  8038               	bsf	___fldiv@b^0,0,c
  4698   001DFA                     l691:
  4699   001DFA  90D8               	bcf	status,0,c
  4700   001DFC  364B               	rlcf	___fldiv@grs^0,f,c
  4701   001DFE  364C               	rlcf	(___fldiv@grs+1)^0,f,c
  4702   001E00  364D               	rlcf	(___fldiv@grs+2)^0,f,c
  4703   001E02  364E               	rlcf	(___fldiv@grs+3)^0,f,c
  4704   001E04                     l2056:
  4705   001E04  503C               	movf	___fldiv@a^0,w,c
  4706   001E06  5C44               	subwf	___fldiv@rem^0,w,c
  4707   001E08  503D               	movf	(___fldiv@a+1)^0,w,c
  4708   001E0A  5845               	subwfb	(___fldiv@rem+1)^0,w,c
  4709   001E0C  503E               	movf	(___fldiv@a+2)^0,w,c
  4710   001E0E  5846               	subwfb	(___fldiv@rem+2)^0,w,c
  4711   001E10  503F               	movf	(___fldiv@a+3)^0,w,c
  4712   001E12  5847               	subwfb	(___fldiv@rem+3)^0,w,c
  4713   001E14  A0D8               	btfss	status,0,c
  4714   001E16  EF0F  F00F         	goto	u1911
  4715   001E1A  EF11  F00F         	goto	u1910
  4716   001E1E                     u1911:
  4717   001E1E  EF1A  F00F         	goto	l2062
  4718   001E22                     u1910:
  4719   001E22  8C4E               	bsf	(___fldiv@grs+3)^0,6,c
  4720   001E24  503C               	movf	___fldiv@a^0,w,c
  4721   001E26  5E44               	subwf	___fldiv@rem^0,f,c
  4722   001E28  503D               	movf	(___fldiv@a+1)^0,w,c
  4723   001E2A  5A45               	subwfb	(___fldiv@rem+1)^0,f,c
  4724   001E2C  503E               	movf	(___fldiv@a+2)^0,w,c
  4725   001E2E  5A46               	subwfb	(___fldiv@rem+2)^0,f,c
  4726   001E30  503F               	movf	(___fldiv@a+3)^0,w,c
  4727   001E32  5A47               	subwfb	(___fldiv@rem+3)^0,f,c
  4728   001E34                     l2062:
  4729   001E34  2A50               	incf	___fldiv@aexp^0,f,c
  4730   001E36                     l688:
  4731   001E36  0E19               	movlw	25
  4732   001E38  6450               	cpfsgt	___fldiv@aexp^0,c
  4733   001E3A  EF21  F00F         	goto	u1921
  4734   001E3E  EF23  F00F         	goto	u1920
  4735   001E42                     u1921:
  4736   001E42  EFE3  F00E         	goto	l2048
  4737   001E46                     u1920:
  4738   001E46  5044               	movf	___fldiv@rem^0,w,c
  4739   001E48  1045               	iorwf	(___fldiv@rem+1)^0,w,c
  4740   001E4A  1046               	iorwf	(___fldiv@rem+2)^0,w,c
  4741   001E4C  1047               	iorwf	(___fldiv@rem+3)^0,w,c
  4742   001E4E  B4D8               	btfsc	status,2,c
  4743   001E50  EF2C  F00F         	goto	u1931
  4744   001E54  EF2E  F00F         	goto	u1930
  4745   001E58                     u1931:
  4746   001E58  EF46  F00F         	goto	l2074
  4747   001E5C                     u1930:
  4748   001E5C  804B               	bsf	___fldiv@grs^0,0,c
  4749   001E5E  EF46  F00F         	goto	l2074
  4750   001E62                     l2068:
  4751   001E62  90D8               	bcf	status,0,c
  4752   001E64  3638               	rlcf	___fldiv@b^0,f,c
  4753   001E66  3639               	rlcf	(___fldiv@b+1)^0,f,c
  4754   001E68  363A               	rlcf	(___fldiv@b+2)^0,f,c
  4755   001E6A  363B               	rlcf	(___fldiv@b+3)^0,f,c
  4756   001E6C  AE4E               	btfss	(___fldiv@grs+3)^0,7,c
  4757   001E6E  EF3B  F00F         	goto	u1941
  4758   001E72  EF3D  F00F         	goto	u1940
  4759   001E76                     u1941:
  4760   001E76  EF3E  F00F         	goto	l697
  4761   001E7A                     u1940:
  4762   001E7A  8038               	bsf	___fldiv@b^0,0,c
  4763   001E7C                     l697:
  4764   001E7C  90D8               	bcf	status,0,c
  4765   001E7E  364B               	rlcf	___fldiv@grs^0,f,c
  4766   001E80  364C               	rlcf	(___fldiv@grs+1)^0,f,c
  4767   001E82  364D               	rlcf	(___fldiv@grs+2)^0,f,c
  4768   001E84  364E               	rlcf	(___fldiv@grs+3)^0,f,c
  4769   001E86  0649               	decf	___fldiv@new_exp^0,f,c
  4770   001E88  A0D8               	btfss	status,0,c
  4771   001E8A  064A               	decf	(___fldiv@new_exp+1)^0,f,c
  4772   001E8C                     l2074:
  4773   001E8C  AE3A               	btfss	(___fldiv@b+2)^0,7,c
  4774   001E8E  EF4B  F00F         	goto	u1951
  4775   001E92  EF4D  F00F         	goto	u1950
  4776   001E96                     u1951:
  4777   001E96  EF31  F00F         	goto	l2068
  4778   001E9A                     u1950:
  4779   001E9A  6A50               	clrf	___fldiv@aexp^0,c
  4780   001E9C  AE4E               	btfss	(___fldiv@grs+3)^0,7,c
  4781   001E9E  EF53  F00F         	goto	u1961
  4782   001EA2  EF55  F00F         	goto	u1960
  4783   001EA6                     u1961:
  4784   001EA6  EF79  F00F         	goto	l699
  4785   001EAA                     u1960:
  4786   001EAA  0EFF               	movlw	255
  4787   001EAC  144B               	andwf	___fldiv@grs^0,w,c
  4788   001EAE  6E40               	movwf	??___fldiv^0,c
  4789   001EB0  0EFF               	movlw	255
  4790   001EB2  144C               	andwf	(___fldiv@grs+1)^0,w,c
  4791   001EB4  6E41               	movwf	(??___fldiv+1)^0,c
  4792   001EB6  0EFF               	movlw	255
  4793   001EB8  144D               	andwf	(___fldiv@grs+2)^0,w,c
  4794   001EBA  6E42               	movwf	(??___fldiv+2)^0,c
  4795   001EBC  0E7F               	movlw	127
  4796   001EBE  144E               	andwf	(___fldiv@grs+3)^0,w,c
  4797   001EC0  6E43               	movwf	(??___fldiv+3)^0,c
  4798   001EC2  5040               	movf	??___fldiv^0,w,c
  4799   001EC4  1041               	iorwf	(??___fldiv+1)^0,w,c
  4800   001EC6  1042               	iorwf	(??___fldiv+2)^0,w,c
  4801   001EC8  1043               	iorwf	(??___fldiv+3)^0,w,c
  4802   001ECA  B4D8               	btfsc	status,2,c
  4803   001ECC  EF6A  F00F         	goto	u1971
  4804   001ED0  EF6C  F00F         	goto	u1970
  4805   001ED4                     u1971:
  4806   001ED4  EF70  F00F         	goto	l700
  4807   001ED8                     u1970:
  4808   001ED8                     l2078:
  4809   001ED8  0E01               	movlw	1
  4810   001EDA  6E50               	movwf	___fldiv@aexp^0,c
  4811   001EDC  EF79  F00F         	goto	l699
  4812   001EE0                     l700:
  4813   001EE0  A038               	btfss	___fldiv@b^0,0,c
  4814   001EE2  EF75  F00F         	goto	u1981
  4815   001EE6  EF77  F00F         	goto	u1980
  4816   001EEA                     u1981:
  4817   001EEA  EF79  F00F         	goto	l699
  4818   001EEE                     u1980:
  4819   001EEE  EF6C  F00F         	goto	l2078
  4820   001EF2                     l699:
  4821   001EF2  5050               	movf	___fldiv@aexp^0,w,c
  4822   001EF4  B4D8               	btfsc	status,2,c
  4823   001EF6  EF7F  F00F         	goto	u1991
  4824   001EFA  EF81  F00F         	goto	u1990
  4825   001EFE                     u1991:
  4826   001EFE  EFA5  F00F         	goto	l2090
  4827   001F02                     u1990:
  4828   001F02  0E01               	movlw	1
  4829   001F04  2638               	addwf	___fldiv@b^0,f,c
  4830   001F06  0E00               	movlw	0
  4831   001F08  2239               	addwfc	(___fldiv@b+1)^0,f,c
  4832   001F0A  223A               	addwfc	(___fldiv@b+2)^0,f,c
  4833   001F0C  223B               	addwfc	(___fldiv@b+3)^0,f,c
  4834   001F0E  A03B               	btfss	(___fldiv@b+3)^0,0,c
  4835   001F10  EF8C  F00F         	goto	u2001
  4836   001F14  EF8E  F00F         	goto	u2000
  4837   001F18                     u2001:
  4838   001F18  EFA5  F00F         	goto	l2090
  4839   001F1C                     u2000:
  4840   001F1C  C038  F040         	movff	___fldiv@b,??___fldiv
  4841   001F20  C039  F041         	movff	___fldiv@b+1,??___fldiv+1
  4842   001F24  C03A  F042         	movff	___fldiv@b+2,??___fldiv+2
  4843   001F28  C03B  F043         	movff	___fldiv@b+3,??___fldiv+3
  4844   001F2C  3443               	rlcf	(??___fldiv+3)^0,w,c
  4845   001F2E  3243               	rrcf	(??___fldiv+3)^0,f,c
  4846   001F30  3242               	rrcf	(??___fldiv+2)^0,f,c
  4847   001F32  3241               	rrcf	(??___fldiv+1)^0,f,c
  4848   001F34  3240               	rrcf	??___fldiv^0,f,c
  4849   001F36  C040  F038         	movff	??___fldiv,___fldiv@b
  4850   001F3A  C041  F039         	movff	??___fldiv+1,___fldiv@b+1
  4851   001F3E  C042  F03A         	movff	??___fldiv+2,___fldiv@b+2
  4852   001F42  C043  F03B         	movff	??___fldiv+3,___fldiv@b+3
  4853   001F46  4A49               	infsnz	___fldiv@new_exp^0,f,c
  4854   001F48  2A4A               	incf	(___fldiv@new_exp+1)^0,f,c
  4855   001F4A                     l2090:
  4856   001F4A  BE4A               	btfsc	(___fldiv@new_exp+1)^0,7,c
  4857   001F4C  EFB0  F00F         	goto	u2011
  4858   001F50  504A               	movf	(___fldiv@new_exp+1)^0,w,c
  4859   001F52  E108               	bnz	u2010
  4860   001F54  2849               	incf	___fldiv@new_exp^0,w,c
  4861   001F56  A0D8               	btfss	status,0,c
  4862   001F58  EFB0  F00F         	goto	u2011
  4863   001F5C  EFB2  F00F         	goto	u2010
  4864   001F60                     u2011:
  4865   001F60  EFBD  F00F         	goto	l2094
  4866   001F64                     u2010:
  4867   001F64  0E00               	movlw	0
  4868   001F66  6E4A               	movwf	(___fldiv@new_exp+1)^0,c
  4869   001F68  6849               	setf	___fldiv@new_exp^0,c
  4870   001F6A  0E00               	movlw	0
  4871   001F6C  6E38               	movwf	___fldiv@b^0,c
  4872   001F6E  0E00               	movlw	0
  4873   001F70  6E39               	movwf	(___fldiv@b+1)^0,c
  4874   001F72  0E00               	movlw	0
  4875   001F74  6E3A               	movwf	(___fldiv@b+2)^0,c
  4876   001F76  0E00               	movlw	0
  4877   001F78  6E3B               	movwf	(___fldiv@b+3)^0,c
  4878   001F7A                     l2094:
  4879   001F7A  BE4A               	btfsc	(___fldiv@new_exp+1)^0,7,c
  4880   001F7C  EFCA  F00F         	goto	u2020
  4881   001F80  504A               	movf	(___fldiv@new_exp+1)^0,w,c
  4882   001F82  E106               	bnz	u2021
  4883   001F84  0449               	decf	___fldiv@new_exp^0,w,c
  4884   001F86  B0D8               	btfsc	status,0,c
  4885   001F88  EFC8  F00F         	goto	u2021
  4886   001F8C  EFCA  F00F         	goto	u2020
  4887   001F90                     u2021:
  4888   001F90  EFD7  F00F         	goto	l2100
  4889   001F94                     u2020:
  4890   001F94  0E00               	movlw	0
  4891   001F96  6E4A               	movwf	(___fldiv@new_exp+1)^0,c
  4892   001F98  0E00               	movlw	0
  4893   001F9A  6E49               	movwf	___fldiv@new_exp^0,c
  4894   001F9C  0E00               	movlw	0
  4895   001F9E  6E38               	movwf	___fldiv@b^0,c
  4896   001FA0  0E00               	movlw	0
  4897   001FA2  6E39               	movwf	(___fldiv@b+1)^0,c
  4898   001FA4  0E00               	movlw	0
  4899   001FA6  6E3A               	movwf	(___fldiv@b+2)^0,c
  4900   001FA8  0E00               	movlw	0
  4901   001FAA  6E3B               	movwf	(___fldiv@b+3)^0,c
  4902   001FAC  6A48               	clrf	___fldiv@sign^0,c
  4903   001FAE                     l2100:
  4904   001FAE  C049  F04F         	movff	___fldiv@new_exp,___fldiv@bexp
  4905   001FB2  A04F               	btfss	___fldiv@bexp^0,0,c
  4906   001FB4  EFDE  F00F         	goto	u2031
  4907   001FB8  EFE0  F00F         	goto	u2030
  4908   001FBC                     u2031:
  4909   001FBC  EFE3  F00F         	goto	l2106
  4910   001FC0                     u2030:
  4911   001FC0  8E3A               	bsf	(___fldiv@b+2)^0,7,c
  4912   001FC2  EFE4  F00F         	goto	l2108
  4913   001FC6                     l2106:
  4914   001FC6  9E3A               	bcf	(___fldiv@b+2)^0,7,c
  4915   001FC8                     l2108:
  4916   001FC8  90D8               	bcf	status,0,c
  4917   001FCA  304F               	rrcf	___fldiv@bexp^0,w,c
  4918   001FCC  6E3B               	movwf	(___fldiv@b+3)^0,c
  4919   001FCE  EF9D  F00E         	goto	l2024
  4920   001FD2                     l686:
  4921   001FD2  0012               	return		;funcret
  4922   001FD4                     __end_of___fldiv:
  4923                           	callstack 0
  4924                           
  4925 ;; *************** function ___xxtofl *****************
  4926 ;; Defined at:
  4927 ;;		line 10 in file "C:\Program Files\Microchip\xc8\v2.50\pic\sources\c99\common\xxtofl.c"
  4928 ;; Parameters:    Size  Location     Type
  4929 ;;  sign            1    wreg     unsigned char 
  4930 ;;  val             4    0[COMRAM] long 
  4931 ;; Auto vars:     Size  Location     Type
  4932 ;;  sign            1    8[COMRAM] unsigned char 
  4933 ;;  arg             4   10[COMRAM] unsigned long 
  4934 ;;  exp             1    9[COMRAM] unsigned char 
  4935 ;; Return value:  Size  Location     Type
  4936 ;;                  4    0[COMRAM] unsigned char 
  4937 ;; Registers used:
  4938 ;;		wreg, status,2, status,0
  4939 ;; Tracked objects:
  4940 ;;		On entry : 0/0
  4941 ;;		On exit  : 0/0
  4942 ;;		Unchanged: 0/0
  4943 ;; Data sizes:     COMRAM   BANK0   BANK1   BANK2   BANK3   BANK4   BANK5
  4944 ;;      Params:         4       0       0       0       0       0       0
  4945 ;;      Locals:         6       0       0       0       0       0       0
  4946 ;;      Temps:          4       0       0       0       0       0       0
  4947 ;;      Totals:        14       0       0       0       0       0       0
  4948 ;;Total ram usage:       14 bytes
  4949 ;; Hardware stack levels used: 1
  4950 ;; This function calls:
  4951 ;;		Nothing
  4952 ;; This function is called by:
  4953 ;;		_calculate_angle
  4954 ;;		_Calibration
  4955 ;; This function uses a non-reentrant model
  4956 ;;
  4957                           
  4958                           	psect	text14
  4959   001FD4                     __ptext14:
  4960                           	callstack 0
  4961   001FD4                     ___xxtofl:
  4962                           	callstack 29
  4963                           
  4964                           ;incstack = 0
  4965                           ;___xxtofl@sign stored from wreg
  4966   001FD4  6E09               	movwf	___xxtofl@sign^0,c
  4967   001FD6  5009               	movf	___xxtofl@sign^0,w,c
  4968   001FD8  B4D8               	btfsc	status,2,c
  4969   001FDA  EFF1  F00F         	goto	u2661
  4970   001FDE  EFF3  F00F         	goto	u2660
  4971   001FE2                     u2661:
  4972   001FE2  EF15  F010         	goto	l759
  4973   001FE6                     u2660:
  4974   001FE6  BE04               	btfsc	(___xxtofl@val+3)^0,7,c
  4975   001FE8  EFFA  F00F         	goto	u2670
  4976   001FEC  EFF8  F00F         	goto	u2671
  4977   001FF0                     u2671:
  4978   001FF0  EF15  F010         	goto	l759
  4979   001FF4                     u2670:
  4980   001FF4  C001  F005         	movff	___xxtofl@val,??___xxtofl
  4981   001FF8  C002  F006         	movff	___xxtofl@val+1,??___xxtofl+1
  4982   001FFC  C003  F007         	movff	___xxtofl@val+2,??___xxtofl+2
  4983   002000  C004  F008         	movff	___xxtofl@val+3,??___xxtofl+3
  4984   002004  1E05               	comf	??___xxtofl^0,f,c
  4985   002006  1E06               	comf	(??___xxtofl+1)^0,f,c
  4986   002008  1E07               	comf	(??___xxtofl+2)^0,f,c
  4987   00200A  1E08               	comf	(??___xxtofl+3)^0,f,c
  4988   00200C  2A05               	incf	??___xxtofl^0,f,c
  4989   00200E  0E00               	movlw	0
  4990   002010  2206               	addwfc	(??___xxtofl+1)^0,f,c
  4991   002012  2207               	addwfc	(??___xxtofl+2)^0,f,c
  4992   002014  2208               	addwfc	(??___xxtofl+3)^0,f,c
  4993   002016  C005  F00B         	movff	??___xxtofl,___xxtofl@arg
  4994   00201A  C006  F00C         	movff	??___xxtofl+1,___xxtofl@arg+1
  4995   00201E  C007  F00D         	movff	??___xxtofl+2,___xxtofl@arg+2
  4996   002022  C008  F00E         	movff	??___xxtofl+3,___xxtofl@arg+3
  4997   002026  EF1D  F010         	goto	l2520
  4998   00202A                     l759:
  4999   00202A  C001  F00B         	movff	___xxtofl@val,___xxtofl@arg
  5000   00202E  C002  F00C         	movff	___xxtofl@val+1,___xxtofl@arg+1
  5001   002032  C003  F00D         	movff	___xxtofl@val+2,___xxtofl@arg+2
  5002   002036  C004  F00E         	movff	___xxtofl@val+3,___xxtofl@arg+3
  5003   00203A                     l2520:
  5004   00203A  5001               	movf	___xxtofl@val^0,w,c
  5005   00203C  1002               	iorwf	(___xxtofl@val+1)^0,w,c
  5006   00203E  1003               	iorwf	(___xxtofl@val+2)^0,w,c
  5007   002040  1004               	iorwf	(___xxtofl@val+3)^0,w,c
  5008   002042  A4D8               	btfss	status,2,c
  5009   002044  EF26  F010         	goto	u2681
  5010   002048  EF28  F010         	goto	u2680
  5011   00204C                     u2681:
  5012   00204C  EF32  F010         	goto	l2526
  5013   002050                     u2680:
  5014   002050  0E00               	movlw	0
  5015   002052  6E01               	movwf	?___xxtofl^0,c
  5016   002054  0E00               	movlw	0
  5017   002056  6E02               	movwf	(?___xxtofl+1)^0,c
  5018   002058  0E00               	movlw	0
  5019   00205A  6E03               	movwf	(?___xxtofl+2)^0,c
  5020   00205C  0E00               	movlw	0
  5021   00205E  6E04               	movwf	(?___xxtofl+3)^0,c
  5022   002060  EFC3  F010         	goto	l762
  5023   002064                     l2526:
  5024   002064  0E96               	movlw	150
  5025   002066  6E0A               	movwf	___xxtofl@exp^0,c
  5026   002068  EF3C  F010         	goto	l2530
  5027   00206C                     l2528:
  5028   00206C  2A0A               	incf	___xxtofl@exp^0,f,c
  5029   00206E  90D8               	bcf	status,0,c
  5030   002070  320E               	rrcf	(___xxtofl@arg+3)^0,f,c
  5031   002072  320D               	rrcf	(___xxtofl@arg+2)^0,f,c
  5032   002074  320C               	rrcf	(___xxtofl@arg+1)^0,f,c
  5033   002076  320B               	rrcf	___xxtofl@arg^0,f,c
  5034   002078                     l2530:
  5035   002078  0E00               	movlw	0
  5036   00207A  140B               	andwf	___xxtofl@arg^0,w,c
  5037   00207C  6E05               	movwf	??___xxtofl^0,c
  5038   00207E  0E00               	movlw	0
  5039   002080  140C               	andwf	(___xxtofl@arg+1)^0,w,c
  5040   002082  6E06               	movwf	(??___xxtofl+1)^0,c
  5041   002084  0E00               	movlw	0
  5042   002086  140D               	andwf	(___xxtofl@arg+2)^0,w,c
  5043   002088  6E07               	movwf	(??___xxtofl+2)^0,c
  5044   00208A  0EFE               	movlw	254
  5045   00208C  140E               	andwf	(___xxtofl@arg+3)^0,w,c
  5046   00208E  6E08               	movwf	(??___xxtofl+3)^0,c
  5047   002090  5005               	movf	??___xxtofl^0,w,c
  5048   002092  1006               	iorwf	(??___xxtofl+1)^0,w,c
  5049   002094  1007               	iorwf	(??___xxtofl+2)^0,w,c
  5050   002096  1008               	iorwf	(??___xxtofl+3)^0,w,c
  5051   002098  A4D8               	btfss	status,2,c
  5052   00209A  EF51  F010         	goto	u2691
  5053   00209E  EF53  F010         	goto	u2690
  5054   0020A2                     u2691:
  5055   0020A2  EF36  F010         	goto	l2528
  5056   0020A6                     u2690:
  5057   0020A6  EF61  F010         	goto	l766
  5058   0020AA                     l2532:
  5059   0020AA  2A0A               	incf	___xxtofl@exp^0,f,c
  5060   0020AC  0E01               	movlw	1
  5061   0020AE  260B               	addwf	___xxtofl@arg^0,f,c
  5062   0020B0  0E00               	movlw	0
  5063   0020B2  220C               	addwfc	(___xxtofl@arg+1)^0,f,c
  5064   0020B4  220D               	addwfc	(___xxtofl@arg+2)^0,f,c
  5065   0020B6  220E               	addwfc	(___xxtofl@arg+3)^0,f,c
  5066   0020B8  90D8               	bcf	status,0,c
  5067   0020BA  320E               	rrcf	(___xxtofl@arg+3)^0,f,c
  5068   0020BC  320D               	rrcf	(___xxtofl@arg+2)^0,f,c
  5069   0020BE  320C               	rrcf	(___xxtofl@arg+1)^0,f,c
  5070   0020C0  320B               	rrcf	___xxtofl@arg^0,f,c
  5071   0020C2                     l766:
  5072   0020C2  0E00               	movlw	0
  5073   0020C4  140B               	andwf	___xxtofl@arg^0,w,c
  5074   0020C6  6E05               	movwf	??___xxtofl^0,c
  5075   0020C8  0E00               	movlw	0
  5076   0020CA  140C               	andwf	(___xxtofl@arg+1)^0,w,c
  5077   0020CC  6E06               	movwf	(??___xxtofl+1)^0,c
  5078   0020CE  0E00               	movlw	0
  5079   0020D0  140D               	andwf	(___xxtofl@arg+2)^0,w,c
  5080   0020D2  6E07               	movwf	(??___xxtofl+2)^0,c
  5081   0020D4  0EFF               	movlw	255
  5082   0020D6  140E               	andwf	(___xxtofl@arg+3)^0,w,c
  5083   0020D8  6E08               	movwf	(??___xxtofl+3)^0,c
  5084   0020DA  5005               	movf	??___xxtofl^0,w,c
  5085   0020DC  1006               	iorwf	(??___xxtofl+1)^0,w,c
  5086   0020DE  1007               	iorwf	(??___xxtofl+2)^0,w,c
  5087   0020E0  1008               	iorwf	(??___xxtofl+3)^0,w,c
  5088   0020E2  A4D8               	btfss	status,2,c
  5089   0020E4  EF76  F010         	goto	u2701
  5090   0020E8  EF78  F010         	goto	u2700
  5091   0020EC                     u2701:
  5092   0020EC  EF55  F010         	goto	l2532
  5093   0020F0                     u2700:
  5094   0020F0  EF80  F010         	goto	l2540
  5095   0020F4                     l2538:
  5096   0020F4  060A               	decf	___xxtofl@exp^0,f,c
  5097   0020F6  90D8               	bcf	status,0,c
  5098   0020F8  360B               	rlcf	___xxtofl@arg^0,f,c
  5099   0020FA  360C               	rlcf	(___xxtofl@arg+1)^0,f,c
  5100   0020FC  360D               	rlcf	(___xxtofl@arg+2)^0,f,c
  5101   0020FE  360E               	rlcf	(___xxtofl@arg+3)^0,f,c
  5102   002100                     l2540:
  5103   002100  BE0D               	btfsc	(___xxtofl@arg+2)^0,7,c
  5104   002102  EF85  F010         	goto	u2711
  5105   002106  EF87  F010         	goto	u2710
  5106   00210A                     u2711:
  5107   00210A  EF8F  F010         	goto	l773
  5108   00210E                     u2710:
  5109   00210E  0E02               	movlw	2
  5110   002110  600A               	cpfslt	___xxtofl@exp^0,c
  5111   002112  EF8D  F010         	goto	u2721
  5112   002116  EF8F  F010         	goto	u2720
  5113   00211A                     u2721:
  5114   00211A  EF7A  F010         	goto	l2538
  5115   00211E                     u2720:
  5116   00211E                     l773:
  5117   00211E  B00A               	btfsc	___xxtofl@exp^0,0,c
  5118   002120  EF94  F010         	goto	u2731
  5119   002124  EF96  F010         	goto	u2730
  5120   002128                     u2731:
  5121   002128  EF97  F010         	goto	l2546
  5122   00212C                     u2730:
  5123   00212C  9E0D               	bcf	(___xxtofl@arg+2)^0,7,c
  5124   00212E                     l2546:
  5125   00212E  90D8               	bcf	status,0,c
  5126   002130  320A               	rrcf	___xxtofl@exp^0,f,c
  5127   002132  C00A  F005         	movff	___xxtofl@exp,??___xxtofl
  5128   002136  6A06               	clrf	(??___xxtofl+1)^0,c
  5129   002138  6A07               	clrf	(??___xxtofl+2)^0,c
  5130   00213A  6A08               	clrf	(??___xxtofl+3)^0,c
  5131   00213C  C005  F008         	movff	??___xxtofl,??___xxtofl+3
  5132   002140  6A07               	clrf	(??___xxtofl+2)^0,c
  5133   002142  6A06               	clrf	(??___xxtofl+1)^0,c
  5134   002144  6A05               	clrf	??___xxtofl^0,c
  5135   002146  5005               	movf	??___xxtofl^0,w,c
  5136   002148  120B               	iorwf	___xxtofl@arg^0,f,c
  5137   00214A  5006               	movf	(??___xxtofl+1)^0,w,c
  5138   00214C  120C               	iorwf	(___xxtofl@arg+1)^0,f,c
  5139   00214E  5007               	movf	(??___xxtofl+2)^0,w,c
  5140   002150  120D               	iorwf	(___xxtofl@arg+2)^0,f,c
  5141   002152  5008               	movf	(??___xxtofl+3)^0,w,c
  5142   002154  120E               	iorwf	(___xxtofl@arg+3)^0,f,c
  5143   002156  5009               	movf	___xxtofl@sign^0,w,c
  5144   002158  B4D8               	btfsc	status,2,c
  5145   00215A  EFB1  F010         	goto	u2741
  5146   00215E  EFB3  F010         	goto	u2740
  5147   002162                     u2741:
  5148   002162  EFBB  F010         	goto	l2556
  5149   002166                     u2740:
  5150   002166  BE04               	btfsc	(___xxtofl@val+3)^0,7,c
  5151   002168  EFBA  F010         	goto	u2750
  5152   00216C  EFB8  F010         	goto	u2751
  5153   002170                     u2751:
  5154   002170  EFBB  F010         	goto	l2556
  5155   002174                     u2750:
  5156   002174  8E0E               	bsf	(___xxtofl@arg+3)^0,7,c
  5157   002176                     l2556:
  5158   002176  C00B  F001         	movff	___xxtofl@arg,?___xxtofl
  5159   00217A  C00C  F002         	movff	___xxtofl@arg+1,?___xxtofl+1
  5160   00217E  C00D  F003         	movff	___xxtofl@arg+2,?___xxtofl+2
  5161   002182  C00E  F004         	movff	___xxtofl@arg+3,?___xxtofl+3
  5162   002186                     l762:
  5163   002186  0012               	return		;funcret
  5164   002188                     __end_of___xxtofl:
  5165                           	callstack 0
  5166                           
  5167 ;; *************** function _I2C_Write *****************
  5168 ;; Defined at:
  5169 ;;		line 117 in file "main.c"
  5170 ;; Parameters:    Size  Location     Type
  5171 ;;  data            1    wreg     unsigned char 
  5172 ;; Auto vars:     Size  Location     Type
  5173 ;;  data            1    0[COMRAM] unsigned char 
  5174 ;; Return value:  Size  Location     Type
  5175 ;;                  1    wreg      void 
  5176 ;; Registers used:
  5177 ;;		wreg
  5178 ;; Tracked objects:
  5179 ;;		On entry : 0/0
  5180 ;;		On exit  : 0/0
  5181 ;;		Unchanged: 0/0
  5182 ;; Data sizes:     COMRAM   BANK0   BANK1   BANK2   BANK3   BANK4   BANK5
  5183 ;;      Params:         0       0       0       0       0       0       0
  5184 ;;      Locals:         1       0       0       0       0       0       0
  5185 ;;      Temps:          0       0       0       0       0       0       0
  5186 ;;      Totals:         1       0       0       0       0       0       0
  5187 ;;Total ram usage:        1 bytes
  5188 ;; Hardware stack levels used: 1
  5189 ;; This function calls:
  5190 ;;		Nothing
  5191 ;; This function is called by:
  5192 ;;		_main
  5193 ;;		_Calibration
  5194 ;; This function uses a non-reentrant model
  5195 ;;
  5196                           
  5197                           	psect	text15
  5198   0027F0                     __ptext15:
  5199                           	callstack 0
  5200   0027F0                     _I2C_Write:
  5201                           	callstack 30
  5202                           
  5203                           ;incstack = 0
  5204                           ;I2C_Write@data stored from wreg
  5205   0027F0  6E01               	movwf	I2C_Write@data^0,c
  5206   0027F2                     
  5207                           ;main.c: 118:     ACKEN = 1;
  5208   0027F2  C001  FFC9         	movff	I2C_Write@data,4041	;volatile
  5209   0027F6                     l83:
  5210   0027F6  B0C7               	btfsc	4039,0,c	;volatile
  5211   0027F8  EF00  F014         	goto	u2441
  5212   0027FC  EF02  F014         	goto	u2440
  5213   002800                     u2441:
  5214   002800  EFFB  F013         	goto	l83
  5215   002804                     u2440:
  5216   002804                     l86:
  5217   002804  BCC5               	btfsc	197,6,c	;volatile
  5218   002806  EF07  F014         	goto	u2451
  5219   00280A  EF09  F014         	goto	u2450
  5220   00280E                     u2451:
  5221   00280E  EF02  F014         	goto	l86
  5222   002812                     u2450:
  5223   002812  0012               	return		;funcret
  5224   002814                     __end_of_I2C_Write:
  5225                           	callstack 0
  5226                           
  5227 ;; *************** function _I2C_Stop *****************
  5228 ;; Defined at:
  5229 ;;		line 112 in file "main.c"
  5230 ;; Parameters:    Size  Location     Type
  5231 ;;		None
  5232 ;; Auto vars:     Size  Location     Type
  5233 ;;		None
  5234 ;; Return value:  Size  Location     Type
  5235 ;;                  1    wreg      void 
  5236 ;; Registers used:
  5237 ;;		None
  5238 ;; Tracked objects:
  5239 ;;		On entry : 0/0
  5240 ;;		On exit  : 0/0
  5241 ;;		Unchanged: 0/0
  5242 ;; Data sizes:     COMRAM   BANK0   BANK1   BANK2   BANK3   BANK4   BANK5
  5243 ;;      Params:         0       0       0       0       0       0       0
  5244 ;;      Locals:         0       0       0       0       0       0       0
  5245 ;;      Temps:          0       0       0       0       0       0       0
  5246 ;;      Totals:         0       0       0       0       0       0       0
  5247 ;;Total ram usage:        0 bytes
  5248 ;; Hardware stack levels used: 1
  5249 ;; This function calls:
  5250 ;;		Nothing
  5251 ;; This function is called by:
  5252 ;;		_main
  5253 ;;		_Calibration
  5254 ;; This function uses a non-reentrant model
  5255 ;;
  5256                           
  5257                           	psect	text16
  5258   00282A                     __ptext16:
  5259                           	callstack 0
  5260   00282A                     _I2C_Stop:
  5261                           	callstack 30
  5262   00282A                     
  5263                           ;main.c: 113:     while(!BF);
  5264   00282A  84C5               	bsf	4037,2,c	;volatile
  5265   00282C                     l77:
  5266   00282C  B4C5               	btfsc	4037,2,c	;volatile
  5267   00282E  EF1B  F014         	goto	u2461
  5268   002832  EF1D  F014         	goto	u2460
  5269   002836                     u2461:
  5270   002836  EF16  F014         	goto	l77
  5271   00283A                     u2460:
  5272   00283A  0012               	return		;funcret
  5273   00283C                     __end_of_I2C_Stop:
  5274                           	callstack 0
  5275                           
  5276 ;; *************** function _I2C_Start *****************
  5277 ;; Defined at:
  5278 ;;		line 106 in file "main.c"
  5279 ;; Parameters:    Size  Location     Type
  5280 ;;		None
  5281 ;; Auto vars:     Size  Location     Type
  5282 ;;		None
  5283 ;; Return value:  Size  Location     Type
  5284 ;;                  1    wreg      void 
  5285 ;; Registers used:
  5286 ;;		None
  5287 ;; Tracked objects:
  5288 ;;		On entry : 0/0
  5289 ;;		On exit  : 0/0
  5290 ;;		Unchanged: 0/0
  5291 ;; Data sizes:     COMRAM   BANK0   BANK1   BANK2   BANK3   BANK4   BANK5
  5292 ;;      Params:         0       0       0       0       0       0       0
  5293 ;;      Locals:         0       0       0       0       0       0       0
  5294 ;;      Temps:          0       0       0       0       0       0       0
  5295 ;;      Totals:         0       0       0       0       0       0       0
  5296 ;;Total ram usage:        0 bytes
  5297 ;; Hardware stack levels used: 1
  5298 ;; This function calls:
  5299 ;;		Nothing
  5300 ;; This function is called by:
  5301 ;;		_main
  5302 ;;		_Calibration
  5303 ;; This function uses a non-reentrant model
  5304 ;;
  5305                           
  5306                           	psect	text17
  5307   00283C                     __ptext17:
  5308                           	callstack 0
  5309   00283C                     _I2C_Start:
  5310                           	callstack 30
  5311   00283C                     
  5312                           ;main.c: 107: }
  5313   00283C  80C5               	bsf	4037,0,c	;volatile
  5314   00283E                     l71:
  5315   00283E  B0C5               	btfsc	4037,0,c	;volatile
  5316   002840  EF24  F014         	goto	u2431
  5317   002844  EF26  F014         	goto	u2430
  5318   002848                     u2431:
  5319   002848  EF1F  F014         	goto	l71
  5320   00284C                     u2430:
  5321   00284C  0012               	return		;funcret
  5322   00284E                     __end_of_I2C_Start:
  5323                           	callstack 0
  5324                           
  5325 ;; *************** function _I2C_Read *****************
  5326 ;; Defined at:
  5327 ;;		line 124 in file "main.c"
  5328 ;; Parameters:    Size  Location     Type
  5329 ;;  ack             1    wreg     unsigned char 
  5330 ;; Auto vars:     Size  Location     Type
  5331 ;;  ack             1    0[COMRAM] unsigned char 
  5332 ;;  data            1    1[COMRAM] unsigned char 
  5333 ;; Return value:  Size  Location     Type
  5334 ;;                  1    wreg      unsigned char 
  5335 ;; Registers used:
  5336 ;;		wreg, status,2
  5337 ;; Tracked objects:
  5338 ;;		On entry : 0/0
  5339 ;;		On exit  : 0/0
  5340 ;;		Unchanged: 0/0
  5341 ;; Data sizes:     COMRAM   BANK0   BANK1   BANK2   BANK3   BANK4   BANK5
  5342 ;;      Params:         0       0       0       0       0       0       0
  5343 ;;      Locals:         2       0       0       0       0       0       0
  5344 ;;      Temps:          0       0       0       0       0       0       0
  5345 ;;      Totals:         2       0       0       0       0       0       0
  5346 ;;Total ram usage:        2 bytes
  5347 ;; Hardware stack levels used: 1
  5348 ;; This function calls:
  5349 ;;		Nothing
  5350 ;; This function is called by:
  5351 ;;		_main
  5352 ;;		_Calibration
  5353 ;; This function uses a non-reentrant model
  5354 ;;
  5355                           
  5356                           	psect	text18
  5357   002746                     __ptext18:
  5358                           	callstack 0
  5359   002746                     _I2C_Read:
  5360                           	callstack 30
  5361                           
  5362                           ;incstack = 0
  5363                           ;I2C_Read@ack stored from wreg
  5364   002746  6E01               	movwf	I2C_Read@ack^0,c
  5365   002748                     
  5366                           ;main.c: 125:     uint8_t accX_high, accX_low, accZ_high, accZ_low;;main.c: 126:     I2C
      +                          _Start();
  5367   002748  86C5               	bsf	4037,3,c	;volatile
  5368   00274A                     l92:
  5369   00274A  A0C7               	btfss	4039,0,c	;volatile
  5370   00274C  EFAA  F013         	goto	u2471
  5371   002750  EFAC  F013         	goto	u2470
  5372   002754                     u2471:
  5373   002754  EFA5  F013         	goto	l92
  5374   002758                     u2470:
  5375   002758                     
  5376                           ;main.c: 128:     I2C_Write(0x3B);
  5377   002758  CFC9 F002          	movff	4041,I2C_Read@data	;volatile
  5378   00275C                     
  5379                           ;main.c: 131:     accX_high = I2C_Read(1);
  5380   00275C  5001               	movf	I2C_Read@ack^0,w,c
  5381   00275E  B4D8               	btfsc	status,2,c
  5382   002760  EFB4  F013         	goto	u2481
  5383   002764  EFB7  F013         	goto	u2480
  5384   002768                     u2481:
  5385   002768  8AC5               	bsf	4037,5,c	;volatile
  5386   00276A  EFB8  F013         	goto	u2495
  5387   00276E                     u2480:
  5388   00276E  9AC5               	bcf	4037,5,c	;volatile
  5389   002770                     u2495:
  5390   002770                     
  5391                           ;main.c: 132:     accX_low = I2C_Read(1);
  5392   002770  88C5               	bsf	4037,4,c	;volatile
  5393   002772                     l95:
  5394   002772  B8C5               	btfsc	4037,4,c	;volatile
  5395   002774  EFBE  F013         	goto	u2501
  5396   002778  EFC0  F013         	goto	u2500
  5397   00277C                     u2501:
  5398   00277C  EFB9  F013         	goto	l95
  5399   002780                     u2500:
  5400   002780                     
  5401                           ;main.c: 134:     accZ_low = I2C_Read(0);
  5402   002780  5002               	movf	I2C_Read@data^0,w,c
  5403   002782  0012               	return		;funcret
  5404   002784                     __end_of_I2C_Read:
  5405                           	callstack 0
  5406                           
  5407                           	psect	rparam
  5408   000001                     ___rparam_used  equ	1
  5409   000000                     ___param_bank   equ	0
  5410   000000                     __Lparam        equ	__Lrparam
  5411   000000                     __Hparam        equ	__Hrparam
  5412                           
  5413                           	psect	idloc
  5414                           
  5415                           ;Config register IDLOC0 @ 0x200000
  5416                           ;	unspecified, using default values
  5417   200000                     	org	2097152
  5418   200000  FF                 	db	255
  5419                           
  5420                           ;Config register IDLOC1 @ 0x200001
  5421                           ;	unspecified, using default values
  5422   200001                     	org	2097153
  5423   200001  FF                 	db	255
  5424                           
  5425                           ;Config register IDLOC2 @ 0x200002
  5426                           ;	unspecified, using default values
  5427   200002                     	org	2097154
  5428   200002  FF                 	db	255
  5429                           
  5430                           ;Config register IDLOC3 @ 0x200003
  5431                           ;	unspecified, using default values
  5432   200003                     	org	2097155
  5433   200003  FF                 	db	255
  5434                           
  5435                           ;Config register IDLOC4 @ 0x200004
  5436                           ;	unspecified, using default values
  5437   200004                     	org	2097156
  5438   200004  FF                 	db	255
  5439                           
  5440                           ;Config register IDLOC5 @ 0x200005
  5441                           ;	unspecified, using default values
  5442   200005                     	org	2097157
  5443   200005  FF                 	db	255
  5444                           
  5445                           ;Config register IDLOC6 @ 0x200006
  5446                           ;	unspecified, using default values
  5447   200006                     	org	2097158
  5448   200006  FF                 	db	255
  5449                           
  5450                           ;Config register IDLOC7 @ 0x200007
  5451                           ;	unspecified, using default values
  5452   200007                     	org	2097159
  5453   200007  FF                 	db	255
  5454                           
  5455                           	psect	config
  5456                           
  5457                           ; Padding undefined space
  5458   300000                     	org	3145728
  5459   300000  FF                 	db	255
  5460                           
  5461                           ;Config register CONFIG1H @ 0x300001
  5462                           ;	Oscillator Selection bits
  5463                           ;	OSC = INTIO67, Internal oscillator block, port function on RA6 and RA7
  5464                           ;	Fail-Safe Clock Monitor Enable bit
  5465                           ;	FCMEN = 0x0, unprogrammed default
  5466                           ;	Internal/External Oscillator Switchover bit
  5467                           ;	IESO = 0x0, unprogrammed default
  5468   300001                     	org	3145729
  5469   300001  08                 	db	8
  5470                           
  5471                           ;Config register CONFIG2L @ 0x300002
  5472                           ;	Power-up Timer Enable bit
  5473                           ;	PWRT = OFF, PWRT disabled
  5474                           ;	Brown-out Reset Enable bits
  5475                           ;	BOREN = ON, Brown-out Reset enabled and controlled by software (SBOREN is enabled)
  5476                           ;	Brown Out Reset Voltage bits
  5477                           ;	BORV = 0x3, unprogrammed default
  5478   300002                     	org	3145730
  5479   300002  1B                 	db	27
  5480                           
  5481                           ;Config register CONFIG2H @ 0x300003
  5482                           ;	Watchdog Timer Enable bit
  5483                           ;	WDT = OFF, WDT disabled (control is placed on the SWDTEN bit)
  5484                           ;	Watchdog Timer Postscale Select bits
  5485                           ;	WDTPS = 0xF, unprogrammed default
  5486   300003                     	org	3145731
  5487   300003  1E                 	db	30
  5488                           
  5489                           ; Padding undefined space
  5490   300004                     	org	3145732
  5491   300004  FF                 	db	255
  5492                           
  5493                           ;Config register CONFIG3H @ 0x300005
  5494                           ;	CCP2 MUX bit
  5495                           ;	CCP2MX = 0x1, unprogrammed default
  5496                           ;	PORTB A/D Enable bit
  5497                           ;	PBADEN = OFF, PORTB<4:0> pins are configured as digital I/O on Reset
  5498                           ;	Low-Power Timer1 Oscillator Enable bit
  5499                           ;	LPT1OSC = 0x0, unprogrammed default
  5500                           ;	MCLR Pin Enable bit
  5501                           ;	MCLRE = 0x1, unprogrammed default
  5502   300005                     	org	3145733
  5503   300005  81                 	db	129
  5504                           
  5505                           ;Config register CONFIG4L @ 0x300006
  5506                           ;	Stack Full/Underflow Reset Enable bit
  5507                           ;	STVREN = 0x1, unprogrammed default
  5508                           ;	Single-Supply ICSP Enable bit
  5509                           ;	LVP = OFF, Single-Supply ICSP disabled
  5510                           ;	Extended Instruction Set Enable bit
  5511                           ;	XINST = 0x0, unprogrammed default
  5512                           ;	Background Debugger Enable bit
  5513                           ;	DEBUG = 0x1, unprogrammed default
  5514   300006                     	org	3145734
  5515   300006  81                 	db	129
  5516                           
  5517                           ; Padding undefined space
  5518   300007                     	org	3145735
  5519   300007  FF                 	db	255
  5520                           
  5521                           ;Config register CONFIG5L @ 0x300008
  5522                           ;	unspecified, using default values
  5523                           ;	Code Protection bit
  5524                           ;	CP0 = 0x1, unprogrammed default
  5525                           ;	Code Protection bit
  5526                           ;	CP1 = 0x1, unprogrammed default
  5527                           ;	Code Protection bit
  5528                           ;	CP2 = 0x1, unprogrammed default
  5529                           ;	Code Protection bit
  5530                           ;	CP3 = 0x1, unprogrammed default
  5531   300008                     	org	3145736
  5532   300008  0F                 	db	15
  5533                           
  5534                           ;Config register CONFIG5H @ 0x300009
  5535                           ;	Boot Block Code Protection bit
  5536                           ;	CPB = 0x1, unprogrammed default
  5537                           ;	Data EEPROM Code Protection bit
  5538                           ;	CPD = OFF, Data EEPROM not code-protected
  5539   300009                     	org	3145737
  5540   300009  C0                 	db	192
  5541                           
  5542                           ;Config register CONFIG6L @ 0x30000A
  5543                           ;	unspecified, using default values
  5544                           ;	Write Protection bit
  5545                           ;	WRT0 = 0x1, unprogrammed default
  5546                           ;	Write Protection bit
  5547                           ;	WRT1 = 0x1, unprogrammed default
  5548                           ;	Write Protection bit
  5549                           ;	WRT2 = 0x1, unprogrammed default
  5550                           ;	Write Protection bit
  5551                           ;	WRT3 = 0x1, unprogrammed default
  5552   30000A                     	org	3145738
  5553   30000A  0F                 	db	15
  5554                           
  5555                           ;Config register CONFIG6H @ 0x30000B
  5556                           ;	unspecified, using default values
  5557                           ;	Configuration Register Write Protection bit
  5558                           ;	WRTC = 0x1, unprogrammed default
  5559                           ;	Boot Block Write Protection bit
  5560                           ;	WRTB = 0x1, unprogrammed default
  5561                           ;	Data EEPROM Write Protection bit
  5562                           ;	WRTD = 0x1, unprogrammed default
  5563   30000B                     	org	3145739
  5564   30000B  E0                 	db	224
  5565                           
  5566                           ;Config register CONFIG7L @ 0x30000C
  5567                           ;	unspecified, using default values
  5568                           ;	Table Read Protection bit
  5569                           ;	EBTR0 = 0x1, unprogrammed default
  5570                           ;	Table Read Protection bit
  5571                           ;	EBTR1 = 0x1, unprogrammed default
  5572                           ;	Table Read Protection bit
  5573                           ;	EBTR2 = 0x1, unprogrammed default
  5574                           ;	Table Read Protection bit
  5575                           ;	EBTR3 = 0x1, unprogrammed default
  5576   30000C                     	org	3145740
  5577   30000C  0F                 	db	15
  5578                           
  5579                           ;Config register CONFIG7H @ 0x30000D
  5580                           ;	unspecified, using default values
  5581                           ;	Boot Block Table Read Protection bit
  5582                           ;	EBTRB = 0x1, unprogrammed default
  5583   30000D                     	org	3145741
  5584   30000D  40                 	db	64
  5585                           tosu	equ	0xFFF
  5586                           tosh	equ	0xFFE
  5587                           tosl	equ	0xFFD
  5588                           stkptr	equ	0xFFC
  5589                           pclatu	equ	0xFFB
  5590                           pclath	equ	0xFFA
  5591                           pcl	equ	0xFF9
  5592                           tblptru	equ	0xFF8
  5593                           tblptrh	equ	0xFF7
  5594                           tblptrl	equ	0xFF6
  5595                           tablat	equ	0xFF5
  5596                           prodh	equ	0xFF4
  5597                           prodl	equ	0xFF3
  5598                           indf0	equ	0xFEF
  5599                           postinc0	equ	0xFEE
  5600                           postdec0	equ	0xFED
  5601                           preinc0	equ	0xFEC
  5602                           plusw0	equ	0xFEB
  5603                           fsr0h	equ	0xFEA
  5604                           fsr0l	equ	0xFE9
  5605                           wreg	equ	0xFE8
  5606                           indf1	equ	0xFE7
  5607                           postinc1	equ	0xFE6
  5608                           postdec1	equ	0xFE5
  5609                           preinc1	equ	0xFE4
  5610                           plusw1	equ	0xFE3
  5611                           fsr1h	equ	0xFE2
  5612                           fsr1l	equ	0xFE1
  5613                           bsr	equ	0xFE0
  5614                           indf2	equ	0xFDF
  5615                           postinc2	equ	0xFDE
  5616                           postdec2	equ	0xFDD
  5617                           preinc2	equ	0xFDC
  5618                           plusw2	equ	0xFDB
  5619                           fsr2h	equ	0xFDA
  5620                           fsr2l	equ	0xFD9
  5621                           status	equ	0xFD8

Data Sizes:
    Strings     0
    Constant    60
    Data        0
    BSS         12
    Persistent  0
    Stack       0

Auto Spaces:
    Space          Size  Autos    Used
    COMRAM          127    125     125
    BANK0           128     87      99
    BANK1           256      0       0
    BANK2           256      0       0
    BANK3           256      0       0
    BANK4           256      0       0
    BANK5           244      0       0

Pointer List with Targets:

    None.

Critical Paths under _main in COMRAM

    _main->_Calibration
    _calculate_angle->_atan2f
    _Calibration->_atan2f
    _atan2f->_atanf
    _atanf->_fabsf
    _fabsf->___fldiv
    ___flsub->___fladd
    ___fladd->___flmul
    ___flmul->___xxtofl
    ___fldiv->___fladd

Critical Paths under _main in BANK0

    _main->_calculate_angle
    _calculate_angle->_atan2f
    _Calibration->_atan2f
    _atan2f->_atanf

Critical Paths under _main in BANK1

    None.

Critical Paths under _main in BANK2

    None.

Critical Paths under _main in BANK3

    None.

Critical Paths under _main in BANK4

    None.

Critical Paths under _main in BANK5

    None.

Call Graph Tables:

 ---------------------------------------------------------------------------------
 (Depth) Function   	        Calls       Base Space   Used Autos Params    Refs
 ---------------------------------------------------------------------------------
 (0) _main                                                18    18      0   37629
                                            123 COMRAM     2     2      0
                                             71 BANK0     16    16      0
                        _Calibration
                           _I2C_Init
                           _I2C_Read
                          _I2C_Start
                           _I2C_Stop
                          _I2C_Write
                             ___flge
                            ___flsub
                    _calculate_angle
 ---------------------------------------------------------------------------------
 (1) _calculate_angle                                      8     4      4   17454
                                            109 COMRAM     4     4      0
                                             67 BANK0      4     0      4
                            ___fldiv
                            ___flmul
                           ___xxtofl
                             _atan2f
 ---------------------------------------------------------------------------------
 (1) ___flge                                              12     4      8     186
                                              0 COMRAM    12     4      8
 ---------------------------------------------------------------------------------
 (1) _I2C_Init                                             0     0      0       0
 ---------------------------------------------------------------------------------
 (1) _Calibration                                         14    14      0   17627
                                            109 COMRAM    14    14      0
                           _I2C_Read
                          _I2C_Start
                           _I2C_Stop
                          _I2C_Write
                            ___fldiv
                            ___flmul
                           ___xxtofl
                             _atan2f
 ---------------------------------------------------------------------------------
 (2) _atan2f                                              41    33      8   14418
                                             93 COMRAM    16     8      8
                                             42 BANK0     25    25      0
                            ___fladd
                            ___fldiv
                            ___flneg
                            ___flsub
                      ___fpclassifyf
                           ___xxtofl (ARG)
                              _atanf
                              _fabsf
 ---------------------------------------------------------------------------------
 (3) _atanf                                               47    43      4    8149
                                             88 COMRAM     5     1      4
                                              0 BANK0     42    42      0
                            ___fladd
                            ___fldiv
                            ___flmul
                            ___flneg
                            ___flsub
                      ___fpclassifyf
                              _fabsf
 ---------------------------------------------------------------------------------
 (3) _fabsf                                                8     4      4      49
                                             80 COMRAM     8     4      4
                            ___fldiv (ARG)
 ---------------------------------------------------------------------------------
 (4) ___fpclassifyf                                       14    10      4     138
                                              0 COMRAM    14    10      4
 ---------------------------------------------------------------------------------
 (4) ___flsub                                              8     0      8    2075
                                             55 COMRAM     8     0      8
                            ___fladd
                            ___flmul (ARG)
 ---------------------------------------------------------------------------------
 (5) ___fladd                                             16     8      8    2018
                                             39 COMRAM    16     8      8
                            ___flmul (ARG)
 ---------------------------------------------------------------------------------
 (4) ___flneg                                              4     0      4      48
                                              0 COMRAM     4     0      4
 ---------------------------------------------------------------------------------
 (4) ___flmul                                             25    17      8    1492
                                             14 COMRAM    25    17      8
                           ___xxtofl (ARG)
 ---------------------------------------------------------------------------------
 (4) ___fldiv                                             25    17      8    1135
                                             55 COMRAM    25    17      8
                            ___fladd (ARG)
                            ___flmul (ARG)
                           ___xxtofl (ARG)
 ---------------------------------------------------------------------------------
 (2) ___xxtofl                                            14    10      4     340
                                              0 COMRAM    14    10      4
 ---------------------------------------------------------------------------------
 (1) _I2C_Write                                            1     1      0      29
                                              0 COMRAM     1     1      0
 ---------------------------------------------------------------------------------
 (1) _I2C_Stop                                             0     0      0       0
 ---------------------------------------------------------------------------------
 (1) _I2C_Start                                            0     0      0       0
 ---------------------------------------------------------------------------------
 (1) _I2C_Read                                             2     2      0      52
                                              0 COMRAM     2     2      0
 ---------------------------------------------------------------------------------
 Estimated maximum stack depth 5
 ---------------------------------------------------------------------------------

 Call Graph Graphs:

 _main (ROOT)
   _Calibration
     _I2C_Read
     _I2C_Start
     _I2C_Stop
     _I2C_Write
     ___fldiv
       ___fladd (ARG)
         ___flmul (ARG)
           ___xxtofl (ARG)
       ___flmul (ARG)
       ___xxtofl (ARG)
     ___flmul
     ___xxtofl
     _atan2f
       ___fladd
       ___fldiv
       ___flneg
       ___flsub
         ___fladd
         ___flmul (ARG)
       ___fpclassifyf
       ___xxtofl (ARG)
       _atanf (ARG)
         ___fladd
         ___fldiv
         ___flmul
         ___flneg
         ___flsub
         ___fpclassifyf
         _fabsf
           ___fldiv (ARG)
       _fabsf (ARG)
   _I2C_Init
   _I2C_Read
   _I2C_Start
   _I2C_Stop
   _I2C_Write
   ___flge
   ___flsub
   _calculate_angle
     ___fldiv
     ___flmul
     ___xxtofl
     _atan2f

Address spaces:
Name               Size   Autos  Total    Usage
BIGRAM            1523      0       0      0.0%
BITBANK4           256      0       0      0.0%
BANK4              256      0       0      0.0%
BITBANK3           256      0       0      0.0%
BANK3              256      0       0      0.0%
BITBANK2           256      0       0      0.0%
BANK2              256      0       0      0.0%
BITBANK1           256      0       0      0.0%
BANK1              256      0       0      0.0%
BITBANK5           244      0       0      0.0%
BANK5              244      0       0      0.0%
BITBANK0           128      0       0      0.0%
BANK0              128     87      99     77.3%
BITCOMRAM          127      0       0      0.0%
COMRAM             127    125     125     98.4%
BITBIGSFR_1l        40      0       0      0.0%
BITBIGSFRh          18      0       0      0.0%
BITBIGSFR_1h        14      0       0      0.0%
BITBIGSFR_5         13      0       0      0.0%
BITBIGSFRl           9      0       0      0.0%
BITBIGSFR_2          6      0       0      0.0%
BITBIGSFR_4          3      0       0      0.0%
BITBIGSFR_3          3      0       0      0.0%
STACK                0      0       0      0.0%
DATA                 0      0     224      0.0%


Microchip Technology PIC18 Macro Assembler V2.50 build 20240725155939 
Symbol Table                                                                                   Sat Jan 11 16:06:09 2025

           ___fldiv@aexp 0050             ___fldiv@bexp 004F             ___fldiv@sign 0048  
                     _BF 7E38                       l71 283E                       l80 283A  
                     l65 26FE                       l74 284C                       l58 2300  
                     l83 27F6                       l92 274A                       l68 285A  
                     l77 282C                       l94 2758                       l86 2804  
                     l95 2772                       l97 2780                       l89 2812  
                     l98 2782                       _pi 0639                      l101 243E  
                    l700 1EE0                      l374 2542                      l632 1550  
                    l641 181C                      l633 153E                      l369 24FC  
                    l722 1C42                      l378 27BA                      l634 1504  
                    l820 116A                      l725 1AD8                      l726 1AF6  
                    l718 18E2                      l646 16F8                      l830 1232  
                    l822 1134                      l735 1C04                      l727 1B4E  
                    l728 1B3C                      l665 17E0                      l649 166A  
                    l762 2186                      l658 1738                      l674 2744  
                    l691 1DFA                      l659 1726                      l844 2640  
                    l773 211E                      l766 20C2                      l686 1FD2  
                    l759 202A                      l791 1366                      l688 1E36  
                    l697 1E7C                      l698 1E9A                      l874 0778  
                    l699 1EF2                      l892 27EE                      l868 0DAA  
                    l796 0F0C                      l788 0E30                      _PEN 7E2A  
                    _SEN 7E28                      _aT0 0631                      _aT1 062D  
                    _aT2 0629                      _aT3 0625                      _aT4 0621  
                    wreg 0FE8             ___flmul@aexp 0020             ___flmul@bexp 0021  
           ___flmul@sign 001B             ___flmul@temp 0026             ___flmul@prod 0022  
                   l2000 1CAE                     l2010 1CE4                     l2002 1CB4  
                   l2100 1FAE                     l2020 1D22                     l2012 1CF4  
                   l2004 1CC2                     l2102 1FB2                     l2022 1D32  
                   l2030 1D52                     l2014 1CF6                     l2006 1CC4  
                   l2104 1FC0                     l2040 1D90                     l2032 1D62  
                   l2024 1D3A                     l2008 1CD4                     l2016 1CFC  
                   l2200 1AC8                     l2120 1838                     l2106 1FC6  
                   l2050 1DD6                     l2042 1DA0                     l2034 1D62  
                   l2026 1D3E                     l2018 1D0C                     l2202 1AD6  
                   l2130 1870                     l2122 183A                     l2108 1FC8  
                   l2060 1E24                     l2052 1DEA                     l2044 1DB0  
                   l2212 1B5E                     l2220 1BA6                     l2204 1AE8  
                   l2140 189C                     l2132 1880                     l2124 184A  
                   l2116 181E                     l2300 06B6                     l2070 1E6C  
                   l2062 1E34                     l2054 1DF8                     l2046 1DC0  
                   l2038 1D76                     l2230 1C08                     l2222 1BC0  
                   l2214 1B6A                     l2206 1B06                     l2150 18F2  
                   l2142 18AC                     l2134 1886                     l2126 185A  
                   l2118 182A                     l2302 06FA                     l2310 0748  
                   l2072 1E7A                     l2064 1E46                     l2056 1E04  
                   l2048 1DC6                     l2240 1C32                     l2232 1C18  
                   l2224 1BD4                     l2216 1B78                     l2208 1B34  
                   l2160 192C                     l2152 1902                     l2144 18BC  
                   l2136 188C                     l2128 186A                     l2320 07BA  
                   l2312 075E                     l2304 070C                     l2400 0E6E  
                   l2082 1F02                     l2090 1F4A                     l2066 1E5C  
                   l2074 1E8C                     l2058 1E22                     l2234 1C26  
                   l2226 1BEE                     l2218 1BA2                     l2170 197E  
                   l2162 1942                     l2146 18CC                     l2138 189A  
                   l2250 2784                     l2322 07D0                     l2330 08FA  
                   l2306 0720                     l2092 1F64                     l2084 1F0E  
                   l2076 1EAA                     l2068 1E62                     l2236 1C28  
                   l2228 1BFE                     l2180 19C4                     l2172 198C  
                   l2164 194E                     l2156 1916                     l2148 18D2  
                   l2252 279A                     l2244 2700                     l2260 2564  
                   l2332 0910                     l2324 07D2                     l2340 09F0  
                   l2316 077E                     l2412 0F20                     l2404 0E96  
                   l2094 1F7A                     l2086 1F1C                     l2078 1ED8  
                   l2238 1C2E                     l2190 1A32                     l2182 19DE  
                   l2174 1998                     l2166 1966                     l2158 1922  
                   l2254 27AA                     l2246 2710                     l2262 25A2  
                   l2270 25E2                     l2350 0B3C                     l2342 0A24  
                   l2334 0914                     l2326 0876                     l2318 07A2  
                   l2502 126E                     l2430 0FA6                     l2422 0F48  
                   l2406 0EEE                     l2520 203A                     l2096 1F94  
                   l2088 1F46                     l2192 1A5C                     l2184 19EE  
                   l2176 19A8                     l2168 1972                     l1800 13B6  
                   l2272 25F4                     l2264 25CA                     l2280 27BC  
                   l2352 0B94                     l2344 0A58                     l2336 09B8  
                   l2328 087A                     l2512 1346                     l2440 0FF6  
                   l2416 0F34                     l2424 0F6E                     l2408 0EF0  
                   l2600 246E                     l2530 2078                     l2522 2050  
                   l2514 1FD6                     l2098 1FAC                     l2194 1A92  
                   l2186 1A0A                     l2178 19B4                     l1810 13E6  
                   l1802 13BC                     l2266 25D6                     l2258 2544  
                   l2282 27DC                     l2370 0D94                     l2362 0C68  
                   l2354 0BC8                     l2346 0AB0                     l2338 09BC  
                   l2290 064E                     l2506 12DA                     l2426 0F84  
                   l2434 0FBA                     l2610 24DC                     l2602 247E  
                   l2380 27F2                     l2540 2100                     l2532 20AA  
                   l2516 1FE6                     l2196 1AA0                     l2188 1A16  
                   l1900 15BE                     l1820 141C                     l1812 13EC  
                   l1804 13CC                     l2276 2638                     l2284 27DE  
                   l2364 0CC0                     l2356 0BD8                     l2348 0B08  
                   l2292 0664                     l2460 106C                     l2452 1032  
                   l2444 100A                     l2436 0FD6                     l2428 0F92  
                   l2612 24EA                     l2604 24AC                     l2620 2188  
                   l2382 282A                     l2550 2156                     l2542 210E  
                   l2534 20AC                     l2526 2064                     l2518 1FF4  
                   l2198 1ABE                     l1910 1604                     l1902 15CC  
                   l1830 1456                     l1822 142C                     l1814 13FA  
                   l1806 13D2                     l2366 0D10                     l2358 0C30  
                   l2294 0666                     l2390 0DAC                     l2614 253A  
                   l2606 24BC                     l2630 21A8                     l2622 218C  
                   l2384 2748                     l2552 2166                     l2544 212C  
                   l2536 20B8                     l2528 206C                     l1920 1680  
                   l1912 1638                     l1904 15CE                     l1840 1474  
                   l1832 1464                     l1824 142E                     l1816 13FC  
                   l1808 13E4                     l2368 0D44                     l2296 067C  
                   l2288 063E                     l2472 10A8                     l2464 1080  
                   l2448 101E                     l2480 10E2                     l2392 0DD2  
                   l2560 284E                     l2616 2540                     l2608 24CA  
                   l2640 21C0                     l2632 21AE                     l2624 2190  
                   l2386 275C                     l2378 283C                     l2554 2174  
                   l2546 212E                     l2538 20F4                     l1930 16BC  
                   l1922 1690                     l1914 163A                     l1906 15D8  
                   l1850 1488                     l1842 1478                     l1834 1468  
                   l1818 140C                     l1826 1434                     l2298 06A2  
                   l2490 1178                     l2482 1118                     l2458 1046  
                   l2394 0DF8                     l2570 2322                     l2562 2852  
                   l2650 21DA                     l2642 21C4                     l2634 21B8  
                   l2626 219E                     l2388 2770                     l2556 2176  
                   l2548 2132                     l1940 16E8                     l1932 16BE  
                   l1916 164A                     l1908 15DE                     l1860 149C  
                   l1852 148C                     l1844 147C                     l1836 146C  
                   l1828 1444                     l2492 11AE                     l2484 1142  
                   l2468 1094                     l2580 234A                     l2572 232C  
                   l2564 2858                     l2660 2206                     l2652 21E4  
                   l2644 21CA                     l2636 21BA                     l2628 21A2  
                   l1950 1748                     l1934 16CC                     l1926 16A4  
                   l1942 16EA                     l1918 165A                     l1870 14FC  
                   l1862 14A0                     l1854 1490                     l1846 1480  
                   l1838 1470                     l1790 1382                     l2494 11C2  
                   l2486 1156                     l2478 10BC                     l2398 0E50  
                   l2590 23E6                     l2582 2352                     l2574 2332  
                   l2566 2318                     l2670 22BE                     l2662 221E  
                   l2654 21EE                     l2646 21D0                     l2638 21BC  
                   l1960 17AE                     l1952 1754                     l1944 1708  
                   l1936 16D4                     l1928 16AE                     l1880 1532  
                   l1872 1512                     l1856 1494                     l1848 1484  
                   l1864 14A4                     l1792 1384                     l2496 120A  
                   l2584 2356                     l2576 233A                     l2568 231C  
                   l2592 2642                     l2672 22C6                     l2664 2234  
                   l2656 21F8                     l2648 21D4                     l1970 17F6  
                   l1962 17BE                     l1954 1762                     l1946 171E  
                   l1938 16D8                     l1890 1582                     l1882 153C  
                   l1874 151E                     l1866 14D0                     l1858 1498  
                   l1794 1394                     l1786 1368                     l2498 1246  
                   l2586 236C                     l2578 2342                     l2594 26A6  
                   l2674 22F8                     l2666 2258                     l2658 2202  
                   l1980 1C44                     l1972 17FC                     l1964 17DE  
                   l1956 179C                     l1892 1592                     l1884 155E  
                   l1876 1522                     l1868 14EC                     l1796 13A4  
                   l1788 1374                     l2588 2382                     l2676 2302  
                   l2668 228C                     l1990 1C80                     l1982 1C50  
                   l1974 180A                     l1966 17EE                     l1958 179E  
                   l1894 15A0                     l1886 156E                     l1878 1530  
                   l1798 13B4                     l2598 2440                     l1992 1C90  
                   l1984 1C5E                     l1976 180C                     l1968 17F4  
                   l1896 15AE                     l1994 1C92                     l1986 1C60  
                   l1898 15BA                     l1988 1C70                     l1996 1C98  
                   l1998 1CA8                     u2000 1F1C                     u2001 1F18  
                   u2010 1F64                     u2011 1F60                     u2020 1F94  
                   u2100 18F2                     u2021 1F90                     u2101 18EE  
                   u2030 1FC0                     u2110 1902                     u2031 1FBC  
                   u2111 18FE                     u2200 1BC0                     u2120 1A7C  
                   u2040 1838                     u2201 1BBC                     u2041 1834  
                   u2210 1BEE                     u2130 1AD6                     u2050 184A  
                   u2211 1BEA                     u2131 1AD2                     u2051 1846  
                   u2220 1C26                     u2140 1AF6                     u2060 185A  
                   u1500 1464                     u1420 1382                     u2300 2630  
                   u2221 1C22                     u2141 1AF2                     u2125 1A72  
                   u2061 1856                     u1501 1460                     u1421 137E  
                   _LATA 0F89                     u2150 1B06                     u2070 189A  
                   u2230 279A                     u1510 14D0                     u1430 1394  
                   u2310 0660                     u2151 1B02                     u2071 1896  
                   u2231 2796                     u1511 14CC                     u1431 1390  
                   u2311 065A                     u2160 1B34                     u2080 18AC  
                   u1600 15AE                     u1520 14E8                     u1440 13A4  
                   u2240 2584                     u2400 0910                     u2320 0662  
                   u2161 1B30                     u2081 18A8                     u1601 15AA  
                   u1521 14E2                     u1441 13A0                     u2401 090C  
                   u2170 1B4A                     u2090 18BC                     u1610 15CC  
                   u1530 14EA                     u1450 13E4                     u2250 25A2  
                   u2410 0BD8                     u2330 067C                     u2171 1B46  
                   u2091 18B8                     u1611 15C8                     u1451 13E0  
                   u2251 259E                     u2411 0BD4                     u2331 0678  
                   u2500 2780                     u2180 1B5E                     u1700 1708  
                   u1620 1604                     u1540 1512                     u1460 13FA  
                   u2260 25CA                     u2420 0DA6                     u2340 06A2  
                   u2501 277C                     u2181 1B5A                     u1701 1704  
                   u1621 1600                     u1541 150E                     u1461 13F6  
                   u2261 25C6                     u2245 257A                     u2421 0DA2  
                   u2341 069E                     u2430 284C                     u2190 1B78  
                   u1710 171E                     u1630 164A                     u1550 1530  
                   u1470 140C                     u2270 25F4                     u2350 070C  
                   u2510 0DD2                     u2431 2848                     u2191 1B74  
                   u1711 171A                     u1631 1646                     u1551 152C  
                   u1471 1408                     u2271 25F0                     u2351 0708  
                   u2511 0DCE                     u2440 2804                     u1800 180A  
                   u1720 1734                     u1640 1680                     u1560 1550  
                   u1480 141C                     u2360 075E                     u2600 0FF2  
                   u2520 0DF8                     u2441 2800                     u1801 1806  
                   u1721 1730                     u1641 167C                     u1561 154C  
                   u1481 1418                     u2361 075A                     u2601 0FEE  
                   u2521 0DF4                     u2450 2812                     u1810 1C5E  
                   u1730 1748                     u1650 1690                     u1570 155E  
                   u1490 1456                     u2290 262E                     u2370 0774  
                   u2610 1118                     u2530 0E6E                     u2451 280E  
                   u1811 1C5A                     u1731 1744                     u1651 168C  
                   u1571 155A                     u1491 1452                     u2291 2628  
                   u2371 0770                     u2611 1114                     u2531 0E6A  
                   u2460 283A                     u2700 20F0                     u1900 1DF8  
                   u1820 1C70                     u1740 1762                     u1660 16BC  
                   u1580 156E                     u2380 07BA                     u2620 1134  
                   u2540 0EB6                     u2461 2836                     u2701 20EC  
                   u1901 1DF4                     u1821 1C6C                     u1741 175E  
                   u1661 16B8                     u1581 156A                     u2285 2606  
                   u2381 07B6                     u2621 1130                     u2470 2758  
                   u2710 210E                     u1910 1E22                     u1830 1C80  
                   u1750 179C                     u1670 16CC                     u1590 15A0  
                   u2390 07D0                     u2630 1142                     u2550 0EE0  
                   u2471 2754                     u2711 210A                     u1911 1E1E  
                   u1831 1C7C                     u1751 1798                     u1671 16C8  
                   u1591 159C                     u2391 07CC                     u2631 113E  
                   u2480 276E                     u2720 211E                     u1920 1E46  
                   u1840 1CC2                     u1760 17AE                     u1680 16E8  
                   u2640 1178                     u2560 0F08                     u2800 253A  
                   u2481 2768                     u2721 211A                     u1921 1E42  
                   u1841 1CBE                     u1761 17AA                     u1681 16E4  
                   u2641 1174                     u2561 0F04                     u2545 0EAC  
                   u2801 2536                     u2730 212C                     u1930 1E5C  
                   u1850 1CD4                     u1770 17BE                     u1690 16F8  
                   u2650 11AE                     u2570 0F84                     u2810 22BE  
                   u2731 2128                     u1931 1E58                     u1851 1CD0  
                   u1771 17BA                     u1691 16F4                     u2651 11AA  
                   u2571 0F80                     u2555 0ED6                     u2811 22BA  
                   u2740 2166                     u2660 1FE6                     u1940 1E7A  
                   u1860 1CE4                     u1780 17DE                     u2580 0F92  
                   u2820 22F8                     u2741 2162                     u2661 1FE2  
                   u1941 1E76                     u1861 1CE0                     u1781 17DA  
                   u2581 0F8E                     u2821 22F4                     u2750 2174  
                   u2670 1FF4                     u1950 1E9A                     u1870 1D22  
                   u1790 17EE                     u2590 0FD6                     u2495 2770  
                   u2751 2170                     u2671 1FF0                     u1951 1E96  
                   u1871 1D1E                     u1791 17EA                     u2591 0FD2  
                   u2680 2050                     u1960 1EAA                     u1880 1D62  
                   u2760 246E                     u2681 204C                     u1961 1EA6  
                   u1881 1D5E                     u2761 246A                     u2690 20A6  
                   u1970 1ED8                     u1890 1DD6                     u2770 24AC  
                   u2691 20A2                     u1971 1ED4                     u1891 1DD2  
                   u2771 24A8                     u1980 1EEE                     u2780 24CA  
                   u1981 1EEA                     u2781 24C6                     u2837 2196  
                   u1990 1F02                     u2790 24EA                     u1991 1EFE  
                   u2791 24E6                     u2847 2308                     _RCEN 7E2B  
                   _main 2188         __end_of_I2C_Init 285C         __end_of_I2C_Read 2784  
       __end_of_I2C_Stop 283C             main@accX_low 00D0             main@accZ_low 00D2  
          ___fpclassifyf 2544                     prodh 0FF4                     prodl 0FF3  
                   start 0000          ___fldiv@new_exp 0049             ___param_bank 0000  
            _Calibration 2318          __end_of___fladd 181E                    ?_main 0001  
                  _ACKEN 7E2C                    _ACKDT 7E2D          __end_of___fldiv 1FD4  
       ?_calculate_angle 00C3          __end_of___flneg 27BC          __end_of___flmul 1C44  
        __end_of___flsub 2746                    _TRISA 0F92          _Calibration$842 0070  
                  _fabsf 27BC                    _atanf 063E                    _pi_lo 0635  
          main@accX_high 00CF        __end_of_I2C_Start 284E            main@accZ_high 00D1  
      __end_of_I2C_Write 2814                    tablat 0FF5                    status 0FD8  
         ?___fpclassifyf 0001          __initialization 2814             __end_of_main 2318  
                 ??_main 007C            __activetblptr 0002                   ?_fabsf 0051  
                 ?_atanf 0059                   _OSCCON 0FD3                   _SSPADD 0FC8  
                 _SSPBUF 0FC9         __end_of___xxtofl 2188                   ___flge 2440  
              ??___fladd 0030                ??___fldiv 0040                ??___flneg 0005  
              ??___flmul 0017                   _atan2f 0DAC                ??___flsub 0040  
                 _atanhi 0611                   _atanlo 0601                   fabsf@u 0055  
                 fabsf@x 0051                   clear_0 281A                   atanf@w 009D  
                 atanf@x 0059                   atanf@z 00A2                   isa$std 0001  
              ?_I2C_Init 0001                ?_I2C_Read 0001                ?_I2C_Stop 0001  
        ___fpclassifyf@e 0009          ___fpclassifyf@u 000B          ___fpclassifyf@x 0001  
           __mediumconst 0000                   tblptrh 0FF7                   tblptrl 0FF6  
                 tblptru 0FF8               ___flge@ff1 0001          ??___fpclassifyf 0005  
             ___flge@ff2 0005             ___xxtofl@arg 000B             ___xxtofl@exp 000A  
           ___xxtofl@val 0001               __accesstop 0080  __end_of__initialization 2820  
             ___flneg@f1 0001            ___rparam_used 0001           __pcstackCOMRAM 0001  
          __end_of_fabsf 27F0            __end_of_atanf 0DAC            __end_of_pi_lo 0639  
             __end_of_pi 063D               ??_I2C_Init 0001               ??_I2C_Read 0001  
             ??_I2C_Stop 0001          Calibration@accX 0074          Calibration@accZ 0076  
                ??_fabsf 0055                  ??_atanf 005D               _atan2f$843 00AA  
             _atan2f$844 00AE               _atan2f$845 00B2               __pbssBANK0 00D7  
           I2C_Read@data 0002             ?_Calibration 0001                  ?___flge 0001  
                ?_atan2f 005E      _calculate_angle$841 006E                ?___xxtofl 0001  
                _SSPCON1 0FC6                  _SSPCON2 0FC5                  _SSPSTAT 0FC7  
              _I2C_Start 283C                _I2C_Write 27F0                  __Hparam 0000  
                __Lparam 0000                  ___fladd 1368                  ___fldiv 1C44  
                ___flneg 2784                  ___flmul 181E                  ___flsub 2700  
           __psmallconst 0600                  __pcinit 2814                  __ramtop 0600  
                __ptext0 2188                  __ptext1 2642                  __ptext2 2440  
                __ptext3 284E                  __ptext4 2318                  __ptext5 0DAC  
                __ptext6 063E                  __ptext7 27BC                  __ptext8 2544  
                __ptext9 2700                  atan2f@m 00C2                  atan2f@x 0062  
                atan2f@y 005E                  atan2f@z 00B6               ??___xxtofl 0005  
                atanf@s1 008C                  atanf@s2 0090                  atanf@id 00A1  
                atanf@ix 00A6     end_of_initialization 2820            __Lmediumconst 0000  
             ?_I2C_Start 0001               ?_I2C_Write 0001                  postinc0 0FEE  
            ___fladd@grs 0037            ___xxtofl@sign 0009              ___fldiv@grs 004B  
            ___fldiv@rem 0044              ___flmul@grs 001C           __end_of___flge 2544  
         __end_of_atan2f 1368           __end_of_atanhi 0621           __end_of_atanlo 0611  
    start_initialization 2814              __end_of_aT0 0635              __end_of_aT1 0631  
            __end_of_aT2 062D              __end_of_aT3 0629              __end_of_aT4 0625  
   Calibration@accX_high 0078     Calibration@accZ_high 007A    __end_of___fpclassifyf 2642  
            ??_I2C_Start 0001        ??_calculate_angle 006E              ??_I2C_Write 0001  
               ??___flge 0009                 ??_atan2f 0066                ___fladd@a 002C  
              ___fladd@b 0028                ___fldiv@a 003C                ___fldiv@b 0038  
              ___flmul@a 0013                ___flmul@b 000F                ___flsub@a 003C  
              ___flsub@b 0038            __pcstackBANK0 0080                _atanf$850 0088  
              _atanf$846 0094                _atanf$847 0080                _atanf$848 0098  
              _atanf$849 0084              I2C_Read@ack 0001                 ?___fladd 0028  
               ?___fldiv 0038                 ?___flneg 0001                 ?___flmul 000F  
               ?___flsub 0038                fabsf@F465 00D7              __smallconst 0600  
               _I2C_Init 284E                 _I2C_Read 2746                 _I2C_Stop 282A  
              atanf@sign 009C                main@angle 00D3      Calibration@accX_low 0079  
    Calibration@accZ_low 007B                 __Hrparam 0000                 __Lrparam 0000  
          I2C_Write@data 0001       ___fpclassifyf@F465 00DB                 ___xxtofl 1FD4  
               _main$840 00C7          _calculate_angle 2642             _pitch_offset 00DF  
               __ptext10 1368                 __ptext11 2784                 __ptext12 181E  
               __ptext13 1C44                 __ptext14 1FD4                 __ptext15 27F0  
               __ptext16 282A                 __ptext17 283C                 __ptext18 2746  
               atan2f@ix 00BA                 atan2f@iy 00BE            ??_Calibration 006E  
               isa$xinst 0000                 main@accX 00CB                 main@accZ 00CD  
__end_of_calculate_angle 2700      __end_of_Calibration 2440              _SSPCON2bits 0FC5  
          ___fladd@signs 0034             ___fladd@aexp 0035             ___fladd@bexp 0036  
    calculate_angle@accX 00C3      calculate_angle@accZ 00C5  
